
donut.elf:     file format elf32-littleriscv


Disassembly of section .text:

30000000 <__text_start>:
30000000:	0100006f          	j	30000010 <start>
30000004:	00000013          	nop
30000008:	00000013          	nop
3000000c:	00000013          	nop

30000010 <start>:
30000010:	00007137          	lui	sp,0x7
30000014:	d4010113          	addi	sp,sp,-704 # 6d40 <stackPointer>
30000018:	ff010113          	addi	sp,sp,-16
3000001c:	00012023          	sw	zero,0(sp)
30000020:	00012223          	sw	zero,4(sp)
30000024:	00012423          	sw	zero,8(sp)
30000028:	00012623          	sw	zero,12(sp)
3000002c:	6dd0a0ef          	jal	ra,3000af08 <__data_rom_start>
30000030:	0000006f          	j	30000030 <start+0x20>
	...

30000040 <_Z7bspInitv>:
30000040:	ff010113          	addi	sp,sp,-16
30000044:	00812423          	sw	s0,8(sp)
30000048:	30011437          	lui	s0,0x30011
3000004c:	c0442703          	lw	a4,-1020(s0) # 30010c04 <bsp>
30000050:	0000f6b7          	lui	a3,0xf
30000054:	12368693          	addi	a3,a3,291 # f123 <stackPointer+0x83e3>
30000058:	01c72783          	lw	a5,28(a4)
3000005c:	01c72703          	lw	a4,28(a4)
30000060:	00112623          	sw	ra,12(sp)
30000064:	01079793          	slli	a5,a5,0x10
30000068:	00d74733          	xor	a4,a4,a3
3000006c:	00e7e7b3          	or	a5,a5,a4
30000070:	30011737          	lui	a4,0x30011
30000074:	bef72023          	sw	a5,-1056(a4) # 30010be0 <random_state>
30000078:	2d10a0ef          	jal	ra,3000ab48 <_Z11osAllocInitv>
3000007c:	00780637          	lui	a2,0x780
30000080:	00100693          	li	a3,1
30000084:	ff060613          	addi	a2,a2,-16 # 77fff0 <stackPointer+0x7792b0>
30000088:	200005b7          	lui	a1,0x20000
3000008c:	00000513          	li	a0,0
30000090:	2f90a0ef          	jal	ra,3000ab88 <_Z14osAllocAddNodemPvmm>
30000094:	c0442783          	lw	a5,-1020(s0)
30000098:	30013537          	lui	a0,0x30013
3000009c:	00200713          	li	a4,2
300000a0:	e6c50413          	addi	s0,a0,-404 # 30012e6c <con>
300000a4:	00e7a423          	sw	a4,8(a5)
300000a8:	000087b7          	lui	a5,0x8
300000ac:	00f42023          	sw	a5,0(s0)
300000b0:	001e07b7          	lui	a5,0x1e0
300000b4:	05078793          	addi	a5,a5,80 # 1e0050 <stackPointer+0x1d9310>
300000b8:	00f42223          	sw	a5,4(s0)
300000bc:	00f00793          	li	a5,15
300000c0:	00f40623          	sb	a5,12(s0)
300000c4:	000077b7          	lui	a5,0x7
300000c8:	d4078793          	addi	a5,a5,-704 # 6d40 <stackPointer>
300000cc:	00042423          	sw	zero,8(s0)
300000d0:	e6c50513          	addi	a0,a0,-404
300000d4:	00f42a23          	sw	a5,20(s0)
300000d8:	00042823          	sw	zero,16(s0)
300000dc:	6b5000ef          	jal	ra,30000f90 <_Z5toClsP15_tgfTextOverlay>
300000e0:	02800793          	li	a5,40
300000e4:	00f41223          	sh	a5,4(s0)
300000e8:	f8f00793          	li	a5,-113
300000ec:	00f40623          	sb	a5,12(s0)
300000f0:	00c12083          	lw	ra,12(sp)
300000f4:	00812403          	lw	s0,8(sp)
300000f8:	300137b7          	lui	a5,0x30013
300000fc:	3007a223          	sw	zero,772(a5) # 30013304 <bootLoaderEntry>
30000100:	00000513          	li	a0,0
30000104:	01010113          	addi	sp,sp,16
30000108:	00008067          	ret

3000010c <_Z12randomNumberv>:
3000010c:	30011737          	lui	a4,0x30011
30000110:	be072503          	lw	a0,-1056(a4) # 30010be0 <random_state>
30000114:	00d51793          	slli	a5,a0,0xd
30000118:	00a7c7b3          	xor	a5,a5,a0
3000011c:	0117d513          	srli	a0,a5,0x11
30000120:	00f547b3          	xor	a5,a0,a5
30000124:	00579513          	slli	a0,a5,0x5
30000128:	00f54533          	xor	a0,a0,a5
3000012c:	bea72023          	sw	a0,-1056(a4)
30000130:	00008067          	ret

30000134 <_Z8hexDigitPcc>:
30000134:	00f5f593          	andi	a1,a1,15
30000138:	00900713          	li	a4,9
3000013c:	05758793          	addi	a5,a1,87 # 20000057 <stackPointer+0x1fff9317>
30000140:	00b76463          	bltu	a4,a1,30000148 <_Z8hexDigitPcc+0x14>
30000144:	03058793          	addi	a5,a1,48
30000148:	000500a3          	sb	zero,1(a0)
3000014c:	00f50023          	sb	a5,0(a0)
30000150:	00008067          	ret

30000154 <_Z14itoaHex2DigitsiPc>:
30000154:	40455793          	srai	a5,a0,0x4
30000158:	00f7f793          	andi	a5,a5,15
3000015c:	00900693          	li	a3,9
30000160:	05778713          	addi	a4,a5,87
30000164:	00f6e463          	bltu	a3,a5,3000016c <_Z14itoaHex2DigitsiPc+0x18>
30000168:	03078713          	addi	a4,a5,48
3000016c:	00f57513          	andi	a0,a0,15
30000170:	00e58023          	sb	a4,0(a1)
30000174:	00900713          	li	a4,9
30000178:	05750793          	addi	a5,a0,87
3000017c:	00a76463          	bltu	a4,a0,30000184 <_Z14itoaHex2DigitsiPc+0x30>
30000180:	03050793          	addi	a5,a0,48
30000184:	00058123          	sb	zero,2(a1)
30000188:	00f580a3          	sb	a5,1(a1)
3000018c:	00008067          	ret

30000190 <_Z14itoaHex4DigitsiPc>:
30000190:	40c55793          	srai	a5,a0,0xc
30000194:	00f7f793          	andi	a5,a5,15
30000198:	00900693          	li	a3,9
3000019c:	05778713          	addi	a4,a5,87
300001a0:	00f6e463          	bltu	a3,a5,300001a8 <_Z14itoaHex4DigitsiPc+0x18>
300001a4:	03078713          	addi	a4,a5,48
300001a8:	40855793          	srai	a5,a0,0x8
300001ac:	00f7f793          	andi	a5,a5,15
300001b0:	00e58223          	sb	a4,4(a1)
300001b4:	00900693          	li	a3,9
300001b8:	05778713          	addi	a4,a5,87
300001bc:	00f6e463          	bltu	a3,a5,300001c4 <_Z14itoaHex4DigitsiPc+0x34>
300001c0:	03078713          	addi	a4,a5,48
300001c4:	40455793          	srai	a5,a0,0x4
300001c8:	00f7f793          	andi	a5,a5,15
300001cc:	00e582a3          	sb	a4,5(a1)
300001d0:	00900693          	li	a3,9
300001d4:	05778713          	addi	a4,a5,87
300001d8:	00f6e463          	bltu	a3,a5,300001e0 <_Z14itoaHex4DigitsiPc+0x50>
300001dc:	03078713          	addi	a4,a5,48
300001e0:	00f57513          	andi	a0,a0,15
300001e4:	00e58323          	sb	a4,6(a1)
300001e8:	00900713          	li	a4,9
300001ec:	05750793          	addi	a5,a0,87
300001f0:	00a76463          	bltu	a4,a0,300001f8 <_Z14itoaHex4DigitsiPc+0x68>
300001f4:	03050793          	addi	a5,a0,48
300001f8:	00058423          	sb	zero,8(a1)
300001fc:	00f583a3          	sb	a5,7(a1)
30000200:	00008067          	ret

30000204 <_Z14itoaHex8DigitsiPc>:
30000204:	01c55793          	srli	a5,a0,0x1c
30000208:	0ff7f693          	andi	a3,a5,255
3000020c:	00900613          	li	a2,9
30000210:	05768713          	addi	a4,a3,87
30000214:	00f66463          	bltu	a2,a5,3000021c <_Z14itoaHex8DigitsiPc+0x18>
30000218:	03068713          	addi	a4,a3,48
3000021c:	41855793          	srai	a5,a0,0x18
30000220:	00f7f793          	andi	a5,a5,15
30000224:	00e58023          	sb	a4,0(a1)
30000228:	00900693          	li	a3,9
3000022c:	05778713          	addi	a4,a5,87
30000230:	00f6e463          	bltu	a3,a5,30000238 <_Z14itoaHex8DigitsiPc+0x34>
30000234:	03078713          	addi	a4,a5,48
30000238:	41455793          	srai	a5,a0,0x14
3000023c:	00f7f793          	andi	a5,a5,15
30000240:	00e580a3          	sb	a4,1(a1)
30000244:	00900693          	li	a3,9
30000248:	05778713          	addi	a4,a5,87
3000024c:	00f6e463          	bltu	a3,a5,30000254 <_Z14itoaHex8DigitsiPc+0x50>
30000250:	03078713          	addi	a4,a5,48
30000254:	41055793          	srai	a5,a0,0x10
30000258:	00f7f793          	andi	a5,a5,15
3000025c:	00e58123          	sb	a4,2(a1)
30000260:	00900693          	li	a3,9
30000264:	05778713          	addi	a4,a5,87
30000268:	00f6e463          	bltu	a3,a5,30000270 <_Z14itoaHex8DigitsiPc+0x6c>
3000026c:	03078713          	addi	a4,a5,48
30000270:	40c55793          	srai	a5,a0,0xc
30000274:	00f7f793          	andi	a5,a5,15
30000278:	00e581a3          	sb	a4,3(a1)
3000027c:	00900693          	li	a3,9
30000280:	05778713          	addi	a4,a5,87
30000284:	00f6e463          	bltu	a3,a5,3000028c <_Z14itoaHex8DigitsiPc+0x88>
30000288:	03078713          	addi	a4,a5,48
3000028c:	40855793          	srai	a5,a0,0x8
30000290:	00f7f793          	andi	a5,a5,15
30000294:	00e58223          	sb	a4,4(a1)
30000298:	00900693          	li	a3,9
3000029c:	05778713          	addi	a4,a5,87
300002a0:	00f6e463          	bltu	a3,a5,300002a8 <_Z14itoaHex8DigitsiPc+0xa4>
300002a4:	03078713          	addi	a4,a5,48
300002a8:	40455793          	srai	a5,a0,0x4
300002ac:	00f7f793          	andi	a5,a5,15
300002b0:	00e582a3          	sb	a4,5(a1)
300002b4:	00900693          	li	a3,9
300002b8:	05778713          	addi	a4,a5,87
300002bc:	00f6e463          	bltu	a3,a5,300002c4 <_Z14itoaHex8DigitsiPc+0xc0>
300002c0:	03078713          	addi	a4,a5,48
300002c4:	00f57513          	andi	a0,a0,15
300002c8:	00e58323          	sb	a4,6(a1)
300002cc:	00900713          	li	a4,9
300002d0:	05750793          	addi	a5,a0,87
300002d4:	00a76463          	bltu	a4,a0,300002dc <_Z14itoaHex8DigitsiPc+0xd8>
300002d8:	03050793          	addi	a5,a0,48
300002dc:	00058423          	sb	zero,8(a1)
300002e0:	00f583a3          	sb	a5,7(a1)
300002e4:	00008067          	ret

300002e8 <_Z8getTicksv>:
300002e8:	300117b7          	lui	a5,0x30011
300002ec:	c047a783          	lw	a5,-1020(a5) # 30010c04 <bsp>
300002f0:	01c7a503          	lw	a0,28(a5)
300002f4:	00008067          	ret

300002f8 <_Z7delayMsm>:
300002f8:	300117b7          	lui	a5,0x30011
300002fc:	c047a703          	lw	a4,-1020(a5) # 30010c04 <bsp>
30000300:	01c72783          	lw	a5,28(a4)
30000304:	00a78533          	add	a0,a5,a0
30000308:	01c72783          	lw	a5,28(a4)
3000030c:	fea7eee3          	bltu	a5,a0,30000308 <_Z7delayMsm+0x10>
30000310:	00008067          	ret

30000314 <_Z12setVideoModem>:
30000314:	00457793          	andi	a5,a0,4
30000318:	30011737          	lui	a4,0x30011
3000031c:	c0472703          	lw	a4,-1020(a4) # 30010c04 <bsp>
30000320:	0017b793          	seqz	a5,a5
30000324:	40f007b3          	neg	a5,a5
30000328:	fd87f793          	andi	a5,a5,-40
3000032c:	05078793          	addi	a5,a5,80
30000330:	00a72423          	sw	a0,8(a4)
30000334:	30013737          	lui	a4,0x30013
30000338:	e6f71823          	sh	a5,-400(a4) # 30012e70 <con+0x4>
3000033c:	01057513          	andi	a0,a0,16
30000340:	300117b7          	lui	a5,0x30011
30000344:	be47a783          	lw	a5,-1052(a5) # 30010be4 <sdrdma>
30000348:	00050c63          	beqz	a0,30000360 <_Z12setVideoModem+0x4c>
3000034c:	0007a623          	sw	zero,12(a5)
30000350:	0c000713          	li	a4,192
30000354:	00e7a823          	sw	a4,16(a5)
30000358:	00000513          	li	a0,0
3000035c:	00008067          	ret
30000360:	06000713          	li	a4,96
30000364:	00e7a623          	sw	a4,12(a5)
30000368:	00e7a823          	sw	a4,16(a5)
3000036c:	00000513          	li	a0,0
30000370:	00008067          	ret

30000374 <_Z6rebootv>:
30000374:	300137b7          	lui	a5,0x30013
30000378:	3047a303          	lw	t1,772(a5) # 30013304 <bootLoaderEntry>
3000037c:	00030067          	jr	t1

30000380 <_Z7toPrintP15_tgfTextOverlayPc.part.1>:
30000380:	0005c683          	lbu	a3,0(a1)
30000384:	00a00313          	li	t1,10
30000388:	00158593          	addi	a1,a1,1
3000038c:	06069663          	bnez	a3,300003f8 <_Z7toPrintP15_tgfTextOverlayPc.part.1+0x78>
30000390:	1940006f          	j	30000524 <_Z7toPrintP15_tgfTextOverlayPc.part.1+0x1a4>
30000394:	00455703          	lhu	a4,4(a0)
30000398:	00855803          	lhu	a6,8(a0)
3000039c:	01452603          	lw	a2,20(a0)
300003a0:	02f707b3          	mul	a5,a4,a5
300003a4:	010787b3          	add	a5,a5,a6
300003a8:	00179793          	slli	a5,a5,0x1
300003ac:	00f60733          	add	a4,a2,a5
300003b0:	00d70023          	sb	a3,0(a4)
300003b4:	01452703          	lw	a4,20(a0)
300003b8:	00c54683          	lbu	a3,12(a0)
300003bc:	00f707b3          	add	a5,a4,a5
300003c0:	00d780a3          	sb	a3,1(a5)
300003c4:	00855783          	lhu	a5,8(a0)
300003c8:	00455703          	lhu	a4,4(a0)
300003cc:	00178793          	addi	a5,a5,1
300003d0:	01079793          	slli	a5,a5,0x10
300003d4:	0107d793          	srli	a5,a5,0x10
300003d8:	00f51423          	sh	a5,8(a0)
300003dc:	12e7f663          	bgeu	a5,a4,30000508 <_Z7toPrintP15_tgfTextOverlayPc.part.1+0x188>
300003e0:	00a55783          	lhu	a5,10(a0)
300003e4:	00655683          	lhu	a3,6(a0)
300003e8:	02d7fa63          	bgeu	a5,a3,3000041c <_Z7toPrintP15_tgfTextOverlayPc.part.1+0x9c>
300003ec:	00158593          	addi	a1,a1,1
300003f0:	fff5c683          	lbu	a3,-1(a1)
300003f4:	12068863          	beqz	a3,30000524 <_Z7toPrintP15_tgfTextOverlayPc.part.1+0x1a4>
300003f8:	00a55783          	lhu	a5,10(a0)
300003fc:	f8669ce3          	bne	a3,t1,30000394 <_Z7toPrintP15_tgfTextOverlayPc.part.1+0x14>
30000400:	00178793          	addi	a5,a5,1
30000404:	01079793          	slli	a5,a5,0x10
30000408:	00655683          	lhu	a3,6(a0)
3000040c:	0107d793          	srli	a5,a5,0x10
30000410:	00051423          	sh	zero,8(a0)
30000414:	00f51523          	sh	a5,10(a0)
30000418:	fcd7eae3          	bltu	a5,a3,300003ec <_Z7toPrintP15_tgfTextOverlayPc.part.1+0x6c>
3000041c:	fff68893          	addi	a7,a3,-1
30000420:	01151523          	sh	a7,10(a0)
30000424:	fc0684e3          	beqz	a3,300003ec <_Z7toPrintP15_tgfTextOverlayPc.part.1+0x6c>
30000428:	00455783          	lhu	a5,4(a0)
3000042c:	00000613          	li	a2,0
30000430:	02f60833          	mul	a6,a2,a5
30000434:	00181713          	slli	a4,a6,0x1
30000438:	09165663          	bge	a2,a7,300004c4 <_Z7toPrintP15_tgfTextOverlayPc.part.1+0x144>
3000043c:	06078463          	beqz	a5,300004a4 <_Z7toPrintP15_tgfTextOverlayPc.part.1+0x124>
30000440:	010787b3          	add	a5,a5,a6
30000444:	00179693          	slli	a3,a5,0x1
30000448:	00170e93          	addi	t4,a4,1
3000044c:	00000813          	li	a6,0
30000450:	40d70733          	sub	a4,a4,a3
30000454:	40de8eb3          	sub	t4,t4,a3
30000458:	01452783          	lw	a5,20(a0)
3000045c:	00168893          	addi	a7,a3,1
30000460:	00de8f33          	add	t5,t4,a3
30000464:	00d787b3          	add	a5,a5,a3
30000468:	0007ce03          	lbu	t3,0(a5)
3000046c:	00e787b3          	add	a5,a5,a4
30000470:	00180813          	addi	a6,a6,1
30000474:	01c78023          	sb	t3,0(a5)
30000478:	01452e03          	lw	t3,20(a0)
3000047c:	01081813          	slli	a6,a6,0x10
30000480:	01085813          	srli	a6,a6,0x10
30000484:	011e07b3          	add	a5,t3,a7
30000488:	0007c883          	lbu	a7,0(a5)
3000048c:	01ee0e33          	add	t3,t3,t5
30000490:	00268693          	addi	a3,a3,2
30000494:	011e0023          	sb	a7,0(t3)
30000498:	00455783          	lhu	a5,4(a0)
3000049c:	faf86ee3          	bltu	a6,a5,30000458 <_Z7toPrintP15_tgfTextOverlayPc.part.1+0xd8>
300004a0:	00655683          	lhu	a3,6(a0)
300004a4:	00160613          	addi	a2,a2,1
300004a8:	01061613          	slli	a2,a2,0x10
300004ac:	01065613          	srli	a2,a2,0x10
300004b0:	f2d67ee3          	bgeu	a2,a3,300003ec <_Z7toPrintP15_tgfTextOverlayPc.part.1+0x6c>
300004b4:	02f60833          	mul	a6,a2,a5
300004b8:	fff68893          	addi	a7,a3,-1
300004bc:	00181713          	slli	a4,a6,0x1
300004c0:	f7164ee3          	blt	a2,a7,3000043c <_Z7toPrintP15_tgfTextOverlayPc.part.1+0xbc>
300004c4:	fe0780e3          	beqz	a5,300004a4 <_Z7toPrintP15_tgfTextOverlayPc.part.1+0x124>
300004c8:	00000693          	li	a3,0
300004cc:	01452803          	lw	a6,20(a0)
300004d0:	00170893          	addi	a7,a4,1
300004d4:	00168693          	addi	a3,a3,1
300004d8:	00e80833          	add	a6,a6,a4
300004dc:	00080023          	sb	zero,0(a6)
300004e0:	01452783          	lw	a5,20(a0)
300004e4:	00c54803          	lbu	a6,12(a0)
300004e8:	01069693          	slli	a3,a3,0x10
300004ec:	011787b3          	add	a5,a5,a7
300004f0:	01078023          	sb	a6,0(a5)
300004f4:	00455783          	lhu	a5,4(a0)
300004f8:	0106d693          	srli	a3,a3,0x10
300004fc:	00270713          	addi	a4,a4,2
30000500:	fcf6e6e3          	bltu	a3,a5,300004cc <_Z7toPrintP15_tgfTextOverlayPc.part.1+0x14c>
30000504:	f9dff06f          	j	300004a0 <_Z7toPrintP15_tgfTextOverlayPc.part.1+0x120>
30000508:	00a55783          	lhu	a5,10(a0)
3000050c:	00051423          	sh	zero,8(a0)
30000510:	00178793          	addi	a5,a5,1
30000514:	01079793          	slli	a5,a5,0x10
30000518:	0107d793          	srli	a5,a5,0x10
3000051c:	00f51523          	sh	a5,10(a0)
30000520:	ec5ff06f          	j	300003e4 <_Z7toPrintP15_tgfTextOverlayPc.part.1+0x64>
30000524:	00000513          	li	a0,0
30000528:	00008067          	ret

3000052c <_Z12gfLoadFontFSP8_tgfFontPc>:
3000052c:	fc010113          	addi	sp,sp,-64
30000530:	02812c23          	sw	s0,56(sp)
30000534:	00100613          	li	a2,1
30000538:	00050413          	mv	s0,a0
3000053c:	00c10513          	addi	a0,sp,12
30000540:	02112e23          	sw	ra,60(sp)
30000544:	02912a23          	sw	s1,52(sp)
30000548:	03212823          	sw	s2,48(sp)
3000054c:	251020ef          	jal	ra,30002f9c <_Z7osFOpenP8_tosFilePcm>
30000550:	02050063          	beqz	a0,30000570 <_Z12gfLoadFontFSP8_tgfFontPc+0x44>
30000554:	03c12083          	lw	ra,60(sp)
30000558:	03812403          	lw	s0,56(sp)
3000055c:	03412483          	lw	s1,52(sp)
30000560:	03012903          	lw	s2,48(sp)
30000564:	00000513          	li	a0,0
30000568:	04010113          	addi	sp,sp,64
3000056c:	00008067          	ret
30000570:	00000693          	li	a3,0
30000574:	00200613          	li	a2,2
30000578:	00810593          	addi	a1,sp,8
3000057c:	00c10513          	addi	a0,sp,12
30000580:	2dd020ef          	jal	ra,3000305c <_Z7osFReadP8_tosFilePhmPm>
30000584:	00914783          	lbu	a5,9(sp)
30000588:	00814683          	lbu	a3,8(sp)
3000058c:	00400713          	li	a4,4
30000590:	00879793          	slli	a5,a5,0x8
30000594:	00d7e7b3          	or	a5,a5,a3
30000598:	01079793          	slli	a5,a5,0x10
3000059c:	4107d793          	srai	a5,a5,0x10
300005a0:	10e79663          	bne	a5,a4,300006ac <_Z12gfLoadFontFSP8_tgfFontPc+0x180>
300005a4:	00000693          	li	a3,0
300005a8:	00200613          	li	a2,2
300005ac:	00810593          	addi	a1,sp,8
300005b0:	00f41023          	sh	a5,0(s0)
300005b4:	00c10513          	addi	a0,sp,12
300005b8:	2a5020ef          	jal	ra,3000305c <_Z7osFReadP8_tosFilePhmPm>
300005bc:	00914783          	lbu	a5,9(sp)
300005c0:	00814703          	lbu	a4,8(sp)
300005c4:	00000693          	li	a3,0
300005c8:	00879793          	slli	a5,a5,0x8
300005cc:	00e7e7b3          	or	a5,a5,a4
300005d0:	00200613          	li	a2,2
300005d4:	00810593          	addi	a1,sp,8
300005d8:	00f41123          	sh	a5,2(s0)
300005dc:	00c10513          	addi	a0,sp,12
300005e0:	27d020ef          	jal	ra,3000305c <_Z7osFReadP8_tosFilePhmPm>
300005e4:	00914783          	lbu	a5,9(sp)
300005e8:	00814703          	lbu	a4,8(sp)
300005ec:	00000693          	li	a3,0
300005f0:	00879793          	slli	a5,a5,0x8
300005f4:	00e7e7b3          	or	a5,a5,a4
300005f8:	00200613          	li	a2,2
300005fc:	00810593          	addi	a1,sp,8
30000600:	00f41223          	sh	a5,4(s0)
30000604:	00c10513          	addi	a0,sp,12
30000608:	255020ef          	jal	ra,3000305c <_Z7osFReadP8_tosFilePhmPm>
3000060c:	00914783          	lbu	a5,9(sp)
30000610:	00814703          	lbu	a4,8(sp)
30000614:	00000693          	li	a3,0
30000618:	00879793          	slli	a5,a5,0x8
3000061c:	00e7e7b3          	or	a5,a5,a4
30000620:	00200613          	li	a2,2
30000624:	00810593          	addi	a1,sp,8
30000628:	00f41323          	sh	a5,6(s0)
3000062c:	00c10513          	addi	a0,sp,12
30000630:	22d020ef          	jal	ra,3000305c <_Z7osFReadP8_tosFilePhmPm>
30000634:	00914783          	lbu	a5,9(sp)
30000638:	00814703          	lbu	a4,8(sp)
3000063c:	00000693          	li	a3,0
30000640:	00879793          	slli	a5,a5,0x8
30000644:	00e7e7b3          	or	a5,a5,a4
30000648:	00200613          	li	a2,2
3000064c:	00810593          	addi	a1,sp,8
30000650:	00f41423          	sh	a5,8(s0)
30000654:	00c10513          	addi	a0,sp,12
30000658:	205020ef          	jal	ra,3000305c <_Z7osFReadP8_tosFilePhmPm>
3000065c:	00914783          	lbu	a5,9(sp)
30000660:	00814703          	lbu	a4,8(sp)
30000664:	00000693          	li	a3,0
30000668:	00879793          	slli	a5,a5,0x8
3000066c:	00e7e7b3          	or	a5,a5,a4
30000670:	00200613          	li	a2,2
30000674:	00810593          	addi	a1,sp,8
30000678:	00f41523          	sh	a5,10(s0)
3000067c:	00c10513          	addi	a0,sp,12
30000680:	1dd020ef          	jal	ra,3000305c <_Z7osFReadP8_tosFilePhmPm>
30000684:	00815783          	lhu	a5,8(sp)
30000688:	00000693          	li	a3,0
3000068c:	00400613          	li	a2,4
30000690:	00f41623          	sh	a5,12(s0)
30000694:	00810593          	addi	a1,sp,8
30000698:	00c10513          	addi	a0,sp,12
3000069c:	1c1020ef          	jal	ra,3000305c <_Z7osFReadP8_tosFilePhmPm>
300006a0:	00812703          	lw	a4,8(sp)
300006a4:	01600793          	li	a5,22
300006a8:	02f70463          	beq	a4,a5,300006d0 <_Z12gfLoadFontFSP8_tgfFontPc+0x1a4>
300006ac:	00c10513          	addi	a0,sp,12
300006b0:	145020ef          	jal	ra,30002ff4 <_Z8osFCloseP8_tosFile>
300006b4:	03c12083          	lw	ra,60(sp)
300006b8:	03812403          	lw	s0,56(sp)
300006bc:	03412483          	lw	s1,52(sp)
300006c0:	03012903          	lw	s2,48(sp)
300006c4:	00200513          	li	a0,2
300006c8:	04010113          	addi	sp,sp,64
300006cc:	00008067          	ret
300006d0:	00000693          	li	a3,0
300006d4:	00400613          	li	a2,4
300006d8:	00810593          	addi	a1,sp,8
300006dc:	00c10513          	addi	a0,sp,12
300006e0:	17d020ef          	jal	ra,3000305c <_Z7osFReadP8_tosFilePhmPm>
300006e4:	00100593          	li	a1,1
300006e8:	10000513          	li	a0,256
300006ec:	5640a0ef          	jal	ra,3000ac50 <_Z7osAllocmm>
300006f0:	00a42823          	sw	a0,16(s0)
300006f4:	00050023          	sb	zero,0(a0)
300006f8:	00100793          	li	a5,1
300006fc:	10000693          	li	a3,256
30000700:	01042703          	lw	a4,16(s0)
30000704:	00f70733          	add	a4,a4,a5
30000708:	00070023          	sb	zero,0(a4)
3000070c:	00178793          	addi	a5,a5,1
30000710:	fed798e3          	bne	a5,a3,30000700 <_Z12gfLoadFontFSP8_tgfFontPc+0x1d4>
30000714:	00c44483          	lbu	s1,12(s0)
30000718:	00d44783          	lbu	a5,13(s0)
3000071c:	0c97e663          	bltu	a5,s1,300007e8 <_Z12gfLoadFontFSP8_tgfFontPc+0x2bc>
30000720:	00000913          	li	s2,0
30000724:	00000693          	li	a3,0
30000728:	00100613          	li	a2,1
3000072c:	00810593          	addi	a1,sp,8
30000730:	00c10513          	addi	a0,sp,12
30000734:	129020ef          	jal	ra,3000305c <_Z7osFReadP8_tosFilePhmPm>
30000738:	00c44703          	lbu	a4,12(s0)
3000073c:	01042783          	lw	a5,16(s0)
30000740:	00814683          	lbu	a3,8(sp)
30000744:	40e48733          	sub	a4,s1,a4
30000748:	00e787b3          	add	a5,a5,a4
3000074c:	00d78023          	sb	a3,0(a5)
30000750:	00c44703          	lbu	a4,12(s0)
30000754:	01042783          	lw	a5,16(s0)
30000758:	00d44683          	lbu	a3,13(s0)
3000075c:	40e48733          	sub	a4,s1,a4
30000760:	00e787b3          	add	a5,a5,a4
30000764:	0007c783          	lbu	a5,0(a5)
30000768:	00148493          	addi	s1,s1,1
3000076c:	00f90933          	add	s2,s2,a5
30000770:	fa96dae3          	bge	a3,s1,30000724 <_Z12gfLoadFontFSP8_tgfFontPc+0x1f8>
30000774:	00645783          	lhu	a5,6(s0)
30000778:	00195913          	srli	s2,s2,0x1
3000077c:	00100593          	li	a1,1
30000780:	03278933          	mul	s2,a5,s2
30000784:	00000493          	li	s1,0
30000788:	00090513          	mv	a0,s2
3000078c:	4c40a0ef          	jal	ra,3000ac50 <_Z7osAllocmm>
30000790:	00a42a23          	sw	a0,20(s0)
30000794:	02090863          	beqz	s2,300007c4 <_Z12gfLoadFontFSP8_tgfFontPc+0x298>
30000798:	00000693          	li	a3,0
3000079c:	00100613          	li	a2,1
300007a0:	00810593          	addi	a1,sp,8
300007a4:	00c10513          	addi	a0,sp,12
300007a8:	0b5020ef          	jal	ra,3000305c <_Z7osFReadP8_tosFilePhmPm>
300007ac:	01442783          	lw	a5,20(s0)
300007b0:	00814703          	lbu	a4,8(sp)
300007b4:	009787b3          	add	a5,a5,s1
300007b8:	00e78023          	sb	a4,0(a5)
300007bc:	00148493          	addi	s1,s1,1
300007c0:	fc991ce3          	bne	s2,s1,30000798 <_Z12gfLoadFontFSP8_tgfFontPc+0x26c>
300007c4:	00c10513          	addi	a0,sp,12
300007c8:	02d020ef          	jal	ra,30002ff4 <_Z8osFCloseP8_tosFile>
300007cc:	03c12083          	lw	ra,60(sp)
300007d0:	03812403          	lw	s0,56(sp)
300007d4:	03412483          	lw	s1,52(sp)
300007d8:	03012903          	lw	s2,48(sp)
300007dc:	00000513          	li	a0,0
300007e0:	04010113          	addi	sp,sp,64
300007e4:	00008067          	ret
300007e8:	00100593          	li	a1,1
300007ec:	00000513          	li	a0,0
300007f0:	4600a0ef          	jal	ra,3000ac50 <_Z7osAllocmm>
300007f4:	00a42a23          	sw	a0,20(s0)
300007f8:	fcdff06f          	j	300007c4 <_Z12gfLoadFontFSP8_tgfFontPc+0x298>

300007fc <_Z9gfPutCharP10_tgfBitmapP8_tgfFontssc>:
300007fc:	fb010113          	addi	sp,sp,-80
30000800:	04112623          	sw	ra,76(sp)
30000804:	04812423          	sw	s0,72(sp)
30000808:	04912223          	sw	s1,68(sp)
3000080c:	05212023          	sw	s2,64(sp)
30000810:	03312e23          	sw	s3,60(sp)
30000814:	03412c23          	sw	s4,56(sp)
30000818:	03512a23          	sw	s5,52(sp)
3000081c:	03612823          	sw	s6,48(sp)
30000820:	03712623          	sw	s7,44(sp)
30000824:	03812423          	sw	s8,40(sp)
30000828:	03912223          	sw	s9,36(sp)
3000082c:	03a12023          	sw	s10,32(sp)
30000830:	01b12e23          	sw	s11,28(sp)
30000834:	00c5cb03          	lbu	s6,12(a1)
30000838:	00000793          	li	a5,0
3000083c:	1d676a63          	bltu	a4,s6,30000a10 <_Z9gfPutCharP10_tgfBitmapP8_tgfFontssc+0x214>
30000840:	00d5c803          	lbu	a6,13(a1)
30000844:	00000793          	li	a5,0
30000848:	1ce86463          	bltu	a6,a4,30000a10 <_Z9gfPutCharP10_tgfBitmapP8_tgfFontssc+0x214>
3000084c:	00060a93          	mv	s5,a2
30000850:	0005d603          	lhu	a2,0(a1)
30000854:	00058413          	mv	s0,a1
30000858:	00100593          	li	a1,1
3000085c:	00050493          	mv	s1,a0
30000860:	22b60a63          	beq	a2,a1,30000a94 <_Z9gfPutCharP10_tgfBitmapP8_tgfFontssc+0x298>
30000864:	00400593          	li	a1,4
30000868:	1ab61463          	bne	a2,a1,30000a10 <_Z9gfPutCharP10_tgfBitmapP8_tgfFontssc+0x214>
3000086c:	41670733          	sub	a4,a4,s6
30000870:	0ff77b13          	andi	s6,a4,255
30000874:	01042703          	lw	a4,16(s0)
30000878:	320b0c63          	beqz	s6,30000bb0 <_Z9gfPutCharP10_tgfBitmapP8_tgfFontssc+0x3b4>
3000087c:	01670833          	add	a6,a4,s6
30000880:	00000793          	li	a5,0
30000884:	00074603          	lbu	a2,0(a4)
30000888:	00170713          	addi	a4,a4,1
3000088c:	00167593          	andi	a1,a2,1
30000890:	00160513          	addi	a0,a2,1
30000894:	1e058a63          	beqz	a1,30000a88 <_Z9gfPutCharP10_tgfBitmapP8_tgfFontssc+0x28c>
30000898:	00a787b3          	add	a5,a5,a0
3000089c:	fee814e3          	bne	a6,a4,30000884 <_Z9gfPutCharP10_tgfBitmapP8_tgfFontssc+0x88>
300008a0:	0017d793          	srli	a5,a5,0x1
300008a4:	00645583          	lhu	a1,6(s0)
300008a8:	00084703          	lbu	a4,0(a6)
300008ac:	02f58633          	mul	a2,a1,a5
300008b0:	14058c63          	beqz	a1,30000a08 <_Z9gfPutCharP10_tgfBitmapP8_tgfFontssc+0x20c>
300008b4:	010a9c13          	slli	s8,s5,0x10
300008b8:	010c5c13          	srli	s8,s8,0x10
300008bc:	001c0793          	addi	a5,s8,1
300008c0:	01069a13          	slli	s4,a3,0x10
300008c4:	010a5a13          	srli	s4,s4,0x10
300008c8:	00f12223          	sw	a5,4(sp)
300008cc:	00100d93          	li	s11,1
300008d0:	001a8793          	addi	a5,s5,1
300008d4:	00f12423          	sw	a5,8(sp)
300008d8:	414d87b3          	sub	a5,s11,s4
300008dc:	0f000b93          	li	s7,240
300008e0:	00f12623          	sw	a5,12(sp)
300008e4:	10070263          	beqz	a4,300009e8 <_Z9gfPutCharP10_tgfBitmapP8_tgfFontssc+0x1ec>
300008e8:	010a1913          	slli	s2,s4,0x10
300008ec:	00000d93          	li	s11,0
300008f0:	41095913          	srai	s2,s2,0x10
300008f4:	01442703          	lw	a4,20(s0)
300008f8:	00245683          	lhu	a3,2(s0)
300008fc:	00160993          	addi	s3,a2,1
30000900:	00c70733          	add	a4,a4,a2
30000904:	0016f613          	andi	a2,a3,1
30000908:	00074d03          	lbu	s10,0(a4)
3000090c:	04061e63          	bnez	a2,30000968 <_Z9gfPutCharP10_tgfBitmapP8_tgfFontssc+0x16c>
30000910:	00412783          	lw	a5,4(sp)
30000914:	010d9713          	slli	a4,s11,0x10
30000918:	01075713          	srli	a4,a4,0x10
3000091c:	00f70633          	add	a2,a4,a5
30000920:	018705b3          	add	a1,a4,s8
30000924:	01061c93          	slli	s9,a2,0x10
30000928:	0026f713          	andi	a4,a3,2
3000092c:	01059593          	slli	a1,a1,0x10
30000930:	4105d593          	srai	a1,a1,0x10
30000934:	410cdc93          	srai	s9,s9,0x10
30000938:	00a45683          	lhu	a3,10(s0)
3000093c:	00090613          	mv	a2,s2
30000940:	10070863          	beqz	a4,30000a50 <_Z9gfPutCharP10_tgfBitmapP8_tgfFontssc+0x254>
30000944:	08000713          	li	a4,128
30000948:	00048513          	mv	a0,s1
3000094c:	355010ef          	jal	ra,300024a0 <_Z7gfPlotAP10_tgfBitmapssth>
30000950:	00a45683          	lhu	a3,10(s0)
30000954:	08000713          	li	a4,128
30000958:	00090613          	mv	a2,s2
3000095c:	000c8593          	mv	a1,s9
30000960:	00048513          	mv	a0,s1
30000964:	33d010ef          	jal	ra,300024a0 <_Z7gfPlotAP10_tgfBitmapssth>
30000968:	004d1c93          	slli	s9,s10,0x4
3000096c:	0f0d7713          	andi	a4,s10,240
30000970:	0f0cfd13          	andi	s10,s9,240
30000974:	02070263          	beqz	a4,30000998 <_Z9gfPutCharP10_tgfBitmapP8_tgfFontssc+0x19c>
30000978:	015d85b3          	add	a1,s11,s5
3000097c:	01059593          	slli	a1,a1,0x10
30000980:	4105d593          	srai	a1,a1,0x10
30000984:	00845683          	lhu	a3,8(s0)
30000988:	00090613          	mv	a2,s2
3000098c:	00048513          	mv	a0,s1
30000990:	0f770063          	beq	a4,s7,30000a70 <_Z9gfPutCharP10_tgfBitmapP8_tgfFontssc+0x274>
30000994:	30d010ef          	jal	ra,300024a0 <_Z7gfPlotAP10_tgfBitmapssth>
30000998:	020d0663          	beqz	s10,300009c4 <_Z9gfPutCharP10_tgfBitmapP8_tgfFontssc+0x1c8>
3000099c:	00812783          	lw	a5,8(sp)
300009a0:	00845683          	lhu	a3,8(s0)
300009a4:	01b785b3          	add	a1,a5,s11
300009a8:	01059593          	slli	a1,a1,0x10
300009ac:	4105d593          	srai	a1,a1,0x10
300009b0:	0d7d0463          	beq	s10,s7,30000a78 <_Z9gfPutCharP10_tgfBitmapP8_tgfFontssc+0x27c>
300009b4:	0f0cf713          	andi	a4,s9,240
300009b8:	00090613          	mv	a2,s2
300009bc:	00048513          	mv	a0,s1
300009c0:	2e1010ef          	jal	ra,300024a0 <_Z7gfPlotAP10_tgfBitmapssth>
300009c4:	01042703          	lw	a4,16(s0)
300009c8:	002d8793          	addi	a5,s11,2
300009cc:	01079d93          	slli	s11,a5,0x10
300009d0:	01670733          	add	a4,a4,s6
300009d4:	00074703          	lbu	a4,0(a4)
300009d8:	410ddd93          	srai	s11,s11,0x10
300009dc:	00098613          	mv	a2,s3
300009e0:	f0edcae3          	blt	s11,a4,300008f4 <_Z9gfPutCharP10_tgfBitmapP8_tgfFontssc+0xf8>
300009e4:	00645583          	lhu	a1,6(s0)
300009e8:	00c12783          	lw	a5,12(sp)
300009ec:	00fa07b3          	add	a5,s4,a5
300009f0:	01079793          	slli	a5,a5,0x10
300009f4:	001a0a13          	addi	s4,s4,1
300009f8:	010a1a13          	slli	s4,s4,0x10
300009fc:	4107d793          	srai	a5,a5,0x10
30000a00:	010a5a13          	srli	s4,s4,0x10
30000a04:	eeb7c0e3          	blt	a5,a1,300008e4 <_Z9gfPutCharP10_tgfBitmapP8_tgfFontssc+0xe8>
30000a08:	01071793          	slli	a5,a4,0x10
30000a0c:	4107d793          	srai	a5,a5,0x10
30000a10:	04c12083          	lw	ra,76(sp)
30000a14:	04812403          	lw	s0,72(sp)
30000a18:	04412483          	lw	s1,68(sp)
30000a1c:	04012903          	lw	s2,64(sp)
30000a20:	03c12983          	lw	s3,60(sp)
30000a24:	03812a03          	lw	s4,56(sp)
30000a28:	03412a83          	lw	s5,52(sp)
30000a2c:	03012b03          	lw	s6,48(sp)
30000a30:	02c12b83          	lw	s7,44(sp)
30000a34:	02812c03          	lw	s8,40(sp)
30000a38:	02412c83          	lw	s9,36(sp)
30000a3c:	02012d03          	lw	s10,32(sp)
30000a40:	01c12d83          	lw	s11,28(sp)
30000a44:	00078513          	mv	a0,a5
30000a48:	05010113          	addi	sp,sp,80
30000a4c:	00008067          	ret
30000a50:	00048513          	mv	a0,s1
30000a54:	1b9010ef          	jal	ra,3000240c <_Z6gfPlotP10_tgfBitmapsst>
30000a58:	00a45683          	lhu	a3,10(s0)
30000a5c:	00090613          	mv	a2,s2
30000a60:	000c8593          	mv	a1,s9
30000a64:	00048513          	mv	a0,s1
30000a68:	1a5010ef          	jal	ra,3000240c <_Z6gfPlotP10_tgfBitmapsst>
30000a6c:	efdff06f          	j	30000968 <_Z9gfPutCharP10_tgfBitmapP8_tgfFontssc+0x16c>
30000a70:	19d010ef          	jal	ra,3000240c <_Z6gfPlotP10_tgfBitmapsst>
30000a74:	f25ff06f          	j	30000998 <_Z9gfPutCharP10_tgfBitmapP8_tgfFontssc+0x19c>
30000a78:	00090613          	mv	a2,s2
30000a7c:	00048513          	mv	a0,s1
30000a80:	18d010ef          	jal	ra,3000240c <_Z6gfPlotP10_tgfBitmapsst>
30000a84:	f41ff06f          	j	300009c4 <_Z9gfPutCharP10_tgfBitmapP8_tgfFontssc+0x1c8>
30000a88:	00c787b3          	add	a5,a5,a2
30000a8c:	dee81ce3          	bne	a6,a4,30000884 <_Z9gfPutCharP10_tgfBitmapP8_tgfFontssc+0x88>
30000a90:	e11ff06f          	j	300008a0 <_Z9gfPutCharP10_tgfBitmapP8_tgfFontssc+0xa4>
30000a94:	00645603          	lhu	a2,6(s0)
30000a98:	41670733          	sub	a4,a4,s6
30000a9c:	0ff77713          	andi	a4,a4,255
30000aa0:	02c70733          	mul	a4,a4,a2
30000aa4:	01442b83          	lw	s7,20(s0)
30000aa8:	00445783          	lhu	a5,4(s0)
30000aac:	00eb8bb3          	add	s7,s7,a4
30000ab0:	0e060463          	beqz	a2,30000b98 <_Z9gfPutCharP10_tgfBitmapP8_tgfFontssc+0x39c>
30000ab4:	01069a13          	slli	s4,a3,0x10
30000ab8:	010a5a13          	srli	s4,s4,0x10
30000abc:	00100c13          	li	s8,1
30000ac0:	414c0c33          	sub	s8,s8,s4
30000ac4:	001b8b93          	addi	s7,s7,1
30000ac8:	fffbc983          	lbu	s3,-1(s7)
30000acc:	0a078863          	beqz	a5,30000b7c <_Z9gfPutCharP10_tgfBitmapP8_tgfFontssc+0x380>
30000ad0:	010a1b13          	slli	s6,s4,0x10
30000ad4:	00000913          	li	s2,0
30000ad8:	410b5b13          	srai	s6,s6,0x10
30000adc:	0580006f          	j	30000b34 <_Z9gfPutCharP10_tgfBitmapP8_tgfFontssc+0x338>
30000ae0:	00245703          	lhu	a4,2(s0)
30000ae4:	015905b3          	add	a1,s2,s5
30000ae8:	01059893          	slli	a7,a1,0x10
30000aec:	00177693          	andi	a3,a4,1
30000af0:	4108d893          	srai	a7,a7,0x10
30000af4:	00277813          	andi	a6,a4,2
30000af8:	02069263          	bnez	a3,30000b1c <_Z9gfPutCharP10_tgfBitmapP8_tgfFontssc+0x320>
30000afc:	000b0613          	mv	a2,s6
30000b00:	00088593          	mv	a1,a7
30000b04:	00048513          	mv	a0,s1
30000b08:	08000713          	li	a4,128
30000b0c:	00a45683          	lhu	a3,10(s0)
30000b10:	08080a63          	beqz	a6,30000ba4 <_Z9gfPutCharP10_tgfBitmapP8_tgfFontssc+0x3a8>
30000b14:	18d010ef          	jal	ra,300024a0 <_Z7gfPlotAP10_tgfBitmapssth>
30000b18:	00445783          	lhu	a5,4(s0)
30000b1c:	00190913          	addi	s2,s2,1
30000b20:	01091913          	slli	s2,s2,0x10
30000b24:	00199993          	slli	s3,s3,0x1
30000b28:	41095913          	srai	s2,s2,0x10
30000b2c:	0ff9f993          	andi	s3,s3,255
30000b30:	04f95463          	bge	s2,a5,30000b78 <_Z9gfPutCharP10_tgfBitmapP8_tgfFontssc+0x37c>
30000b34:	01899713          	slli	a4,s3,0x18
30000b38:	41875713          	srai	a4,a4,0x18
30000b3c:	fa0752e3          	bgez	a4,30000ae0 <_Z9gfPutCharP10_tgfBitmapP8_tgfFontssc+0x2e4>
30000b40:	012a85b3          	add	a1,s5,s2
30000b44:	00845683          	lhu	a3,8(s0)
30000b48:	01059593          	slli	a1,a1,0x10
30000b4c:	000b0613          	mv	a2,s6
30000b50:	4105d593          	srai	a1,a1,0x10
30000b54:	00048513          	mv	a0,s1
30000b58:	0b5010ef          	jal	ra,3000240c <_Z6gfPlotP10_tgfBitmapsst>
30000b5c:	00190913          	addi	s2,s2,1
30000b60:	00445783          	lhu	a5,4(s0)
30000b64:	01091913          	slli	s2,s2,0x10
30000b68:	00199993          	slli	s3,s3,0x1
30000b6c:	41095913          	srai	s2,s2,0x10
30000b70:	0ff9f993          	andi	s3,s3,255
30000b74:	fcf940e3          	blt	s2,a5,30000b34 <_Z9gfPutCharP10_tgfBitmapP8_tgfFontssc+0x338>
30000b78:	00645603          	lhu	a2,6(s0)
30000b7c:	018a0733          	add	a4,s4,s8
30000b80:	01071713          	slli	a4,a4,0x10
30000b84:	001a0a13          	addi	s4,s4,1
30000b88:	010a1a13          	slli	s4,s4,0x10
30000b8c:	41075713          	srai	a4,a4,0x10
30000b90:	010a5a13          	srli	s4,s4,0x10
30000b94:	f2c748e3          	blt	a4,a2,30000ac4 <_Z9gfPutCharP10_tgfBitmapP8_tgfFontssc+0x2c8>
30000b98:	01079793          	slli	a5,a5,0x10
30000b9c:	4107d793          	srai	a5,a5,0x10
30000ba0:	e71ff06f          	j	30000a10 <_Z9gfPutCharP10_tgfBitmapP8_tgfFontssc+0x214>
30000ba4:	069010ef          	jal	ra,3000240c <_Z6gfPlotP10_tgfBitmapsst>
30000ba8:	00445783          	lhu	a5,4(s0)
30000bac:	f71ff06f          	j	30000b1c <_Z9gfPutCharP10_tgfBitmapP8_tgfFontssc+0x320>
30000bb0:	00000793          	li	a5,0
30000bb4:	00070813          	mv	a6,a4
30000bb8:	cedff06f          	j	300008a4 <_Z9gfPutCharP10_tgfBitmapP8_tgfFontssc+0xa8>

30000bbc <_Z11gfPutStringP10_tgfBitmapP8_tgfFontssPc>:
30000bbc:	fe010113          	addi	sp,sp,-32
30000bc0:	01212823          	sw	s2,16(sp)
30000bc4:	00112e23          	sw	ra,28(sp)
30000bc8:	00812c23          	sw	s0,24(sp)
30000bcc:	00912a23          	sw	s1,20(sp)
30000bd0:	01312623          	sw	s3,12(sp)
30000bd4:	01412423          	sw	s4,8(sp)
30000bd8:	01512223          	sw	s5,4(sp)
30000bdc:	00070913          	mv	s2,a4
30000be0:	00074703          	lbu	a4,0(a4)
30000be4:	08070263          	beqz	a4,30000c68 <_Z11gfPutStringP10_tgfBitmapP8_tgfFontssPc+0xac>
30000be8:	00050993          	mv	s3,a0
30000bec:	00058a13          	mv	s4,a1
30000bf0:	00060413          	mv	s0,a2
30000bf4:	00068a93          	mv	s5,a3
30000bf8:	00190913          	addi	s2,s2,1
30000bfc:	00000493          	li	s1,0
30000c00:	00040613          	mv	a2,s0
30000c04:	000a8693          	mv	a3,s5
30000c08:	000a0593          	mv	a1,s4
30000c0c:	00098513          	mv	a0,s3
30000c10:	bedff0ef          	jal	ra,300007fc <_Z9gfPutCharP10_tgfBitmapP8_tgfFontssc>
30000c14:	00190913          	addi	s2,s2,1
30000c18:	01051513          	slli	a0,a0,0x10
30000c1c:	01055513          	srli	a0,a0,0x10
30000c20:	fff94703          	lbu	a4,-1(s2)
30000c24:	00850433          	add	s0,a0,s0
30000c28:	009504b3          	add	s1,a0,s1
30000c2c:	01041413          	slli	s0,s0,0x10
30000c30:	01049493          	slli	s1,s1,0x10
30000c34:	41045413          	srai	s0,s0,0x10
30000c38:	4104d493          	srai	s1,s1,0x10
30000c3c:	fc0712e3          	bnez	a4,30000c00 <_Z11gfPutStringP10_tgfBitmapP8_tgfFontssPc+0x44>
30000c40:	01c12083          	lw	ra,28(sp)
30000c44:	01812403          	lw	s0,24(sp)
30000c48:	00048513          	mv	a0,s1
30000c4c:	01012903          	lw	s2,16(sp)
30000c50:	01412483          	lw	s1,20(sp)
30000c54:	00c12983          	lw	s3,12(sp)
30000c58:	00812a03          	lw	s4,8(sp)
30000c5c:	00412a83          	lw	s5,4(sp)
30000c60:	02010113          	addi	sp,sp,32
30000c64:	00008067          	ret
30000c68:	00000493          	li	s1,0
30000c6c:	fd5ff06f          	j	30000c40 <_Z11gfPutStringP10_tgfBitmapP8_tgfFontssPc+0x84>

30000c70 <_Z17gfDrawTextOverlayP10_tgfBitmapP15_tgfTextOverlayss>:
30000c70:	0005d703          	lhu	a4,0(a1)
30000c74:	000087b7          	lui	a5,0x8
30000c78:	2cf70c63          	beq	a4,a5,30000f50 <_Z17gfDrawTextOverlayP10_tgfBitmapP15_tgfTextOverlayss+0x2e0>
30000c7c:	fb010113          	addi	sp,sp,-80
30000c80:	03a12023          	sw	s10,32(sp)
30000c84:	0105ad03          	lw	s10,16(a1)
30000c88:	0065d703          	lhu	a4,6(a1)
30000c8c:	04112623          	sw	ra,76(sp)
30000c90:	04812423          	sw	s0,72(sp)
30000c94:	04912223          	sw	s1,68(sp)
30000c98:	05212023          	sw	s2,64(sp)
30000c9c:	03312e23          	sw	s3,60(sp)
30000ca0:	03412c23          	sw	s4,56(sp)
30000ca4:	03512a23          	sw	s5,52(sp)
30000ca8:	03612823          	sw	s6,48(sp)
30000cac:	03712623          	sw	s7,44(sp)
30000cb0:	03812423          	sw	s8,40(sp)
30000cb4:	03912223          	sw	s9,36(sp)
30000cb8:	01b12e23          	sw	s11,28(sp)
30000cbc:	000d1123          	sh	zero,2(s10)
30000cc0:	18070863          	beqz	a4,30000e50 <_Z17gfDrawTextOverlayP10_tgfBitmapP15_tgfTextOverlayss+0x1e0>
30000cc4:	00058c93          	mv	s9,a1
30000cc8:	ffff8bb7          	lui	s7,0xffff8
30000ccc:	0045d583          	lhu	a1,4(a1)
30000cd0:	400b8793          	addi	a5,s7,1024 # ffff8400 <__bss_end__+0xcfef8400>
30000cd4:	00068993          	mv	s3,a3
30000cd8:	00060913          	mv	s2,a2
30000cdc:	00050493          	mv	s1,a0
30000ce0:	00008c37          	lui	s8,0x8
30000ce4:	00000413          	li	s0,0
30000ce8:	00000a13          	li	s4,0
30000cec:	00f12623          	sw	a5,12(sp)
30000cf0:	034587b3          	mul	a5,a1,s4
30000cf4:	014ca803          	lw	a6,20(s9)
30000cf8:	01041413          	slli	s0,s0,0x10
30000cfc:	01045413          	srli	s0,s0,0x10
30000d00:	00179793          	slli	a5,a5,0x1
30000d04:	00f80bb3          	add	s7,a6,a5
30000d08:	12058a63          	beqz	a1,30000e3c <_Z17gfDrawTextOverlayP10_tgfBitmapP15_tgfTextOverlayss+0x1cc>
30000d0c:	00000793          	li	a5,0
30000d10:	00000513          	li	a0,0
30000d14:	00700a93          	li	s5,7
30000d18:	410c0b13          	addi	s6,s8,1040 # 8410 <stackPointer+0x16d0>
30000d1c:	002cd683          	lhu	a3,2(s9)
30000d20:	000bc603          	lbu	a2,0(s7)
30000d24:	01079d93          	slli	s11,a5,0x10
30000d28:	002b8b93          	addi	s7,s7,2
30000d2c:	0016f693          	andi	a3,a3,1
30000d30:	fffbc703          	lbu	a4,-1(s7)
30000d34:	010ddd93          	srli	s11,s11,0x10
30000d38:	00068663          	beqz	a3,30000d44 <_Z17gfDrawTextOverlayP10_tgfBitmapP15_tgfTextOverlayss+0xd4>
30000d3c:	008cd783          	lhu	a5,8(s9)
30000d40:	14a78863          	beq	a5,a0,30000e90 <_Z17gfDrawTextOverlayP10_tgfBitmapP15_tgfTextOverlayss+0x220>
30000d44:	0e070063          	beqz	a4,30000e24 <_Z17gfDrawTextOverlayP10_tgfBitmapP15_tgfTextOverlayss+0x1b4>
30000d48:	40465513          	srai	a0,a2,0x4
30000d4c:	00867f93          	andi	t6,a2,8
30000d50:	00167f13          	andi	t5,a2,1
30000d54:	00267293          	andi	t0,a2,2
30000d58:	00857e93          	andi	t4,a0,8
30000d5c:	00467613          	andi	a2,a2,4
30000d60:	00157693          	andi	a3,a0,1
30000d64:	00257e13          	andi	t3,a0,2
30000d68:	00457593          	andi	a1,a0,4
30000d6c:	180f8863          	beqz	t6,30000efc <_Z17gfDrawTextOverlayP10_tgfBitmapP15_tgfTextOverlayss+0x28c>
30000d70:	41e00f33          	neg	t5,t5
30000d74:	005037b3          	snez	a5,t0
30000d78:	0fff7f13          	andi	t5,t5,255
30000d7c:	40f007b3          	neg	a5,a5
30000d80:	008f1f13          	slli	t5,t5,0x8
30000d84:	00c03633          	snez	a2,a2
30000d88:	7e07f793          	andi	a5,a5,2016
30000d8c:	800f7f13          	andi	t5,t5,-2048
30000d90:	40c00633          	neg	a2,a2
30000d94:	01e7e7b3          	or	a5,a5,t5
30000d98:	01f67613          	andi	a2,a2,31
30000d9c:	00c7e7b3          	or	a5,a5,a2
30000da0:	01079793          	slli	a5,a5,0x10
30000da4:	4107d793          	srai	a5,a5,0x10
30000da8:	00fd1423          	sh	a5,8(s10)
30000dac:	100e8a63          	beqz	t4,30000ec0 <_Z17gfDrawTextOverlayP10_tgfBitmapP15_tgfTextOverlayss+0x250>
30000db0:	40d006b3          	neg	a3,a3
30000db4:	01c037b3          	snez	a5,t3
30000db8:	0ff6f693          	andi	a3,a3,255
30000dbc:	40f007b3          	neg	a5,a5
30000dc0:	00869693          	slli	a3,a3,0x8
30000dc4:	00b035b3          	snez	a1,a1
30000dc8:	7e07f793          	andi	a5,a5,2016
30000dcc:	8006f693          	andi	a3,a3,-2048
30000dd0:	40b005b3          	neg	a1,a1
30000dd4:	01f5f593          	andi	a1,a1,31
30000dd8:	00d7e7b3          	or	a5,a5,a3
30000ddc:	00b7e7b3          	or	a5,a5,a1
30000de0:	00000593          	li	a1,0
30000de4:	006d5683          	lhu	a3,6(s10)
30000de8:	004d5603          	lhu	a2,4(s10)
30000dec:	00bd1123          	sh	a1,2(s10)
30000df0:	02d406b3          	mul	a3,s0,a3
30000df4:	000d0593          	mv	a1,s10
30000df8:	00fd1523          	sh	a5,10(s10)
30000dfc:	00048513          	mv	a0,s1
30000e00:	02cd8633          	mul	a2,s11,a2
30000e04:	013686b3          	add	a3,a3,s3
30000e08:	01069693          	slli	a3,a3,0x10
30000e0c:	4106d693          	srai	a3,a3,0x10
30000e10:	01260633          	add	a2,a2,s2
30000e14:	01061613          	slli	a2,a2,0x10
30000e18:	41065613          	srai	a2,a2,0x10
30000e1c:	9e1ff0ef          	jal	ra,300007fc <_Z9gfPutCharP10_tgfBitmapP8_tgfFontssc>
30000e20:	004cd583          	lhu	a1,4(s9)
30000e24:	001d8793          	addi	a5,s11,1
30000e28:	01079793          	slli	a5,a5,0x10
30000e2c:	4107d793          	srai	a5,a5,0x10
30000e30:	00078513          	mv	a0,a5
30000e34:	eeb7c4e3          	blt	a5,a1,30000d1c <_Z17gfDrawTextOverlayP10_tgfBitmapP15_tgfTextOverlayss+0xac>
30000e38:	006cd703          	lhu	a4,6(s9)
30000e3c:	00140413          	addi	s0,s0,1
30000e40:	01041413          	slli	s0,s0,0x10
30000e44:	41045413          	srai	s0,s0,0x10
30000e48:	00040a13          	mv	s4,s0
30000e4c:	eae442e3          	blt	s0,a4,30000cf0 <_Z17gfDrawTextOverlayP10_tgfBitmapP15_tgfTextOverlayss+0x80>
30000e50:	04c12083          	lw	ra,76(sp)
30000e54:	04812403          	lw	s0,72(sp)
30000e58:	04412483          	lw	s1,68(sp)
30000e5c:	04012903          	lw	s2,64(sp)
30000e60:	03c12983          	lw	s3,60(sp)
30000e64:	03812a03          	lw	s4,56(sp)
30000e68:	03412a83          	lw	s5,52(sp)
30000e6c:	03012b03          	lw	s6,48(sp)
30000e70:	02c12b83          	lw	s7,44(sp)
30000e74:	02812c03          	lw	s8,40(sp)
30000e78:	02412c83          	lw	s9,36(sp)
30000e7c:	02012d03          	lw	s10,32(sp)
30000e80:	01c12d83          	lw	s11,28(sp)
30000e84:	00000513          	li	a0,0
30000e88:	05010113          	addi	sp,sp,80
30000e8c:	00008067          	ret
30000e90:	00acd783          	lhu	a5,10(s9)
30000e94:	eb4798e3          	bne	a5,s4,30000d44 <_Z17gfDrawTextOverlayP10_tgfBitmapP15_tgfTextOverlayss+0xd4>
30000e98:	00400593          	li	a1,4
30000e9c:	00200e13          	li	t3,2
30000ea0:	00100693          	li	a3,1
30000ea4:	00800e93          	li	t4,8
30000ea8:	00f00513          	li	a0,15
30000eac:	00000793          	li	a5,0
30000eb0:	ee071ce3          	bnez	a4,30000da8 <_Z17gfDrawTextOverlayP10_tgfBitmapP15_tgfTextOverlayss+0x138>
30000eb4:	00fd1423          	sh	a5,8(s10)
30000eb8:	02000713          	li	a4,32
30000ebc:	ee0e9ae3          	bnez	t4,30000db0 <_Z17gfDrawTextOverlayP10_tgfBitmapP15_tgfTextOverlayss+0x140>
30000ec0:	06069463          	bnez	a3,30000f28 <_Z17gfDrawTextOverlayP10_tgfBitmapP15_tgfTextOverlayss+0x2b8>
30000ec4:	00000e93          	li	t4,0
30000ec8:	01000613          	li	a2,16
30000ecc:	40000693          	li	a3,1024
30000ed0:	41000793          	li	a5,1040
30000ed4:	000e1663          	bnez	t3,30000ee0 <_Z17gfDrawTextOverlayP10_tgfBitmapP15_tgfTextOverlayss+0x270>
30000ed8:	000e8693          	mv	a3,t4
30000edc:	00060793          	mv	a5,a2
30000ee0:	00059463          	bnez	a1,30000ee8 <_Z17gfDrawTextOverlayP10_tgfBitmapP15_tgfTextOverlayss+0x278>
30000ee4:	00068793          	mv	a5,a3
30000ee8:	00000593          	li	a1,0
30000eec:	ef551ce3          	bne	a0,s5,30000de4 <_Z17gfDrawTextOverlayP10_tgfBitmapP15_tgfTextOverlayss+0x174>
30000ef0:	00000793          	li	a5,0
30000ef4:	00200593          	li	a1,2
30000ef8:	eedff06f          	j	30000de4 <_Z17gfDrawTextOverlayP10_tgfBitmapP15_tgfTextOverlayss+0x174>
30000efc:	040f0263          	beqz	t5,30000f40 <_Z17gfDrawTextOverlayP10_tgfBitmapP15_tgfTextOverlayss+0x2d0>
30000f00:	00c12783          	lw	a5,12(sp)
30000f04:	ffff8f37          	lui	t5,0xffff8
30000f08:	00028c63          	beqz	t0,30000f20 <_Z17gfDrawTextOverlayP10_tgfBitmapP15_tgfTextOverlayss+0x2b0>
30000f0c:	e8060ee3          	beqz	a2,30000da8 <_Z17gfDrawTextOverlayP10_tgfBitmapP15_tgfTextOverlayss+0x138>
30000f10:	0107e793          	ori	a5,a5,16
30000f14:	01079793          	slli	a5,a5,0x10
30000f18:	4107d793          	srai	a5,a5,0x10
30000f1c:	e8dff06f          	j	30000da8 <_Z17gfDrawTextOverlayP10_tgfBitmapP15_tgfTextOverlayss+0x138>
30000f20:	000f0793          	mv	a5,t5
30000f24:	fe9ff06f          	j	30000f0c <_Z17gfDrawTextOverlayP10_tgfBitmapP15_tgfTextOverlayss+0x29c>
30000f28:	000087b7          	lui	a5,0x8
30000f2c:	01078613          	addi	a2,a5,16 # 8010 <stackPointer+0x12d0>
30000f30:	40078693          	addi	a3,a5,1024
30000f34:	00008eb7          	lui	t4,0x8
30000f38:	000b0793          	mv	a5,s6
30000f3c:	f99ff06f          	j	30000ed4 <_Z17gfDrawTextOverlayP10_tgfBitmapP15_tgfTextOverlayss+0x264>
30000f40:	40000793          	li	a5,1024
30000f44:	00000f13          	li	t5,0
30000f48:	fc0292e3          	bnez	t0,30000f0c <_Z17gfDrawTextOverlayP10_tgfBitmapP15_tgfTextOverlayss+0x29c>
30000f4c:	fd5ff06f          	j	30000f20 <_Z17gfDrawTextOverlayP10_tgfBitmapP15_tgfTextOverlayss+0x2b0>
30000f50:	00000513          	li	a0,0
30000f54:	00008067          	ret

30000f58 <_Z14toSetCursorPosP15_tgfTextOverlaytt>:
30000f58:	00050793          	mv	a5,a0
30000f5c:	02050663          	beqz	a0,30000f88 <_Z14toSetCursorPosP15_tgfTextOverlaytt+0x30>
30000f60:	00455703          	lhu	a4,4(a0)
30000f64:	00200513          	li	a0,2
30000f68:	02e5f263          	bgeu	a1,a4,30000f8c <_Z14toSetCursorPosP15_tgfTextOverlaytt+0x34>
30000f6c:	0067d703          	lhu	a4,6(a5)
30000f70:	00e67e63          	bgeu	a2,a4,30000f8c <_Z14toSetCursorPosP15_tgfTextOverlaytt+0x34>
30000f74:	01061613          	slli	a2,a2,0x10
30000f78:	00c5e5b3          	or	a1,a1,a2
30000f7c:	00b7a423          	sw	a1,8(a5)
30000f80:	00000513          	li	a0,0
30000f84:	00008067          	ret
30000f88:	00100513          	li	a0,1
30000f8c:	00008067          	ret

30000f90 <_Z5toClsP15_tgfTextOverlay>:
30000f90:	04050c63          	beqz	a0,30000fe8 <_Z5toClsP15_tgfTextOverlay+0x58>
30000f94:	00455783          	lhu	a5,4(a0)
30000f98:	00655703          	lhu	a4,6(a0)
30000f9c:	02e787b3          	mul	a5,a5,a4
30000fa0:	02078e63          	beqz	a5,30000fdc <_Z5toClsP15_tgfTextOverlay+0x4c>
30000fa4:	00000713          	li	a4,0
30000fa8:	01452783          	lw	a5,20(a0)
30000fac:	00c54683          	lbu	a3,12(a0)
30000fb0:	00e787b3          	add	a5,a5,a4
30000fb4:	00d780a3          	sb	a3,1(a5)
30000fb8:	01452783          	lw	a5,20(a0)
30000fbc:	00e787b3          	add	a5,a5,a4
30000fc0:	00078023          	sb	zero,0(a5)
30000fc4:	00455783          	lhu	a5,4(a0)
30000fc8:	00655683          	lhu	a3,6(a0)
30000fcc:	00270713          	addi	a4,a4,2
30000fd0:	02d787b3          	mul	a5,a5,a3
30000fd4:	00179793          	slli	a5,a5,0x1
30000fd8:	fcf768e3          	bltu	a4,a5,30000fa8 <_Z5toClsP15_tgfTextOverlay+0x18>
30000fdc:	00052423          	sw	zero,8(a0)
30000fe0:	00000513          	li	a0,0
30000fe4:	00008067          	ret
30000fe8:	00100513          	li	a0,1
30000fec:	00008067          	ret

30000ff0 <_Z10toScrollUpP15_tgfTextOverlay>:
30000ff0:	0e050463          	beqz	a0,300010d8 <_Z10toScrollUpP15_tgfTextOverlay+0xe8>
30000ff4:	00655683          	lhu	a3,6(a0)
30000ff8:	08068a63          	beqz	a3,3000108c <_Z10toScrollUpP15_tgfTextOverlay+0x9c>
30000ffc:	00455803          	lhu	a6,4(a0)
30001000:	00000313          	li	t1,0
30001004:	03030633          	mul	a2,t1,a6
30001008:	fff68713          	addi	a4,a3,-1
3000100c:	00161793          	slli	a5,a2,0x1
30001010:	08e35263          	bge	t1,a4,30001094 <_Z10toScrollUpP15_tgfTextOverlay+0xa4>
30001014:	06080463          	beqz	a6,3000107c <_Z10toScrollUpP15_tgfTextOverlay+0x8c>
30001018:	00c80633          	add	a2,a6,a2
3000101c:	00161613          	slli	a2,a2,0x1
30001020:	00178e13          	addi	t3,a5,1
30001024:	00000593          	li	a1,0
30001028:	40c786b3          	sub	a3,a5,a2
3000102c:	40ce0e33          	sub	t3,t3,a2
30001030:	01452783          	lw	a5,20(a0)
30001034:	00160713          	addi	a4,a2,1
30001038:	00ce08b3          	add	a7,t3,a2
3000103c:	00c787b3          	add	a5,a5,a2
30001040:	0007c803          	lbu	a6,0(a5)
30001044:	00d787b3          	add	a5,a5,a3
30001048:	00158593          	addi	a1,a1,1
3000104c:	01078023          	sb	a6,0(a5)
30001050:	01452803          	lw	a6,20(a0)
30001054:	01059593          	slli	a1,a1,0x10
30001058:	0105d593          	srli	a1,a1,0x10
3000105c:	00e807b3          	add	a5,a6,a4
30001060:	0007c703          	lbu	a4,0(a5)
30001064:	01180833          	add	a6,a6,a7
30001068:	00260613          	addi	a2,a2,2
3000106c:	00e80023          	sb	a4,0(a6)
30001070:	00455803          	lhu	a6,4(a0)
30001074:	fb05eee3          	bltu	a1,a6,30001030 <_Z10toScrollUpP15_tgfTextOverlay+0x40>
30001078:	00655683          	lhu	a3,6(a0)
3000107c:	00130313          	addi	t1,t1,1
30001080:	01031313          	slli	t1,t1,0x10
30001084:	01035313          	srli	t1,t1,0x10
30001088:	f6d36ee3          	bltu	t1,a3,30001004 <_Z10toScrollUpP15_tgfTextOverlay+0x14>
3000108c:	00000513          	li	a0,0
30001090:	00008067          	ret
30001094:	fe0804e3          	beqz	a6,3000107c <_Z10toScrollUpP15_tgfTextOverlay+0x8c>
30001098:	00000713          	li	a4,0
3000109c:	01452603          	lw	a2,20(a0)
300010a0:	00178593          	addi	a1,a5,1
300010a4:	00170713          	addi	a4,a4,1
300010a8:	00f60633          	add	a2,a2,a5
300010ac:	00060023          	sb	zero,0(a2)
300010b0:	01452683          	lw	a3,20(a0)
300010b4:	00c54603          	lbu	a2,12(a0)
300010b8:	01071713          	slli	a4,a4,0x10
300010bc:	00b686b3          	add	a3,a3,a1
300010c0:	00c68023          	sb	a2,0(a3)
300010c4:	00455803          	lhu	a6,4(a0)
300010c8:	01075713          	srli	a4,a4,0x10
300010cc:	00278793          	addi	a5,a5,2
300010d0:	fd0766e3          	bltu	a4,a6,3000109c <_Z10toScrollUpP15_tgfTextOverlay+0xac>
300010d4:	fa5ff06f          	j	30001078 <_Z10toScrollUpP15_tgfTextOverlay+0x88>
300010d8:	00100513          	li	a0,1
300010dc:	00008067          	ret

300010e0 <_Z7toPrintP15_tgfTextOverlayPc>:
300010e0:	00050463          	beqz	a0,300010e8 <_Z7toPrintP15_tgfTextOverlayPc+0x8>
300010e4:	a9cff06f          	j	30000380 <_Z7toPrintP15_tgfTextOverlayPc.part.1>
300010e8:	00100513          	li	a0,1
300010ec:	00008067          	ret

300010f0 <_Z8toPrintFP15_tgfTextOverlayPcz>:
300010f0:	f7010113          	addi	sp,sp,-144
300010f4:	05512a23          	sw	s5,84(sp)
300010f8:	08f12223          	sw	a5,132(sp)
300010fc:	30010ab7          	lui	s5,0x30010
30001100:	07810793          	addi	a5,sp,120
30001104:	00f12e23          	sw	a5,28(sp)
30001108:	0dca8793          	addi	a5,s5,220 # 300100dc <__clzsi2+0x1408>
3000110c:	06912223          	sw	s1,100(sp)
30001110:	07212023          	sw	s2,96(sp)
30001114:	05312e23          	sw	s3,92(sp)
30001118:	05412c23          	sw	s4,88(sp)
3000111c:	05612823          	sw	s6,80(sp)
30001120:	05712623          	sw	s7,76(sp)
30001124:	06112623          	sw	ra,108(sp)
30001128:	06812423          	sw	s0,104(sp)
3000112c:	05812423          	sw	s8,72(sp)
30001130:	05912223          	sw	s9,68(sp)
30001134:	05a12023          	sw	s10,64(sp)
30001138:	03b12e23          	sw	s11,60(sp)
3000113c:	00050493          	mv	s1,a0
30001140:	00058b13          	mv	s6,a1
30001144:	06c12c23          	sw	a2,120(sp)
30001148:	06d12e23          	sw	a3,124(sp)
3000114c:	08e12023          	sw	a4,128(sp)
30001150:	09012423          	sw	a6,136(sp)
30001154:	09112623          	sw	a7,140(sp)
30001158:	00010ca3          	sb	zero,25(sp)
3000115c:	02500a13          	li	s4,37
30001160:	03000b93          	li	s7,48
30001164:	00900913          	li	s2,9
30001168:	00f12623          	sw	a5,12(sp)
3000116c:	02010993          	addi	s3,sp,32
30001170:	000b4783          	lbu	a5,0(s6)
30001174:	001b0413          	addi	s0,s6,1
30001178:	02078663          	beqz	a5,300011a4 <_Z8toPrintFP15_tgfTextOverlayPcz+0xb4>
3000117c:	07478463          	beq	a5,s4,300011e4 <_Z8toPrintFP15_tgfTextOverlayPcz+0xf4>
30001180:	00f10c23          	sb	a5,24(sp)
30001184:	5a048063          	beqz	s1,30001724 <_Z8toPrintFP15_tgfTextOverlayPcz+0x634>
30001188:	01810593          	addi	a1,sp,24
3000118c:	00048513          	mv	a0,s1
30001190:	00040b13          	mv	s6,s0
30001194:	9ecff0ef          	jal	ra,30000380 <_Z7toPrintP15_tgfTextOverlayPc.part.1>
30001198:	000b4783          	lbu	a5,0(s6)
3000119c:	001b0413          	addi	s0,s6,1
300011a0:	fc079ee3          	bnez	a5,3000117c <_Z8toPrintFP15_tgfTextOverlayPcz+0x8c>
300011a4:	06c12083          	lw	ra,108(sp)
300011a8:	06812403          	lw	s0,104(sp)
300011ac:	06412483          	lw	s1,100(sp)
300011b0:	06012903          	lw	s2,96(sp)
300011b4:	05c12983          	lw	s3,92(sp)
300011b8:	05812a03          	lw	s4,88(sp)
300011bc:	05412a83          	lw	s5,84(sp)
300011c0:	05012b03          	lw	s6,80(sp)
300011c4:	04c12b83          	lw	s7,76(sp)
300011c8:	04812c03          	lw	s8,72(sp)
300011cc:	04412c83          	lw	s9,68(sp)
300011d0:	04012d03          	lw	s10,64(sp)
300011d4:	03c12d83          	lw	s11,60(sp)
300011d8:	00000513          	li	a0,0
300011dc:	09010113          	addi	sp,sp,144
300011e0:	00008067          	ret
300011e4:	001b4703          	lbu	a4,1(s6)
300011e8:	55770263          	beq	a4,s7,3000172c <_Z8toPrintFP15_tgfTextOverlayPcz+0x63c>
300011ec:	02d00793          	li	a5,45
300011f0:	56f70663          	beq	a4,a5,3000175c <_Z8toPrintFP15_tgfTextOverlayPcz+0x66c>
300011f4:	002b0b13          	addi	s6,s6,2
300011f8:	00000c93          	li	s9,0
300011fc:	00000593          	li	a1,0
30001200:	00400893          	li	a7,4
30001204:	00000513          	li	a0,0
30001208:	fd070793          	addi	a5,a4,-48
3000120c:	0ff7f793          	andi	a5,a5,255
30001210:	00000a93          	li	s5,0
30001214:	02f96663          	bltu	s2,a5,30001240 <_Z8toPrintFP15_tgfTextOverlayPcz+0x150>
30001218:	002a9793          	slli	a5,s5,0x2
3000121c:	015787b3          	add	a5,a5,s5
30001220:	00179793          	slli	a5,a5,0x1
30001224:	001b0b13          	addi	s6,s6,1
30001228:	00e787b3          	add	a5,a5,a4
3000122c:	fffb4703          	lbu	a4,-1(s6)
30001230:	fd078a93          	addi	s5,a5,-48
30001234:	fd070693          	addi	a3,a4,-48
30001238:	0ff6f693          	andi	a3,a3,255
3000123c:	fcd97ee3          	bgeu	s2,a3,30001218 <_Z8toPrintFP15_tgfTextOverlayPcz+0x128>
30001240:	0df77793          	andi	a5,a4,223
30001244:	04c00693          	li	a3,76
30001248:	00000813          	li	a6,0
3000124c:	04d78463          	beq	a5,a3,30001294 <_Z8toPrintFP15_tgfTextOverlayPcz+0x1a4>
30001250:	f4070ae3          	beqz	a4,300011a4 <_Z8toPrintFP15_tgfTextOverlayPcz+0xb4>
30001254:	f9f70793          	addi	a5,a4,-97
30001258:	0ff7f793          	andi	a5,a5,255
3000125c:	01900893          	li	a7,25
30001260:	00070693          	mv	a3,a4
30001264:	00f8e663          	bltu	a7,a5,30001270 <_Z8toPrintFP15_tgfTextOverlayPcz+0x180>
30001268:	fe070693          	addi	a3,a4,-32
3000126c:	0ff6f693          	andi	a3,a3,255
30001270:	fbe68793          	addi	a5,a3,-66
30001274:	0ff7f793          	andi	a5,a5,255
30001278:	01600893          	li	a7,22
3000127c:	48f8e863          	bltu	a7,a5,3000170c <_Z8toPrintFP15_tgfTextOverlayPcz+0x61c>
30001280:	00c12603          	lw	a2,12(sp)
30001284:	00279793          	slli	a5,a5,0x2
30001288:	00c787b3          	add	a5,a5,a2
3000128c:	0007a783          	lw	a5,0(a5)
30001290:	00078067          	jr	a5
30001294:	000b4703          	lbu	a4,0(s6)
30001298:	00088513          	mv	a0,a7
3000129c:	001b0b13          	addi	s6,s6,1
300012a0:	00400813          	li	a6,4
300012a4:	fadff06f          	j	30001250 <_Z8toPrintFP15_tgfTextOverlayPcz+0x160>
300012a8:	01c12e03          	lw	t3,28(sp)
300012ac:	00a00793          	li	a5,10
300012b0:	000e2f03          	lw	t5,0(t3)
300012b4:	004e0e93          	addi	t4,t3,4
300012b8:	42080c63          	beqz	a6,300016f0 <_Z8toPrintFP15_tgfTextOverlayPcz+0x600>
300012bc:	01d12e23          	sw	t4,28(sp)
300012c0:	04400813          	li	a6,68
300012c4:	000f0893          	mv	a7,t5
300012c8:	3f069263          	bne	a3,a6,300016ac <_Z8toPrintFP15_tgfTextOverlayPcz+0x5bc>
300012cc:	00000813          	li	a6,0
300012d0:	4e0f4663          	bltz	t5,300017bc <_Z8toPrintFP15_tgfTextOverlayPcz+0x6cc>
300012d4:	07800513          	li	a0,120
300012d8:	00700693          	li	a3,7
300012dc:	00a71463          	bne	a4,a0,300012e4 <_Z8toPrintFP15_tgfTextOverlayPcz+0x1f4>
300012e0:	02700693          	li	a3,39
300012e4:	02f8f533          	remu	a0,a7,a5
300012e8:	0ff6f713          	andi	a4,a3,255
300012ec:	02f8de33          	divu	t3,a7,a5
300012f0:	0ff57693          	andi	a3,a0,255
300012f4:	00a97663          	bgeu	s2,a0,30001300 <_Z8toPrintFP15_tgfTextOverlayPcz+0x210>
300012f8:	00d706b3          	add	a3,a4,a3
300012fc:	0ff6f693          	andi	a3,a3,255
30001300:	03068693          	addi	a3,a3,48
30001304:	02d10023          	sb	a3,32(sp)
30001308:	6ef8e263          	bltu	a7,a5,300019ec <_Z8toPrintFP15_tgfTextOverlayPcz+0x8fc>
3000130c:	02fe7533          	remu	a0,t3,a5
30001310:	02fe58b3          	divu	a7,t3,a5
30001314:	0ff57693          	andi	a3,a0,255
30001318:	00a97663          	bgeu	s2,a0,30001324 <_Z8toPrintFP15_tgfTextOverlayPcz+0x234>
3000131c:	00e686b3          	add	a3,a3,a4
30001320:	0ff6f693          	andi	a3,a3,255
30001324:	03068693          	addi	a3,a3,48
30001328:	02d100a3          	sb	a3,33(sp)
3000132c:	68fe6063          	bltu	t3,a5,300019ac <_Z8toPrintFP15_tgfTextOverlayPcz+0x8bc>
30001330:	02f8f533          	remu	a0,a7,a5
30001334:	02f8de33          	divu	t3,a7,a5
30001338:	0ff57693          	andi	a3,a0,255
3000133c:	00a97663          	bgeu	s2,a0,30001348 <_Z8toPrintFP15_tgfTextOverlayPcz+0x258>
30001340:	00e686b3          	add	a3,a3,a4
30001344:	0ff6f693          	andi	a3,a3,255
30001348:	03068693          	addi	a3,a3,48
3000134c:	02d10123          	sb	a3,34(sp)
30001350:	66f8e463          	bltu	a7,a5,300019b8 <_Z8toPrintFP15_tgfTextOverlayPcz+0x8c8>
30001354:	02fe7533          	remu	a0,t3,a5
30001358:	02fe58b3          	divu	a7,t3,a5
3000135c:	0ff57693          	andi	a3,a0,255
30001360:	00a97663          	bgeu	s2,a0,3000136c <_Z8toPrintFP15_tgfTextOverlayPcz+0x27c>
30001364:	00e686b3          	add	a3,a3,a4
30001368:	0ff6f693          	andi	a3,a3,255
3000136c:	03068693          	addi	a3,a3,48
30001370:	02d101a3          	sb	a3,35(sp)
30001374:	64fe6863          	bltu	t3,a5,300019c4 <_Z8toPrintFP15_tgfTextOverlayPcz+0x8d4>
30001378:	02f8f533          	remu	a0,a7,a5
3000137c:	02f8de33          	divu	t3,a7,a5
30001380:	0ff57693          	andi	a3,a0,255
30001384:	00a97663          	bgeu	s2,a0,30001390 <_Z8toPrintFP15_tgfTextOverlayPcz+0x2a0>
30001388:	00e686b3          	add	a3,a3,a4
3000138c:	0ff6f693          	andi	a3,a3,255
30001390:	03068693          	addi	a3,a3,48
30001394:	02d10223          	sb	a3,36(sp)
30001398:	64f8e463          	bltu	a7,a5,300019e0 <_Z8toPrintFP15_tgfTextOverlayPcz+0x8f0>
3000139c:	02fe7533          	remu	a0,t3,a5
300013a0:	02fe58b3          	divu	a7,t3,a5
300013a4:	0ff57693          	andi	a3,a0,255
300013a8:	00a97663          	bgeu	s2,a0,300013b4 <_Z8toPrintFP15_tgfTextOverlayPcz+0x2c4>
300013ac:	00e686b3          	add	a3,a3,a4
300013b0:	0ff6f693          	andi	a3,a3,255
300013b4:	03068693          	addi	a3,a3,48
300013b8:	02d102a3          	sb	a3,37(sp)
300013bc:	62fe6e63          	bltu	t3,a5,300019f8 <_Z8toPrintFP15_tgfTextOverlayPcz+0x908>
300013c0:	02f8f533          	remu	a0,a7,a5
300013c4:	02f8de33          	divu	t3,a7,a5
300013c8:	0ff57693          	andi	a3,a0,255
300013cc:	00a97663          	bgeu	s2,a0,300013d8 <_Z8toPrintFP15_tgfTextOverlayPcz+0x2e8>
300013d0:	00e686b3          	add	a3,a3,a4
300013d4:	0ff6f693          	andi	a3,a3,255
300013d8:	03068693          	addi	a3,a3,48
300013dc:	02d10323          	sb	a3,38(sp)
300013e0:	62f8e263          	bltu	a7,a5,30001a04 <_Z8toPrintFP15_tgfTextOverlayPcz+0x914>
300013e4:	02fe7533          	remu	a0,t3,a5
300013e8:	02fe58b3          	divu	a7,t3,a5
300013ec:	0ff57693          	andi	a3,a0,255
300013f0:	00a97663          	bgeu	s2,a0,300013fc <_Z8toPrintFP15_tgfTextOverlayPcz+0x30c>
300013f4:	00e686b3          	add	a3,a3,a4
300013f8:	0ff6f693          	andi	a3,a3,255
300013fc:	03068693          	addi	a3,a3,48
30001400:	02d103a3          	sb	a3,39(sp)
30001404:	60fe6663          	bltu	t3,a5,30001a10 <_Z8toPrintFP15_tgfTextOverlayPcz+0x920>
30001408:	02f8f533          	remu	a0,a7,a5
3000140c:	02f8de33          	divu	t3,a7,a5
30001410:	0ff57693          	andi	a3,a0,255
30001414:	00a97663          	bgeu	s2,a0,30001420 <_Z8toPrintFP15_tgfTextOverlayPcz+0x330>
30001418:	00e686b3          	add	a3,a3,a4
3000141c:	0ff6f693          	andi	a3,a3,255
30001420:	03068693          	addi	a3,a3,48
30001424:	02d10423          	sb	a3,40(sp)
30001428:	5ef8ea63          	bltu	a7,a5,30001a1c <_Z8toPrintFP15_tgfTextOverlayPcz+0x92c>
3000142c:	02fe7533          	remu	a0,t3,a5
30001430:	02fe58b3          	divu	a7,t3,a5
30001434:	0ff57693          	andi	a3,a0,255
30001438:	00a97663          	bgeu	s2,a0,30001444 <_Z8toPrintFP15_tgfTextOverlayPcz+0x354>
3000143c:	00e686b3          	add	a3,a3,a4
30001440:	0ff6f693          	andi	a3,a3,255
30001444:	03068693          	addi	a3,a3,48
30001448:	02d104a3          	sb	a3,41(sp)
3000144c:	5cfe6e63          	bltu	t3,a5,30001a28 <_Z8toPrintFP15_tgfTextOverlayPcz+0x938>
30001450:	02f8f533          	remu	a0,a7,a5
30001454:	02f8de33          	divu	t3,a7,a5
30001458:	0ff57693          	andi	a3,a0,255
3000145c:	00a97663          	bgeu	s2,a0,30001468 <_Z8toPrintFP15_tgfTextOverlayPcz+0x378>
30001460:	00e686b3          	add	a3,a3,a4
30001464:	0ff6f693          	andi	a3,a3,255
30001468:	03068693          	addi	a3,a3,48
3000146c:	02d10523          	sb	a3,42(sp)
30001470:	5cf8e263          	bltu	a7,a5,30001a34 <_Z8toPrintFP15_tgfTextOverlayPcz+0x944>
30001474:	02fe7533          	remu	a0,t3,a5
30001478:	02fe58b3          	divu	a7,t3,a5
3000147c:	0ff57693          	andi	a3,a0,255
30001480:	00a97663          	bgeu	s2,a0,3000148c <_Z8toPrintFP15_tgfTextOverlayPcz+0x39c>
30001484:	00e686b3          	add	a3,a3,a4
30001488:	0ff6f693          	andi	a3,a3,255
3000148c:	03068693          	addi	a3,a3,48
30001490:	02d105a3          	sb	a3,43(sp)
30001494:	5afe6663          	bltu	t3,a5,30001a40 <_Z8toPrintFP15_tgfTextOverlayPcz+0x950>
30001498:	02f8f533          	remu	a0,a7,a5
3000149c:	02f8de33          	divu	t3,a7,a5
300014a0:	0ff57693          	andi	a3,a0,255
300014a4:	00a97663          	bgeu	s2,a0,300014b0 <_Z8toPrintFP15_tgfTextOverlayPcz+0x3c0>
300014a8:	00e686b3          	add	a3,a3,a4
300014ac:	0ff6f693          	andi	a3,a3,255
300014b0:	03068693          	addi	a3,a3,48
300014b4:	02d10623          	sb	a3,44(sp)
300014b8:	58f8ea63          	bltu	a7,a5,30001a4c <_Z8toPrintFP15_tgfTextOverlayPcz+0x95c>
300014bc:	02fe7533          	remu	a0,t3,a5
300014c0:	02fe5eb3          	divu	t4,t3,a5
300014c4:	0ff57693          	andi	a3,a0,255
300014c8:	2aa96863          	bltu	s2,a0,30001778 <_Z8toPrintFP15_tgfTextOverlayPcz+0x688>
300014cc:	03068693          	addi	a3,a3,48
300014d0:	02d106a3          	sb	a3,45(sp)
300014d4:	58fe6263          	bltu	t3,a5,30001a58 <_Z8toPrintFP15_tgfTextOverlayPcz+0x968>
300014d8:	02fef533          	remu	a0,t4,a5
300014dc:	02fed8b3          	divu	a7,t4,a5
300014e0:	0ff57693          	andi	a3,a0,255
300014e4:	2aa96063          	bltu	s2,a0,30001784 <_Z8toPrintFP15_tgfTextOverlayPcz+0x694>
300014e8:	03068693          	addi	a3,a3,48
300014ec:	02d10723          	sb	a3,46(sp)
300014f0:	56feea63          	bltu	t4,a5,30001a64 <_Z8toPrintFP15_tgfTextOverlayPcz+0x974>
300014f4:	02f8f7b3          	remu	a5,a7,a5
300014f8:	0ff7f693          	andi	a3,a5,255
300014fc:	00f97663          	bgeu	s2,a5,30001508 <_Z8toPrintFP15_tgfTextOverlayPcz+0x418>
30001500:	00e686b3          	add	a3,a3,a4
30001504:	0ff6f693          	andi	a3,a3,255
30001508:	03068693          	addi	a3,a3,48
3000150c:	02d107a3          	sb	a3,47(sp)
30001510:	01000c13          	li	s8,16
30001514:	00f00793          	li	a5,15
30001518:	00080c63          	beqz	a6,30001530 <_Z8toPrintFP15_tgfTextOverlayPcz+0x440>
3000151c:	03010713          	addi	a4,sp,48
30001520:	01870c33          	add	s8,a4,s8
30001524:	02d00713          	li	a4,45
30001528:	feec0823          	sb	a4,-16(s8)
3000152c:	00278c13          	addi	s8,a5,2
30001530:	fffc8c93          	addi	s9,s9,-1
30001534:	ff0cfc93          	andi	s9,s9,-16
30001538:	030c8c93          	addi	s9,s9,48
3000153c:	20059663          	bnez	a1,30001748 <_Z8toPrintFP15_tgfTextOverlayPcz+0x658>
30001540:	2a048063          	beqz	s1,300017e0 <_Z8toPrintFP15_tgfTextOverlayPcz+0x6f0>
30001544:	001c0d13          	addi	s10,s8,1
30001548:	002c0413          	addi	s0,s8,2
3000154c:	035c7663          	bgeu	s8,s5,30001578 <_Z8toPrintFP15_tgfTextOverlayPcz+0x488>
30001550:	002c0d13          	addi	s10,s8,2
30001554:	002a8d93          	addi	s11,s5,2
30001558:	0080006f          	j	30001560 <_Z8toPrintFP15_tgfTextOverlayPcz+0x470>
3000155c:	00040d13          	mv	s10,s0
30001560:	001d0413          	addi	s0,s10,1
30001564:	01810593          	addi	a1,sp,24
30001568:	00048513          	mv	a0,s1
3000156c:	01910c23          	sb	s9,24(sp)
30001570:	e11fe0ef          	jal	ra,30000380 <_Z7toPrintP15_tgfTextOverlayPc.part.1>
30001574:	fe8d94e3          	bne	s11,s0,3000155c <_Z8toPrintFP15_tgfTextOverlayPcz+0x46c>
30001578:	01898c33          	add	s8,s3,s8
3000157c:	fffc4783          	lbu	a5,-1(s8)
30001580:	01810593          	addi	a1,sp,24
30001584:	fffc0c13          	addi	s8,s8,-1
30001588:	00048513          	mv	a0,s1
3000158c:	00f10c23          	sb	a5,24(sp)
30001590:	df1fe0ef          	jal	ra,30000380 <_Z7toPrintP15_tgfTextOverlayPc.part.1>
30001594:	ff8994e3          	bne	s3,s8,3000157c <_Z8toPrintFP15_tgfTextOverlayPcz+0x48c>
30001598:	015d6663          	bltu	s10,s5,300015a4 <_Z8toPrintFP15_tgfTextOverlayPcz+0x4b4>
3000159c:	bd5ff06f          	j	30001170 <_Z8toPrintFP15_tgfTextOverlayPcz+0x80>
300015a0:	00078413          	mv	s0,a5
300015a4:	01810593          	addi	a1,sp,24
300015a8:	00048513          	mv	a0,s1
300015ac:	01910c23          	sb	s9,24(sp)
300015b0:	dd1fe0ef          	jal	ra,30000380 <_Z7toPrintP15_tgfTextOverlayPc.part.1>
300015b4:	00140793          	addi	a5,s0,1
300015b8:	fe8a94e3          	bne	s5,s0,300015a0 <_Z8toPrintFP15_tgfTextOverlayPcz+0x4b0>
300015bc:	bb5ff06f          	j	30001170 <_Z8toPrintFP15_tgfTextOverlayPcz+0x80>
300015c0:	01c12783          	lw	a5,28(sp)
300015c4:	0007a703          	lw	a4,0(a5)
300015c8:	00478793          	addi	a5,a5,4
300015cc:	00f12e23          	sw	a5,28(sp)
300015d0:	00e10c23          	sb	a4,24(sp)
300015d4:	b8048ee3          	beqz	s1,30001170 <_Z8toPrintFP15_tgfTextOverlayPcz+0x80>
300015d8:	01810593          	addi	a1,sp,24
300015dc:	00048513          	mv	a0,s1
300015e0:	da1fe0ef          	jal	ra,30000380 <_Z7toPrintP15_tgfTextOverlayPc.part.1>
300015e4:	b8dff06f          	j	30001170 <_Z8toPrintFP15_tgfTextOverlayPcz+0x80>
300015e8:	01c12e03          	lw	t3,28(sp)
300015ec:	01000793          	li	a5,16
300015f0:	000e2883          	lw	a7,0(t3)
300015f4:	004e0e93          	addi	t4,t3,4
300015f8:	1c081c63          	bnez	a6,300017d0 <_Z8toPrintFP15_tgfTextOverlayPcz+0x6e0>
300015fc:	01d12e23          	sw	t4,28(sp)
30001600:	000e2883          	lw	a7,0(t3)
30001604:	00000813          	li	a6,0
30001608:	ccdff06f          	j	300012d4 <_Z8toPrintFP15_tgfTextOverlayPcz+0x1e4>
3000160c:	01c12783          	lw	a5,28(sp)
30001610:	00000c13          	li	s8,0
30001614:	0007a403          	lw	s0,0(a5)
30001618:	00478793          	addi	a5,a5,4
3000161c:	00f12e23          	sw	a5,28(sp)
30001620:	00044783          	lbu	a5,0(s0)
30001624:	00078a63          	beqz	a5,30001638 <_Z8toPrintFP15_tgfTextOverlayPcz+0x548>
30001628:	001c0c13          	addi	s8,s8,1
3000162c:	01840733          	add	a4,s0,s8
30001630:	00074703          	lbu	a4,0(a4)
30001634:	fe071ae3          	bnez	a4,30001628 <_Z8toPrintFP15_tgfTextOverlayPcz+0x538>
30001638:	32058c63          	beqz	a1,30001970 <_Z8toPrintFP15_tgfTextOverlayPcz+0x880>
3000163c:	16048663          	beqz	s1,300017a8 <_Z8toPrintFP15_tgfTextOverlayPcz+0x6b8>
30001640:	02078063          	beqz	a5,30001660 <_Z8toPrintFP15_tgfTextOverlayPcz+0x570>
30001644:	01810593          	addi	a1,sp,24
30001648:	00048513          	mv	a0,s1
3000164c:	00f10c23          	sb	a5,24(sp)
30001650:	00140413          	addi	s0,s0,1
30001654:	d2dfe0ef          	jal	ra,30000380 <_Z7toPrintP15_tgfTextOverlayPc.part.1>
30001658:	00044783          	lbu	a5,0(s0)
3000165c:	fe0794e3          	bnez	a5,30001644 <_Z8toPrintFP15_tgfTextOverlayPcz+0x554>
30001660:	001c0413          	addi	s0,s8,1
30001664:	02000c93          	li	s9,32
30001668:	015c6663          	bltu	s8,s5,30001674 <_Z8toPrintFP15_tgfTextOverlayPcz+0x584>
3000166c:	b05ff06f          	j	30001170 <_Z8toPrintFP15_tgfTextOverlayPcz+0x80>
30001670:	00078413          	mv	s0,a5
30001674:	01810593          	addi	a1,sp,24
30001678:	00048513          	mv	a0,s1
3000167c:	01910c23          	sb	s9,24(sp)
30001680:	d01fe0ef          	jal	ra,30000380 <_Z7toPrintP15_tgfTextOverlayPc.part.1>
30001684:	00140793          	addi	a5,s0,1
30001688:	fe8a94e3          	bne	s5,s0,30001670 <_Z8toPrintFP15_tgfTextOverlayPcz+0x580>
3000168c:	ae5ff06f          	j	30001170 <_Z8toPrintFP15_tgfTextOverlayPcz+0x80>
30001690:	01c12e03          	lw	t3,28(sp)
30001694:	00200793          	li	a5,2
30001698:	000e2883          	lw	a7,0(t3)
3000169c:	004e0e93          	addi	t4,t3,4
300016a0:	f4080ee3          	beqz	a6,300015fc <_Z8toPrintFP15_tgfTextOverlayPcz+0x50c>
300016a4:	01d12e23          	sw	t4,28(sp)
300016a8:	00200793          	li	a5,2
300016ac:	07800693          	li	a3,120
300016b0:	00700513          	li	a0,7
300016b4:	00d71463          	bne	a4,a3,300016bc <_Z8toPrintFP15_tgfTextOverlayPcz+0x5cc>
300016b8:	02700513          	li	a0,39
300016bc:	02f8f6b3          	remu	a3,a7,a5
300016c0:	0ff57713          	andi	a4,a0,255
300016c4:	03068693          	addi	a3,a3,48
300016c8:	02d10023          	sb	a3,32(sp)
300016cc:	02f8de33          	divu	t3,a7,a5
300016d0:	3af8e063          	bltu	a7,a5,30001a70 <_Z8toPrintFP15_tgfTextOverlayPcz+0x980>
300016d4:	00000813          	li	a6,0
300016d8:	c35ff06f          	j	3000130c <_Z8toPrintFP15_tgfTextOverlayPcz+0x21c>
300016dc:	01c12e03          	lw	t3,28(sp)
300016e0:	00800793          	li	a5,8
300016e4:	000e2f03          	lw	t5,0(t3)
300016e8:	004e0e93          	addi	t4,t3,4
300016ec:	bc0818e3          	bnez	a6,300012bc <_Z8toPrintFP15_tgfTextOverlayPcz+0x1cc>
300016f0:	04400813          	li	a6,68
300016f4:	f10694e3          	bne	a3,a6,300015fc <_Z8toPrintFP15_tgfTextOverlayPcz+0x50c>
300016f8:	01d12e23          	sw	t4,28(sp)
300016fc:	000f0893          	mv	a7,t5
30001700:	00000813          	li	a6,0
30001704:	bc0f58e3          	bgez	t5,300012d4 <_Z8toPrintFP15_tgfTextOverlayPcz+0x1e4>
30001708:	0b40006f          	j	300017bc <_Z8toPrintFP15_tgfTextOverlayPcz+0x6cc>
3000170c:	00e10c23          	sb	a4,24(sp)
30001710:	a60480e3          	beqz	s1,30001170 <_Z8toPrintFP15_tgfTextOverlayPcz+0x80>
30001714:	01810593          	addi	a1,sp,24
30001718:	00048513          	mv	a0,s1
3000171c:	c65fe0ef          	jal	ra,30000380 <_Z7toPrintP15_tgfTextOverlayPc.part.1>
30001720:	a51ff06f          	j	30001170 <_Z8toPrintFP15_tgfTextOverlayPcz+0x80>
30001724:	00040b13          	mv	s6,s0
30001728:	a49ff06f          	j	30001170 <_Z8toPrintFP15_tgfTextOverlayPcz+0x80>
3000172c:	002b4703          	lbu	a4,2(s6)
30001730:	00100c93          	li	s9,1
30001734:	003b0b13          	addi	s6,s6,3
30001738:	00000593          	li	a1,0
3000173c:	00500893          	li	a7,5
30001740:	00100513          	li	a0,1
30001744:	ac5ff06f          	j	30001208 <_Z8toPrintFP15_tgfTextOverlayPcz+0x118>
30001748:	000c0d13          	mv	s10,s8
3000174c:	001c0413          	addi	s0,s8,1
30001750:	e20494e3          	bnez	s1,30001578 <_Z8toPrintFP15_tgfTextOverlayPcz+0x488>
30001754:	000c0793          	mv	a5,s8
30001758:	0940006f          	j	300017ec <_Z8toPrintFP15_tgfTextOverlayPcz+0x6fc>
3000175c:	002b4703          	lbu	a4,2(s6)
30001760:	00000c93          	li	s9,0
30001764:	003b0b13          	addi	s6,s6,3
30001768:	00200593          	li	a1,2
3000176c:	00600893          	li	a7,6
30001770:	00200513          	li	a0,2
30001774:	a95ff06f          	j	30001208 <_Z8toPrintFP15_tgfTextOverlayPcz+0x118>
30001778:	00e686b3          	add	a3,a3,a4
3000177c:	0ff6f693          	andi	a3,a3,255
30001780:	d4dff06f          	j	300014cc <_Z8toPrintFP15_tgfTextOverlayPcz+0x3dc>
30001784:	00e686b3          	add	a3,a3,a4
30001788:	0ff6f693          	andi	a3,a3,255
3000178c:	d5dff06f          	j	300014e8 <_Z8toPrintFP15_tgfTextOverlayPcz+0x3f8>
30001790:	001c0713          	addi	a4,s8,1
30001794:	2f5c7663          	bgeu	s8,s5,30001a80 <_Z8toPrintFP15_tgfTextOverlayPcz+0x990>
30001798:	02000793          	li	a5,32
3000179c:	00f10c23          	sb	a5,24(sp)
300017a0:	00044783          	lbu	a5,0(s0)
300017a4:	001a8c13          	addi	s8,s5,1
300017a8:	22078463          	beqz	a5,300019d0 <_Z8toPrintFP15_tgfTextOverlayPcz+0x8e0>
300017ac:	00140413          	addi	s0,s0,1
300017b0:	00f10c23          	sb	a5,24(sp)
300017b4:	00044783          	lbu	a5,0(s0)
300017b8:	ff1ff06f          	j	300017a8 <_Z8toPrintFP15_tgfTextOverlayPcz+0x6b8>
300017bc:	41e008b3          	neg	a7,t5
300017c0:	00157c93          	andi	s9,a0,1
300017c4:	00257593          	andi	a1,a0,2
300017c8:	00800813          	li	a6,8
300017cc:	b09ff06f          	j	300012d4 <_Z8toPrintFP15_tgfTextOverlayPcz+0x1e4>
300017d0:	01d12e23          	sw	t4,28(sp)
300017d4:	00000813          	li	a6,0
300017d8:	01000793          	li	a5,16
300017dc:	af9ff06f          	j	300012d4 <_Z8toPrintFP15_tgfTextOverlayPcz+0x1e4>
300017e0:	001c0793          	addi	a5,s8,1
300017e4:	015c7463          	bgeu	s8,s5,300017ec <_Z8toPrintFP15_tgfTextOverlayPcz+0x6fc>
300017e8:	001a8793          	addi	a5,s5,1
300017ec:	fffc0713          	addi	a4,s8,-1
300017f0:	03010693          	addi	a3,sp,48
300017f4:	00e686b3          	add	a3,a3,a4
300017f8:	ff06c683          	lbu	a3,-16(a3)
300017fc:	00d10c23          	sb	a3,24(sp)
30001800:	16070263          	beqz	a4,30001964 <_Z8toPrintFP15_tgfTextOverlayPcz+0x874>
30001804:	ffec0713          	addi	a4,s8,-2
30001808:	03010693          	addi	a3,sp,48
3000180c:	00e686b3          	add	a3,a3,a4
30001810:	ff06c683          	lbu	a3,-16(a3)
30001814:	00d10c23          	sb	a3,24(sp)
30001818:	14070663          	beqz	a4,30001964 <_Z8toPrintFP15_tgfTextOverlayPcz+0x874>
3000181c:	ffdc0713          	addi	a4,s8,-3
30001820:	03010693          	addi	a3,sp,48
30001824:	00e686b3          	add	a3,a3,a4
30001828:	ff06c683          	lbu	a3,-16(a3)
3000182c:	00d10c23          	sb	a3,24(sp)
30001830:	12070a63          	beqz	a4,30001964 <_Z8toPrintFP15_tgfTextOverlayPcz+0x874>
30001834:	ffcc0713          	addi	a4,s8,-4
30001838:	03010693          	addi	a3,sp,48
3000183c:	00e686b3          	add	a3,a3,a4
30001840:	ff06c683          	lbu	a3,-16(a3)
30001844:	00d10c23          	sb	a3,24(sp)
30001848:	10070e63          	beqz	a4,30001964 <_Z8toPrintFP15_tgfTextOverlayPcz+0x874>
3000184c:	ffbc0713          	addi	a4,s8,-5
30001850:	03010693          	addi	a3,sp,48
30001854:	00e686b3          	add	a3,a3,a4
30001858:	ff06c683          	lbu	a3,-16(a3)
3000185c:	00d10c23          	sb	a3,24(sp)
30001860:	10070263          	beqz	a4,30001964 <_Z8toPrintFP15_tgfTextOverlayPcz+0x874>
30001864:	ffac0713          	addi	a4,s8,-6
30001868:	03010693          	addi	a3,sp,48
3000186c:	00e686b3          	add	a3,a3,a4
30001870:	ff06c683          	lbu	a3,-16(a3)
30001874:	00d10c23          	sb	a3,24(sp)
30001878:	0e070663          	beqz	a4,30001964 <_Z8toPrintFP15_tgfTextOverlayPcz+0x874>
3000187c:	ff9c0713          	addi	a4,s8,-7
30001880:	03010693          	addi	a3,sp,48
30001884:	00e686b3          	add	a3,a3,a4
30001888:	ff06c683          	lbu	a3,-16(a3)
3000188c:	00d10c23          	sb	a3,24(sp)
30001890:	0c070a63          	beqz	a4,30001964 <_Z8toPrintFP15_tgfTextOverlayPcz+0x874>
30001894:	ff8c0713          	addi	a4,s8,-8
30001898:	03010693          	addi	a3,sp,48
3000189c:	00e686b3          	add	a3,a3,a4
300018a0:	ff06c683          	lbu	a3,-16(a3)
300018a4:	00d10c23          	sb	a3,24(sp)
300018a8:	0a070e63          	beqz	a4,30001964 <_Z8toPrintFP15_tgfTextOverlayPcz+0x874>
300018ac:	ff7c0713          	addi	a4,s8,-9
300018b0:	03010693          	addi	a3,sp,48
300018b4:	00e686b3          	add	a3,a3,a4
300018b8:	ff06c683          	lbu	a3,-16(a3)
300018bc:	00d10c23          	sb	a3,24(sp)
300018c0:	0a070263          	beqz	a4,30001964 <_Z8toPrintFP15_tgfTextOverlayPcz+0x874>
300018c4:	ff6c0713          	addi	a4,s8,-10
300018c8:	03010693          	addi	a3,sp,48
300018cc:	00e686b3          	add	a3,a3,a4
300018d0:	ff06c683          	lbu	a3,-16(a3)
300018d4:	00d10c23          	sb	a3,24(sp)
300018d8:	08070663          	beqz	a4,30001964 <_Z8toPrintFP15_tgfTextOverlayPcz+0x874>
300018dc:	ff5c0713          	addi	a4,s8,-11
300018e0:	03010693          	addi	a3,sp,48
300018e4:	00e686b3          	add	a3,a3,a4
300018e8:	ff06c683          	lbu	a3,-16(a3)
300018ec:	00d10c23          	sb	a3,24(sp)
300018f0:	06070a63          	beqz	a4,30001964 <_Z8toPrintFP15_tgfTextOverlayPcz+0x874>
300018f4:	ff4c0713          	addi	a4,s8,-12
300018f8:	03010693          	addi	a3,sp,48
300018fc:	00e686b3          	add	a3,a3,a4
30001900:	ff06c683          	lbu	a3,-16(a3)
30001904:	00d10c23          	sb	a3,24(sp)
30001908:	04070e63          	beqz	a4,30001964 <_Z8toPrintFP15_tgfTextOverlayPcz+0x874>
3000190c:	ff3c0713          	addi	a4,s8,-13
30001910:	03010693          	addi	a3,sp,48
30001914:	00e686b3          	add	a3,a3,a4
30001918:	ff06c683          	lbu	a3,-16(a3)
3000191c:	00d10c23          	sb	a3,24(sp)
30001920:	04070263          	beqz	a4,30001964 <_Z8toPrintFP15_tgfTextOverlayPcz+0x874>
30001924:	ff2c0713          	addi	a4,s8,-14
30001928:	03010693          	addi	a3,sp,48
3000192c:	00e686b3          	add	a3,a3,a4
30001930:	ff06c683          	lbu	a3,-16(a3)
30001934:	00d10c23          	sb	a3,24(sp)
30001938:	02070663          	beqz	a4,30001964 <_Z8toPrintFP15_tgfTextOverlayPcz+0x874>
3000193c:	ff1c0713          	addi	a4,s8,-15
30001940:	03010693          	addi	a3,sp,48
30001944:	00e686b3          	add	a3,a3,a4
30001948:	ff06c683          	lbu	a3,-16(a3)
3000194c:	00d10c23          	sb	a3,24(sp)
30001950:	00070a63          	beqz	a4,30001964 <_Z8toPrintFP15_tgfTextOverlayPcz+0x874>
30001954:	03010713          	addi	a4,sp,48
30001958:	01870c33          	add	s8,a4,s8
3000195c:	fe0c4703          	lbu	a4,-32(s8)
30001960:	00e10c23          	sb	a4,24(sp)
30001964:	8157f6e3          	bgeu	a5,s5,30001170 <_Z8toPrintFP15_tgfTextOverlayPcz+0x80>
30001968:	01910c23          	sb	s9,24(sp)
3000196c:	805ff06f          	j	30001170 <_Z8toPrintFP15_tgfTextOverlayPcz+0x80>
30001970:	e20480e3          	beqz	s1,30001790 <_Z8toPrintFP15_tgfTextOverlayPcz+0x6a0>
30001974:	001c0d13          	addi	s10,s8,1
30001978:	115c7063          	bgeu	s8,s5,30001a78 <_Z8toPrintFP15_tgfTextOverlayPcz+0x988>
3000197c:	001a8c13          	addi	s8,s5,1
30001980:	02000c93          	li	s9,32
30001984:	0080006f          	j	3000198c <_Z8toPrintFP15_tgfTextOverlayPcz+0x89c>
30001988:	00078d13          	mv	s10,a5
3000198c:	01810593          	addi	a1,sp,24
30001990:	00048513          	mv	a0,s1
30001994:	01910c23          	sb	s9,24(sp)
30001998:	9e9fe0ef          	jal	ra,30000380 <_Z7toPrintP15_tgfTextOverlayPc.part.1>
3000199c:	001d0793          	addi	a5,s10,1
300019a0:	ffaa94e3          	bne	s5,s10,30001988 <_Z8toPrintFP15_tgfTextOverlayPcz+0x898>
300019a4:	00044783          	lbu	a5,0(s0)
300019a8:	cb5ff06f          	j	3000165c <_Z8toPrintFP15_tgfTextOverlayPcz+0x56c>
300019ac:	00200c13          	li	s8,2
300019b0:	00100793          	li	a5,1
300019b4:	b65ff06f          	j	30001518 <_Z8toPrintFP15_tgfTextOverlayPcz+0x428>
300019b8:	00300c13          	li	s8,3
300019bc:	00200793          	li	a5,2
300019c0:	b59ff06f          	j	30001518 <_Z8toPrintFP15_tgfTextOverlayPcz+0x428>
300019c4:	00400c13          	li	s8,4
300019c8:	00300793          	li	a5,3
300019cc:	b4dff06f          	j	30001518 <_Z8toPrintFP15_tgfTextOverlayPcz+0x428>
300019d0:	fb5c7063          	bgeu	s8,s5,30001170 <_Z8toPrintFP15_tgfTextOverlayPcz+0x80>
300019d4:	02000793          	li	a5,32
300019d8:	00f10c23          	sb	a5,24(sp)
300019dc:	f94ff06f          	j	30001170 <_Z8toPrintFP15_tgfTextOverlayPcz+0x80>
300019e0:	00500c13          	li	s8,5
300019e4:	00400793          	li	a5,4
300019e8:	b31ff06f          	j	30001518 <_Z8toPrintFP15_tgfTextOverlayPcz+0x428>
300019ec:	00100c13          	li	s8,1
300019f0:	00000793          	li	a5,0
300019f4:	b25ff06f          	j	30001518 <_Z8toPrintFP15_tgfTextOverlayPcz+0x428>
300019f8:	00600c13          	li	s8,6
300019fc:	00500793          	li	a5,5
30001a00:	b19ff06f          	j	30001518 <_Z8toPrintFP15_tgfTextOverlayPcz+0x428>
30001a04:	00700c13          	li	s8,7
30001a08:	00600793          	li	a5,6
30001a0c:	b0dff06f          	j	30001518 <_Z8toPrintFP15_tgfTextOverlayPcz+0x428>
30001a10:	00800c13          	li	s8,8
30001a14:	00700793          	li	a5,7
30001a18:	b01ff06f          	j	30001518 <_Z8toPrintFP15_tgfTextOverlayPcz+0x428>
30001a1c:	00900c13          	li	s8,9
30001a20:	00800793          	li	a5,8
30001a24:	af5ff06f          	j	30001518 <_Z8toPrintFP15_tgfTextOverlayPcz+0x428>
30001a28:	00a00c13          	li	s8,10
30001a2c:	00900793          	li	a5,9
30001a30:	ae9ff06f          	j	30001518 <_Z8toPrintFP15_tgfTextOverlayPcz+0x428>
30001a34:	00b00c13          	li	s8,11
30001a38:	00a00793          	li	a5,10
30001a3c:	addff06f          	j	30001518 <_Z8toPrintFP15_tgfTextOverlayPcz+0x428>
30001a40:	00c00c13          	li	s8,12
30001a44:	00b00793          	li	a5,11
30001a48:	ad1ff06f          	j	30001518 <_Z8toPrintFP15_tgfTextOverlayPcz+0x428>
30001a4c:	00d00c13          	li	s8,13
30001a50:	00c00793          	li	a5,12
30001a54:	ac5ff06f          	j	30001518 <_Z8toPrintFP15_tgfTextOverlayPcz+0x428>
30001a58:	00e00c13          	li	s8,14
30001a5c:	00d00793          	li	a5,13
30001a60:	ab9ff06f          	j	30001518 <_Z8toPrintFP15_tgfTextOverlayPcz+0x428>
30001a64:	00f00c13          	li	s8,15
30001a68:	00e00793          	li	a5,14
30001a6c:	aadff06f          	j	30001518 <_Z8toPrintFP15_tgfTextOverlayPcz+0x428>
30001a70:	00100c13          	li	s8,1
30001a74:	abdff06f          	j	30001530 <_Z8toPrintFP15_tgfTextOverlayPcz+0x440>
30001a78:	000d0c13          	mv	s8,s10
30001a7c:	bc5ff06f          	j	30001640 <_Z8toPrintFP15_tgfTextOverlayPcz+0x550>
30001a80:	00070c13          	mv	s8,a4
30001a84:	d25ff06f          	j	300017a8 <_Z8toPrintFP15_tgfTextOverlayPcz+0x6b8>

30001a88 <_Z15gfDisplayBitmapP10_tgfBitmap>:
30001a88:	00c52783          	lw	a5,12(a0)
30001a8c:	30011737          	lui	a4,0x30011
30001a90:	be472703          	lw	a4,-1052(a4) # 30010be4 <sdrdma>
30001a94:	e00006b7          	lui	a3,0xe0000
30001a98:	00d787b3          	add	a5,a5,a3
30001a9c:	0027d793          	srli	a5,a5,0x2
30001aa0:	00f72423          	sw	a5,8(a4)
30001aa4:	00000513          	li	a0,0
30001aa8:	00008067          	ret

30001aac <_Z14gfLoadBitmapFSP10_tgfBitmapPc>:
30001aac:	1c050c63          	beqz	a0,30001c84 <_Z14gfLoadBitmapFSP10_tgfBitmapPc+0x1d8>
30001ab0:	fc010113          	addi	sp,sp,-64
30001ab4:	02812c23          	sw	s0,56(sp)
30001ab8:	00100613          	li	a2,1
30001abc:	00050413          	mv	s0,a0
30001ac0:	00c10513          	addi	a0,sp,12
30001ac4:	02112e23          	sw	ra,60(sp)
30001ac8:	4d4010ef          	jal	ra,30002f9c <_Z7osFOpenP8_tosFilePcm>
30001acc:	00050c63          	beqz	a0,30001ae4 <_Z14gfLoadBitmapFSP10_tgfBitmapPc+0x38>
30001ad0:	00100513          	li	a0,1
30001ad4:	03c12083          	lw	ra,60(sp)
30001ad8:	03812403          	lw	s0,56(sp)
30001adc:	04010113          	addi	sp,sp,64
30001ae0:	00008067          	ret
30001ae4:	00000693          	li	a3,0
30001ae8:	00200613          	li	a2,2
30001aec:	00810593          	addi	a1,sp,8
30001af0:	00c10513          	addi	a0,sp,12
30001af4:	568010ef          	jal	ra,3000305c <_Z7osFReadP8_tosFilePhmPm>
30001af8:	00914783          	lbu	a5,9(sp)
30001afc:	00814703          	lbu	a4,8(sp)
30001b00:	00000693          	li	a3,0
30001b04:	00879793          	slli	a5,a5,0x8
30001b08:	00e7e7b3          	or	a5,a5,a4
30001b0c:	01079713          	slli	a4,a5,0x10
30001b10:	00e7e7b3          	or	a5,a5,a4
30001b14:	00200613          	li	a2,2
30001b18:	00810593          	addi	a1,sp,8
30001b1c:	00f42023          	sw	a5,0(s0)
30001b20:	00c10513          	addi	a0,sp,12
30001b24:	538010ef          	jal	ra,3000305c <_Z7osFReadP8_tosFilePhmPm>
30001b28:	00914783          	lbu	a5,9(sp)
30001b2c:	00814703          	lbu	a4,8(sp)
30001b30:	00000693          	li	a3,0
30001b34:	00879793          	slli	a5,a5,0x8
30001b38:	00e7e7b3          	or	a5,a5,a4
30001b3c:	00200613          	li	a2,2
30001b40:	00810593          	addi	a1,sp,8
30001b44:	00f41223          	sh	a5,4(s0)
30001b48:	00c10513          	addi	a0,sp,12
30001b4c:	510010ef          	jal	ra,3000305c <_Z7osFReadP8_tosFilePhmPm>
30001b50:	00914783          	lbu	a5,9(sp)
30001b54:	00814703          	lbu	a4,8(sp)
30001b58:	00000693          	li	a3,0
30001b5c:	00879793          	slli	a5,a5,0x8
30001b60:	00e7e7b3          	or	a5,a5,a4
30001b64:	00200613          	li	a2,2
30001b68:	00810593          	addi	a1,sp,8
30001b6c:	00f41323          	sh	a5,6(s0)
30001b70:	00c10513          	addi	a0,sp,12
30001b74:	4e8010ef          	jal	ra,3000305c <_Z7osFReadP8_tosFilePhmPm>
30001b78:	00914783          	lbu	a5,9(sp)
30001b7c:	00814703          	lbu	a4,8(sp)
30001b80:	00000693          	li	a3,0
30001b84:	00879793          	slli	a5,a5,0x8
30001b88:	00e7e7b3          	or	a5,a5,a4
30001b8c:	00f41423          	sh	a5,8(s0)
30001b90:	00100613          	li	a2,1
30001b94:	00810593          	addi	a1,sp,8
30001b98:	00c10513          	addi	a0,sp,12
30001b9c:	4c0010ef          	jal	ra,3000305c <_Z7osFReadP8_tosFilePhmPm>
30001ba0:	00814703          	lbu	a4,8(sp)
30001ba4:	00c00793          	li	a5,12
30001ba8:	0ef71263          	bne	a4,a5,30001c8c <_Z14gfLoadBitmapFSP10_tgfBitmapPc+0x1e0>
30001bac:	00000693          	li	a3,0
30001bb0:	00300613          	li	a2,3
30001bb4:	00810593          	addi	a1,sp,8
30001bb8:	00c10513          	addi	a0,sp,12
30001bbc:	4a0010ef          	jal	ra,3000305c <_Z7osFReadP8_tosFilePhmPm>
30001bc0:	00814783          	lbu	a5,8(sp)
30001bc4:	00914683          	lbu	a3,9(sp)
30001bc8:	00a14703          	lbu	a4,10(sp)
30001bcc:	00d7e7b3          	or	a5,a5,a3
30001bd0:	00e7e7b3          	or	a5,a5,a4
30001bd4:	0a079c63          	bnez	a5,30001c8c <_Z14gfLoadBitmapFSP10_tgfBitmapPc+0x1e0>
30001bd8:	00245503          	lhu	a0,2(s0)
30001bdc:	00445783          	lhu	a5,4(s0)
30001be0:	00100593          	li	a1,1
30001be4:	02f50533          	mul	a0,a0,a5
30001be8:	00151513          	slli	a0,a0,0x1
30001bec:	064090ef          	jal	ra,3000ac50 <_Z7osAllocmm>
30001bf0:	00a42623          	sw	a0,12(s0)
30001bf4:	0a050a63          	beqz	a0,30001ca8 <_Z14gfLoadBitmapFSP10_tgfBitmapPc+0x1fc>
30001bf8:	00445783          	lhu	a5,4(s0)
30001bfc:	00245603          	lhu	a2,2(s0)
30001c00:	00050593          	mv	a1,a0
30001c04:	00000693          	li	a3,0
30001c08:	02f60633          	mul	a2,a2,a5
30001c0c:	00c10513          	addi	a0,sp,12
30001c10:	00161613          	slli	a2,a2,0x1
30001c14:	448010ef          	jal	ra,3000305c <_Z7osFReadP8_tosFilePhmPm>
30001c18:	00645783          	lhu	a5,6(s0)
30001c1c:	0027f793          	andi	a5,a5,2
30001c20:	04078463          	beqz	a5,30001c68 <_Z14gfLoadBitmapFSP10_tgfBitmapPc+0x1bc>
30001c24:	00245783          	lhu	a5,2(s0)
30001c28:	00445683          	lhu	a3,4(s0)
30001c2c:	00c42703          	lw	a4,12(s0)
30001c30:	02d787b3          	mul	a5,a5,a3
30001c34:	02078a63          	beqz	a5,30001c68 <_Z14gfLoadBitmapFSP10_tgfBitmapPc+0x1bc>
30001c38:	00000613          	li	a2,0
30001c3c:	00075783          	lhu	a5,0(a4)
30001c40:	00270713          	addi	a4,a4,2
30001c44:	00160613          	addi	a2,a2,1
30001c48:	0087d693          	srli	a3,a5,0x8
30001c4c:	00879793          	slli	a5,a5,0x8
30001c50:	00f6e7b3          	or	a5,a3,a5
30001c54:	fef71f23          	sh	a5,-2(a4)
30001c58:	00245783          	lhu	a5,2(s0)
30001c5c:	00445683          	lhu	a3,4(s0)
30001c60:	02d787b3          	mul	a5,a5,a3
30001c64:	fcf64ce3          	blt	a2,a5,30001c3c <_Z14gfLoadBitmapFSP10_tgfBitmapPc+0x190>
30001c68:	00c10513          	addi	a0,sp,12
30001c6c:	388010ef          	jal	ra,30002ff4 <_Z8osFCloseP8_tosFile>
30001c70:	03c12083          	lw	ra,60(sp)
30001c74:	03812403          	lw	s0,56(sp)
30001c78:	00000513          	li	a0,0
30001c7c:	04010113          	addi	sp,sp,64
30001c80:	00008067          	ret
30001c84:	00100513          	li	a0,1
30001c88:	00008067          	ret
30001c8c:	00c10513          	addi	a0,sp,12
30001c90:	364010ef          	jal	ra,30002ff4 <_Z8osFCloseP8_tosFile>
30001c94:	03c12083          	lw	ra,60(sp)
30001c98:	03812403          	lw	s0,56(sp)
30001c9c:	00200513          	li	a0,2
30001ca0:	04010113          	addi	sp,sp,64
30001ca4:	00008067          	ret
30001ca8:	00c10513          	addi	a0,sp,12
30001cac:	348010ef          	jal	ra,30002ff4 <_Z8osFCloseP8_tosFile>
30001cb0:	00300513          	li	a0,3
30001cb4:	e21ff06f          	j	30001ad4 <_Z14gfLoadBitmapFSP10_tgfBitmapPc+0x28>

30001cb8 <_Z12gfBlitBitmapP10_tgfBitmapS0_ss>:
30001cb8:	28050c63          	beqz	a0,30001f50 <_Z12gfBlitBitmapP10_tgfBitmapS0_ss+0x298>
30001cbc:	28058a63          	beqz	a1,30001f50 <_Z12gfBlitBitmapP10_tgfBitmapS0_ss+0x298>
30001cc0:	0005df83          	lhu	t6,0(a1)
30001cc4:	0045d783          	lhu	a5,4(a1)
30001cc8:	1a064663          	bltz	a2,30001e74 <_Z12gfBlitBitmapP10_tgfBitmapS0_ss+0x1bc>
30001ccc:	010f9f93          	slli	t6,t6,0x10
30001cd0:	410fdf93          	srai	t6,t6,0x10
30001cd4:	00060e13          	mv	t3,a2
30001cd8:	00000e93          	li	t4,0
30001cdc:	1c06c263          	bltz	a3,30001ea0 <_Z12gfBlitBitmapP10_tgfBitmapS0_ss+0x1e8>
30001ce0:	01079793          	slli	a5,a5,0x10
30001ce4:	4107d793          	srai	a5,a5,0x10
30001ce8:	00000f13          	li	t5,0
30001cec:	00055703          	lhu	a4,0(a0)
30001cf0:	01cf8833          	add	a6,t6,t3
30001cf4:	00e84863          	blt	a6,a4,30001d04 <_Z12gfBlitBitmapP10_tgfBitmapS0_ss+0x4c>
30001cf8:	40c70fb3          	sub	t6,a4,a2
30001cfc:	010f9f93          	slli	t6,t6,0x10
30001d00:	410fdf93          	srai	t6,t6,0x10
30001d04:	25f05263          	blez	t6,30001f48 <_Z12gfBlitBitmapP10_tgfBitmapS0_ss+0x290>
30001d08:	00455703          	lhu	a4,4(a0)
30001d0c:	00d78633          	add	a2,a5,a3
30001d10:	00e64863          	blt	a2,a4,30001d20 <_Z12gfBlitBitmapP10_tgfBitmapS0_ss+0x68>
30001d14:	40d707b3          	sub	a5,a4,a3
30001d18:	01079793          	slli	a5,a5,0x10
30001d1c:	4107d793          	srai	a5,a5,0x10
30001d20:	22f05463          	blez	a5,30001f48 <_Z12gfBlitBitmapP10_tgfBitmapS0_ss+0x290>
30001d24:	0065d703          	lhu	a4,6(a1)
30001d28:	00c5a883          	lw	a7,12(a1)
30001d2c:	00c52303          	lw	t1,12(a0)
30001d30:	00177713          	andi	a4,a4,1
30001d34:	18071a63          	bnez	a4,30001ec8 <_Z12gfBlitBitmapP10_tgfBitmapS0_ss+0x210>
30001d38:	010f9f93          	slli	t6,t6,0x10
30001d3c:	010fdf93          	srli	t6,t6,0x10
30001d40:	fe010113          	addi	sp,sp,-32
30001d44:	ffff8713          	addi	a4,t6,-1
30001d48:	fff78293          	addi	t0,a5,-1
30001d4c:	00912c23          	sw	s1,24(sp)
30001d50:	01071713          	slli	a4,a4,0x10
30001d54:	ffeff493          	andi	s1,t6,-2
30001d58:	01075713          	srli	a4,a4,0x10
30001d5c:	01029293          	slli	t0,t0,0x10
30001d60:	01049493          	slli	s1,s1,0x10
30001d64:	01212a23          	sw	s2,20(sp)
30001d68:	01312823          	sw	s3,16(sp)
30001d6c:	0102d293          	srli	t0,t0,0x10
30001d70:	00170993          	addi	s3,a4,1
30001d74:	001f0793          	addi	a5,t5,1 # ffff8001 <__bss_end__+0xcfef8001>
30001d78:	001fd913          	srli	s2,t6,0x1
30001d7c:	0104d493          	srli	s1,s1,0x10
30001d80:	00c73713          	sltiu	a4,a4,12
30001d84:	00812e23          	sw	s0,28(sp)
30001d88:	01412623          	sw	s4,12(sp)
30001d8c:	01512423          	sw	s5,8(sp)
30001d90:	00f282b3          	add	t0,t0,a5
30001d94:	00291913          	slli	s2,s2,0x2
30001d98:	00149413          	slli	s0,s1,0x1
30001d9c:	00199993          	slli	s3,s3,0x1
30001da0:	41e68833          	sub	a6,a3,t5
30001da4:	00174393          	xori	t2,a4,1
30001da8:	00255703          	lhu	a4,2(a0)
30001dac:	0025d603          	lhu	a2,2(a1)
30001db0:	01e807b3          	add	a5,a6,t5
30001db4:	02e787b3          	mul	a5,a5,a4
30001db8:	03e60633          	mul	a2,a2,t5
30001dbc:	01c787b3          	add	a5,a5,t3
30001dc0:	00278713          	addi	a4,a5,2
30001dc4:	00171713          	slli	a4,a4,0x1
30001dc8:	00179793          	slli	a5,a5,0x1
30001dcc:	00f307b3          	add	a5,t1,a5
30001dd0:	00e30733          	add	a4,t1,a4
30001dd4:	01d60633          	add	a2,a2,t4
30001dd8:	00260693          	addi	a3,a2,2
30001ddc:	00169693          	slli	a3,a3,0x1
30001de0:	00161613          	slli	a2,a2,0x1
30001de4:	00c88633          	add	a2,a7,a2
30001de8:	00d886b3          	add	a3,a7,a3
30001dec:	00e63733          	sltu	a4,a2,a4
30001df0:	00d7b6b3          	sltu	a3,a5,a3
30001df4:	00174713          	xori	a4,a4,1
30001df8:	0016c693          	xori	a3,a3,1
30001dfc:	00d76733          	or	a4,a4,a3
30001e00:	00e3f733          	and	a4,t2,a4
30001e04:	14070a63          	beqz	a4,30001f58 <_Z12gfBlitBitmapP10_tgfBitmapS0_ss+0x2a0>
30001e08:	00c7e733          	or	a4,a5,a2
30001e0c:	00377713          	andi	a4,a4,3
30001e10:	14071463          	bnez	a4,30001f58 <_Z12gfBlitBitmapP10_tgfBitmapS0_ss+0x2a0>
30001e14:	00078713          	mv	a4,a5
30001e18:	00060693          	mv	a3,a2
30001e1c:	01278ab3          	add	s5,a5,s2
30001e20:	0006aa03          	lw	s4,0(a3) # e0000000 <__bss_end__+0xaff00000>
30001e24:	00470713          	addi	a4,a4,4
30001e28:	00468693          	addi	a3,a3,4
30001e2c:	ff472e23          	sw	s4,-4(a4)
30001e30:	ff5718e3          	bne	a4,s5,30001e20 <_Z12gfBlitBitmapP10_tgfBitmapS0_ss+0x168>
30001e34:	00860633          	add	a2,a2,s0
30001e38:	008787b3          	add	a5,a5,s0
30001e3c:	01f48663          	beq	s1,t6,30001e48 <_Z12gfBlitBitmapP10_tgfBitmapS0_ss+0x190>
30001e40:	00065703          	lhu	a4,0(a2)
30001e44:	00e79023          	sh	a4,0(a5)
30001e48:	001f0f13          	addi	t5,t5,1
30001e4c:	f5e29ee3          	bne	t0,t5,30001da8 <_Z12gfBlitBitmapP10_tgfBitmapS0_ss+0xf0>
30001e50:	01c12403          	lw	s0,28(sp)
30001e54:	01812483          	lw	s1,24(sp)
30001e58:	01412903          	lw	s2,20(sp)
30001e5c:	01012983          	lw	s3,16(sp)
30001e60:	00c12a03          	lw	s4,12(sp)
30001e64:	00812a83          	lw	s5,8(sp)
30001e68:	00000513          	li	a0,0
30001e6c:	02010113          	addi	sp,sp,32
30001e70:	00008067          	ret
30001e74:	01061613          	slli	a2,a2,0x10
30001e78:	01065613          	srli	a2,a2,0x10
30001e7c:	40c00eb3          	neg	t4,a2
30001e80:	00cf8fb3          	add	t6,t6,a2
30001e84:	010e9e93          	slli	t4,t4,0x10
30001e88:	010f9f93          	slli	t6,t6,0x10
30001e8c:	410ede93          	srai	t4,t4,0x10
30001e90:	410fdf93          	srai	t6,t6,0x10
30001e94:	00000e13          	li	t3,0
30001e98:	00000613          	li	a2,0
30001e9c:	e406d2e3          	bgez	a3,30001ce0 <_Z12gfBlitBitmapP10_tgfBitmapS0_ss+0x28>
30001ea0:	01069693          	slli	a3,a3,0x10
30001ea4:	0106d693          	srli	a3,a3,0x10
30001ea8:	40d00f33          	neg	t5,a3
30001eac:	00d787b3          	add	a5,a5,a3
30001eb0:	010f1f13          	slli	t5,t5,0x10
30001eb4:	01079793          	slli	a5,a5,0x10
30001eb8:	410f5f13          	srai	t5,t5,0x10
30001ebc:	4107d793          	srai	a5,a5,0x10
30001ec0:	00000693          	li	a3,0
30001ec4:	e29ff06f          	j	30001cec <_Z12gfBlitBitmapP10_tgfBitmapS0_ss+0x34>
30001ec8:	ffff8f93          	addi	t6,t6,-1
30001ecc:	fff78793          	addi	a5,a5,-1
30001ed0:	010f9293          	slli	t0,t6,0x10
30001ed4:	0102d293          	srli	t0,t0,0x10
30001ed8:	01079713          	slli	a4,a5,0x10
30001edc:	001f0393          	addi	t2,t5,1
30001ee0:	01075713          	srli	a4,a4,0x10
30001ee4:	00128293          	addi	t0,t0,1
30001ee8:	00e383b3          	add	t2,t2,a4
30001eec:	00129293          	slli	t0,t0,0x1
30001ef0:	41e68833          	sub	a6,a3,t5
30001ef4:	00255683          	lhu	a3,2(a0)
30001ef8:	0025d703          	lhu	a4,2(a1)
30001efc:	01e807b3          	add	a5,a6,t5
30001f00:	02d787b3          	mul	a5,a5,a3
30001f04:	03e70733          	mul	a4,a4,t5
30001f08:	01c787b3          	add	a5,a5,t3
30001f0c:	00179793          	slli	a5,a5,0x1
30001f10:	00f307b3          	add	a5,t1,a5
30001f14:	00578fb3          	add	t6,a5,t0
30001f18:	01d70733          	add	a4,a4,t4
30001f1c:	00171713          	slli	a4,a4,0x1
30001f20:	00e88733          	add	a4,a7,a4
30001f24:	00270713          	addi	a4,a4,2
30001f28:	ffe75683          	lhu	a3,-2(a4)
30001f2c:	0085d603          	lhu	a2,8(a1)
30001f30:	00278793          	addi	a5,a5,2
30001f34:	00d60463          	beq	a2,a3,30001f3c <_Z12gfBlitBitmapP10_tgfBitmapS0_ss+0x284>
30001f38:	fed79f23          	sh	a3,-2(a5)
30001f3c:	feff94e3          	bne	t6,a5,30001f24 <_Z12gfBlitBitmapP10_tgfBitmapS0_ss+0x26c>
30001f40:	001f0f13          	addi	t5,t5,1
30001f44:	fa7f18e3          	bne	t5,t2,30001ef4 <_Z12gfBlitBitmapP10_tgfBitmapS0_ss+0x23c>
30001f48:	00000513          	li	a0,0
30001f4c:	00008067          	ret
30001f50:	00100513          	li	a0,1
30001f54:	00008067          	ret
30001f58:	013786b3          	add	a3,a5,s3
30001f5c:	00260613          	addi	a2,a2,2
30001f60:	ffe65703          	lhu	a4,-2(a2)
30001f64:	00278793          	addi	a5,a5,2
30001f68:	fee79f23          	sh	a4,-2(a5)
30001f6c:	fef698e3          	bne	a3,a5,30001f5c <_Z12gfBlitBitmapP10_tgfBitmapS0_ss+0x2a4>
30001f70:	ed9ff06f          	j	30001e48 <_Z12gfBlitBitmapP10_tgfBitmapS0_ss+0x190>

30001f74 <_Z13gfBlitBitmapAP10_tgfBitmapS0_ssh>:
30001f74:	26050a63          	beqz	a0,300021e8 <_Z13gfBlitBitmapAP10_tgfBitmapS0_ssh+0x274>
30001f78:	fc010113          	addi	sp,sp,-64
30001f7c:	03512223          	sw	s5,36(sp)
30001f80:	02112e23          	sw	ra,60(sp)
30001f84:	02812c23          	sw	s0,56(sp)
30001f88:	02912a23          	sw	s1,52(sp)
30001f8c:	03212823          	sw	s2,48(sp)
30001f90:	03312623          	sw	s3,44(sp)
30001f94:	03412423          	sw	s4,40(sp)
30001f98:	03612023          	sw	s6,32(sp)
30001f9c:	01712e23          	sw	s7,28(sp)
30001fa0:	01812c23          	sw	s8,24(sp)
30001fa4:	01912a23          	sw	s9,20(sp)
30001fa8:	01a12823          	sw	s10,16(sp)
30001fac:	01b12623          	sw	s11,12(sp)
30001fb0:	00058a93          	mv	s5,a1
30001fb4:	22058e63          	beqz	a1,300021f0 <_Z13gfBlitBitmapAP10_tgfBitmapS0_ssh+0x27c>
30001fb8:	00050913          	mv	s2,a0
30001fbc:	00060b93          	mv	s7,a2
30001fc0:	00070993          	mv	s3,a4
30001fc4:	0005dd83          	lhu	s11,0(a1)
30001fc8:	0045d783          	lhu	a5,4(a1)
30001fcc:	12064a63          	bltz	a2,30002100 <_Z13gfBlitBitmapAP10_tgfBitmapS0_ssh+0x18c>
30001fd0:	010d9d93          	slli	s11,s11,0x10
30001fd4:	410ddd93          	srai	s11,s11,0x10
30001fd8:	00060713          	mv	a4,a2
30001fdc:	00000b13          	li	s6,0
30001fe0:	1406c663          	bltz	a3,3000212c <_Z13gfBlitBitmapAP10_tgfBitmapS0_ssh+0x1b8>
30001fe4:	01079793          	slli	a5,a5,0x10
30001fe8:	4107d793          	srai	a5,a5,0x10
30001fec:	00000c93          	li	s9,0
30001ff0:	00095603          	lhu	a2,0(s2)
30001ff4:	00ed8733          	add	a4,s11,a4
30001ff8:	00c74863          	blt	a4,a2,30002008 <_Z13gfBlitBitmapAP10_tgfBitmapS0_ssh+0x94>
30001ffc:	41760db3          	sub	s11,a2,s7
30002000:	010d9d93          	slli	s11,s11,0x10
30002004:	410ddd93          	srai	s11,s11,0x10
30002008:	0bb05c63          	blez	s11,300020c0 <_Z13gfBlitBitmapAP10_tgfBitmapS0_ssh+0x14c>
3000200c:	00495703          	lhu	a4,4(s2)
30002010:	00d78633          	add	a2,a5,a3
30002014:	00e64863          	blt	a2,a4,30002024 <_Z13gfBlitBitmapAP10_tgfBitmapS0_ssh+0xb0>
30002018:	40d707b3          	sub	a5,a4,a3
3000201c:	01079793          	slli	a5,a5,0x10
30002020:	4107d793          	srai	a5,a5,0x10
30002024:	08f05e63          	blez	a5,300020c0 <_Z13gfBlitBitmapAP10_tgfBitmapS0_ssh+0x14c>
30002028:	006ad703          	lhu	a4,6(s5)
3000202c:	00177713          	andi	a4,a4,1
30002030:	12070263          	beqz	a4,30002154 <_Z13gfBlitBitmapAP10_tgfBitmapS0_ssh+0x1e0>
30002034:	01069a13          	slli	s4,a3,0x10
30002038:	010a5a13          	srli	s4,s4,0x10
3000203c:	00fa07b3          	add	a5,s4,a5
30002040:	01079c13          	slli	s8,a5,0x10
30002044:	010c5c13          	srli	s8,s8,0x10
30002048:	002ad783          	lhu	a5,2(s5)
3000204c:	00caa483          	lw	s1,12(s5)
30002050:	010a1d13          	slli	s10,s4,0x10
30002054:	039787b3          	mul	a5,a5,s9
30002058:	00000413          	li	s0,0
3000205c:	410d5d13          	srai	s10,s10,0x10
30002060:	016787b3          	add	a5,a5,s6
30002064:	00179793          	slli	a5,a5,0x1
30002068:	00f484b3          	add	s1,s1,a5
3000206c:	00248493          	addi	s1,s1,2
30002070:	ffe4d783          	lhu	a5,-2(s1)
30002074:	008ad803          	lhu	a6,8(s5)
30002078:	008b85b3          	add	a1,s7,s0
3000207c:	01059593          	slli	a1,a1,0x10
30002080:	00098713          	mv	a4,s3
30002084:	00078693          	mv	a3,a5
30002088:	000d0613          	mv	a2,s10
3000208c:	4105d593          	srai	a1,a1,0x10
30002090:	00090513          	mv	a0,s2
30002094:	00f80463          	beq	a6,a5,3000209c <_Z13gfBlitBitmapAP10_tgfBitmapS0_ssh+0x128>
30002098:	408000ef          	jal	ra,300024a0 <_Z7gfPlotAP10_tgfBitmapssth>
3000209c:	00140413          	addi	s0,s0,1
300020a0:	01041413          	slli	s0,s0,0x10
300020a4:	41045413          	srai	s0,s0,0x10
300020a8:	fc8d92e3          	bne	s11,s0,3000206c <_Z13gfBlitBitmapAP10_tgfBitmapS0_ssh+0xf8>
300020ac:	001a0a13          	addi	s4,s4,1
300020b0:	010a1a13          	slli	s4,s4,0x10
300020b4:	010a5a13          	srli	s4,s4,0x10
300020b8:	001c8c93          	addi	s9,s9,1
300020bc:	f94c16e3          	bne	s8,s4,30002048 <_Z13gfBlitBitmapAP10_tgfBitmapS0_ssh+0xd4>
300020c0:	00000513          	li	a0,0
300020c4:	03c12083          	lw	ra,60(sp)
300020c8:	03812403          	lw	s0,56(sp)
300020cc:	03412483          	lw	s1,52(sp)
300020d0:	03012903          	lw	s2,48(sp)
300020d4:	02c12983          	lw	s3,44(sp)
300020d8:	02812a03          	lw	s4,40(sp)
300020dc:	02412a83          	lw	s5,36(sp)
300020e0:	02012b03          	lw	s6,32(sp)
300020e4:	01c12b83          	lw	s7,28(sp)
300020e8:	01812c03          	lw	s8,24(sp)
300020ec:	01412c83          	lw	s9,20(sp)
300020f0:	01012d03          	lw	s10,16(sp)
300020f4:	00c12d83          	lw	s11,12(sp)
300020f8:	04010113          	addi	sp,sp,64
300020fc:	00008067          	ret
30002100:	01061b93          	slli	s7,a2,0x10
30002104:	010bdb93          	srli	s7,s7,0x10
30002108:	41700b33          	neg	s6,s7
3000210c:	017d8db3          	add	s11,s11,s7
30002110:	010b1b13          	slli	s6,s6,0x10
30002114:	010d9d93          	slli	s11,s11,0x10
30002118:	410b5b13          	srai	s6,s6,0x10
3000211c:	410ddd93          	srai	s11,s11,0x10
30002120:	00000713          	li	a4,0
30002124:	00000b93          	li	s7,0
30002128:	ea06dee3          	bgez	a3,30001fe4 <_Z13gfBlitBitmapAP10_tgfBitmapS0_ssh+0x70>
3000212c:	01069a13          	slli	s4,a3,0x10
30002130:	010a5a13          	srli	s4,s4,0x10
30002134:	41400cb3          	neg	s9,s4
30002138:	014787b3          	add	a5,a5,s4
3000213c:	010c9c93          	slli	s9,s9,0x10
30002140:	01079793          	slli	a5,a5,0x10
30002144:	410cdc93          	srai	s9,s9,0x10
30002148:	4107d793          	srai	a5,a5,0x10
3000214c:	00000693          	li	a3,0
30002150:	ea1ff06f          	j	30001ff0 <_Z13gfBlitBitmapAP10_tgfBitmapS0_ssh+0x7c>
30002154:	010b9b93          	slli	s7,s7,0x10
30002158:	01069a13          	slli	s4,a3,0x10
3000215c:	010bdb93          	srli	s7,s7,0x10
30002160:	010a5a13          	srli	s4,s4,0x10
30002164:	00fa07b3          	add	a5,s4,a5
30002168:	01bb84b3          	add	s1,s7,s11
3000216c:	01079d13          	slli	s10,a5,0x10
30002170:	01049493          	slli	s1,s1,0x10
30002174:	010d5d13          	srli	s10,s10,0x10
30002178:	0104d493          	srli	s1,s1,0x10
3000217c:	002ad783          	lhu	a5,2(s5)
30002180:	00caad83          	lw	s11,12(s5)
30002184:	010a1c13          	slli	s8,s4,0x10
30002188:	039787b3          	mul	a5,a5,s9
3000218c:	410c5c13          	srai	s8,s8,0x10
30002190:	000b8413          	mv	s0,s7
30002194:	016787b3          	add	a5,a5,s6
30002198:	00179793          	slli	a5,a5,0x1
3000219c:	00fd8db3          	add	s11,s11,a5
300021a0:	000dd683          	lhu	a3,0(s11)
300021a4:	01041593          	slli	a1,s0,0x10
300021a8:	00140413          	addi	s0,s0,1
300021ac:	01041413          	slli	s0,s0,0x10
300021b0:	4105d593          	srai	a1,a1,0x10
300021b4:	00098713          	mv	a4,s3
300021b8:	000c0613          	mv	a2,s8
300021bc:	00090513          	mv	a0,s2
300021c0:	01045413          	srli	s0,s0,0x10
300021c4:	2dc000ef          	jal	ra,300024a0 <_Z7gfPlotAP10_tgfBitmapssth>
300021c8:	002d8d93          	addi	s11,s11,2
300021cc:	fc849ae3          	bne	s1,s0,300021a0 <_Z13gfBlitBitmapAP10_tgfBitmapS0_ssh+0x22c>
300021d0:	001a0a13          	addi	s4,s4,1
300021d4:	010a1a13          	slli	s4,s4,0x10
300021d8:	010a5a13          	srli	s4,s4,0x10
300021dc:	001c8c93          	addi	s9,s9,1
300021e0:	f94d1ee3          	bne	s10,s4,3000217c <_Z13gfBlitBitmapAP10_tgfBitmapS0_ssh+0x208>
300021e4:	eddff06f          	j	300020c0 <_Z13gfBlitBitmapAP10_tgfBitmapS0_ssh+0x14c>
300021e8:	00100513          	li	a0,1
300021ec:	00008067          	ret
300021f0:	00100513          	li	a0,1
300021f4:	ed1ff06f          	j	300020c4 <_Z13gfBlitBitmapAP10_tgfBitmapS0_ssh+0x150>

300021f8 <_Z18gfBlitScaledBitmapP10_tgfBitmapS0_ssss>:
300021f8:	16050e63          	beqz	a0,30002374 <_Z18gfBlitScaledBitmapP10_tgfBitmapS0_ssss+0x17c>
300021fc:	16058c63          	beqz	a1,30002374 <_Z18gfBlitScaledBitmapP10_tgfBitmapS0_ssss+0x17c>
30002200:	0005d803          	lhu	a6,0(a1)
30002204:	0045d303          	lhu	t1,4(a1)
30002208:	00060e93          	mv	t4,a2
3000220c:	01081813          	slli	a6,a6,0x10
30002210:	01031313          	slli	t1,t1,0x10
30002214:	02e85833          	divu	a6,a6,a4
30002218:	00000e13          	li	t3,0
3000221c:	02f35333          	divu	t1,t1,a5
30002220:	10064463          	bltz	a2,30002328 <_Z18gfBlitScaledBitmapP10_tgfBitmapS0_ssss+0x130>
30002224:	00000893          	li	a7,0
30002228:	1206c263          	bltz	a3,3000234c <_Z18gfBlitScaledBitmapP10_tgfBitmapS0_ssss+0x154>
3000222c:	00055f03          	lhu	t5,0(a0)
30002230:	01d70fb3          	add	t6,a4,t4
30002234:	01efc863          	blt	t6,t5,30002244 <_Z18gfBlitScaledBitmapP10_tgfBitmapS0_ssss+0x4c>
30002238:	40cf0733          	sub	a4,t5,a2
3000223c:	01071713          	slli	a4,a4,0x10
30002240:	41075713          	srai	a4,a4,0x10
30002244:	1ce05063          	blez	a4,30002404 <_Z18gfBlitScaledBitmapP10_tgfBitmapS0_ssss+0x20c>
30002248:	00455603          	lhu	a2,4(a0)
3000224c:	00d78f33          	add	t5,a5,a3
30002250:	00cf4863          	blt	t5,a2,30002260 <_Z18gfBlitScaledBitmapP10_tgfBitmapS0_ssss+0x68>
30002254:	40d60633          	sub	a2,a2,a3
30002258:	01061793          	slli	a5,a2,0x10
3000225c:	4107d793          	srai	a5,a5,0x10
30002260:	1af05263          	blez	a5,30002404 <_Z18gfBlitScaledBitmapP10_tgfBitmapS0_ssss+0x20c>
30002264:	0065df83          	lhu	t6,6(a1)
30002268:	ff010113          	addi	sp,sp,-16
3000226c:	fff70713          	addi	a4,a4,-1
30002270:	01071713          	slli	a4,a4,0x10
30002274:	00812623          	sw	s0,12(sp)
30002278:	00912423          	sw	s1,8(sp)
3000227c:	01212223          	sw	s2,4(sp)
30002280:	001fff93          	andi	t6,t6,1
30002284:	00c5a603          	lw	a2,12(a1)
30002288:	00c52f03          	lw	t5,12(a0)
3000228c:	fff78793          	addi	a5,a5,-1
30002290:	01075713          	srli	a4,a4,0x10
30002294:	0e0f8463          	beqz	t6,3000237c <_Z18gfBlitScaledBitmapP10_tgfBitmapS0_ssss+0x184>
30002298:	01079793          	slli	a5,a5,0x10
3000229c:	00168913          	addi	s2,a3,1
300022a0:	0107d793          	srli	a5,a5,0x10
300022a4:	00170493          	addi	s1,a4,1
300022a8:	00f90933          	add	s2,s2,a5
300022ac:	00149493          	slli	s1,s1,0x1
300022b0:	00255703          	lhu	a4,2(a0)
300022b4:	0025d783          	lhu	a5,2(a1)
300022b8:	006888b3          	add	a7,a7,t1
300022bc:	02d70733          	mul	a4,a4,a3
300022c0:	0108d393          	srli	t2,a7,0x10
300022c4:	000e0f93          	mv	t6,t3
300022c8:	02f383b3          	mul	t2,t2,a5
300022cc:	01d70733          	add	a4,a4,t4
300022d0:	00171713          	slli	a4,a4,0x1
300022d4:	00ef0733          	add	a4,t5,a4
300022d8:	00970433          	add	s0,a4,s1
300022dc:	010fd793          	srli	a5,t6,0x10
300022e0:	007787b3          	add	a5,a5,t2
300022e4:	00179793          	slli	a5,a5,0x1
300022e8:	00f607b3          	add	a5,a2,a5
300022ec:	0007d783          	lhu	a5,0(a5)
300022f0:	0085d283          	lhu	t0,8(a1)
300022f4:	00270713          	addi	a4,a4,2
300022f8:	010f8fb3          	add	t6,t6,a6
300022fc:	00f28463          	beq	t0,a5,30002304 <_Z18gfBlitScaledBitmapP10_tgfBitmapS0_ssss+0x10c>
30002300:	fef71f23          	sh	a5,-2(a4)
30002304:	fc871ce3          	bne	a4,s0,300022dc <_Z18gfBlitScaledBitmapP10_tgfBitmapS0_ssss+0xe4>
30002308:	00168693          	addi	a3,a3,1
3000230c:	fad912e3          	bne	s2,a3,300022b0 <_Z18gfBlitScaledBitmapP10_tgfBitmapS0_ssss+0xb8>
30002310:	00c12403          	lw	s0,12(sp)
30002314:	00812483          	lw	s1,8(sp)
30002318:	00412903          	lw	s2,4(sp)
3000231c:	00000513          	li	a0,0
30002320:	01010113          	addi	sp,sp,16
30002324:	00008067          	ret
30002328:	40c00e33          	neg	t3,a2
3000232c:	41c70733          	sub	a4,a4,t3
30002330:	01071713          	slli	a4,a4,0x10
30002334:	41075713          	srai	a4,a4,0x10
30002338:	00000e93          	li	t4,0
3000233c:	00000613          	li	a2,0
30002340:	03c80e33          	mul	t3,a6,t3
30002344:	00000893          	li	a7,0
30002348:	ee06d2e3          	bgez	a3,3000222c <_Z18gfBlitScaledBitmapP10_tgfBitmapS0_ssss+0x34>
3000234c:	40d008b3          	neg	a7,a3
30002350:	00055f03          	lhu	t5,0(a0)
30002354:	411787b3          	sub	a5,a5,a7
30002358:	01079793          	slli	a5,a5,0x10
3000235c:	01d70fb3          	add	t6,a4,t4
30002360:	4107d793          	srai	a5,a5,0x10
30002364:	00000693          	li	a3,0
30002368:	031308b3          	mul	a7,t1,a7
3000236c:	edefcce3          	blt	t6,t5,30002244 <_Z18gfBlitScaledBitmapP10_tgfBitmapS0_ssss+0x4c>
30002370:	ec9ff06f          	j	30002238 <_Z18gfBlitScaledBitmapP10_tgfBitmapS0_ssss+0x40>
30002374:	00100513          	li	a0,1
30002378:	00008067          	ret
3000237c:	01079793          	slli	a5,a5,0x10
30002380:	00168493          	addi	s1,a3,1
30002384:	0107d793          	srli	a5,a5,0x10
30002388:	00170413          	addi	s0,a4,1
3000238c:	00f484b3          	add	s1,s1,a5
30002390:	00141413          	slli	s0,s0,0x1
30002394:	00255703          	lhu	a4,2(a0)
30002398:	0025d783          	lhu	a5,2(a1)
3000239c:	006888b3          	add	a7,a7,t1
300023a0:	02d70733          	mul	a4,a4,a3
300023a4:	0108d293          	srli	t0,a7,0x10
300023a8:	000e0f93          	mv	t6,t3
300023ac:	02f282b3          	mul	t0,t0,a5
300023b0:	01d70733          	add	a4,a4,t4
300023b4:	00171713          	slli	a4,a4,0x1
300023b8:	00ef0733          	add	a4,t5,a4
300023bc:	008703b3          	add	t2,a4,s0
300023c0:	010fd793          	srli	a5,t6,0x10
300023c4:	005787b3          	add	a5,a5,t0
300023c8:	00179793          	slli	a5,a5,0x1
300023cc:	00f607b3          	add	a5,a2,a5
300023d0:	0007d783          	lhu	a5,0(a5)
300023d4:	00270713          	addi	a4,a4,2
300023d8:	010f8fb3          	add	t6,t6,a6
300023dc:	fef71f23          	sh	a5,-2(a4)
300023e0:	fe7710e3          	bne	a4,t2,300023c0 <_Z18gfBlitScaledBitmapP10_tgfBitmapS0_ssss+0x1c8>
300023e4:	00168693          	addi	a3,a3,1
300023e8:	fad496e3          	bne	s1,a3,30002394 <_Z18gfBlitScaledBitmapP10_tgfBitmapS0_ssss+0x19c>
300023ec:	00c12403          	lw	s0,12(sp)
300023f0:	00812483          	lw	s1,8(sp)
300023f4:	00412903          	lw	s2,4(sp)
300023f8:	00000513          	li	a0,0
300023fc:	01010113          	addi	sp,sp,16
30002400:	00008067          	ret
30002404:	00000513          	li	a0,0
30002408:	00008067          	ret

3000240c <_Z6gfPlotP10_tgfBitmapsst>:
3000240c:	00050793          	mv	a5,a0
30002410:	00100513          	li	a0,1
30002414:	04078063          	beqz	a5,30002454 <_Z6gfPlotP10_tgfBitmapsst+0x48>
30002418:	0205ce63          	bltz	a1,30002454 <_Z6gfPlotP10_tgfBitmapsst+0x48>
3000241c:	02064c63          	bltz	a2,30002454 <_Z6gfPlotP10_tgfBitmapsst+0x48>
30002420:	0007d703          	lhu	a4,0(a5)
30002424:	02e5d863          	bge	a1,a4,30002454 <_Z6gfPlotP10_tgfBitmapsst+0x48>
30002428:	0047d703          	lhu	a4,4(a5)
3000242c:	02e65463          	bge	a2,a4,30002454 <_Z6gfPlotP10_tgfBitmapsst+0x48>
30002430:	0027d703          	lhu	a4,2(a5)
30002434:	00c7a783          	lw	a5,12(a5)
30002438:	00000513          	li	a0,0
3000243c:	02c70633          	mul	a2,a4,a2
30002440:	00b60633          	add	a2,a2,a1
30002444:	00161613          	slli	a2,a2,0x1
30002448:	00c78633          	add	a2,a5,a2
3000244c:	00d61023          	sh	a3,0(a2)
30002450:	00008067          	ret
30002454:	00008067          	ret

30002458 <_Z10gfGetPixelP10_tgfBitmapss>:
30002458:	00050793          	mv	a5,a0
3000245c:	00000513          	li	a0,0
30002460:	02078e63          	beqz	a5,3000249c <_Z10gfGetPixelP10_tgfBitmapss+0x44>
30002464:	0205cc63          	bltz	a1,3000249c <_Z10gfGetPixelP10_tgfBitmapss+0x44>
30002468:	02064a63          	bltz	a2,3000249c <_Z10gfGetPixelP10_tgfBitmapss+0x44>
3000246c:	0007d703          	lhu	a4,0(a5)
30002470:	02e5d663          	bge	a1,a4,3000249c <_Z10gfGetPixelP10_tgfBitmapss+0x44>
30002474:	0047d703          	lhu	a4,4(a5)
30002478:	02e65263          	bge	a2,a4,3000249c <_Z10gfGetPixelP10_tgfBitmapss+0x44>
3000247c:	0027d703          	lhu	a4,2(a5)
30002480:	00c7a783          	lw	a5,12(a5)
30002484:	02c70633          	mul	a2,a4,a2
30002488:	00b60633          	add	a2,a2,a1
3000248c:	00161613          	slli	a2,a2,0x1
30002490:	00c78633          	add	a2,a5,a2
30002494:	00065503          	lhu	a0,0(a2)
30002498:	00008067          	ret
3000249c:	00008067          	ret

300024a0 <_Z7gfPlotAP10_tgfBitmapssth>:
300024a0:	00050793          	mv	a5,a0
300024a4:	00100513          	li	a0,1
300024a8:	0a078e63          	beqz	a5,30002564 <_Z7gfPlotAP10_tgfBitmapssth+0xc4>
300024ac:	0a05cc63          	bltz	a1,30002564 <_Z7gfPlotAP10_tgfBitmapssth+0xc4>
300024b0:	0a064a63          	bltz	a2,30002564 <_Z7gfPlotAP10_tgfBitmapssth+0xc4>
300024b4:	0007d803          	lhu	a6,0(a5)
300024b8:	0b05d663          	bge	a1,a6,30002564 <_Z7gfPlotAP10_tgfBitmapssth+0xc4>
300024bc:	0047d803          	lhu	a6,4(a5)
300024c0:	0b065263          	bge	a2,a6,30002564 <_Z7gfPlotAP10_tgfBitmapssth+0xc4>
300024c4:	0027d503          	lhu	a0,2(a5)
300024c8:	00c7a303          	lw	t1,12(a5)
300024cc:	4036d813          	srai	a6,a3,0x3
300024d0:	02c50633          	mul	a2,a0,a2
300024d4:	00369793          	slli	a5,a3,0x3
300024d8:	0fc87813          	andi	a6,a6,252
300024dc:	4086d693          	srai	a3,a3,0x8
300024e0:	0f86f893          	andi	a7,a3,248
300024e4:	0ff00e13          	li	t3,255
300024e8:	40ee0e33          	sub	t3,t3,a4
300024ec:	0ff7f793          	andi	a5,a5,255
300024f0:	00000513          	li	a0,0
300024f4:	00b60633          	add	a2,a2,a1
300024f8:	00161593          	slli	a1,a2,0x1
300024fc:	00b305b3          	add	a1,t1,a1
30002500:	0005d603          	lhu	a2,0(a1)
30002504:	02e806b3          	mul	a3,a6,a4
30002508:	00361313          	slli	t1,a2,0x3
3000250c:	40365813          	srai	a6,a2,0x3
30002510:	0fc87813          	andi	a6,a6,252
30002514:	0ff37313          	andi	t1,t1,255
30002518:	40865613          	srai	a2,a2,0x8
3000251c:	0f867613          	andi	a2,a2,248
30002520:	03c80833          	mul	a6,a6,t3
30002524:	03c30333          	mul	t1,t1,t3
30002528:	010686b3          	add	a3,a3,a6
3000252c:	0056d693          	srli	a3,a3,0x5
30002530:	7e06f693          	andi	a3,a3,2016
30002534:	02e787b3          	mul	a5,a5,a4
30002538:	03c60633          	mul	a2,a2,t3
3000253c:	006787b3          	add	a5,a5,t1
30002540:	00b7d793          	srli	a5,a5,0xb
30002544:	01f7f793          	andi	a5,a5,31
30002548:	00d7e7b3          	or	a5,a5,a3
3000254c:	02e888b3          	mul	a7,a7,a4
30002550:	00c88633          	add	a2,a7,a2
30002554:	80067613          	andi	a2,a2,-2048
30002558:	00c7e7b3          	or	a5,a5,a2
3000255c:	00f59023          	sh	a5,0(a1)
30002560:	00008067          	ret
30002564:	00008067          	ret

30002568 <_Z6gfLineP10_tgfBitmapsssst>:
30002568:	40b68fb3          	sub	t6,a3,a1
3000256c:	41ffd813          	srai	a6,t6,0x1f
30002570:	01f84fb3          	xor	t6,a6,t6
30002574:	410f8fb3          	sub	t6,t6,a6
30002578:	010f9e93          	slli	t4,t6,0x10
3000257c:	410ede93          	srai	t4,t4,0x10
30002580:	00100293          	li	t0,1
30002584:	00d5c663          	blt	a1,a3,30002590 <_Z6gfLineP10_tgfBitmapsssst+0x28>
30002588:	000102b7          	lui	t0,0x10
3000258c:	fff28293          	addi	t0,t0,-1 # ffff <stackPointer+0x92bf>
30002590:	40c70833          	sub	a6,a4,a2
30002594:	41f85893          	srai	a7,a6,0x1f
30002598:	0108cf33          	xor	t5,a7,a6
3000259c:	411f0f33          	sub	t5,t5,a7
300025a0:	010f1f13          	slli	t5,t5,0x10
300025a4:	010f5f13          	srli	t5,t5,0x10
300025a8:	41e00e33          	neg	t3,t5
300025ac:	010e1e13          	slli	t3,t3,0x10
300025b0:	410e5e13          	srai	t3,t3,0x10
300025b4:	00100393          	li	t2,1
300025b8:	00e64663          	blt	a2,a4,300025c4 <_Z6gfLineP10_tgfBitmapsssst+0x5c>
300025bc:	000103b7          	lui	t2,0x10
300025c0:	fff38393          	addi	t2,t2,-1 # ffff <stackPointer+0x92bf>
300025c4:	010f9f93          	slli	t6,t6,0x10
300025c8:	010fdf93          	srli	t6,t6,0x10
300025cc:	41ef8833          	sub	a6,t6,t5
300025d0:	01081313          	slli	t1,a6,0x10
300025d4:	41035313          	srai	t1,t1,0x10
300025d8:	0a050063          	beqz	a0,30002678 <_Z6gfLineP10_tgfBitmapsssst+0x110>
300025dc:	0205ca63          	bltz	a1,30002610 <_Z6gfLineP10_tgfBitmapsssst+0xa8>
300025e0:	02064863          	bltz	a2,30002610 <_Z6gfLineP10_tgfBitmapsssst+0xa8>
300025e4:	00055803          	lhu	a6,0(a0)
300025e8:	0305d463          	bge	a1,a6,30002610 <_Z6gfLineP10_tgfBitmapsssst+0xa8>
300025ec:	00455803          	lhu	a6,4(a0)
300025f0:	03065063          	bge	a2,a6,30002610 <_Z6gfLineP10_tgfBitmapsssst+0xa8>
300025f4:	00255803          	lhu	a6,2(a0)
300025f8:	00c52883          	lw	a7,12(a0)
300025fc:	02c80833          	mul	a6,a6,a2
30002600:	00b80833          	add	a6,a6,a1
30002604:	00181813          	slli	a6,a6,0x1
30002608:	01088833          	add	a6,a7,a6
3000260c:	00f81023          	sh	a5,0(a6)
30002610:	04d58e63          	beq	a1,a3,3000266c <_Z6gfLineP10_tgfBitmapsssst+0x104>
30002614:	01031813          	slli	a6,t1,0x10
30002618:	01085813          	srli	a6,a6,0x10
3000261c:	00181893          	slli	a7,a6,0x1
30002620:	01089893          	slli	a7,a7,0x10
30002624:	4108d893          	srai	a7,a7,0x10
30002628:	03c8c263          	blt	a7,t3,3000264c <_Z6gfLineP10_tgfBitmapsssst+0xe4>
3000262c:	41e80833          	sub	a6,a6,t5
30002630:	01081813          	slli	a6,a6,0x10
30002634:	01085813          	srli	a6,a6,0x10
30002638:	00b285b3          	add	a1,t0,a1
3000263c:	01081313          	slli	t1,a6,0x10
30002640:	01059593          	slli	a1,a1,0x10
30002644:	41035313          	srai	t1,t1,0x10
30002648:	4105d593          	srai	a1,a1,0x10
3000264c:	f91ec8e3          	blt	t4,a7,300025dc <_Z6gfLineP10_tgfBitmapsssst+0x74>
30002650:	010f8833          	add	a6,t6,a6
30002654:	00c38633          	add	a2,t2,a2
30002658:	01081313          	slli	t1,a6,0x10
3000265c:	01061613          	slli	a2,a2,0x10
30002660:	41035313          	srai	t1,t1,0x10
30002664:	41065613          	srai	a2,a2,0x10
30002668:	f75ff06f          	j	300025dc <_Z6gfLineP10_tgfBitmapsssst+0x74>
3000266c:	fae614e3          	bne	a2,a4,30002614 <_Z6gfLineP10_tgfBitmapsssst+0xac>
30002670:	00000513          	li	a0,0
30002674:	00008067          	ret
30002678:	ff010113          	addi	sp,sp,-16
3000267c:	00812623          	sw	s0,12(sp)
30002680:	01031793          	slli	a5,t1,0x10
30002684:	0107d793          	srli	a5,a5,0x10
30002688:	00179513          	slli	a0,a5,0x1
3000268c:	01051513          	slli	a0,a0,0x10
30002690:	41e78433          	sub	s0,a5,t5
30002694:	41055513          	srai	a0,a0,0x10
30002698:	00b288b3          	add	a7,t0,a1
3000269c:	00c38833          	add	a6,t2,a2
300026a0:	02d58e63          	beq	a1,a3,300026dc <_Z6gfLineP10_tgfBitmapsssst+0x174>
300026a4:	01c54e63          	blt	a0,t3,300026c0 <_Z6gfLineP10_tgfBitmapsssst+0x158>
300026a8:	01041793          	slli	a5,s0,0x10
300026ac:	0107d793          	srli	a5,a5,0x10
300026b0:	01079313          	slli	t1,a5,0x10
300026b4:	01089593          	slli	a1,a7,0x10
300026b8:	41035313          	srai	t1,t1,0x10
300026bc:	4105d593          	srai	a1,a1,0x10
300026c0:	00ff87b3          	add	a5,t6,a5
300026c4:	faaecee3          	blt	t4,a0,30002680 <_Z6gfLineP10_tgfBitmapsssst+0x118>
300026c8:	01079313          	slli	t1,a5,0x10
300026cc:	01081613          	slli	a2,a6,0x10
300026d0:	41035313          	srai	t1,t1,0x10
300026d4:	41065613          	srai	a2,a2,0x10
300026d8:	fa9ff06f          	j	30002680 <_Z6gfLineP10_tgfBitmapsssst+0x118>
300026dc:	fce614e3          	bne	a2,a4,300026a4 <_Z6gfLineP10_tgfBitmapsssst+0x13c>
300026e0:	00c12403          	lw	s0,12(sp)
300026e4:	00000513          	li	a0,0
300026e8:	01010113          	addi	sp,sp,16
300026ec:	00008067          	ret

300026f0 <_Z8gfCircleP10_tgfBitmapssst>:
300026f0:	00100313          	li	t1,1
300026f4:	40d30333          	sub	t1,t1,a3
300026f8:	40d008b3          	neg	a7,a3
300026fc:	00131693          	slli	a3,t1,0x1
30002700:	01089893          	slli	a7,a7,0x10
30002704:	01069313          	slli	t1,a3,0x10
30002708:	01059593          	slli	a1,a1,0x10
3000270c:	01061613          	slli	a2,a2,0x10
30002710:	4108d893          	srai	a7,a7,0x10
30002714:	41035313          	srai	t1,t1,0x10
30002718:	0105d593          	srli	a1,a1,0x10
3000271c:	01065613          	srli	a2,a2,0x10
30002720:	00000e13          	li	t3,0
30002724:	01089793          	slli	a5,a7,0x10
30002728:	0107d793          	srli	a5,a5,0x10
3000272c:	40f586b3          	sub	a3,a1,a5
30002730:	01069693          	slli	a3,a3,0x10
30002734:	010e1813          	slli	a6,t3,0x10
30002738:	4106d693          	srai	a3,a3,0x10
3000273c:	01085813          	srli	a6,a6,0x10
30002740:	12050463          	beqz	a0,30002868 <_Z8gfCircleP10_tgfBitmapssst+0x178>
30002744:	0406c063          	bltz	a3,30002784 <_Z8gfCircleP10_tgfBitmapssst+0x94>
30002748:	00c80eb3          	add	t4,a6,a2
3000274c:	010e9e93          	slli	t4,t4,0x10
30002750:	410ede93          	srai	t4,t4,0x10
30002754:	020ec863          	bltz	t4,30002784 <_Z8gfCircleP10_tgfBitmapssst+0x94>
30002758:	00055f03          	lhu	t5,0(a0)
3000275c:	03e6d463          	bge	a3,t5,30002784 <_Z8gfCircleP10_tgfBitmapssst+0x94>
30002760:	00455f03          	lhu	t5,4(a0)
30002764:	03eed063          	bge	t4,t5,30002784 <_Z8gfCircleP10_tgfBitmapssst+0x94>
30002768:	00255f03          	lhu	t5,2(a0)
3000276c:	00c52f83          	lw	t6,12(a0)
30002770:	03df0eb3          	mul	t4,t5,t4
30002774:	00de86b3          	add	a3,t4,a3
30002778:	00169693          	slli	a3,a3,0x1
3000277c:	00df86b3          	add	a3,t6,a3
30002780:	00e69023          	sh	a4,0(a3)
30002784:	410586b3          	sub	a3,a1,a6
30002788:	01069693          	slli	a3,a3,0x10
3000278c:	4106d693          	srai	a3,a3,0x10
30002790:	0406c063          	bltz	a3,300027d0 <_Z8gfCircleP10_tgfBitmapssst+0xe0>
30002794:	40f60eb3          	sub	t4,a2,a5
30002798:	010e9e93          	slli	t4,t4,0x10
3000279c:	410ede93          	srai	t4,t4,0x10
300027a0:	020ec863          	bltz	t4,300027d0 <_Z8gfCircleP10_tgfBitmapssst+0xe0>
300027a4:	00055f03          	lhu	t5,0(a0)
300027a8:	03e6d463          	bge	a3,t5,300027d0 <_Z8gfCircleP10_tgfBitmapssst+0xe0>
300027ac:	00455f03          	lhu	t5,4(a0)
300027b0:	03eed063          	bge	t4,t5,300027d0 <_Z8gfCircleP10_tgfBitmapssst+0xe0>
300027b4:	00255f03          	lhu	t5,2(a0)
300027b8:	00c52f83          	lw	t6,12(a0)
300027bc:	03df0eb3          	mul	t4,t5,t4
300027c0:	00de86b3          	add	a3,t4,a3
300027c4:	00169693          	slli	a3,a3,0x1
300027c8:	00df86b3          	add	a3,t6,a3
300027cc:	00e69023          	sh	a4,0(a3)
300027d0:	00b786b3          	add	a3,a5,a1
300027d4:	01069693          	slli	a3,a3,0x10
300027d8:	4106d693          	srai	a3,a3,0x10
300027dc:	0406c063          	bltz	a3,3000281c <_Z8gfCircleP10_tgfBitmapssst+0x12c>
300027e0:	41060eb3          	sub	t4,a2,a6
300027e4:	010e9e93          	slli	t4,t4,0x10
300027e8:	410ede93          	srai	t4,t4,0x10
300027ec:	020ec863          	bltz	t4,3000281c <_Z8gfCircleP10_tgfBitmapssst+0x12c>
300027f0:	00055f03          	lhu	t5,0(a0)
300027f4:	03e6d463          	bge	a3,t5,3000281c <_Z8gfCircleP10_tgfBitmapssst+0x12c>
300027f8:	00455f03          	lhu	t5,4(a0)
300027fc:	03eed063          	bge	t4,t5,3000281c <_Z8gfCircleP10_tgfBitmapssst+0x12c>
30002800:	00255f03          	lhu	t5,2(a0)
30002804:	00c52f83          	lw	t6,12(a0)
30002808:	03df0eb3          	mul	t4,t5,t4
3000280c:	00de86b3          	add	a3,t4,a3
30002810:	00169693          	slli	a3,a3,0x1
30002814:	00df86b3          	add	a3,t6,a3
30002818:	00e69023          	sh	a4,0(a3)
3000281c:	00b806b3          	add	a3,a6,a1
30002820:	01069693          	slli	a3,a3,0x10
30002824:	4106d693          	srai	a3,a3,0x10
30002828:	0406c063          	bltz	a3,30002868 <_Z8gfCircleP10_tgfBitmapssst+0x178>
3000282c:	00c78eb3          	add	t4,a5,a2
30002830:	010e9e93          	slli	t4,t4,0x10
30002834:	410ede93          	srai	t4,t4,0x10
30002838:	020ec863          	bltz	t4,30002868 <_Z8gfCircleP10_tgfBitmapssst+0x178>
3000283c:	00055f03          	lhu	t5,0(a0)
30002840:	03e6d463          	bge	a3,t5,30002868 <_Z8gfCircleP10_tgfBitmapssst+0x178>
30002844:	00455f03          	lhu	t5,4(a0)
30002848:	03eed063          	bge	t4,t5,30002868 <_Z8gfCircleP10_tgfBitmapssst+0x178>
3000284c:	00255f03          	lhu	t5,2(a0)
30002850:	00c52f83          	lw	t6,12(a0)
30002854:	03df0eb3          	mul	t4,t5,t4
30002858:	00de86b3          	add	a3,t4,a3
3000285c:	00169693          	slli	a3,a3,0x1
30002860:	00df86b3          	add	a3,t6,a3
30002864:	00e69023          	sh	a4,0(a3)
30002868:	01031693          	slli	a3,t1,0x10
3000286c:	0106d693          	srli	a3,a3,0x10
30002870:	046e4263          	blt	t3,t1,300028b4 <_Z8gfCircleP10_tgfBitmapssst+0x1c4>
30002874:	00180813          	addi	a6,a6,1
30002878:	01081e13          	slli	t3,a6,0x10
3000287c:	410e5e13          	srai	t3,t3,0x10
30002880:	001e1813          	slli	a6,t3,0x1
30002884:	00180813          	addi	a6,a6,1
30002888:	010686b3          	add	a3,a3,a6
3000288c:	01069693          	slli	a3,a3,0x10
30002890:	0106d693          	srli	a3,a3,0x10
30002894:	01069813          	slli	a6,a3,0x10
30002898:	41085813          	srai	a6,a6,0x10
3000289c:	0068cc63          	blt	a7,t1,300028b4 <_Z8gfCircleP10_tgfBitmapssst+0x1c4>
300028a0:	00080313          	mv	t1,a6
300028a4:	010e4863          	blt	t3,a6,300028b4 <_Z8gfCircleP10_tgfBitmapssst+0x1c4>
300028a8:	e608cee3          	bltz	a7,30002724 <_Z8gfCircleP10_tgfBitmapssst+0x34>
300028ac:	00000513          	li	a0,0
300028b0:	00008067          	ret
300028b4:	00178793          	addi	a5,a5,1
300028b8:	01079893          	slli	a7,a5,0x10
300028bc:	4108d893          	srai	a7,a7,0x10
300028c0:	00189793          	slli	a5,a7,0x1
300028c4:	00178793          	addi	a5,a5,1
300028c8:	00f686b3          	add	a3,a3,a5
300028cc:	01069313          	slli	t1,a3,0x10
300028d0:	41035313          	srai	t1,t1,0x10
300028d4:	e408c8e3          	bltz	a7,30002724 <_Z8gfCircleP10_tgfBitmapssst+0x34>
300028d8:	fd5ff06f          	j	300028ac <_Z8gfCircleP10_tgfBitmapssst+0x1bc>

300028dc <_Z9gfEllipseP10_tgfBitmapsssst>:
300028dc:	40c702b3          	sub	t0,a4,a2
300028e0:	41f2d893          	srai	a7,t0,0x1f
300028e4:	40b683b3          	sub	t2,a3,a1
300028e8:	41f3d813          	srai	a6,t2,0x1f
300028ec:	0058ce33          	xor	t3,a7,t0
300028f0:	411e0e33          	sub	t3,t3,a7
300028f4:	00784333          	xor	t1,a6,t2
300028f8:	41030333          	sub	t1,t1,a6
300028fc:	00100e93          	li	t4,1
30002900:	001e7813          	andi	a6,t3,1
30002904:	406e8eb3          	sub	t4,t4,t1
30002908:	00180f13          	addi	t5,a6,1
3000290c:	026f0f33          	mul	t5,t5,t1
30002910:	03ce8eb3          	mul	t4,t4,t3
30002914:	406f08b3          	sub	a7,t5,t1
30002918:	03ce8eb3          	mul	t4,t4,t3
3000291c:	026f0f33          	mul	t5,t5,t1
30002920:	002e9e93          	slli	t4,t4,0x2
30002924:	026888b3          	mul	a7,a7,t1
30002928:	002f1f13          	slli	t5,t5,0x2
3000292c:	01ee8fb3          	add	t6,t4,t5
30002930:	01f888b3          	add	a7,a7,t6
30002934:	00b6da63          	bge	a3,a1,30002948 <_Z9gfEllipseP10_tgfBitmapsssst+0x6c>
30002938:	00d30333          	add	t1,t1,a3
3000293c:	00068593          	mv	a1,a3
30002940:	01031693          	slli	a3,t1,0x10
30002944:	4106d693          	srai	a3,a3,0x10
30002948:	001e0313          	addi	t1,t3,1
3000294c:	40135313          	srai	t1,t1,0x1
30002950:	00070f93          	mv	t6,a4
30002954:	00e65463          	bge	a2,a4,3000295c <_Z9gfEllipseP10_tgfBitmapsssst+0x80>
30002958:	00060f93          	mv	t6,a2
3000295c:	027383b3          	mul	t2,t2,t2
30002960:	01f30333          	add	t1,t1,t6
30002964:	01031313          	slli	t1,t1,0x10
30002968:	01035313          	srli	t1,t1,0x10
3000296c:	41030833          	sub	a6,t1,a6
30002970:	01081813          	slli	a6,a6,0x10
30002974:	01031313          	slli	t1,t1,0x10
30002978:	41035313          	srai	t1,t1,0x10
3000297c:	41085813          	srai	a6,a6,0x10
30002980:	025282b3          	mul	t0,t0,t0
30002984:	00339393          	slli	t2,t2,0x3
30002988:	00329293          	slli	t0,t0,0x3
3000298c:	0c050463          	beqz	a0,30002a54 <_Z9gfEllipseP10_tgfBitmapsssst+0x178>
30002990:	2c06c863          	bltz	a3,30002c60 <_Z9gfEllipseP10_tgfBitmapsssst+0x384>
30002994:	2e034263          	bltz	t1,30002c78 <_Z9gfEllipseP10_tgfBitmapsssst+0x39c>
30002998:	00055703          	lhu	a4,0(a0)
3000299c:	02e6d463          	bge	a3,a4,300029c4 <_Z9gfEllipseP10_tgfBitmapsssst+0xe8>
300029a0:	00455703          	lhu	a4,4(a0)
300029a4:	02e35063          	bge	t1,a4,300029c4 <_Z9gfEllipseP10_tgfBitmapsssst+0xe8>
300029a8:	00255703          	lhu	a4,2(a0)
300029ac:	00c52603          	lw	a2,12(a0)
300029b0:	02670733          	mul	a4,a4,t1
300029b4:	00d70733          	add	a4,a4,a3
300029b8:	00171713          	slli	a4,a4,0x1
300029bc:	00e60733          	add	a4,a2,a4
300029c0:	00f71023          	sh	a5,0(a4)
300029c4:	2a05cc63          	bltz	a1,30002c7c <_Z9gfEllipseP10_tgfBitmapsssst+0x3a0>
300029c8:	00055703          	lhu	a4,0(a0)
300029cc:	2ae5d263          	bge	a1,a4,30002c70 <_Z9gfEllipseP10_tgfBitmapsssst+0x394>
300029d0:	00455703          	lhu	a4,4(a0)
300029d4:	2ae35863          	bge	t1,a4,30002c84 <_Z9gfEllipseP10_tgfBitmapsssst+0x3a8>
300029d8:	00255703          	lhu	a4,2(a0)
300029dc:	00c52603          	lw	a2,12(a0)
300029e0:	02670733          	mul	a4,a4,t1
300029e4:	00b70733          	add	a4,a4,a1
300029e8:	00171713          	slli	a4,a4,0x1
300029ec:	00e60733          	add	a4,a2,a4
300029f0:	00f71023          	sh	a5,0(a4)
300029f4:	06084063          	bltz	a6,30002a54 <_Z9gfEllipseP10_tgfBitmapsssst+0x178>
300029f8:	00055703          	lhu	a4,0(a0)
300029fc:	02e5d463          	bge	a1,a4,30002a24 <_Z9gfEllipseP10_tgfBitmapsssst+0x148>
30002a00:	00455703          	lhu	a4,4(a0)
30002a04:	02e85063          	bge	a6,a4,30002a24 <_Z9gfEllipseP10_tgfBitmapsssst+0x148>
30002a08:	00255703          	lhu	a4,2(a0)
30002a0c:	00c52603          	lw	a2,12(a0)
30002a10:	03070733          	mul	a4,a4,a6
30002a14:	00b70733          	add	a4,a4,a1
30002a18:	00171713          	slli	a4,a4,0x1
30002a1c:	00e60733          	add	a4,a2,a4
30002a20:	00f71023          	sh	a5,0(a4)
30002a24:	0206c863          	bltz	a3,30002a54 <_Z9gfEllipseP10_tgfBitmapsssst+0x178>
30002a28:	00055703          	lhu	a4,0(a0)
30002a2c:	02e6d463          	bge	a3,a4,30002a54 <_Z9gfEllipseP10_tgfBitmapsssst+0x178>
30002a30:	00455703          	lhu	a4,4(a0)
30002a34:	02e85063          	bge	a6,a4,30002a54 <_Z9gfEllipseP10_tgfBitmapsssst+0x178>
30002a38:	00255703          	lhu	a4,2(a0)
30002a3c:	00c52603          	lw	a2,12(a0)
30002a40:	03070733          	mul	a4,a4,a6
30002a44:	00d70733          	add	a4,a4,a3
30002a48:	00171713          	slli	a4,a4,0x1
30002a4c:	00e60733          	add	a4,a2,a4
30002a50:	00f71023          	sh	a5,0(a4)
30002a54:	01059613          	slli	a2,a1,0x10
30002a58:	01069713          	slli	a4,a3,0x10
30002a5c:	00189f93          	slli	t6,a7,0x1
30002a60:	01065613          	srli	a2,a2,0x10
30002a64:	01075713          	srli	a4,a4,0x10
30002a68:	1dff4063          	blt	t5,t6,30002c28 <_Z9gfEllipseP10_tgfBitmapsssst+0x34c>
30002a6c:	00130313          	addi	t1,t1,1
30002a70:	fff80813          	addi	a6,a6,-1
30002a74:	007f0f33          	add	t5,t5,t2
30002a78:	01031313          	slli	t1,t1,0x10
30002a7c:	01081813          	slli	a6,a6,0x10
30002a80:	41035313          	srai	t1,t1,0x10
30002a84:	41085813          	srai	a6,a6,0x10
30002a88:	01e888b3          	add	a7,a7,t5
30002a8c:	19dfde63          	bge	t6,t4,30002c28 <_Z9gfEllipseP10_tgfBitmapsssst+0x34c>
30002a90:	00189f93          	slli	t6,a7,0x1
30002a94:	19ff4a63          	blt	t5,t6,30002c28 <_Z9gfEllipseP10_tgfBitmapsssst+0x34c>
30002a98:	eeb6dae3          	bge	a3,a1,3000298c <_Z9gfEllipseP10_tgfBitmapsssst+0xb0>
30002a9c:	fff60613          	addi	a2,a2,-1
30002aa0:	00170713          	addi	a4,a4,1
30002aa4:	01061613          	slli	a2,a2,0x10
30002aa8:	01071693          	slli	a3,a4,0x10
30002aac:	410305b3          	sub	a1,t1,a6
30002ab0:	41065613          	srai	a2,a2,0x10
30002ab4:	4106d693          	srai	a3,a3,0x10
30002ab8:	1dc5da63          	bge	a1,t3,30002c8c <_Z9gfEllipseP10_tgfBitmapsssst+0x3b0>
30002abc:	01031293          	slli	t0,t1,0x10
30002ac0:	01081f13          	slli	t5,a6,0x10
30002ac4:	ff010113          	addi	sp,sp,-16
30002ac8:	0102d293          	srli	t0,t0,0x10
30002acc:	010f5f13          	srli	t5,t5,0x10
30002ad0:	00812623          	sw	s0,12(sp)
30002ad4:	00080e93          	mv	t4,a6
30002ad8:	005f0fb3          	add	t6,t5,t0
30002adc:	010e9713          	slli	a4,t4,0x10
30002ae0:	01075713          	srli	a4,a4,0x10
30002ae4:	fff70593          	addi	a1,a4,-1
30002ae8:	01059593          	slli	a1,a1,0x10
30002aec:	0105d593          	srli	a1,a1,0x10
30002af0:	40bf88b3          	sub	a7,t6,a1
30002af4:	01089893          	slli	a7,a7,0x10
30002af8:	01059593          	slli	a1,a1,0x10
30002afc:	4105d593          	srai	a1,a1,0x10
30002b00:	4108d893          	srai	a7,a7,0x10
30002b04:	0e050263          	beqz	a0,30002be8 <_Z9gfEllipseP10_tgfBitmapsssst+0x30c>
30002b08:	10064263          	bltz	a2,30002c0c <_Z9gfEllipseP10_tgfBitmapsssst+0x330>
30002b0c:	40e28733          	sub	a4,t0,a4
30002b10:	00ef03b3          	add	t2,t5,a4
30002b14:	01039413          	slli	s0,t2,0x10
30002b18:	02044863          	bltz	s0,30002b48 <_Z9gfEllipseP10_tgfBitmapsssst+0x26c>
30002b1c:	00055383          	lhu	t2,0(a0)
30002b20:	02765463          	bge	a2,t2,30002b48 <_Z9gfEllipseP10_tgfBitmapsssst+0x26c>
30002b24:	00455383          	lhu	t2,4(a0)
30002b28:	02735063          	bge	t1,t2,30002b48 <_Z9gfEllipseP10_tgfBitmapsssst+0x26c>
30002b2c:	00255383          	lhu	t2,2(a0)
30002b30:	00c52403          	lw	s0,12(a0)
30002b34:	026383b3          	mul	t2,t2,t1
30002b38:	00c383b3          	add	t2,t2,a2
30002b3c:	00139393          	slli	t2,t2,0x1
30002b40:	007403b3          	add	t2,s0,t2
30002b44:	00f39023          	sh	a5,0(t2)
30002b48:	0406c063          	bltz	a3,30002b88 <_Z9gfEllipseP10_tgfBitmapsssst+0x2ac>
30002b4c:	00ef0733          	add	a4,t5,a4
30002b50:	01071393          	slli	t2,a4,0x10
30002b54:	0203ca63          	bltz	t2,30002b88 <_Z9gfEllipseP10_tgfBitmapsssst+0x2ac>
30002b58:	00055703          	lhu	a4,0(a0)
30002b5c:	02e6d463          	bge	a3,a4,30002b84 <_Z9gfEllipseP10_tgfBitmapsssst+0x2a8>
30002b60:	00455703          	lhu	a4,4(a0)
30002b64:	02e35063          	bge	t1,a4,30002b84 <_Z9gfEllipseP10_tgfBitmapsssst+0x2a8>
30002b68:	00255703          	lhu	a4,2(a0)
30002b6c:	00c52383          	lw	t2,12(a0)
30002b70:	02670333          	mul	t1,a4,t1
30002b74:	00d30333          	add	t1,t1,a3
30002b78:	00131313          	slli	t1,t1,0x1
30002b7c:	00638333          	add	t1,t2,t1
30002b80:	00f31023          	sh	a5,0(t1)
30002b84:	08064e63          	bltz	a2,30002c20 <_Z9gfEllipseP10_tgfBitmapsssst+0x344>
30002b88:	060ec063          	bltz	t4,30002be8 <_Z9gfEllipseP10_tgfBitmapsssst+0x30c>
30002b8c:	00055703          	lhu	a4,0(a0)
30002b90:	02e65463          	bge	a2,a4,30002bb8 <_Z9gfEllipseP10_tgfBitmapsssst+0x2dc>
30002b94:	00455703          	lhu	a4,4(a0)
30002b98:	02e85063          	bge	a6,a4,30002bb8 <_Z9gfEllipseP10_tgfBitmapsssst+0x2dc>
30002b9c:	00255703          	lhu	a4,2(a0)
30002ba0:	00c52303          	lw	t1,12(a0)
30002ba4:	03070733          	mul	a4,a4,a6
30002ba8:	00c70733          	add	a4,a4,a2
30002bac:	00171713          	slli	a4,a4,0x1
30002bb0:	00e30733          	add	a4,t1,a4
30002bb4:	00f71023          	sh	a5,0(a4)
30002bb8:	0206c863          	bltz	a3,30002be8 <_Z9gfEllipseP10_tgfBitmapsssst+0x30c>
30002bbc:	00055703          	lhu	a4,0(a0)
30002bc0:	02e6d463          	bge	a3,a4,30002be8 <_Z9gfEllipseP10_tgfBitmapsssst+0x30c>
30002bc4:	00455703          	lhu	a4,4(a0)
30002bc8:	02e85063          	bge	a6,a4,30002be8 <_Z9gfEllipseP10_tgfBitmapsssst+0x30c>
30002bcc:	00255703          	lhu	a4,2(a0)
30002bd0:	00c52303          	lw	t1,12(a0)
30002bd4:	03070833          	mul	a6,a4,a6
30002bd8:	00d80833          	add	a6,a6,a3
30002bdc:	00181813          	slli	a6,a6,0x1
30002be0:	01030833          	add	a6,t1,a6
30002be4:	00f81023          	sh	a5,0(a6)
30002be8:	40b88733          	sub	a4,a7,a1
30002bec:	00058813          	mv	a6,a1
30002bf0:	00088313          	mv	t1,a7
30002bf4:	00058e93          	mv	t4,a1
30002bf8:	efc742e3          	blt	a4,t3,30002adc <_Z9gfEllipseP10_tgfBitmapsssst+0x200>
30002bfc:	00c12403          	lw	s0,12(sp)
30002c00:	00000513          	li	a0,0
30002c04:	01010113          	addi	sp,sp,16
30002c08:	00008067          	ret
30002c0c:	fc06cee3          	bltz	a3,30002be8 <_Z9gfEllipseP10_tgfBitmapsssst+0x30c>
30002c10:	40e28733          	sub	a4,t0,a4
30002c14:	00ef0733          	add	a4,t5,a4
30002c18:	01071393          	slli	t2,a4,0x10
30002c1c:	f203dee3          	bgez	t2,30002b58 <_Z9gfEllipseP10_tgfBitmapsssst+0x27c>
30002c20:	f80edee3          	bgez	t4,30002bbc <_Z9gfEllipseP10_tgfBitmapsssst+0x2e0>
30002c24:	fc5ff06f          	j	30002be8 <_Z9gfEllipseP10_tgfBitmapsssst+0x30c>
30002c28:	00160613          	addi	a2,a2,1
30002c2c:	fff70713          	addi	a4,a4,-1
30002c30:	01061613          	slli	a2,a2,0x10
30002c34:	01071713          	slli	a4,a4,0x10
30002c38:	01065613          	srli	a2,a2,0x10
30002c3c:	01075713          	srli	a4,a4,0x10
30002c40:	01061593          	slli	a1,a2,0x10
30002c44:	01071693          	slli	a3,a4,0x10
30002c48:	005e8eb3          	add	t4,t4,t0
30002c4c:	4105d593          	srai	a1,a1,0x10
30002c50:	4106d693          	srai	a3,a3,0x10
30002c54:	01d888b3          	add	a7,a7,t4
30002c58:	d2b6dae3          	bge	a3,a1,3000298c <_Z9gfEllipseP10_tgfBitmapsssst+0xb0>
30002c5c:	e41ff06f          	j	30002a9c <_Z9gfEllipseP10_tgfBitmapsssst+0x1c0>
30002c60:	de05cae3          	bltz	a1,30002a54 <_Z9gfEllipseP10_tgfBitmapsssst+0x178>
30002c64:	d80348e3          	bltz	t1,300029f4 <_Z9gfEllipseP10_tgfBitmapsssst+0x118>
30002c68:	00055703          	lhu	a4,0(a0)
30002c6c:	d6e5c2e3          	blt	a1,a4,300029d0 <_Z9gfEllipseP10_tgfBitmapsssst+0xf4>
30002c70:	da085ae3          	bgez	a6,30002a24 <_Z9gfEllipseP10_tgfBitmapsssst+0x148>
30002c74:	de1ff06f          	j	30002a54 <_Z9gfEllipseP10_tgfBitmapsssst+0x178>
30002c78:	d605dee3          	bgez	a1,300029f4 <_Z9gfEllipseP10_tgfBitmapsssst+0x118>
30002c7c:	da0856e3          	bgez	a6,30002a28 <_Z9gfEllipseP10_tgfBitmapsssst+0x14c>
30002c80:	dd5ff06f          	j	30002a54 <_Z9gfEllipseP10_tgfBitmapsssst+0x178>
30002c84:	d80850e3          	bgez	a6,30002a04 <_Z9gfEllipseP10_tgfBitmapsssst+0x128>
30002c88:	dcdff06f          	j	30002a54 <_Z9gfEllipseP10_tgfBitmapsssst+0x178>
30002c8c:	00000513          	li	a0,0
30002c90:	00008067          	ret

30002c94 <_Z10gfFillRectP10_tgfBitmapsssst>:
30002c94:	26050c63          	beqz	a0,30002f0c <_Z10gfFillRectP10_tgfBitmapsssst+0x278>
30002c98:	fff5ce93          	not	t4,a1
30002c9c:	41fede93          	srai	t4,t4,0x1f
30002ca0:	fff64e13          	not	t3,a2
30002ca4:	fff6c313          	not	t1,a3
30002ca8:	fff74813          	not	a6,a4
30002cac:	01d5f5b3          	and	a1,a1,t4
30002cb0:	41fe5e13          	srai	t3,t3,0x1f
30002cb4:	41f35313          	srai	t1,t1,0x1f
30002cb8:	41f85813          	srai	a6,a6,0x1f
30002cbc:	00055883          	lhu	a7,0(a0)
30002cc0:	01c67633          	and	a2,a2,t3
30002cc4:	0066f6b3          	and	a3,a3,t1
30002cc8:	01077733          	and	a4,a4,a6
30002ccc:	01059313          	slli	t1,a1,0x10
30002cd0:	01061e93          	slli	t4,a2,0x10
30002cd4:	01069e13          	slli	t3,a3,0x10
30002cd8:	01071813          	slli	a6,a4,0x10
30002cdc:	41035313          	srai	t1,t1,0x10
30002ce0:	410ede93          	srai	t4,t4,0x10
30002ce4:	410e5e13          	srai	t3,t3,0x10
30002ce8:	41085813          	srai	a6,a6,0x10
30002cec:	01134863          	blt	t1,a7,30002cfc <_Z10gfFillRectP10_tgfBitmapsssst+0x68>
30002cf0:	fff88313          	addi	t1,a7,-1
30002cf4:	01031313          	slli	t1,t1,0x10
30002cf8:	41035313          	srai	t1,t1,0x10
30002cfc:	00455703          	lhu	a4,4(a0)
30002d00:	00eec863          	blt	t4,a4,30002d10 <_Z10gfFillRectP10_tgfBitmapsssst+0x7c>
30002d04:	fff70e93          	addi	t4,a4,-1
30002d08:	010e9e93          	slli	t4,t4,0x10
30002d0c:	410ede93          	srai	t4,t4,0x10
30002d10:	011e4863          	blt	t3,a7,30002d20 <_Z10gfFillRectP10_tgfBitmapsssst+0x8c>
30002d14:	fff88893          	addi	a7,a7,-1
30002d18:	01089e13          	slli	t3,a7,0x10
30002d1c:	410e5e13          	srai	t3,t3,0x10
30002d20:	00e84863          	blt	a6,a4,30002d30 <_Z10gfFillRectP10_tgfBitmapsssst+0x9c>
30002d24:	fff70713          	addi	a4,a4,-1
30002d28:	01071813          	slli	a6,a4,0x10
30002d2c:	41085813          	srai	a6,a6,0x10
30002d30:	19d85a63          	bge	a6,t4,30002ec4 <_Z10gfFillRectP10_tgfBitmapsssst+0x230>
30002d34:	186e5063          	bge	t3,t1,30002eb4 <_Z10gfFillRectP10_tgfBitmapsssst+0x220>
30002d38:	010e1293          	slli	t0,t3,0x10
30002d3c:	01031613          	slli	a2,t1,0x10
30002d40:	0102d293          	srli	t0,t0,0x10
30002d44:	01065613          	srli	a2,a2,0x10
30002d48:	40560733          	sub	a4,a2,t0
30002d4c:	00128f13          	addi	t5,t0,1
30002d50:	01071713          	slli	a4,a4,0x10
30002d54:	00130893          	addi	a7,t1,1
30002d58:	ffff86b7          	lui	a3,0xffff8
30002d5c:	01075713          	srli	a4,a4,0x10
30002d60:	00168693          	addi	a3,a3,1 # ffff8001 <__bss_end__+0xcfef8001>
30002d64:	010f1f13          	slli	t5,t5,0x10
30002d68:	01089893          	slli	a7,a7,0x10
30002d6c:	00028593          	mv	a1,t0
30002d70:	4108d893          	srai	a7,a7,0x10
30002d74:	01a73713          	sltiu	a4,a4,26
30002d78:	00d306b3          	add	a3,t1,a3
30002d7c:	410f5f13          	srai	t5,t5,0x10
30002d80:	00160293          	addi	t0,a2,1
30002d84:	01e8af33          	slt	t5,a7,t5
30002d88:	00174713          	xori	a4,a4,1
30002d8c:	00d036b3          	snez	a3,a3
30002d90:	40b282b3          	sub	t0,t0,a1
30002d94:	00c52f83          	lw	t6,12(a0)
30002d98:	00d77733          	and	a4,a4,a3
30002d9c:	001f4f13          	xori	t5,t5,1
30002da0:	01079893          	slli	a7,a5,0x10
30002da4:	01029293          	slli	t0,t0,0x10
30002da8:	00ef7f33          	and	t5,t5,a4
30002dac:	0102d293          	srli	t0,t0,0x10
30002db0:	0117e8b3          	or	a7,a5,a7
30002db4:	00255703          	lhu	a4,2(a0)
30002db8:	03070733          	mul	a4,a4,a6
30002dbc:	01c705b3          	add	a1,a4,t3
30002dc0:	00159693          	slli	a3,a1,0x1
30002dc4:	00df86b3          	add	a3,t6,a3
30002dc8:	100f0863          	beqz	t5,30002ed8 <_Z10gfFillRectP10_tgfBitmapsssst+0x244>
30002dcc:	ff010113          	addi	sp,sp,-16
30002dd0:	00812623          	sw	s0,12(sp)
30002dd4:	0016d713          	srli	a4,a3,0x1
30002dd8:	00177713          	andi	a4,a4,1
30002ddc:	00068393          	mv	t2,a3
30002de0:	00070663          	beqz	a4,30002dec <_Z10gfFillRectP10_tgfBitmapsssst+0x158>
30002de4:	00268393          	addi	t2,a3,2
30002de8:	00f69023          	sh	a5,0(a3)
30002dec:	40e28433          	sub	s0,t0,a4
30002df0:	01041413          	slli	s0,s0,0x10
30002df4:	01045413          	srli	s0,s0,0x10
30002df8:	ffe40613          	addi	a2,s0,-2
30002dfc:	01061613          	slli	a2,a2,0x10
30002e00:	01065613          	srli	a2,a2,0x10
30002e04:	00b70733          	add	a4,a4,a1
30002e08:	00165613          	srli	a2,a2,0x1
30002e0c:	00171713          	slli	a4,a4,0x1
30002e10:	00160613          	addi	a2,a2,1
30002e14:	00ef8733          	add	a4,t6,a4
30002e18:	00000693          	li	a3,0
30002e1c:	00168693          	addi	a3,a3,1
30002e20:	01069593          	slli	a1,a3,0x10
30002e24:	01172023          	sw	a7,0(a4)
30002e28:	0105d593          	srli	a1,a1,0x10
30002e2c:	00470713          	addi	a4,a4,4
30002e30:	fec5e6e3          	bltu	a1,a2,30002e1c <_Z10gfFillRectP10_tgfBitmapsssst+0x188>
30002e34:	00161613          	slli	a2,a2,0x1
30002e38:	01061613          	slli	a2,a2,0x10
30002e3c:	01065613          	srli	a2,a2,0x10
30002e40:	00161713          	slli	a4,a2,0x1
30002e44:	00e38733          	add	a4,t2,a4
30002e48:	00c40463          	beq	s0,a2,30002e50 <_Z10gfFillRectP10_tgfBitmapsssst+0x1bc>
30002e4c:	00f71023          	sh	a5,0(a4)
30002e50:	00180813          	addi	a6,a6,1
30002e54:	01081813          	slli	a6,a6,0x10
30002e58:	41085813          	srai	a6,a6,0x10
30002e5c:	050ec463          	blt	t4,a6,30002ea4 <_Z10gfFillRectP10_tgfBitmapsssst+0x210>
30002e60:	00255703          	lhu	a4,2(a0)
30002e64:	03070733          	mul	a4,a4,a6
30002e68:	01c705b3          	add	a1,a4,t3
30002e6c:	00159693          	slli	a3,a1,0x1
30002e70:	00df86b3          	add	a3,t6,a3
30002e74:	f60f10e3          	bnez	t5,30002dd4 <_Z10gfFillRectP10_tgfBitmapsssst+0x140>
30002e78:	000e0713          	mv	a4,t3
30002e7c:	00170713          	addi	a4,a4,1
30002e80:	00268693          	addi	a3,a3,2
30002e84:	01071713          	slli	a4,a4,0x10
30002e88:	fef69f23          	sh	a5,-2(a3)
30002e8c:	41075713          	srai	a4,a4,0x10
30002e90:	fee356e3          	bge	t1,a4,30002e7c <_Z10gfFillRectP10_tgfBitmapsssst+0x1e8>
30002e94:	00180813          	addi	a6,a6,1
30002e98:	01081813          	slli	a6,a6,0x10
30002e9c:	41085813          	srai	a6,a6,0x10
30002ea0:	fd0ed0e3          	bge	t4,a6,30002e60 <_Z10gfFillRectP10_tgfBitmapsssst+0x1cc>
30002ea4:	00c12403          	lw	s0,12(sp)
30002ea8:	00000513          	li	a0,0
30002eac:	01010113          	addi	sp,sp,16
30002eb0:	00008067          	ret
30002eb4:	000e0713          	mv	a4,t3
30002eb8:	00030e13          	mv	t3,t1
30002ebc:	00070313          	mv	t1,a4
30002ec0:	e79ff06f          	j	30002d38 <_Z10gfFillRectP10_tgfBitmapsssst+0xa4>
30002ec4:	00080713          	mv	a4,a6
30002ec8:	000e8813          	mv	a6,t4
30002ecc:	00070e93          	mv	t4,a4
30002ed0:	e66e44e3          	blt	t3,t1,30002d38 <_Z10gfFillRectP10_tgfBitmapsssst+0xa4>
30002ed4:	fe1ff06f          	j	30002eb4 <_Z10gfFillRectP10_tgfBitmapsssst+0x220>
30002ed8:	000e0713          	mv	a4,t3
30002edc:	00170713          	addi	a4,a4,1
30002ee0:	00268693          	addi	a3,a3,2
30002ee4:	01071713          	slli	a4,a4,0x10
30002ee8:	fef69f23          	sh	a5,-2(a3)
30002eec:	41075713          	srai	a4,a4,0x10
30002ef0:	fee356e3          	bge	t1,a4,30002edc <_Z10gfFillRectP10_tgfBitmapsssst+0x248>
30002ef4:	00180813          	addi	a6,a6,1
30002ef8:	01081813          	slli	a6,a6,0x10
30002efc:	41085813          	srai	a6,a6,0x10
30002f00:	eb0edae3          	bge	t4,a6,30002db4 <_Z10gfFillRectP10_tgfBitmapsssst+0x120>
30002f04:	00000513          	li	a0,0
30002f08:	00008067          	ret
30002f0c:	00100513          	li	a0,1
30002f10:	00008067          	ret

30002f14 <_Z7osFInitv>:
30002f14:	ff010113          	addi	sp,sp,-16
30002f18:	00000513          	li	a0,0
30002f1c:	00112623          	sw	ra,12(sp)
30002f20:	00812423          	sw	s0,8(sp)
30002f24:	04d000ef          	jal	ra,30003770 <disk_initialize>
30002f28:	04050863          	beqz	a0,30002f78 <_Z7osFInitv+0x64>
30002f2c:	3e800513          	li	a0,1000
30002f30:	bc8fd0ef          	jal	ra,300002f8 <_Z7delayMsm>
30002f34:	00000513          	li	a0,0
30002f38:	039000ef          	jal	ra,30003770 <disk_initialize>
30002f3c:	00050793          	mv	a5,a0
30002f40:	00a00413          	li	s0,10
30002f44:	3e800513          	li	a0,1000
30002f48:	fff40413          	addi	s0,s0,-1
30002f4c:	02078663          	beqz	a5,30002f78 <_Z7osFInitv+0x64>
30002f50:	ba8fd0ef          	jal	ra,300002f8 <_Z7delayMsm>
30002f54:	00000513          	li	a0,0
30002f58:	019000ef          	jal	ra,30003770 <disk_initialize>
30002f5c:	00050793          	mv	a5,a0
30002f60:	fe0412e3          	bnez	s0,30002f44 <_Z7osFInitv+0x30>
30002f64:	00c12083          	lw	ra,12(sp)
30002f68:	00812403          	lw	s0,8(sp)
30002f6c:	00100513          	li	a0,1
30002f70:	01010113          	addi	sp,sp,16
30002f74:	00008067          	ret
30002f78:	300135b7          	lui	a1,0x30013
30002f7c:	e8458593          	addi	a1,a1,-380 # 30012e84 <fatfs>
30002f80:	00000513          	li	a0,0
30002f84:	65d040ef          	jal	ra,30007de0 <f_mount>
30002f88:	00c12083          	lw	ra,12(sp)
30002f8c:	00812403          	lw	s0,8(sp)
30002f90:	00000513          	li	a0,0
30002f94:	01010113          	addi	sp,sp,16
30002f98:	00008067          	ret

30002f9c <_Z7osFOpenP8_tosFilePcm>:
30002f9c:	00100793          	li	a5,1
30002fa0:	04050663          	beqz	a0,30002fec <_Z7osFOpenP8_tosFilePcm+0x50>
30002fa4:	04f60063          	beq	a2,a5,30002fe4 <_Z7osFOpenP8_tosFilePcm+0x48>
30002fa8:	00200713          	li	a4,2
30002fac:	00200793          	li	a5,2
30002fb0:	02e61e63          	bne	a2,a4,30002fec <_Z7osFOpenP8_tosFilePcm+0x50>
30002fb4:	00a00613          	li	a2,10
30002fb8:	ff010113          	addi	sp,sp,-16
30002fbc:	00112623          	sw	ra,12(sp)
30002fc0:	651040ef          	jal	ra,30007e10 <f_open>
30002fc4:	00153793          	seqz	a5,a0
30002fc8:	00c12083          	lw	ra,12(sp)
30002fcc:	40f007b3          	neg	a5,a5
30002fd0:	ffd7f793          	andi	a5,a5,-3
30002fd4:	00378793          	addi	a5,a5,3
30002fd8:	00078513          	mv	a0,a5
30002fdc:	01010113          	addi	sp,sp,16
30002fe0:	00008067          	ret
30002fe4:	00100613          	li	a2,1
30002fe8:	fd1ff06f          	j	30002fb8 <_Z7osFOpenP8_tosFilePcm+0x1c>
30002fec:	00078513          	mv	a0,a5
30002ff0:	00008067          	ret

30002ff4 <_Z8osFCloseP8_tosFile>:
30002ff4:	02050063          	beqz	a0,30003014 <_Z8osFCloseP8_tosFile+0x20>
30002ff8:	ff010113          	addi	sp,sp,-16
30002ffc:	00112623          	sw	ra,12(sp)
30003000:	2d9050ef          	jal	ra,30008ad8 <f_close>
30003004:	00c12083          	lw	ra,12(sp)
30003008:	00000513          	li	a0,0
3000300c:	01010113          	addi	sp,sp,16
30003010:	00008067          	ret
30003014:	00100513          	li	a0,1
30003018:	00008067          	ret

3000301c <_Z8osFWriteP8_tosFilePhm>:
3000301c:	02050a63          	beqz	a0,30003050 <_Z8osFWriteP8_tosFilePhm+0x34>
30003020:	00100793          	li	a5,1
30003024:	02058863          	beqz	a1,30003054 <_Z8osFWriteP8_tosFilePhm+0x38>
30003028:	fe010113          	addi	sp,sp,-32
3000302c:	00c10693          	addi	a3,sp,12
30003030:	00112e23          	sw	ra,28(sp)
30003034:	42c050ef          	jal	ra,30008460 <f_write>
30003038:	01c12083          	lw	ra,28(sp)
3000303c:	00a037b3          	snez	a5,a0
30003040:	00179793          	slli	a5,a5,0x1
30003044:	00078513          	mv	a0,a5
30003048:	02010113          	addi	sp,sp,32
3000304c:	00008067          	ret
30003050:	00100793          	li	a5,1
30003054:	00078513          	mv	a0,a5
30003058:	00008067          	ret

3000305c <_Z7osFReadP8_tosFilePhmPm>:
3000305c:	fe010113          	addi	sp,sp,-32
30003060:	00112e23          	sw	ra,28(sp)
30003064:	00812c23          	sw	s0,24(sp)
30003068:	00912a23          	sw	s1,20(sp)
3000306c:	04050663          	beqz	a0,300030b8 <_Z7osFReadP8_tosFilePhmPm+0x5c>
30003070:	00100413          	li	s0,1
30003074:	02058663          	beqz	a1,300030a0 <_Z7osFReadP8_tosFilePhmPm+0x44>
30003078:	00068493          	mv	s1,a3
3000307c:	00c10693          	addi	a3,sp,12
30003080:	00060413          	mv	s0,a2
30003084:	008050ef          	jal	ra,3000808c <f_read>
30003088:	00c12783          	lw	a5,12(sp)
3000308c:	00048463          	beqz	s1,30003094 <_Z7osFReadP8_tosFilePhmPm+0x38>
30003090:	00f4a023          	sw	a5,0(s1)
30003094:	40f407b3          	sub	a5,s0,a5
30003098:	00f037b3          	snez	a5,a5
3000309c:	00179413          	slli	s0,a5,0x1
300030a0:	00040513          	mv	a0,s0
300030a4:	01c12083          	lw	ra,28(sp)
300030a8:	01812403          	lw	s0,24(sp)
300030ac:	01412483          	lw	s1,20(sp)
300030b0:	02010113          	addi	sp,sp,32
300030b4:	00008067          	ret
300030b8:	00100413          	li	s0,1
300030bc:	00040513          	mv	a0,s0
300030c0:	01c12083          	lw	ra,28(sp)
300030c4:	01812403          	lw	s0,24(sp)
300030c8:	01412483          	lw	s1,20(sp)
300030cc:	02010113          	addi	sp,sp,32
300030d0:	00008067          	ret

300030d4 <_Z7osFGetSP8_tosFilePhm>:
300030d4:	00058023          	sb	zero,0(a1)
300030d8:	0e050e63          	beqz	a0,300031d4 <_Z7osFGetSP8_tosFilePhm+0x100>
300030dc:	fd010113          	addi	sp,sp,-48
300030e0:	02912223          	sw	s1,36(sp)
300030e4:	01412c23          	sw	s4,24(sp)
300030e8:	02112623          	sw	ra,44(sp)
300030ec:	02812423          	sw	s0,40(sp)
300030f0:	03212023          	sw	s2,32(sp)
300030f4:	01312e23          	sw	s3,28(sp)
300030f8:	01512a23          	sw	s5,20(sp)
300030fc:	01612823          	sw	s6,16(sp)
30003100:	fff60a13          	addi	s4,a2,-1
30003104:	00050493          	mv	s1,a0
30003108:	0a0a0c63          	beqz	s4,300031c0 <_Z7osFGetSP8_tosFilePhm+0xec>
3000310c:	00058413          	mv	s0,a1
30003110:	01458a33          	add	s4,a1,s4
30003114:	00c10993          	addi	s3,sp,12
30003118:	00810913          	addi	s2,sp,8
3000311c:	00a00a93          	li	s5,10
30003120:	00d00b13          	li	s6,13
30003124:	00098693          	mv	a3,s3
30003128:	00100613          	li	a2,1
3000312c:	00090593          	mv	a1,s2
30003130:	00048513          	mv	a0,s1
30003134:	759040ef          	jal	ra,3000808c <f_read>
30003138:	00c12703          	lw	a4,12(sp)
3000313c:	00100793          	li	a5,1
30003140:	08f71663          	bne	a4,a5,300031cc <_Z7osFGetSP8_tosFilePhm+0xf8>
30003144:	00814783          	lbu	a5,8(sp)
30003148:	05578663          	beq	a5,s5,30003194 <_Z7osFGetSP8_tosFilePhm+0xc0>
3000314c:	05678463          	beq	a5,s6,30003194 <_Z7osFGetSP8_tosFilePhm+0xc0>
30003150:	00f40023          	sb	a5,0(s0)
30003154:	000400a3          	sb	zero,1(s0)
30003158:	00140413          	addi	s0,s0,1
3000315c:	fd4414e3          	bne	s0,s4,30003124 <_Z7osFGetSP8_tosFilePhm+0x50>
30003160:	00a00413          	li	s0,10
30003164:	00d00a13          	li	s4,13
30003168:	00098693          	mv	a3,s3
3000316c:	00100613          	li	a2,1
30003170:	00090593          	mv	a1,s2
30003174:	00048513          	mv	a0,s1
30003178:	715040ef          	jal	ra,3000808c <f_read>
3000317c:	00c12703          	lw	a4,12(sp)
30003180:	00100793          	li	a5,1
30003184:	04f71463          	bne	a4,a5,300031cc <_Z7osFGetSP8_tosFilePhm+0xf8>
30003188:	00814783          	lbu	a5,8(sp)
3000318c:	00878463          	beq	a5,s0,30003194 <_Z7osFGetSP8_tosFilePhm+0xc0>
30003190:	fd479ce3          	bne	a5,s4,30003168 <_Z7osFGetSP8_tosFilePhm+0x94>
30003194:	00000513          	li	a0,0
30003198:	02c12083          	lw	ra,44(sp)
3000319c:	02812403          	lw	s0,40(sp)
300031a0:	02412483          	lw	s1,36(sp)
300031a4:	02012903          	lw	s2,32(sp)
300031a8:	01c12983          	lw	s3,28(sp)
300031ac:	01812a03          	lw	s4,24(sp)
300031b0:	01412a83          	lw	s5,20(sp)
300031b4:	01012b03          	lw	s6,16(sp)
300031b8:	03010113          	addi	sp,sp,48
300031bc:	00008067          	ret
300031c0:	00c10993          	addi	s3,sp,12
300031c4:	00810913          	addi	s2,sp,8
300031c8:	f99ff06f          	j	30003160 <_Z7osFGetSP8_tosFilePhm+0x8c>
300031cc:	00200513          	li	a0,2
300031d0:	fc9ff06f          	j	30003198 <_Z7osFGetSP8_tosFilePhm+0xc4>
300031d4:	00100513          	li	a0,1
300031d8:	00008067          	ret

300031dc <_Z9osDirOpenP7_tosDirPc>:
300031dc:	02050263          	beqz	a0,30003200 <_Z9osDirOpenP7_tosDirPc+0x24>
300031e0:	ff010113          	addi	sp,sp,-16
300031e4:	10050513          	addi	a0,a0,256
300031e8:	00112623          	sw	ra,12(sp)
300031ec:	4b5050ef          	jal	ra,30008ea0 <f_opendir>
300031f0:	00c12083          	lw	ra,12(sp)
300031f4:	00a03533          	snez	a0,a0
300031f8:	01010113          	addi	sp,sp,16
300031fc:	00008067          	ret
30003200:	00100513          	li	a0,1
30003204:	00008067          	ret

30003208 <_Z10osDirCloseP7_tosDir>:
30003208:	00153513          	seqz	a0,a0
3000320c:	00008067          	ret

30003210 <_Z9osDirReadP7_tosDirP11_tosDirItem>:
30003210:	00100793          	li	a5,1
30003214:	08058263          	beqz	a1,30003298 <_Z9osDirReadP7_tosDirP11_tosDirItem+0x88>
30003218:	08050063          	beqz	a0,30003298 <_Z9osDirReadP7_tosDirP11_tosDirItem+0x88>
3000321c:	ff010113          	addi	sp,sp,-16
30003220:	00912223          	sw	s1,4(sp)
30003224:	300134b7          	lui	s1,0x30013
30003228:	e8448493          	addi	s1,s1,-380 # 30012e84 <fatfs>
3000322c:	0ff00793          	li	a5,255
30003230:	00812423          	sw	s0,8(sp)
30003234:	00112623          	sw	ra,12(sp)
30003238:	24b4a423          	sw	a1,584(s1)
3000323c:	24f4a623          	sw	a5,588(s1)
30003240:	00058413          	mv	s0,a1
30003244:	00058023          	sb	zero,0(a1)
30003248:	10050513          	addi	a0,a0,256
3000324c:	23048593          	addi	a1,s1,560
30003250:	521050ef          	jal	ra,30008f70 <f_readdir>
30003254:	06051c63          	bnez	a0,300032cc <_Z9osDirReadP7_tosDirP11_tosDirItem+0xbc>
30003258:	2384c783          	lbu	a5,568(s1)
3000325c:	0107f793          	andi	a5,a5,16
30003260:	04079063          	bnez	a5,300032a0 <_Z9osDirReadP7_tosDirP11_tosDirItem+0x90>
30003264:	2304a683          	lw	a3,560(s1)
30003268:	00044783          	lbu	a5,0(s0)
3000326c:	00100713          	li	a4,1
30003270:	10d42223          	sw	a3,260(s0)
30003274:	10e40023          	sb	a4,256(s0)
30003278:	04078063          	beqz	a5,300032b8 <_Z9osDirReadP7_tosDirP11_tosDirItem+0xa8>
3000327c:	0017b793          	seqz	a5,a5
30003280:	00c12083          	lw	ra,12(sp)
30003284:	00812403          	lw	s0,8(sp)
30003288:	00412483          	lw	s1,4(sp)
3000328c:	00078513          	mv	a0,a5
30003290:	01010113          	addi	sp,sp,16
30003294:	00008067          	ret
30003298:	00078513          	mv	a0,a5
3000329c:	00008067          	ret
300032a0:	00044783          	lbu	a5,0(s0)
300032a4:	00000693          	li	a3,0
300032a8:	00200713          	li	a4,2
300032ac:	10d42223          	sw	a3,260(s0)
300032b0:	10e40023          	sb	a4,256(s0)
300032b4:	fc0794e3          	bnez	a5,3000327c <_Z9osDirReadP7_tosDirP11_tosDirItem+0x6c>
300032b8:	23948593          	addi	a1,s1,569
300032bc:	00040513          	mv	a0,s0
300032c0:	260080ef          	jal	ra,3000b520 <strcpy>
300032c4:	00044783          	lbu	a5,0(s0)
300032c8:	fb5ff06f          	j	3000327c <_Z9osDirReadP7_tosDirP11_tosDirItem+0x6c>
300032cc:	00040023          	sb	zero,0(s0)
300032d0:	10040023          	sb	zero,256(s0)
300032d4:	10042223          	sw	zero,260(s0)
300032d8:	00200793          	li	a5,2
300032dc:	fa5ff06f          	j	30003280 <_Z9osDirReadP7_tosDirP11_tosDirItem+0x70>

300032e0 <_Z7osFSizePc>:
300032e0:	fd010113          	addi	sp,sp,-48
300032e4:	00010593          	mv	a1,sp
300032e8:	02112623          	sw	ra,44(sp)
300032ec:	00012e23          	sw	zero,28(sp)
300032f0:	00012c23          	sw	zero,24(sp)
300032f4:	551050ef          	jal	ra,30009044 <f_stat>
300032f8:	00051a63          	bnez	a0,3000330c <_Z7osFSizePc+0x2c>
300032fc:	02c12083          	lw	ra,44(sp)
30003300:	00012503          	lw	a0,0(sp)
30003304:	03010113          	addi	sp,sp,48
30003308:	00008067          	ret
3000330c:	02c12083          	lw	ra,44(sp)
30003310:	00000513          	li	a0,0
30003314:	03010113          	addi	sp,sp,48
30003318:	00008067          	ret

3000331c <_Z9osFDeletePc>:
3000331c:	ff010113          	addi	sp,sp,-16
30003320:	00112623          	sw	ra,12(sp)
30003324:	210060ef          	jal	ra,30009534 <f_unlink>
30003328:	00c12083          	lw	ra,12(sp)
3000332c:	00a03533          	snez	a0,a0
30003330:	01010113          	addi	sp,sp,16
30003334:	00008067          	ret

30003338 <_Z7osMkDirPc>:
30003338:	ff010113          	addi	sp,sp,-16
3000333c:	00112623          	sw	ra,12(sp)
30003340:	3f8060ef          	jal	ra,30009738 <f_mkdir>
30003344:	00c12083          	lw	ra,12(sp)
30003348:	00a03533          	snez	a0,a0
3000334c:	01010113          	addi	sp,sp,16
30003350:	00008067          	ret

30003354 <_Z8osRenamePcS_>:
30003354:	1e50606f          	j	30009d38 <f_rename>

30003358 <_ZL14xmit_datablockPKhh.part.1>:
30003358:	300117b7          	lui	a5,0x30011
3000335c:	bf07a703          	lw	a4,-1040(a5) # 30010bf0 <spi0>
30003360:	ff010113          	addi	sp,sp,-16
30003364:	00050693          	mv	a3,a0
30003368:	00b10623          	sb	a1,12(sp)
3000336c:	00c72783          	lw	a5,12(a4)
30003370:	0017f793          	andi	a5,a5,1
30003374:	fe078ce3          	beqz	a5,3000336c <_ZL14xmit_datablockPKhh.part.1+0x14>
30003378:	00b72423          	sw	a1,8(a4)
3000337c:	0fd00793          	li	a5,253
30003380:	00100513          	li	a0,1
30003384:	08f58663          	beq	a1,a5,30003410 <_ZL14xmit_datablockPKhh.part.1+0xb8>
30003388:	20068593          	addi	a1,a3,512
3000338c:	00168693          	addi	a3,a3,1
30003390:	fff6c603          	lbu	a2,-1(a3)
30003394:	00c72783          	lw	a5,12(a4)
30003398:	0017f793          	andi	a5,a5,1
3000339c:	fe078ce3          	beqz	a5,30003394 <_ZL14xmit_datablockPKhh.part.1+0x3c>
300033a0:	00c72423          	sw	a2,8(a4)
300033a4:	feb694e3          	bne	a3,a1,3000338c <_ZL14xmit_datablockPKhh.part.1+0x34>
300033a8:	00c10693          	addi	a3,sp,12
300033ac:	00e10593          	addi	a1,sp,14
300033b0:	0ff00613          	li	a2,255
300033b4:	00c72783          	lw	a5,12(a4)
300033b8:	0017f793          	andi	a5,a5,1
300033bc:	fe078ce3          	beqz	a5,300033b4 <_ZL14xmit_datablockPKhh.part.1+0x5c>
300033c0:	00c72423          	sw	a2,8(a4)
300033c4:	00c72783          	lw	a5,12(a4)
300033c8:	0017f793          	andi	a5,a5,1
300033cc:	fe078ce3          	beqz	a5,300033c4 <_ZL14xmit_datablockPKhh.part.1+0x6c>
300033d0:	00872783          	lw	a5,8(a4)
300033d4:	00168693          	addi	a3,a3,1
300033d8:	fef68fa3          	sb	a5,-1(a3)
300033dc:	fcb69ce3          	bne	a3,a1,300033b4 <_ZL14xmit_datablockPKhh.part.1+0x5c>
300033e0:	00c72783          	lw	a5,12(a4)
300033e4:	0017f793          	andi	a5,a5,1
300033e8:	fe078ce3          	beqz	a5,300033e0 <_ZL14xmit_datablockPKhh.part.1+0x88>
300033ec:	0ff00793          	li	a5,255
300033f0:	00f72423          	sw	a5,8(a4)
300033f4:	00c72783          	lw	a5,12(a4)
300033f8:	0017f793          	andi	a5,a5,1
300033fc:	fe078ce3          	beqz	a5,300033f4 <_ZL14xmit_datablockPKhh.part.1+0x9c>
30003400:	00872503          	lw	a0,8(a4)
30003404:	01f57513          	andi	a0,a0,31
30003408:	ffb50513          	addi	a0,a0,-5
3000340c:	00153513          	seqz	a0,a0
30003410:	01010113          	addi	sp,sp,16
30003414:	00008067          	ret

30003418 <_ZL14rcvr_datablockPhj.constprop.2>:
30003418:	30011837          	lui	a6,0x30011
3000341c:	bf082703          	lw	a4,-1040(a6) # 30010bf0 <spi0>
30003420:	ff010113          	addi	sp,sp,-16
30003424:	3e800613          	li	a2,1000
30003428:	0ff00593          	li	a1,255
3000342c:	7cf00693          	li	a3,1999
30003430:	00c72783          	lw	a5,12(a4)
30003434:	0017f793          	andi	a5,a5,1
30003438:	fe078ce3          	beqz	a5,30003430 <_ZL14rcvr_datablockPhj.constprop.2+0x18>
3000343c:	00b72423          	sw	a1,8(a4)
30003440:	00c72783          	lw	a5,12(a4)
30003444:	0017f793          	andi	a5,a5,1
30003448:	fe078ce3          	beqz	a5,30003440 <_ZL14rcvr_datablockPhj.constprop.2+0x28>
3000344c:	00872783          	lw	a5,8(a4)
30003450:	0ff7f793          	andi	a5,a5,255
30003454:	02b79e63          	bne	a5,a1,30003490 <_ZL14rcvr_datablockPhj.constprop.2+0x78>
30003458:	00012623          	sw	zero,12(sp)
3000345c:	00c12783          	lw	a5,12(sp)
30003460:	00f6ec63          	bltu	a3,a5,30003478 <_ZL14rcvr_datablockPhj.constprop.2+0x60>
30003464:	00c12783          	lw	a5,12(sp)
30003468:	00178793          	addi	a5,a5,1
3000346c:	00f12623          	sw	a5,12(sp)
30003470:	00c12783          	lw	a5,12(sp)
30003474:	fef6f8e3          	bgeu	a3,a5,30003464 <_ZL14rcvr_datablockPhj.constprop.2+0x4c>
30003478:	fff60613          	addi	a2,a2,-1
3000347c:	fa061ae3          	bnez	a2,30003430 <_ZL14rcvr_datablockPhj.constprop.2+0x18>
30003480:	00000693          	li	a3,0
30003484:	00068513          	mv	a0,a3
30003488:	01010113          	addi	sp,sp,16
3000348c:	00008067          	ret
30003490:	00f10423          	sb	a5,8(sp)
30003494:	0fe00613          	li	a2,254
30003498:	00000693          	li	a3,0
3000349c:	fec794e3          	bne	a5,a2,30003484 <_ZL14rcvr_datablockPhj.constprop.2+0x6c>
300034a0:	20050613          	addi	a2,a0,512
300034a4:	0ff00693          	li	a3,255
300034a8:	00c72783          	lw	a5,12(a4)
300034ac:	0017f793          	andi	a5,a5,1
300034b0:	fe078ce3          	beqz	a5,300034a8 <_ZL14rcvr_datablockPhj.constprop.2+0x90>
300034b4:	00d72423          	sw	a3,8(a4)
300034b8:	00c72783          	lw	a5,12(a4)
300034bc:	0017f793          	andi	a5,a5,1
300034c0:	fe078ce3          	beqz	a5,300034b8 <_ZL14rcvr_datablockPhj.constprop.2+0xa0>
300034c4:	00872783          	lw	a5,8(a4)
300034c8:	00150513          	addi	a0,a0,1
300034cc:	fef50fa3          	sb	a5,-1(a0)
300034d0:	bf082703          	lw	a4,-1040(a6)
300034d4:	fcc51ae3          	bne	a0,a2,300034a8 <_ZL14rcvr_datablockPhj.constprop.2+0x90>
300034d8:	00810693          	addi	a3,sp,8
300034dc:	00a10593          	addi	a1,sp,10
300034e0:	0ff00613          	li	a2,255
300034e4:	00c72783          	lw	a5,12(a4)
300034e8:	0017f793          	andi	a5,a5,1
300034ec:	fe078ce3          	beqz	a5,300034e4 <_ZL14rcvr_datablockPhj.constprop.2+0xcc>
300034f0:	00c72423          	sw	a2,8(a4)
300034f4:	00c72783          	lw	a5,12(a4)
300034f8:	0017f793          	andi	a5,a5,1
300034fc:	fe078ce3          	beqz	a5,300034f4 <_ZL14rcvr_datablockPhj.constprop.2+0xdc>
30003500:	00872783          	lw	a5,8(a4)
30003504:	00168693          	addi	a3,a3,1
30003508:	fef68fa3          	sb	a5,-1(a3)
3000350c:	fcb69ce3          	bne	a3,a1,300034e4 <_ZL14rcvr_datablockPhj.constprop.2+0xcc>
30003510:	00100693          	li	a3,1
30003514:	00068513          	mv	a0,a3
30003518:	01010113          	addi	sp,sp,16
3000351c:	00008067          	ret

30003520 <_ZL8send_cmdhm>:
30003520:	fe010113          	addi	sp,sp,-32
30003524:	01851793          	slli	a5,a0,0x18
30003528:	00812c23          	sw	s0,24(sp)
3000352c:	00912a23          	sw	s1,20(sp)
30003530:	00112e23          	sw	ra,28(sp)
30003534:	4187d793          	srai	a5,a5,0x18
30003538:	00050413          	mv	s0,a0
3000353c:	00058493          	mv	s1,a1
30003540:	1e07c463          	bltz	a5,30003728 <_ZL8send_cmdhm+0x208>
30003544:	300117b7          	lui	a5,0x30011
30003548:	c047a503          	lw	a0,-1020(a5) # 30010c04 <bsp>
3000354c:	300117b7          	lui	a5,0x30011
30003550:	bf07a783          	lw	a5,-1040(a5) # 30010bf0 <spi0>
30003554:	01452703          	lw	a4,20(a0)
30003558:	00176713          	ori	a4,a4,1
3000355c:	00e52a23          	sw	a4,20(a0)
30003560:	00c7a703          	lw	a4,12(a5)
30003564:	00177713          	andi	a4,a4,1
30003568:	fe070ce3          	beqz	a4,30003560 <_ZL8send_cmdhm+0x40>
3000356c:	0ff00713          	li	a4,255
30003570:	00e7a423          	sw	a4,8(a5)
30003574:	00c7a703          	lw	a4,12(a5)
30003578:	00177713          	andi	a4,a4,1
3000357c:	fe070ce3          	beqz	a4,30003574 <_ZL8send_cmdhm+0x54>
30003580:	0087a703          	lw	a4,8(a5)
30003584:	01452703          	lw	a4,20(a0)
30003588:	00001637          	lui	a2,0x1
3000358c:	38860613          	addi	a2,a2,904 # 1388 <stackPointer-0x59b8>
30003590:	ffe77713          	andi	a4,a4,-2
30003594:	00e52a23          	sw	a4,20(a0)
30003598:	0ff00593          	li	a1,255
3000359c:	7cf00693          	li	a3,1999
300035a0:	00c7a703          	lw	a4,12(a5)
300035a4:	00177713          	andi	a4,a4,1
300035a8:	fe070ce3          	beqz	a4,300035a0 <_ZL8send_cmdhm+0x80>
300035ac:	00b7a423          	sw	a1,8(a5)
300035b0:	00c7a703          	lw	a4,12(a5)
300035b4:	00177713          	andi	a4,a4,1
300035b8:	fe070ce3          	beqz	a4,300035b0 <_ZL8send_cmdhm+0x90>
300035bc:	0087a703          	lw	a4,8(a5)
300035c0:	0ff77713          	andi	a4,a4,255
300035c4:	06b70a63          	beq	a4,a1,30003638 <_ZL8send_cmdhm+0x118>
300035c8:	00012223          	sw	zero,4(sp)
300035cc:	00412703          	lw	a4,4(sp)
300035d0:	00e6ec63          	bltu	a3,a4,300035e8 <_ZL8send_cmdhm+0xc8>
300035d4:	00412703          	lw	a4,4(sp)
300035d8:	00170713          	addi	a4,a4,1
300035dc:	00e12223          	sw	a4,4(sp)
300035e0:	00412703          	lw	a4,4(sp)
300035e4:	fee6f8e3          	bgeu	a3,a4,300035d4 <_ZL8send_cmdhm+0xb4>
300035e8:	fff60613          	addi	a2,a2,-1
300035ec:	fa061ae3          	bnez	a2,300035a0 <_ZL8send_cmdhm+0x80>
300035f0:	01452703          	lw	a4,20(a0)
300035f4:	00176713          	ori	a4,a4,1
300035f8:	00e52a23          	sw	a4,20(a0)
300035fc:	00c7a703          	lw	a4,12(a5)
30003600:	00177713          	andi	a4,a4,1
30003604:	fe070ce3          	beqz	a4,300035fc <_ZL8send_cmdhm+0xdc>
30003608:	0ff00713          	li	a4,255
3000360c:	00e7a423          	sw	a4,8(a5)
30003610:	00c7a703          	lw	a4,12(a5)
30003614:	00177713          	andi	a4,a4,1
30003618:	fe070ce3          	beqz	a4,30003610 <_ZL8send_cmdhm+0xf0>
3000361c:	0087a783          	lw	a5,8(a5)
30003620:	0ff00513          	li	a0,255
30003624:	01c12083          	lw	ra,28(sp)
30003628:	01812403          	lw	s0,24(sp)
3000362c:	01412483          	lw	s1,20(sp)
30003630:	02010113          	addi	sp,sp,32
30003634:	00008067          	ret
30003638:	04046713          	ori	a4,s0,64
3000363c:	0184d593          	srli	a1,s1,0x18
30003640:	0104d613          	srli	a2,s1,0x10
30003644:	0084d693          	srli	a3,s1,0x8
30003648:	00e10423          	sb	a4,8(sp)
3000364c:	00b104a3          	sb	a1,9(sp)
30003650:	00c10523          	sb	a2,10(sp)
30003654:	00d105a3          	sb	a3,11(sp)
30003658:	00910623          	sb	s1,12(sp)
3000365c:	09500713          	li	a4,149
30003660:	0a041a63          	bnez	s0,30003714 <_ZL8send_cmdhm+0x1f4>
30003664:	00e106a3          	sb	a4,13(sp)
30003668:	00810693          	addi	a3,sp,8
3000366c:	00e10593          	addi	a1,sp,14
30003670:	00168693          	addi	a3,a3,1
30003674:	fff6c603          	lbu	a2,-1(a3)
30003678:	00c7a703          	lw	a4,12(a5)
3000367c:	00177713          	andi	a4,a4,1
30003680:	fe070ce3          	beqz	a4,30003678 <_ZL8send_cmdhm+0x158>
30003684:	00c7a423          	sw	a2,8(a5)
30003688:	feb694e3          	bne	a3,a1,30003670 <_ZL8send_cmdhm+0x150>
3000368c:	00c00713          	li	a4,12
30003690:	04e40e63          	beq	s0,a4,300036ec <_ZL8send_cmdhm+0x1cc>
30003694:	00a00693          	li	a3,10
30003698:	0ff00613          	li	a2,255
3000369c:	00c7a703          	lw	a4,12(a5)
300036a0:	00177713          	andi	a4,a4,1
300036a4:	fe070ce3          	beqz	a4,3000369c <_ZL8send_cmdhm+0x17c>
300036a8:	00c7a423          	sw	a2,8(a5)
300036ac:	00c7a703          	lw	a4,12(a5)
300036b0:	00177713          	andi	a4,a4,1
300036b4:	fe070ce3          	beqz	a4,300036ac <_ZL8send_cmdhm+0x18c>
300036b8:	0087a503          	lw	a0,8(a5)
300036bc:	01851713          	slli	a4,a0,0x18
300036c0:	41875713          	srai	a4,a4,0x18
300036c4:	0ff57513          	andi	a0,a0,255
300036c8:	f4075ee3          	bgez	a4,30003624 <_ZL8send_cmdhm+0x104>
300036cc:	fff68693          	addi	a3,a3,-1
300036d0:	0ff6f693          	andi	a3,a3,255
300036d4:	fc0694e3          	bnez	a3,3000369c <_ZL8send_cmdhm+0x17c>
300036d8:	01c12083          	lw	ra,28(sp)
300036dc:	01812403          	lw	s0,24(sp)
300036e0:	01412483          	lw	s1,20(sp)
300036e4:	02010113          	addi	sp,sp,32
300036e8:	00008067          	ret
300036ec:	00c7a703          	lw	a4,12(a5)
300036f0:	00177713          	andi	a4,a4,1
300036f4:	fe070ce3          	beqz	a4,300036ec <_ZL8send_cmdhm+0x1cc>
300036f8:	0ff00713          	li	a4,255
300036fc:	00e7a423          	sw	a4,8(a5)
30003700:	00c7a703          	lw	a4,12(a5)
30003704:	00177713          	andi	a4,a4,1
30003708:	fe070ce3          	beqz	a4,30003700 <_ZL8send_cmdhm+0x1e0>
3000370c:	0087a703          	lw	a4,8(a5)
30003710:	f85ff06f          	j	30003694 <_ZL8send_cmdhm+0x174>
30003714:	00800693          	li	a3,8
30003718:	00100713          	li	a4,1
3000371c:	f4d414e3          	bne	s0,a3,30003664 <_ZL8send_cmdhm+0x144>
30003720:	08700713          	li	a4,135
30003724:	f41ff06f          	j	30003664 <_ZL8send_cmdhm+0x144>
30003728:	00000593          	li	a1,0
3000372c:	03700513          	li	a0,55
30003730:	df1ff0ef          	jal	ra,30003520 <_ZL8send_cmdhm>
30003734:	00100793          	li	a5,1
30003738:	eea7e6e3          	bltu	a5,a0,30003624 <_ZL8send_cmdhm+0x104>
3000373c:	07f47413          	andi	s0,s0,127
30003740:	e05ff06f          	j	30003544 <_ZL8send_cmdhm+0x24>

30003744 <get_fattime>:
30003744:	00000513          	li	a0,0
30003748:	00008067          	ret

3000374c <disk_status>:
3000374c:	30011737          	lui	a4,0x30011
30003750:	c0874783          	lbu	a5,-1016(a4) # 30010c08 <_ZL4Stat>
30003754:	00051863          	bnez	a0,30003764 <disk_status+0x18>
30003758:	0f97f513          	andi	a0,a5,249
3000375c:	c0a70423          	sb	a0,-1016(a4)
30003760:	00008067          	ret
30003764:	00300513          	li	a0,3
30003768:	c0a70423          	sb	a0,-1016(a4)
3000376c:	00008067          	ret

30003770 <disk_initialize>:
30003770:	10051e63          	bnez	a0,3000388c <disk_initialize+0x11c>
30003774:	fc010113          	addi	sp,sp,-64
30003778:	03312623          	sw	s3,44(sp)
3000377c:	300119b7          	lui	s3,0x30011
30003780:	c049a683          	lw	a3,-1020(s3) # 30010c04 <bsp>
30003784:	02912a23          	sw	s1,52(sp)
30003788:	300114b7          	lui	s1,0x30011
3000378c:	0146a783          	lw	a5,20(a3)
30003790:	03412423          	sw	s4,40(sp)
30003794:	c084ca03          	lbu	s4,-1016(s1) # 30010c08 <_ZL4Stat>
30003798:	03212823          	sw	s2,48(sp)
3000379c:	30011937          	lui	s2,0x30011
300037a0:	bf092703          	lw	a4,-1040(s2) # 30010bf0 <spi0>
300037a4:	02812c23          	sw	s0,56(sp)
300037a8:	02112e23          	sw	ra,60(sp)
300037ac:	03512223          	sw	s5,36(sp)
300037b0:	03612023          	sw	s6,32(sp)
300037b4:	01712e23          	sw	s7,28(sp)
300037b8:	0f9a7413          	andi	s0,s4,249
300037bc:	0017e793          	ori	a5,a5,1
300037c0:	00f6aa23          	sw	a5,20(a3)
300037c4:	c0848423          	sb	s0,-1016(s1)
300037c8:	00a00693          	li	a3,10
300037cc:	0ff00613          	li	a2,255
300037d0:	00c72783          	lw	a5,12(a4)
300037d4:	0017f793          	andi	a5,a5,1
300037d8:	fe078ce3          	beqz	a5,300037d0 <disk_initialize+0x60>
300037dc:	00c72423          	sw	a2,8(a4)
300037e0:	00c72783          	lw	a5,12(a4)
300037e4:	0017f793          	andi	a5,a5,1
300037e8:	fe078ce3          	beqz	a5,300037e0 <disk_initialize+0x70>
300037ec:	fff68693          	addi	a3,a3,-1
300037f0:	00872783          	lw	a5,8(a4)
300037f4:	0ff6f693          	andi	a3,a3,255
300037f8:	fc069ce3          	bnez	a3,300037d0 <disk_initialize+0x60>
300037fc:	00000593          	li	a1,0
30003800:	00000513          	li	a0,0
30003804:	00f10423          	sb	a5,8(sp)
30003808:	d19ff0ef          	jal	ra,30003520 <_ZL8send_cmdhm>
3000380c:	00100793          	li	a5,1
30003810:	00050b93          	mv	s7,a0
30003814:	08f50663          	beq	a0,a5,300038a0 <disk_initialize+0x130>
30003818:	300137b7          	lui	a5,0x30013
3000381c:	30078423          	sb	zero,776(a5) # 30013308 <_ZL8CardType>
30003820:	bf092783          	lw	a5,-1040(s2)
30003824:	00146513          	ori	a0,s0,1
30003828:	c049a683          	lw	a3,-1020(s3)
3000382c:	c0a48423          	sb	a0,-1016(s1)
30003830:	0146a703          	lw	a4,20(a3)
30003834:	00176713          	ori	a4,a4,1
30003838:	00e6aa23          	sw	a4,20(a3)
3000383c:	00c7a703          	lw	a4,12(a5)
30003840:	00177713          	andi	a4,a4,1
30003844:	fe070ce3          	beqz	a4,3000383c <disk_initialize+0xcc>
30003848:	0ff00713          	li	a4,255
3000384c:	00e7a423          	sw	a4,8(a5)
30003850:	00c7a703          	lw	a4,12(a5)
30003854:	00177713          	andi	a4,a4,1
30003858:	fe070ce3          	beqz	a4,30003850 <disk_initialize+0xe0>
3000385c:	03c12083          	lw	ra,60(sp)
30003860:	03812403          	lw	s0,56(sp)
30003864:	03412483          	lw	s1,52(sp)
30003868:	03012903          	lw	s2,48(sp)
3000386c:	02c12983          	lw	s3,44(sp)
30003870:	02812a03          	lw	s4,40(sp)
30003874:	02412a83          	lw	s5,36(sp)
30003878:	02012b03          	lw	s6,32(sp)
3000387c:	01c12b83          	lw	s7,28(sp)
30003880:	0087a783          	lw	a5,8(a5)
30003884:	04010113          	addi	sp,sp,64
30003888:	00008067          	ret
3000388c:	300117b7          	lui	a5,0x30011
30003890:	00300713          	li	a4,3
30003894:	c0e78423          	sb	a4,-1016(a5) # 30010c08 <_ZL4Stat>
30003898:	00300513          	li	a0,3
3000389c:	00008067          	ret
300038a0:	1aa00593          	li	a1,426
300038a4:	00800513          	li	a0,8
300038a8:	c79ff0ef          	jal	ra,30003520 <_ZL8send_cmdhm>
300038ac:	05751c63          	bne	a0,s7,30003904 <disk_initialize+0x194>
300038b0:	bf092783          	lw	a5,-1040(s2)
300038b4:	00810693          	addi	a3,sp,8
300038b8:	00c10b13          	addi	s6,sp,12
300038bc:	0ff00613          	li	a2,255
300038c0:	00c7a703          	lw	a4,12(a5)
300038c4:	00177713          	andi	a4,a4,1
300038c8:	fe070ce3          	beqz	a4,300038c0 <disk_initialize+0x150>
300038cc:	00c7a423          	sw	a2,8(a5)
300038d0:	00c7a703          	lw	a4,12(a5)
300038d4:	00177713          	andi	a4,a4,1
300038d8:	fe070ce3          	beqz	a4,300038d0 <disk_initialize+0x160>
300038dc:	0087a703          	lw	a4,8(a5)
300038e0:	00168693          	addi	a3,a3,1
300038e4:	fee68fa3          	sb	a4,-1(a3)
300038e8:	fd669ce3          	bne	a3,s6,300038c0 <disk_initialize+0x150>
300038ec:	00a14683          	lbu	a3,10(sp)
300038f0:	00100713          	li	a4,1
300038f4:	06e68863          	beq	a3,a4,30003964 <disk_initialize+0x1f4>
300038f8:	30013737          	lui	a4,0x30013
300038fc:	30070423          	sb	zero,776(a4) # 30013308 <_ZL8CardType>
30003900:	f25ff06f          	j	30003824 <disk_initialize+0xb4>
30003904:	00000593          	li	a1,0
30003908:	0a900513          	li	a0,169
3000390c:	c15ff0ef          	jal	ra,30003520 <_ZL8send_cmdhm>
30003910:	04abf663          	bgeu	s7,a0,3000395c <disk_initialize+0x1ec>
30003914:	00005ab7          	lui	s5,0x5
30003918:	3e800b13          	li	s6,1000
3000391c:	e1fa8a93          	addi	s5,s5,-481 # 4e1f <stackPointer-0x1f21>
30003920:	00000593          	li	a1,0
30003924:	0a900513          	li	a0,169
30003928:	bf9ff0ef          	jal	ra,30003520 <_ZL8send_cmdhm>
3000392c:	08050663          	beqz	a0,300039b8 <disk_initialize+0x248>
30003930:	00012623          	sw	zero,12(sp)
30003934:	00c12783          	lw	a5,12(sp)
30003938:	00faec63          	bltu	s5,a5,30003950 <disk_initialize+0x1e0>
3000393c:	00c12783          	lw	a5,12(sp)
30003940:	00178793          	addi	a5,a5,1
30003944:	00f12623          	sw	a5,12(sp)
30003948:	00c12783          	lw	a5,12(sp)
3000394c:	fefaf8e3          	bgeu	s5,a5,3000393c <disk_initialize+0x1cc>
30003950:	fffb0b13          	addi	s6,s6,-1
30003954:	fc0b16e3          	bnez	s6,30003920 <disk_initialize+0x1b0>
30003958:	ec1ff06f          	j	30003818 <disk_initialize+0xa8>
3000395c:	00200b93          	li	s7,2
30003960:	fb5ff06f          	j	30003914 <disk_initialize+0x1a4>
30003964:	00b14683          	lbu	a3,11(sp)
30003968:	0aa00713          	li	a4,170
3000396c:	f8e696e3          	bne	a3,a4,300038f8 <disk_initialize+0x188>
30003970:	00005ab7          	lui	s5,0x5
30003974:	3e800b93          	li	s7,1000
30003978:	e1fa8a93          	addi	s5,s5,-481 # 4e1f <stackPointer-0x1f21>
3000397c:	400005b7          	lui	a1,0x40000
30003980:	0a900513          	li	a0,169
30003984:	b9dff0ef          	jal	ra,30003520 <_ZL8send_cmdhm>
30003988:	04050a63          	beqz	a0,300039dc <disk_initialize+0x26c>
3000398c:	00012623          	sw	zero,12(sp)
30003990:	00c12783          	lw	a5,12(sp)
30003994:	00faec63          	bltu	s5,a5,300039ac <disk_initialize+0x23c>
30003998:	00c12783          	lw	a5,12(sp)
3000399c:	00178793          	addi	a5,a5,1
300039a0:	00f12623          	sw	a5,12(sp)
300039a4:	00c12783          	lw	a5,12(sp)
300039a8:	fefaf8e3          	bgeu	s5,a5,30003998 <disk_initialize+0x228>
300039ac:	fffb8b93          	addi	s7,s7,-1
300039b0:	fc0b96e3          	bnez	s7,3000397c <disk_initialize+0x20c>
300039b4:	e65ff06f          	j	30003818 <disk_initialize+0xa8>
300039b8:	20000593          	li	a1,512
300039bc:	01000513          	li	a0,16
300039c0:	b61ff0ef          	jal	ra,30003520 <_ZL8send_cmdhm>
300039c4:	e4051ae3          	bnez	a0,30003818 <disk_initialize+0xa8>
300039c8:	300137b7          	lui	a5,0x30013
300039cc:	31778423          	sb	s7,776(a5) # 30013308 <_ZL8CardType>
300039d0:	0f8a7513          	andi	a0,s4,248
300039d4:	bf092783          	lw	a5,-1040(s2)
300039d8:	e51ff06f          	j	30003828 <disk_initialize+0xb8>
300039dc:	00000593          	li	a1,0
300039e0:	03a00513          	li	a0,58
300039e4:	b3dff0ef          	jal	ra,30003520 <_ZL8send_cmdhm>
300039e8:	e20518e3          	bnez	a0,30003818 <disk_initialize+0xa8>
300039ec:	bf092703          	lw	a4,-1040(s2)
300039f0:	00810793          	addi	a5,sp,8
300039f4:	0ff00613          	li	a2,255
300039f8:	00c72683          	lw	a3,12(a4)
300039fc:	0016f693          	andi	a3,a3,1
30003a00:	fe068ce3          	beqz	a3,300039f8 <disk_initialize+0x288>
30003a04:	00c72423          	sw	a2,8(a4)
30003a08:	00c72683          	lw	a3,12(a4)
30003a0c:	0016f693          	andi	a3,a3,1
30003a10:	fe068ce3          	beqz	a3,30003a08 <disk_initialize+0x298>
30003a14:	00872683          	lw	a3,8(a4)
30003a18:	00178793          	addi	a5,a5,1
30003a1c:	fed78fa3          	sb	a3,-1(a5)
30003a20:	fd679ce3          	bne	a5,s6,300039f8 <disk_initialize+0x288>
30003a24:	00814b83          	lbu	s7,8(sp)
30003a28:	003bdb93          	srli	s7,s7,0x3
30003a2c:	008bfb93          	andi	s7,s7,8
30003a30:	004b8b93          	addi	s7,s7,4
30003a34:	f95ff06f          	j	300039c8 <disk_initialize+0x258>

30003a38 <disk_read>:
30003a38:	ff010113          	addi	sp,sp,-16
30003a3c:	00112623          	sw	ra,12(sp)
30003a40:	00812423          	sw	s0,8(sp)
30003a44:	00912223          	sw	s1,4(sp)
30003a48:	01212023          	sw	s2,0(sp)
30003a4c:	10051463          	bnez	a0,30003b54 <disk_read+0x11c>
30003a50:	30011737          	lui	a4,0x30011
30003a54:	c0874783          	lbu	a5,-1016(a4) # 30010c08 <_ZL4Stat>
30003a58:	00068413          	mv	s0,a3
30003a5c:	ff97f693          	andi	a3,a5,-7
30003a60:	c0d70423          	sb	a3,-1016(a4)
30003a64:	0017f793          	andi	a5,a5,1
30003a68:	0e079c63          	bnez	a5,30003b60 <disk_read+0x128>
30003a6c:	00400913          	li	s2,4
30003a70:	06040c63          	beqz	s0,30003ae8 <disk_read+0xb0>
30003a74:	300137b7          	lui	a5,0x30013
30003a78:	3087c783          	lbu	a5,776(a5) # 30013308 <_ZL8CardType>
30003a7c:	00058493          	mv	s1,a1
30003a80:	0087f793          	andi	a5,a5,8
30003a84:	00079463          	bnez	a5,30003a8c <disk_read+0x54>
30003a88:	00961613          	slli	a2,a2,0x9
30003a8c:	00100793          	li	a5,1
30003a90:	00060593          	mv	a1,a2
30003a94:	0af40063          	beq	s0,a5,30003b34 <disk_read+0xfc>
30003a98:	01200513          	li	a0,18
30003a9c:	a85ff0ef          	jal	ra,30003520 <_ZL8send_cmdhm>
30003aa0:	00100913          	li	s2,1
30003aa4:	06050463          	beqz	a0,30003b0c <disk_read+0xd4>
30003aa8:	300117b7          	lui	a5,0x30011
30003aac:	c047a683          	lw	a3,-1020(a5) # 30010c04 <bsp>
30003ab0:	300117b7          	lui	a5,0x30011
30003ab4:	bf07a703          	lw	a4,-1040(a5) # 30010bf0 <spi0>
30003ab8:	0146a783          	lw	a5,20(a3)
30003abc:	0017e793          	ori	a5,a5,1
30003ac0:	00f6aa23          	sw	a5,20(a3)
30003ac4:	00c72783          	lw	a5,12(a4)
30003ac8:	0017f793          	andi	a5,a5,1
30003acc:	fe078ce3          	beqz	a5,30003ac4 <disk_read+0x8c>
30003ad0:	0ff00793          	li	a5,255
30003ad4:	00f72423          	sw	a5,8(a4)
30003ad8:	00c72783          	lw	a5,12(a4)
30003adc:	0017f793          	andi	a5,a5,1
30003ae0:	fe078ce3          	beqz	a5,30003ad8 <disk_read+0xa0>
30003ae4:	00872783          	lw	a5,8(a4)
30003ae8:	00c12083          	lw	ra,12(sp)
30003aec:	00812403          	lw	s0,8(sp)
30003af0:	00090513          	mv	a0,s2
30003af4:	00412483          	lw	s1,4(sp)
30003af8:	00012903          	lw	s2,0(sp)
30003afc:	01010113          	addi	sp,sp,16
30003b00:	00008067          	ret
30003b04:	20048493          	addi	s1,s1,512
30003b08:	06040c63          	beqz	s0,30003b80 <disk_read+0x148>
30003b0c:	00048513          	mv	a0,s1
30003b10:	fff40413          	addi	s0,s0,-1
30003b14:	905ff0ef          	jal	ra,30003418 <_ZL14rcvr_datablockPhj.constprop.2>
30003b18:	0ff47413          	andi	s0,s0,255
30003b1c:	fe0514e3          	bnez	a0,30003b04 <disk_read+0xcc>
30003b20:	00100913          	li	s2,1
30003b24:	00000593          	li	a1,0
30003b28:	00c00513          	li	a0,12
30003b2c:	9f5ff0ef          	jal	ra,30003520 <_ZL8send_cmdhm>
30003b30:	f79ff06f          	j	30003aa8 <disk_read+0x70>
30003b34:	01100513          	li	a0,17
30003b38:	9e9ff0ef          	jal	ra,30003520 <_ZL8send_cmdhm>
30003b3c:	00100913          	li	s2,1
30003b40:	f60514e3          	bnez	a0,30003aa8 <disk_read+0x70>
30003b44:	00048513          	mv	a0,s1
30003b48:	8d1ff0ef          	jal	ra,30003418 <_ZL14rcvr_datablockPhj.constprop.2>
30003b4c:	00153913          	seqz	s2,a0
30003b50:	f59ff06f          	j	30003aa8 <disk_read+0x70>
30003b54:	300117b7          	lui	a5,0x30011
30003b58:	00300713          	li	a4,3
30003b5c:	c0e78423          	sb	a4,-1016(a5) # 30010c08 <_ZL4Stat>
30003b60:	00c12083          	lw	ra,12(sp)
30003b64:	00812403          	lw	s0,8(sp)
30003b68:	00300913          	li	s2,3
30003b6c:	00090513          	mv	a0,s2
30003b70:	00412483          	lw	s1,4(sp)
30003b74:	00012903          	lw	s2,0(sp)
30003b78:	01010113          	addi	sp,sp,16
30003b7c:	00008067          	ret
30003b80:	00000913          	li	s2,0
30003b84:	fa1ff06f          	j	30003b24 <disk_read+0xec>

30003b88 <disk_write>:
30003b88:	20051a63          	bnez	a0,30003d9c <disk_write+0x214>
30003b8c:	30011737          	lui	a4,0x30011
30003b90:	c0874783          	lbu	a5,-1016(a4) # 30010c08 <_ZL4Stat>
30003b94:	fc010113          	addi	sp,sp,-64
30003b98:	03312623          	sw	s3,44(sp)
30003b9c:	00068993          	mv	s3,a3
30003ba0:	ff97f693          	andi	a3,a5,-7
30003ba4:	02112e23          	sw	ra,60(sp)
30003ba8:	02812c23          	sw	s0,56(sp)
30003bac:	02912a23          	sw	s1,52(sp)
30003bb0:	03212823          	sw	s2,48(sp)
30003bb4:	03412423          	sw	s4,40(sp)
30003bb8:	03512223          	sw	s5,36(sp)
30003bbc:	c0d70423          	sb	a3,-1016(a4)
30003bc0:	0017f793          	andi	a5,a5,1
30003bc4:	10079a63          	bnez	a5,30003cd8 <disk_write+0x150>
30003bc8:	00400513          	li	a0,4
30003bcc:	10098863          	beqz	s3,30003cdc <disk_write+0x154>
30003bd0:	300137b7          	lui	a5,0x30013
30003bd4:	3087c783          	lbu	a5,776(a5) # 30013308 <_ZL8CardType>
30003bd8:	00058413          	mv	s0,a1
30003bdc:	0087f713          	andi	a4,a5,8
30003be0:	00071463          	bnez	a4,30003be8 <disk_write+0x60>
30003be4:	00961613          	slli	a2,a2,0x9
30003be8:	00100713          	li	a4,1
30003bec:	14e98c63          	beq	s3,a4,30003d44 <disk_write+0x1bc>
30003bf0:	0067f793          	andi	a5,a5,6
30003bf4:	1a079e63          	bnez	a5,30003db0 <disk_write+0x228>
30003bf8:	00060593          	mv	a1,a2
30003bfc:	01900513          	li	a0,25
30003c00:	921ff0ef          	jal	ra,30003520 <_ZL8send_cmdhm>
30003c04:	14051863          	bnez	a0,30003d54 <disk_write+0x1cc>
30003c08:	30011a37          	lui	s4,0x30011
30003c0c:	00001ab7          	lui	s5,0x1
30003c10:	0ff00913          	li	s2,255
30003c14:	7cf00493          	li	s1,1999
30003c18:	bf0a2783          	lw	a5,-1040(s4) # 30010bf0 <spi0>
30003c1c:	388a8613          	addi	a2,s5,904 # 1388 <stackPointer-0x59b8>
30003c20:	00c7a703          	lw	a4,12(a5)
30003c24:	00177713          	andi	a4,a4,1
30003c28:	fe070ce3          	beqz	a4,30003c20 <disk_write+0x98>
30003c2c:	0127a423          	sw	s2,8(a5)
30003c30:	00c7a703          	lw	a4,12(a5)
30003c34:	00177713          	andi	a4,a4,1
30003c38:	fe070ce3          	beqz	a4,30003c30 <disk_write+0xa8>
30003c3c:	0087a703          	lw	a4,8(a5)
30003c40:	0ff77713          	andi	a4,a4,255
30003c44:	0d270c63          	beq	a4,s2,30003d1c <disk_write+0x194>
30003c48:	00012c23          	sw	zero,24(sp)
30003c4c:	01812703          	lw	a4,24(sp)
30003c50:	00e4ec63          	bltu	s1,a4,30003c68 <disk_write+0xe0>
30003c54:	01812703          	lw	a4,24(sp)
30003c58:	00170713          	addi	a4,a4,1
30003c5c:	00e12c23          	sw	a4,24(sp)
30003c60:	01812703          	lw	a4,24(sp)
30003c64:	fee4f8e3          	bgeu	s1,a4,30003c54 <disk_write+0xcc>
30003c68:	fff60613          	addi	a2,a2,-1
30003c6c:	fa061ae3          	bnez	a2,30003c20 <disk_write+0x98>
30003c70:	00001637          	lui	a2,0x1
30003c74:	38860613          	addi	a2,a2,904 # 1388 <stackPointer-0x59b8>
30003c78:	0ff00593          	li	a1,255
30003c7c:	7cf00693          	li	a3,1999
30003c80:	00c7a703          	lw	a4,12(a5)
30003c84:	00177713          	andi	a4,a4,1
30003c88:	fe070ce3          	beqz	a4,30003c80 <disk_write+0xf8>
30003c8c:	00b7a423          	sw	a1,8(a5)
30003c90:	00c7a703          	lw	a4,12(a5)
30003c94:	00177713          	andi	a4,a4,1
30003c98:	fe070ce3          	beqz	a4,30003c90 <disk_write+0x108>
30003c9c:	0087a703          	lw	a4,8(a5)
30003ca0:	0ff77713          	andi	a4,a4,255
30003ca4:	04b70e63          	beq	a4,a1,30003d00 <disk_write+0x178>
30003ca8:	00012e23          	sw	zero,28(sp)
30003cac:	01c12703          	lw	a4,28(sp)
30003cb0:	00e6ec63          	bltu	a3,a4,30003cc8 <disk_write+0x140>
30003cb4:	01c12703          	lw	a4,28(sp)
30003cb8:	00170713          	addi	a4,a4,1
30003cbc:	00e12e23          	sw	a4,28(sp)
30003cc0:	01c12703          	lw	a4,28(sp)
30003cc4:	fee6f8e3          	bgeu	a3,a4,30003cb4 <disk_write+0x12c>
30003cc8:	fff60613          	addi	a2,a2,-1
30003ccc:	fa061ae3          	bnez	a2,30003c80 <disk_write+0xf8>
30003cd0:	00100513          	li	a0,1
30003cd4:	08c0006f          	j	30003d60 <disk_write+0x1d8>
30003cd8:	00300513          	li	a0,3
30003cdc:	03c12083          	lw	ra,60(sp)
30003ce0:	03812403          	lw	s0,56(sp)
30003ce4:	03412483          	lw	s1,52(sp)
30003ce8:	03012903          	lw	s2,48(sp)
30003cec:	02c12983          	lw	s3,44(sp)
30003cf0:	02812a03          	lw	s4,40(sp)
30003cf4:	02412a83          	lw	s5,36(sp)
30003cf8:	04010113          	addi	sp,sp,64
30003cfc:	00008067          	ret
30003d00:	00c7a703          	lw	a4,12(a5)
30003d04:	00177713          	andi	a4,a4,1
30003d08:	fe070ce3          	beqz	a4,30003d00 <disk_write+0x178>
30003d0c:	0fd00713          	li	a4,253
30003d10:	00e7a423          	sw	a4,8(a5)
30003d14:	01303533          	snez	a0,s3
30003d18:	0480006f          	j	30003d60 <disk_write+0x1d8>
30003d1c:	0fc00593          	li	a1,252
30003d20:	00040513          	mv	a0,s0
30003d24:	e34ff0ef          	jal	ra,30003358 <_ZL14xmit_datablockPKhh.part.1>
30003d28:	00050a63          	beqz	a0,30003d3c <disk_write+0x1b4>
30003d2c:	fff98993          	addi	s3,s3,-1
30003d30:	0ff9f993          	andi	s3,s3,255
30003d34:	20040413          	addi	s0,s0,512
30003d38:	ee0990e3          	bnez	s3,30003c18 <disk_write+0x90>
30003d3c:	bf0a2783          	lw	a5,-1040(s4)
30003d40:	f31ff06f          	j	30003c70 <disk_write+0xe8>
30003d44:	00060593          	mv	a1,a2
30003d48:	01800513          	li	a0,24
30003d4c:	fd4ff0ef          	jal	ra,30003520 <_ZL8send_cmdhm>
30003d50:	06050c63          	beqz	a0,30003dc8 <disk_write+0x240>
30003d54:	300117b7          	lui	a5,0x30011
30003d58:	bf07a783          	lw	a5,-1040(a5) # 30010bf0 <spi0>
30003d5c:	00100513          	li	a0,1
30003d60:	30011737          	lui	a4,0x30011
30003d64:	c0472683          	lw	a3,-1020(a4) # 30010c04 <bsp>
30003d68:	0146a703          	lw	a4,20(a3)
30003d6c:	00176713          	ori	a4,a4,1
30003d70:	00e6aa23          	sw	a4,20(a3)
30003d74:	00c7a703          	lw	a4,12(a5)
30003d78:	00177713          	andi	a4,a4,1
30003d7c:	fe070ce3          	beqz	a4,30003d74 <disk_write+0x1ec>
30003d80:	0ff00713          	li	a4,255
30003d84:	00e7a423          	sw	a4,8(a5)
30003d88:	00c7a703          	lw	a4,12(a5)
30003d8c:	00177713          	andi	a4,a4,1
30003d90:	fe070ce3          	beqz	a4,30003d88 <disk_write+0x200>
30003d94:	0087a783          	lw	a5,8(a5)
30003d98:	f45ff06f          	j	30003cdc <disk_write+0x154>
30003d9c:	300117b7          	lui	a5,0x30011
30003da0:	00300713          	li	a4,3
30003da4:	c0e78423          	sb	a4,-1016(a5) # 30010c08 <_ZL4Stat>
30003da8:	00300513          	li	a0,3
30003dac:	00008067          	ret
30003db0:	00098593          	mv	a1,s3
30003db4:	09700513          	li	a0,151
30003db8:	00c12623          	sw	a2,12(sp)
30003dbc:	f64ff0ef          	jal	ra,30003520 <_ZL8send_cmdhm>
30003dc0:	00c12603          	lw	a2,12(sp)
30003dc4:	e35ff06f          	j	30003bf8 <disk_write+0x70>
30003dc8:	30011a37          	lui	s4,0x30011
30003dcc:	bf0a2783          	lw	a5,-1040(s4) # 30010bf0 <spi0>
30003dd0:	00001637          	lui	a2,0x1
30003dd4:	38860613          	addi	a2,a2,904 # 1388 <stackPointer-0x59b8>
30003dd8:	0ff00593          	li	a1,255
30003ddc:	7cf00693          	li	a3,1999
30003de0:	00c7a703          	lw	a4,12(a5)
30003de4:	00177713          	andi	a4,a4,1
30003de8:	fe070ce3          	beqz	a4,30003de0 <disk_write+0x258>
30003dec:	00b7a423          	sw	a1,8(a5)
30003df0:	00c7a703          	lw	a4,12(a5)
30003df4:	00177713          	andi	a4,a4,1
30003df8:	fe070ce3          	beqz	a4,30003df0 <disk_write+0x268>
30003dfc:	0087a703          	lw	a4,8(a5)
30003e00:	0ff77713          	andi	a4,a4,255
30003e04:	02b70a63          	beq	a4,a1,30003e38 <disk_write+0x2b0>
30003e08:	00012a23          	sw	zero,20(sp)
30003e0c:	01412703          	lw	a4,20(sp)
30003e10:	00e6ec63          	bltu	a3,a4,30003e28 <disk_write+0x2a0>
30003e14:	01412703          	lw	a4,20(sp)
30003e18:	00170713          	addi	a4,a4,1
30003e1c:	00e12a23          	sw	a4,20(sp)
30003e20:	01412703          	lw	a4,20(sp)
30003e24:	fee6f8e3          	bgeu	a3,a4,30003e14 <disk_write+0x28c>
30003e28:	fff60613          	addi	a2,a2,-1
30003e2c:	fa061ae3          	bnez	a2,30003de0 <disk_write+0x258>
30003e30:	00100513          	li	a0,1
30003e34:	f2dff06f          	j	30003d60 <disk_write+0x1d8>
30003e38:	0fe00593          	li	a1,254
30003e3c:	00040513          	mv	a0,s0
30003e40:	d18ff0ef          	jal	ra,30003358 <_ZL14xmit_datablockPKhh.part.1>
30003e44:	00153513          	seqz	a0,a0
30003e48:	bf0a2783          	lw	a5,-1040(s4)
30003e4c:	f15ff06f          	j	30003d60 <disk_write+0x1d8>

30003e50 <disk_ioctl>:
30003e50:	08051e63          	bnez	a0,30003eec <disk_ioctl+0x9c>
30003e54:	30011737          	lui	a4,0x30011
30003e58:	c0874783          	lbu	a5,-1016(a4) # 30010c08 <_ZL4Stat>
30003e5c:	ff97f693          	andi	a3,a5,-7
30003e60:	c0d70423          	sb	a3,-1016(a4)
30003e64:	0017f793          	andi	a5,a5,1
30003e68:	08079863          	bnez	a5,30003ef8 <disk_ioctl+0xa8>
30003e6c:	fd010113          	addi	sp,sp,-48
30003e70:	02112623          	sw	ra,44(sp)
30003e74:	02812423          	sw	s0,40(sp)
30003e78:	00100713          	li	a4,1
30003e7c:	0ae58c63          	beq	a1,a4,30003f34 <disk_ioctl+0xe4>
30003e80:	0e058063          	beqz	a1,30003f60 <disk_ioctl+0x110>
30003e84:	00200793          	li	a5,2
30003e88:	08f58863          	beq	a1,a5,30003f18 <disk_ioctl+0xc8>
30003e8c:	00300793          	li	a5,3
30003e90:	06f59863          	bne	a1,a5,30003f00 <disk_ioctl+0xb0>
30003e94:	300117b7          	lui	a5,0x30011
30003e98:	c047a803          	lw	a6,-1020(a5) # 30010c04 <bsp>
30003e9c:	300117b7          	lui	a5,0x30011
30003ea0:	bf07a783          	lw	a5,-1040(a5) # 30010bf0 <spi0>
30003ea4:	00000513          	li	a0,0
30003ea8:	00e62023          	sw	a4,0(a2)
30003eac:	01482703          	lw	a4,20(a6)
30003eb0:	00176713          	ori	a4,a4,1
30003eb4:	00e82a23          	sw	a4,20(a6)
30003eb8:	00c7a703          	lw	a4,12(a5)
30003ebc:	00177713          	andi	a4,a4,1
30003ec0:	fe070ce3          	beqz	a4,30003eb8 <disk_ioctl+0x68>
30003ec4:	0ff00713          	li	a4,255
30003ec8:	00e7a423          	sw	a4,8(a5)
30003ecc:	00c7a703          	lw	a4,12(a5)
30003ed0:	00177713          	andi	a4,a4,1
30003ed4:	fe070ce3          	beqz	a4,30003ecc <disk_ioctl+0x7c>
30003ed8:	02c12083          	lw	ra,44(sp)
30003edc:	02812403          	lw	s0,40(sp)
30003ee0:	0087a783          	lw	a5,8(a5)
30003ee4:	03010113          	addi	sp,sp,48
30003ee8:	00008067          	ret
30003eec:	300117b7          	lui	a5,0x30011
30003ef0:	00300713          	li	a4,3
30003ef4:	c0e78423          	sb	a4,-1016(a5) # 30010c08 <_ZL4Stat>
30003ef8:	00300513          	li	a0,3
30003efc:	00008067          	ret
30003f00:	300117b7          	lui	a5,0x30011
30003f04:	c047a803          	lw	a6,-1020(a5) # 30010c04 <bsp>
30003f08:	300117b7          	lui	a5,0x30011
30003f0c:	bf07a783          	lw	a5,-1040(a5) # 30010bf0 <spi0>
30003f10:	00400513          	li	a0,4
30003f14:	f99ff06f          	j	30003eac <disk_ioctl+0x5c>
30003f18:	02c12083          	lw	ra,44(sp)
30003f1c:	02812403          	lw	s0,40(sp)
30003f20:	20000793          	li	a5,512
30003f24:	00f61023          	sh	a5,0(a2)
30003f28:	00000513          	li	a0,0
30003f2c:	03010113          	addi	sp,sp,48
30003f30:	00008067          	ret
30003f34:	00000593          	li	a1,0
30003f38:	00900513          	li	a0,9
30003f3c:	00060413          	mv	s0,a2
30003f40:	de0ff0ef          	jal	ra,30003520 <_ZL8send_cmdhm>
30003f44:	10050463          	beqz	a0,3000404c <disk_ioctl+0x1fc>
30003f48:	300117b7          	lui	a5,0x30011
30003f4c:	c047a803          	lw	a6,-1020(a5) # 30010c04 <bsp>
30003f50:	300117b7          	lui	a5,0x30011
30003f54:	bf07a783          	lw	a5,-1040(a5) # 30010bf0 <spi0>
30003f58:	00100513          	li	a0,1
30003f5c:	f51ff06f          	j	30003eac <disk_ioctl+0x5c>
30003f60:	300117b7          	lui	a5,0x30011
30003f64:	c047a803          	lw	a6,-1020(a5) # 30010c04 <bsp>
30003f68:	300117b7          	lui	a5,0x30011
30003f6c:	bf07a783          	lw	a5,-1040(a5) # 30010bf0 <spi0>
30003f70:	01482703          	lw	a4,20(a6)
30003f74:	00001637          	lui	a2,0x1
30003f78:	38860613          	addi	a2,a2,904 # 1388 <stackPointer-0x59b8>
30003f7c:	ffe77713          	andi	a4,a4,-2
30003f80:	00e82a23          	sw	a4,20(a6)
30003f84:	0ff00593          	li	a1,255
30003f88:	7cf00693          	li	a3,1999
30003f8c:	00c7a703          	lw	a4,12(a5)
30003f90:	00177713          	andi	a4,a4,1
30003f94:	fe070ce3          	beqz	a4,30003f8c <disk_ioctl+0x13c>
30003f98:	00b7a423          	sw	a1,8(a5)
30003f9c:	00c7a703          	lw	a4,12(a5)
30003fa0:	00177713          	andi	a4,a4,1
30003fa4:	fe070ce3          	beqz	a4,30003f9c <disk_ioctl+0x14c>
30003fa8:	0087a703          	lw	a4,8(a5)
30003fac:	0ff77713          	andi	a4,a4,255
30003fb0:	06b70263          	beq	a4,a1,30004014 <disk_ioctl+0x1c4>
30003fb4:	00012423          	sw	zero,8(sp)
30003fb8:	00812703          	lw	a4,8(sp)
30003fbc:	00e6ec63          	bltu	a3,a4,30003fd4 <disk_ioctl+0x184>
30003fc0:	00812703          	lw	a4,8(sp)
30003fc4:	00170713          	addi	a4,a4,1
30003fc8:	00e12423          	sw	a4,8(sp)
30003fcc:	00812703          	lw	a4,8(sp)
30003fd0:	fee6f8e3          	bgeu	a3,a4,30003fc0 <disk_ioctl+0x170>
30003fd4:	fff60613          	addi	a2,a2,-1
30003fd8:	fa061ae3          	bnez	a2,30003f8c <disk_ioctl+0x13c>
30003fdc:	01482703          	lw	a4,20(a6)
30003fe0:	00176713          	ori	a4,a4,1
30003fe4:	00e82a23          	sw	a4,20(a6)
30003fe8:	00c7a703          	lw	a4,12(a5)
30003fec:	00177713          	andi	a4,a4,1
30003ff0:	fe070ce3          	beqz	a4,30003fe8 <disk_ioctl+0x198>
30003ff4:	0ff00713          	li	a4,255
30003ff8:	00e7a423          	sw	a4,8(a5)
30003ffc:	00c7a703          	lw	a4,12(a5)
30004000:	00177713          	andi	a4,a4,1
30004004:	fe070ce3          	beqz	a4,30003ffc <disk_ioctl+0x1ac>
30004008:	0087a703          	lw	a4,8(a5)
3000400c:	00100513          	li	a0,1
30004010:	e9dff06f          	j	30003eac <disk_ioctl+0x5c>
30004014:	01482703          	lw	a4,20(a6)
30004018:	00176713          	ori	a4,a4,1
3000401c:	00e82a23          	sw	a4,20(a6)
30004020:	00c7a703          	lw	a4,12(a5)
30004024:	00177713          	andi	a4,a4,1
30004028:	fe070ce3          	beqz	a4,30004020 <disk_ioctl+0x1d0>
3000402c:	0ff00713          	li	a4,255
30004030:	00e7a423          	sw	a4,8(a5)
30004034:	00c7a703          	lw	a4,12(a5)
30004038:	00177713          	andi	a4,a4,1
3000403c:	fe070ce3          	beqz	a4,30004034 <disk_ioctl+0x1e4>
30004040:	0087a703          	lw	a4,8(a5)
30004044:	00000513          	li	a0,0
30004048:	e65ff06f          	j	30003eac <disk_ioctl+0x5c>
3000404c:	300117b7          	lui	a5,0x30011
30004050:	bf07a783          	lw	a5,-1040(a5) # 30010bf0 <spi0>
30004054:	3e800613          	li	a2,1000
30004058:	0ff00593          	li	a1,255
3000405c:	7cf00693          	li	a3,1999
30004060:	00c7a703          	lw	a4,12(a5)
30004064:	00177713          	andi	a4,a4,1
30004068:	fe070ce3          	beqz	a4,30004060 <disk_ioctl+0x210>
3000406c:	00b7a423          	sw	a1,8(a5)
30004070:	00c7a703          	lw	a4,12(a5)
30004074:	00177713          	andi	a4,a4,1
30004078:	fe070ce3          	beqz	a4,30004070 <disk_ioctl+0x220>
3000407c:	0087a703          	lw	a4,8(a5)
30004080:	0ff77713          	andi	a4,a4,255
30004084:	02b71e63          	bne	a4,a1,300040c0 <disk_ioctl+0x270>
30004088:	00012623          	sw	zero,12(sp)
3000408c:	00c12703          	lw	a4,12(sp)
30004090:	00e6ec63          	bltu	a3,a4,300040a8 <disk_ioctl+0x258>
30004094:	00c12703          	lw	a4,12(sp)
30004098:	00170713          	addi	a4,a4,1
3000409c:	00e12623          	sw	a4,12(sp)
300040a0:	00c12703          	lw	a4,12(sp)
300040a4:	fee6f8e3          	bgeu	a3,a4,30004094 <disk_ioctl+0x244>
300040a8:	fff60613          	addi	a2,a2,-1
300040ac:	fa061ae3          	bnez	a2,30004060 <disk_ioctl+0x210>
300040b0:	30011737          	lui	a4,0x30011
300040b4:	c0472803          	lw	a6,-1020(a4) # 30010c04 <bsp>
300040b8:	00100513          	li	a0,1
300040bc:	df1ff06f          	j	30003eac <disk_ioctl+0x5c>
300040c0:	00e10423          	sb	a4,8(sp)
300040c4:	0fe00693          	li	a3,254
300040c8:	fed714e3          	bne	a4,a3,300040b0 <disk_ioctl+0x260>
300040cc:	01010693          	addi	a3,sp,16
300040d0:	0ff00613          	li	a2,255
300040d4:	00c7a703          	lw	a4,12(a5)
300040d8:	00177713          	andi	a4,a4,1
300040dc:	fe070ce3          	beqz	a4,300040d4 <disk_ioctl+0x284>
300040e0:	00c7a423          	sw	a2,8(a5)
300040e4:	00c7a703          	lw	a4,12(a5)
300040e8:	00177713          	andi	a4,a4,1
300040ec:	fe070ce3          	beqz	a4,300040e4 <disk_ioctl+0x294>
300040f0:	0087a703          	lw	a4,8(a5)
300040f4:	00168693          	addi	a3,a3,1
300040f8:	fee68fa3          	sb	a4,-1(a3)
300040fc:	02010713          	addi	a4,sp,32
30004100:	fce69ae3          	bne	a3,a4,300040d4 <disk_ioctl+0x284>
30004104:	00810693          	addi	a3,sp,8
30004108:	00a10593          	addi	a1,sp,10
3000410c:	0ff00613          	li	a2,255
30004110:	00c7a703          	lw	a4,12(a5)
30004114:	00177713          	andi	a4,a4,1
30004118:	fe070ce3          	beqz	a4,30004110 <disk_ioctl+0x2c0>
3000411c:	00c7a423          	sw	a2,8(a5)
30004120:	00c7a703          	lw	a4,12(a5)
30004124:	00177713          	andi	a4,a4,1
30004128:	fe070ce3          	beqz	a4,30004120 <disk_ioctl+0x2d0>
3000412c:	0087a703          	lw	a4,8(a5)
30004130:	00168693          	addi	a3,a3,1
30004134:	fee68fa3          	sb	a4,-1(a3)
30004138:	fcb69ce3          	bne	a3,a1,30004110 <disk_ioctl+0x2c0>
3000413c:	01014703          	lbu	a4,16(sp)
30004140:	30011537          	lui	a0,0x30011
30004144:	00100693          	li	a3,1
30004148:	40675713          	srai	a4,a4,0x6
3000414c:	01914603          	lbu	a2,25(sp)
30004150:	01814583          	lbu	a1,24(sp)
30004154:	c0452803          	lw	a6,-1020(a0) # 30010c04 <bsp>
30004158:	06d70663          	beq	a4,a3,300041c4 <disk_ioctl+0x374>
3000415c:	01714703          	lbu	a4,23(sp)
30004160:	01614503          	lbu	a0,22(sp)
30004164:	4065d593          	srai	a1,a1,0x6
30004168:	00271713          	slli	a4,a4,0x2
3000416c:	01514683          	lbu	a3,21(sp)
30004170:	01a14883          	lbu	a7,26(sp)
30004174:	00170713          	addi	a4,a4,1
30004178:	00b70733          	add	a4,a4,a1
3000417c:	000015b7          	lui	a1,0x1
30004180:	00a51513          	slli	a0,a0,0xa
30004184:	c0058593          	addi	a1,a1,-1024 # c00 <stackPointer-0x6140>
30004188:	00b575b3          	and	a1,a0,a1
3000418c:	00f6f693          	andi	a3,a3,15
30004190:	0078d893          	srli	a7,a7,0x7
30004194:	00161613          	slli	a2,a2,0x1
30004198:	011686b3          	add	a3,a3,a7
3000419c:	00667613          	andi	a2,a2,6
300041a0:	00b70733          	add	a4,a4,a1
300041a4:	00c686b3          	add	a3,a3,a2
300041a8:	01071713          	slli	a4,a4,0x10
300041ac:	01075713          	srli	a4,a4,0x10
300041b0:	ff968693          	addi	a3,a3,-7
300041b4:	00d71733          	sll	a4,a4,a3
300041b8:	00e42023          	sw	a4,0(s0)
300041bc:	00000513          	li	a0,0
300041c0:	cedff06f          	j	30003eac <disk_ioctl+0x5c>
300041c4:	00859713          	slli	a4,a1,0x8
300041c8:	00160613          	addi	a2,a2,1
300041cc:	00c70733          	add	a4,a4,a2
300041d0:	01071713          	slli	a4,a4,0x10
300041d4:	01075713          	srli	a4,a4,0x10
300041d8:	00a71713          	slli	a4,a4,0xa
300041dc:	00e42023          	sw	a4,0(s0)
300041e0:	00000513          	li	a0,0
300041e4:	cc9ff06f          	j	30003eac <disk_ioctl+0x5c>

300041e8 <ff_convert>:
300041e8:	07f00793          	li	a5,127
300041ec:	04a7fa63          	bgeu	a5,a0,30004240 <ff_convert+0x58>
300041f0:	04059263          	bnez	a1,30004234 <ff_convert+0x4c>
300041f4:	300107b7          	lui	a5,0x30010
300041f8:	15c78793          	addi	a5,a5,348 # 3001015c <_ZL3Tbl>
300041fc:	00000713          	li	a4,0
30004200:	08000593          	li	a1,128
30004204:	0100006f          	j	30004214 <ff_convert+0x2c>
30004208:	01061713          	slli	a4,a2,0x10
3000420c:	01075713          	srli	a4,a4,0x10
30004210:	02b70663          	beq	a4,a1,3000423c <ff_convert+0x54>
30004214:	0007d683          	lhu	a3,0(a5)
30004218:	00170613          	addi	a2,a4,1
3000421c:	00278793          	addi	a5,a5,2
30004220:	fea694e3          	bne	a3,a0,30004208 <ff_convert+0x20>
30004224:	08070713          	addi	a4,a4,128
30004228:	01071513          	slli	a0,a4,0x10
3000422c:	01055513          	srli	a0,a0,0x10
30004230:	00008067          	ret
30004234:	0ff00793          	li	a5,255
30004238:	00a7f663          	bgeu	a5,a0,30004244 <ff_convert+0x5c>
3000423c:	00000513          	li	a0,0
30004240:	00008067          	ret
30004244:	f8050713          	addi	a4,a0,-128
30004248:	300107b7          	lui	a5,0x30010
3000424c:	15c78793          	addi	a5,a5,348 # 3001015c <_ZL3Tbl>
30004250:	00171713          	slli	a4,a4,0x1
30004254:	00e78733          	add	a4,a5,a4
30004258:	00075503          	lhu	a0,0(a4)
3000425c:	00008067          	ret

30004260 <ff_wtoupper>:
30004260:	000017b7          	lui	a5,0x1
30004264:	02f56e63          	bltu	a0,a5,300042a0 <ff_wtoupper+0x40>
30004268:	30010737          	lui	a4,0x30010
3000426c:	45070713          	addi	a4,a4,1104 # 30010450 <_ZZ11ff_wtoupperE4cvt2>
30004270:	0240006f          	j	30004294 <ff_wtoupper+0x34>
30004274:	02d56463          	bltu	a0,a3,3000429c <ff_wtoupper+0x3c>
30004278:	00470713          	addi	a4,a4,4
3000427c:	ffe75783          	lhu	a5,-2(a4)
30004280:	0ff7f613          	andi	a2,a5,255
30004284:	00d605b3          	add	a1,a2,a3
30004288:	4087d793          	srai	a5,a5,0x8
3000428c:	02b54063          	blt	a0,a1,300042ac <ff_wtoupper+0x4c>
30004290:	02078e63          	beqz	a5,300042cc <ff_wtoupper+0x6c>
30004294:	00075683          	lhu	a3,0(a4)
30004298:	fc069ee3          	bnez	a3,30004274 <ff_wtoupper+0x14>
3000429c:	00008067          	ret
300042a0:	30010737          	lui	a4,0x30010
300042a4:	25c70713          	addi	a4,a4,604 # 3001025c <_ZZ11ff_wtoupperE4cvt1>
300042a8:	fedff06f          	j	30004294 <ff_wtoupper+0x34>
300042ac:	00800613          	li	a2,8
300042b0:	fef666e3          	bltu	a2,a5,3000429c <ff_wtoupper+0x3c>
300042b4:	30010637          	lui	a2,0x30010
300042b8:	00279793          	slli	a5,a5,0x2
300042bc:	13860613          	addi	a2,a2,312 # 30010138 <__clzsi2+0x1464>
300042c0:	00c787b3          	add	a5,a5,a2
300042c4:	0007a783          	lw	a5,0(a5) # 1000 <stackPointer-0x5d40>
300042c8:	00078067          	jr	a5
300042cc:	00161613          	slli	a2,a2,0x1
300042d0:	00c70733          	add	a4,a4,a2
300042d4:	fc1ff06f          	j	30004294 <ff_wtoupper+0x34>
300042d8:	fb050513          	addi	a0,a0,-80
300042dc:	01051513          	slli	a0,a0,0x10
300042e0:	01055513          	srli	a0,a0,0x10
300042e4:	00008067          	ret
300042e8:	ffffe7b7          	lui	a5,0xffffe
300042ec:	3a078793          	addi	a5,a5,928 # ffffe3a0 <__bss_end__+0xcfefe3a0>
300042f0:	00f50533          	add	a0,a0,a5
300042f4:	01051513          	slli	a0,a0,0x10
300042f8:	01055513          	srli	a0,a0,0x10
300042fc:	00008067          	ret
30004300:	40d507b3          	sub	a5,a0,a3
30004304:	00179793          	slli	a5,a5,0x1
30004308:	00f70733          	add	a4,a4,a5
3000430c:	00075503          	lhu	a0,0(a4)
30004310:	00008067          	ret
30004314:	40d506b3          	sub	a3,a0,a3
30004318:	0016f793          	andi	a5,a3,1
3000431c:	40f50533          	sub	a0,a0,a5
30004320:	01051513          	slli	a0,a0,0x10
30004324:	01055513          	srli	a0,a0,0x10
30004328:	00008067          	ret
3000432c:	ff050513          	addi	a0,a0,-16
30004330:	01051513          	slli	a0,a0,0x10
30004334:	01055513          	srli	a0,a0,0x10
30004338:	00008067          	ret
3000433c:	fe050513          	addi	a0,a0,-32
30004340:	01051513          	slli	a0,a0,0x10
30004344:	01055513          	srli	a0,a0,0x10
30004348:	00008067          	ret
3000434c:	fd050513          	addi	a0,a0,-48
30004350:	01051513          	slli	a0,a0,0x10
30004354:	01055513          	srli	a0,a0,0x10
30004358:	00008067          	ret
3000435c:	fe650513          	addi	a0,a0,-26
30004360:	01051513          	slli	a0,a0,0x10
30004364:	01055513          	srli	a0,a0,0x10
30004368:	00008067          	ret
3000436c:	00850513          	addi	a0,a0,8
30004370:	01051513          	slli	a0,a0,0x10
30004374:	01055513          	srli	a0,a0,0x10
30004378:	00008067          	ret

3000437c <_ZL12get_fileinfoP3DIRP7FILINFO>:
3000437c:	01052783          	lw	a5,16(a0)
30004380:	fe010113          	addi	sp,sp,-32
30004384:	00112e23          	sw	ra,28(sp)
30004388:	00812c23          	sw	s0,24(sp)
3000438c:	00912a23          	sw	s1,20(sp)
30004390:	01212823          	sw	s2,16(sp)
30004394:	01312623          	sw	s3,12(sp)
30004398:	00958713          	addi	a4,a1,9
3000439c:	1a078863          	beqz	a5,3000454c <_ZL12get_fileinfoP3DIRP7FILINFO+0x1d0>
300043a0:	01452783          	lw	a5,20(a0)
300043a4:	00c7c683          	lbu	a3,12(a5)
300043a8:	0086f613          	andi	a2,a3,8
300043ac:	22061c63          	bnez	a2,300045e4 <_ZL12get_fileinfoP3DIRP7FILINFO+0x268>
300043b0:	0007c603          	lbu	a2,0(a5)
300043b4:	02000813          	li	a6,32
300043b8:	0f060463          	beq	a2,a6,300044a0 <_ZL12get_fileinfoP3DIRP7FILINFO+0x124>
300043bc:	00500713          	li	a4,5
300043c0:	42e60663          	beq	a2,a4,300047ec <_ZL12get_fileinfoP3DIRP7FILINFO+0x470>
300043c4:	00c584a3          	sb	a2,9(a1)
300043c8:	0017c603          	lbu	a2,1(a5)
300043cc:	02000813          	li	a6,32
300043d0:	00a58713          	addi	a4,a1,10
300043d4:	0d060663          	beq	a2,a6,300044a0 <_ZL12get_fileinfoP3DIRP7FILINFO+0x124>
300043d8:	00500713          	li	a4,5
300043dc:	42e60063          	beq	a2,a4,300047fc <_ZL12get_fileinfoP3DIRP7FILINFO+0x480>
300043e0:	00c58523          	sb	a2,10(a1)
300043e4:	0027c603          	lbu	a2,2(a5)
300043e8:	02000813          	li	a6,32
300043ec:	00b58713          	addi	a4,a1,11
300043f0:	0b060863          	beq	a2,a6,300044a0 <_ZL12get_fileinfoP3DIRP7FILINFO+0x124>
300043f4:	00500713          	li	a4,5
300043f8:	40e60663          	beq	a2,a4,30004804 <_ZL12get_fileinfoP3DIRP7FILINFO+0x488>
300043fc:	00c585a3          	sb	a2,11(a1)
30004400:	0037c603          	lbu	a2,3(a5)
30004404:	02000813          	li	a6,32
30004408:	00c58713          	addi	a4,a1,12
3000440c:	09060a63          	beq	a2,a6,300044a0 <_ZL12get_fileinfoP3DIRP7FILINFO+0x124>
30004410:	00500713          	li	a4,5
30004414:	00e61463          	bne	a2,a4,3000441c <_ZL12get_fileinfoP3DIRP7FILINFO+0xa0>
30004418:	0e500613          	li	a2,229
3000441c:	00c58623          	sb	a2,12(a1)
30004420:	0047c603          	lbu	a2,4(a5)
30004424:	02000813          	li	a6,32
30004428:	00d58713          	addi	a4,a1,13
3000442c:	07060a63          	beq	a2,a6,300044a0 <_ZL12get_fileinfoP3DIRP7FILINFO+0x124>
30004430:	00500713          	li	a4,5
30004434:	00e61463          	bne	a2,a4,3000443c <_ZL12get_fileinfoP3DIRP7FILINFO+0xc0>
30004438:	0e500613          	li	a2,229
3000443c:	00c586a3          	sb	a2,13(a1)
30004440:	0057c603          	lbu	a2,5(a5)
30004444:	02000813          	li	a6,32
30004448:	00e58713          	addi	a4,a1,14
3000444c:	05060a63          	beq	a2,a6,300044a0 <_ZL12get_fileinfoP3DIRP7FILINFO+0x124>
30004450:	00500713          	li	a4,5
30004454:	00e61463          	bne	a2,a4,3000445c <_ZL12get_fileinfoP3DIRP7FILINFO+0xe0>
30004458:	0e500613          	li	a2,229
3000445c:	00c58723          	sb	a2,14(a1)
30004460:	0067c603          	lbu	a2,6(a5)
30004464:	02000813          	li	a6,32
30004468:	00f58713          	addi	a4,a1,15
3000446c:	03060a63          	beq	a2,a6,300044a0 <_ZL12get_fileinfoP3DIRP7FILINFO+0x124>
30004470:	00500713          	li	a4,5
30004474:	00e61463          	bne	a2,a4,3000447c <_ZL12get_fileinfoP3DIRP7FILINFO+0x100>
30004478:	0e500613          	li	a2,229
3000447c:	00c587a3          	sb	a2,15(a1)
30004480:	0077c603          	lbu	a2,7(a5)
30004484:	02000813          	li	a6,32
30004488:	01058713          	addi	a4,a1,16
3000448c:	01060a63          	beq	a2,a6,300044a0 <_ZL12get_fileinfoP3DIRP7FILINFO+0x124>
30004490:	00500713          	li	a4,5
30004494:	36e60c63          	beq	a2,a4,3000480c <_ZL12get_fileinfoP3DIRP7FILINFO+0x490>
30004498:	01158713          	addi	a4,a1,17
3000449c:	00c58823          	sb	a2,16(a1)
300044a0:	0087c803          	lbu	a6,8(a5)
300044a4:	02000613          	li	a2,32
300044a8:	04c80463          	beq	a6,a2,300044f0 <_ZL12get_fileinfoP3DIRP7FILINFO+0x174>
300044ac:	02e00813          	li	a6,46
300044b0:	01070023          	sb	a6,0(a4)
300044b4:	0106f693          	andi	a3,a3,16
300044b8:	00170813          	addi	a6,a4,1
300044bc:	2c069263          	bnez	a3,30004780 <_ZL12get_fileinfoP3DIRP7FILINFO+0x404>
300044c0:	0087c683          	lbu	a3,8(a5)
300044c4:	38c68063          	beq	a3,a2,30004844 <_ZL12get_fileinfoP3DIRP7FILINFO+0x4c8>
300044c8:	00d700a3          	sb	a3,1(a4)
300044cc:	0097c683          	lbu	a3,9(a5)
300044d0:	00270813          	addi	a6,a4,2
300044d4:	36c68863          	beq	a3,a2,30004844 <_ZL12get_fileinfoP3DIRP7FILINFO+0x4c8>
300044d8:	00d70123          	sb	a3,2(a4)
300044dc:	00a7c683          	lbu	a3,10(a5)
300044e0:	00370813          	addi	a6,a4,3
300044e4:	36c68063          	beq	a3,a2,30004844 <_ZL12get_fileinfoP3DIRP7FILINFO+0x4c8>
300044e8:	00d701a3          	sb	a3,3(a4)
300044ec:	00470713          	addi	a4,a4,4
300044f0:	00b7c683          	lbu	a3,11(a5)
300044f4:	00d58423          	sb	a3,8(a1)
300044f8:	01d7c803          	lbu	a6,29(a5)
300044fc:	01c7c883          	lbu	a7,28(a5)
30004500:	01e7c603          	lbu	a2,30(a5)
30004504:	01f7c683          	lbu	a3,31(a5)
30004508:	00881813          	slli	a6,a6,0x8
3000450c:	01186833          	or	a6,a6,a7
30004510:	01061613          	slli	a2,a2,0x10
30004514:	01066633          	or	a2,a2,a6
30004518:	01869693          	slli	a3,a3,0x18
3000451c:	00c6e6b3          	or	a3,a3,a2
30004520:	00d5a023          	sw	a3,0(a1)
30004524:	0197c683          	lbu	a3,25(a5)
30004528:	0187c603          	lbu	a2,24(a5)
3000452c:	00869693          	slli	a3,a3,0x8
30004530:	00c6e6b3          	or	a3,a3,a2
30004534:	00d59223          	sh	a3,4(a1)
30004538:	0177c683          	lbu	a3,23(a5)
3000453c:	0167c603          	lbu	a2,22(a5)
30004540:	00869793          	slli	a5,a3,0x8
30004544:	00c7e7b3          	or	a5,a5,a2
30004548:	00f59323          	sh	a5,6(a1)
3000454c:	00070023          	sb	zero,0(a4)
30004550:	0185a983          	lw	s3,24(a1)
30004554:	06098a63          	beqz	s3,300045c8 <_ZL12get_fileinfoP3DIRP7FILINFO+0x24c>
30004558:	01c5a783          	lw	a5,28(a1)
3000455c:	06078663          	beqz	a5,300045c8 <_ZL12get_fileinfoP3DIRP7FILINFO+0x24c>
30004560:	01052783          	lw	a5,16(a0)
30004564:	06078063          	beqz	a5,300045c4 <_ZL12get_fileinfoP3DIRP7FILINFO+0x248>
30004568:	02055703          	lhu	a4,32(a0)
3000456c:	000107b7          	lui	a5,0x10
30004570:	fff78793          	addi	a5,a5,-1 # ffff <stackPointer+0x92bf>
30004574:	04f70863          	beq	a4,a5,300045c4 <_ZL12get_fileinfoP3DIRP7FILINFO+0x248>
30004578:	01c52903          	lw	s2,28(a0)
3000457c:	00095503          	lhu	a0,0(s2)
30004580:	00290913          	addi	s2,s2,2
30004584:	04050063          	beqz	a0,300045c4 <_ZL12get_fileinfoP3DIRP7FILINFO+0x248>
30004588:	00058413          	mv	s0,a1
3000458c:	00000493          	li	s1,0
30004590:	0240006f          	j	300045b4 <_ZL12get_fileinfoP3DIRP7FILINFO+0x238>
30004594:	01c42783          	lw	a5,28(s0)
30004598:	fff78793          	addi	a5,a5,-1
3000459c:	02f4f463          	bgeu	s1,a5,300045c4 <_ZL12get_fileinfoP3DIRP7FILINFO+0x248>
300045a0:	00148493          	addi	s1,s1,1
300045a4:	009987b3          	add	a5,s3,s1
300045a8:	fea78fa3          	sb	a0,-1(a5)
300045ac:	ffe95503          	lhu	a0,-2(s2)
300045b0:	2a050a63          	beqz	a0,30004864 <_ZL12get_fileinfoP3DIRP7FILINFO+0x4e8>
300045b4:	00000593          	li	a1,0
300045b8:	00290913          	addi	s2,s2,2
300045bc:	c2dff0ef          	jal	ra,300041e8 <ff_convert>
300045c0:	fc051ae3          	bnez	a0,30004594 <_ZL12get_fileinfoP3DIRP7FILINFO+0x218>
300045c4:	00098023          	sb	zero,0(s3)
300045c8:	01c12083          	lw	ra,28(sp)
300045cc:	01812403          	lw	s0,24(sp)
300045d0:	01412483          	lw	s1,20(sp)
300045d4:	01012903          	lw	s2,16(sp)
300045d8:	00c12983          	lw	s3,12(sp)
300045dc:	02010113          	addi	sp,sp,32
300045e0:	00008067          	ret
300045e4:	0007c603          	lbu	a2,0(a5)
300045e8:	02000813          	li	a6,32
300045ec:	eb060ae3          	beq	a2,a6,300044a0 <_ZL12get_fileinfoP3DIRP7FILINFO+0x124>
300045f0:	00500713          	li	a4,5
300045f4:	20e60063          	beq	a2,a4,300047f4 <_ZL12get_fileinfoP3DIRP7FILINFO+0x478>
300045f8:	fbf60713          	addi	a4,a2,-65
300045fc:	0ff77713          	andi	a4,a4,255
30004600:	01900813          	li	a6,25
30004604:	00e86663          	bltu	a6,a4,30004610 <_ZL12get_fileinfoP3DIRP7FILINFO+0x294>
30004608:	02060613          	addi	a2,a2,32
3000460c:	0ff67613          	andi	a2,a2,255
30004610:	00c584a3          	sb	a2,9(a1)
30004614:	0017c603          	lbu	a2,1(a5)
30004618:	02000813          	li	a6,32
3000461c:	00a58713          	addi	a4,a1,10
30004620:	e90600e3          	beq	a2,a6,300044a0 <_ZL12get_fileinfoP3DIRP7FILINFO+0x124>
30004624:	00500713          	li	a4,5
30004628:	1ee60663          	beq	a2,a4,30004814 <_ZL12get_fileinfoP3DIRP7FILINFO+0x498>
3000462c:	fbf60713          	addi	a4,a2,-65
30004630:	0ff77713          	andi	a4,a4,255
30004634:	01900813          	li	a6,25
30004638:	00e86663          	bltu	a6,a4,30004644 <_ZL12get_fileinfoP3DIRP7FILINFO+0x2c8>
3000463c:	02060613          	addi	a2,a2,32
30004640:	0ff67613          	andi	a2,a2,255
30004644:	00c58523          	sb	a2,10(a1)
30004648:	0027c603          	lbu	a2,2(a5)
3000464c:	02000813          	li	a6,32
30004650:	00b58713          	addi	a4,a1,11
30004654:	e50606e3          	beq	a2,a6,300044a0 <_ZL12get_fileinfoP3DIRP7FILINFO+0x124>
30004658:	00500713          	li	a4,5
3000465c:	1ce60063          	beq	a2,a4,3000481c <_ZL12get_fileinfoP3DIRP7FILINFO+0x4a0>
30004660:	fbf60713          	addi	a4,a2,-65
30004664:	0ff77713          	andi	a4,a4,255
30004668:	01900813          	li	a6,25
3000466c:	00e86663          	bltu	a6,a4,30004678 <_ZL12get_fileinfoP3DIRP7FILINFO+0x2fc>
30004670:	02060613          	addi	a2,a2,32
30004674:	0ff67613          	andi	a2,a2,255
30004678:	00c585a3          	sb	a2,11(a1)
3000467c:	0037c603          	lbu	a2,3(a5)
30004680:	02000813          	li	a6,32
30004684:	00c58713          	addi	a4,a1,12
30004688:	e1060ce3          	beq	a2,a6,300044a0 <_ZL12get_fileinfoP3DIRP7FILINFO+0x124>
3000468c:	00500713          	li	a4,5
30004690:	18e60a63          	beq	a2,a4,30004824 <_ZL12get_fileinfoP3DIRP7FILINFO+0x4a8>
30004694:	fbf60713          	addi	a4,a2,-65
30004698:	0ff77713          	andi	a4,a4,255
3000469c:	01900813          	li	a6,25
300046a0:	00e86663          	bltu	a6,a4,300046ac <_ZL12get_fileinfoP3DIRP7FILINFO+0x330>
300046a4:	02060613          	addi	a2,a2,32
300046a8:	0ff67613          	andi	a2,a2,255
300046ac:	00c58623          	sb	a2,12(a1)
300046b0:	0047c603          	lbu	a2,4(a5)
300046b4:	02000813          	li	a6,32
300046b8:	00d58713          	addi	a4,a1,13
300046bc:	df0602e3          	beq	a2,a6,300044a0 <_ZL12get_fileinfoP3DIRP7FILINFO+0x124>
300046c0:	00500713          	li	a4,5
300046c4:	16e60463          	beq	a2,a4,3000482c <_ZL12get_fileinfoP3DIRP7FILINFO+0x4b0>
300046c8:	fbf60713          	addi	a4,a2,-65
300046cc:	0ff77713          	andi	a4,a4,255
300046d0:	01900813          	li	a6,25
300046d4:	00e86663          	bltu	a6,a4,300046e0 <_ZL12get_fileinfoP3DIRP7FILINFO+0x364>
300046d8:	02060613          	addi	a2,a2,32
300046dc:	0ff67613          	andi	a2,a2,255
300046e0:	00c586a3          	sb	a2,13(a1)
300046e4:	0057c603          	lbu	a2,5(a5)
300046e8:	02000813          	li	a6,32
300046ec:	00e58713          	addi	a4,a1,14
300046f0:	db0608e3          	beq	a2,a6,300044a0 <_ZL12get_fileinfoP3DIRP7FILINFO+0x124>
300046f4:	00500713          	li	a4,5
300046f8:	12e60e63          	beq	a2,a4,30004834 <_ZL12get_fileinfoP3DIRP7FILINFO+0x4b8>
300046fc:	fbf60713          	addi	a4,a2,-65
30004700:	0ff77713          	andi	a4,a4,255
30004704:	01900813          	li	a6,25
30004708:	00e86663          	bltu	a6,a4,30004714 <_ZL12get_fileinfoP3DIRP7FILINFO+0x398>
3000470c:	02060613          	addi	a2,a2,32
30004710:	0ff67613          	andi	a2,a2,255
30004714:	00c58723          	sb	a2,14(a1)
30004718:	0067c603          	lbu	a2,6(a5)
3000471c:	02000813          	li	a6,32
30004720:	00f58713          	addi	a4,a1,15
30004724:	d7060ee3          	beq	a2,a6,300044a0 <_ZL12get_fileinfoP3DIRP7FILINFO+0x124>
30004728:	00500713          	li	a4,5
3000472c:	10e60863          	beq	a2,a4,3000483c <_ZL12get_fileinfoP3DIRP7FILINFO+0x4c0>
30004730:	fbf60713          	addi	a4,a2,-65
30004734:	0ff77713          	andi	a4,a4,255
30004738:	01900813          	li	a6,25
3000473c:	00e86663          	bltu	a6,a4,30004748 <_ZL12get_fileinfoP3DIRP7FILINFO+0x3cc>
30004740:	02060613          	addi	a2,a2,32
30004744:	0ff67613          	andi	a2,a2,255
30004748:	00c587a3          	sb	a2,15(a1)
3000474c:	0077c603          	lbu	a2,7(a5)
30004750:	02000813          	li	a6,32
30004754:	01058713          	addi	a4,a1,16
30004758:	d50604e3          	beq	a2,a6,300044a0 <_ZL12get_fileinfoP3DIRP7FILINFO+0x124>
3000475c:	00500713          	li	a4,5
30004760:	0ae60663          	beq	a2,a4,3000480c <_ZL12get_fileinfoP3DIRP7FILINFO+0x490>
30004764:	fbf60713          	addi	a4,a2,-65
30004768:	0ff77713          	andi	a4,a4,255
3000476c:	01900813          	li	a6,25
30004770:	d2e864e3          	bltu	a6,a4,30004498 <_ZL12get_fileinfoP3DIRP7FILINFO+0x11c>
30004774:	02060613          	addi	a2,a2,32
30004778:	0ff67613          	andi	a2,a2,255
3000477c:	d1dff06f          	j	30004498 <_ZL12get_fileinfoP3DIRP7FILINFO+0x11c>
30004780:	0087c683          	lbu	a3,8(a5)
30004784:	0cc68063          	beq	a3,a2,30004844 <_ZL12get_fileinfoP3DIRP7FILINFO+0x4c8>
30004788:	fbf68613          	addi	a2,a3,-65
3000478c:	0ff67613          	andi	a2,a2,255
30004790:	01900813          	li	a6,25
30004794:	0ac87c63          	bgeu	a6,a2,3000484c <_ZL12get_fileinfoP3DIRP7FILINFO+0x4d0>
30004798:	00d700a3          	sb	a3,1(a4)
3000479c:	0097c683          	lbu	a3,9(a5)
300047a0:	02000613          	li	a2,32
300047a4:	00270813          	addi	a6,a4,2
300047a8:	08c68e63          	beq	a3,a2,30004844 <_ZL12get_fileinfoP3DIRP7FILINFO+0x4c8>
300047ac:	fbf68613          	addi	a2,a3,-65
300047b0:	0ff67613          	andi	a2,a2,255
300047b4:	01900813          	li	a6,25
300047b8:	0ac87063          	bgeu	a6,a2,30004858 <_ZL12get_fileinfoP3DIRP7FILINFO+0x4dc>
300047bc:	00d70123          	sb	a3,2(a4)
300047c0:	00a7c683          	lbu	a3,10(a5)
300047c4:	02000613          	li	a2,32
300047c8:	00370813          	addi	a6,a4,3
300047cc:	06c68c63          	beq	a3,a2,30004844 <_ZL12get_fileinfoP3DIRP7FILINFO+0x4c8>
300047d0:	fbf68613          	addi	a2,a3,-65
300047d4:	0ff67613          	andi	a2,a2,255
300047d8:	01900813          	li	a6,25
300047dc:	d0c866e3          	bltu	a6,a2,300044e8 <_ZL12get_fileinfoP3DIRP7FILINFO+0x16c>
300047e0:	02068693          	addi	a3,a3,32
300047e4:	0ff6f693          	andi	a3,a3,255
300047e8:	d01ff06f          	j	300044e8 <_ZL12get_fileinfoP3DIRP7FILINFO+0x16c>
300047ec:	0e500613          	li	a2,229
300047f0:	bd5ff06f          	j	300043c4 <_ZL12get_fileinfoP3DIRP7FILINFO+0x48>
300047f4:	0e500613          	li	a2,229
300047f8:	e19ff06f          	j	30004610 <_ZL12get_fileinfoP3DIRP7FILINFO+0x294>
300047fc:	0e500613          	li	a2,229
30004800:	be1ff06f          	j	300043e0 <_ZL12get_fileinfoP3DIRP7FILINFO+0x64>
30004804:	0e500613          	li	a2,229
30004808:	bf5ff06f          	j	300043fc <_ZL12get_fileinfoP3DIRP7FILINFO+0x80>
3000480c:	0e500613          	li	a2,229
30004810:	c89ff06f          	j	30004498 <_ZL12get_fileinfoP3DIRP7FILINFO+0x11c>
30004814:	0e500613          	li	a2,229
30004818:	e2dff06f          	j	30004644 <_ZL12get_fileinfoP3DIRP7FILINFO+0x2c8>
3000481c:	0e500613          	li	a2,229
30004820:	e59ff06f          	j	30004678 <_ZL12get_fileinfoP3DIRP7FILINFO+0x2fc>
30004824:	0e500613          	li	a2,229
30004828:	e85ff06f          	j	300046ac <_ZL12get_fileinfoP3DIRP7FILINFO+0x330>
3000482c:	0e500613          	li	a2,229
30004830:	eb1ff06f          	j	300046e0 <_ZL12get_fileinfoP3DIRP7FILINFO+0x364>
30004834:	0e500613          	li	a2,229
30004838:	eddff06f          	j	30004714 <_ZL12get_fileinfoP3DIRP7FILINFO+0x398>
3000483c:	0e500613          	li	a2,229
30004840:	f09ff06f          	j	30004748 <_ZL12get_fileinfoP3DIRP7FILINFO+0x3cc>
30004844:	00080713          	mv	a4,a6
30004848:	ca9ff06f          	j	300044f0 <_ZL12get_fileinfoP3DIRP7FILINFO+0x174>
3000484c:	02068693          	addi	a3,a3,32
30004850:	0ff6f693          	andi	a3,a3,255
30004854:	f45ff06f          	j	30004798 <_ZL12get_fileinfoP3DIRP7FILINFO+0x41c>
30004858:	02068693          	addi	a3,a3,32
3000485c:	0ff6f693          	andi	a3,a3,255
30004860:	f5dff06f          	j	300047bc <_ZL12get_fileinfoP3DIRP7FILINFO+0x440>
30004864:	00078993          	mv	s3,a5
30004868:	00098023          	sb	zero,0(s3)
3000486c:	d5dff06f          	j	300045c8 <_ZL12get_fileinfoP3DIRP7FILINFO+0x24c>

30004870 <_ZL11move_windowP5FATFSm>:
30004870:	fe010113          	addi	sp,sp,-32
30004874:	00112e23          	sw	ra,28(sp)
30004878:	00812c23          	sw	s0,24(sp)
3000487c:	00912a23          	sw	s1,20(sp)
30004880:	01212823          	sw	s2,16(sp)
30004884:	01312623          	sw	s3,12(sp)
30004888:	01412423          	sw	s4,8(sp)
3000488c:	02c52483          	lw	s1,44(a0)
30004890:	00b48c63          	beq	s1,a1,300048a8 <_ZL11move_windowP5FATFSm+0x38>
30004894:	00454783          	lbu	a5,4(a0)
30004898:	00058993          	mv	s3,a1
3000489c:	00050413          	mv	s0,a0
300048a0:	02079663          	bnez	a5,300048cc <_ZL11move_windowP5FATFSm+0x5c>
300048a4:	08099c63          	bnez	s3,3000493c <_ZL11move_windowP5FATFSm+0xcc>
300048a8:	01c12083          	lw	ra,28(sp)
300048ac:	01812403          	lw	s0,24(sp)
300048b0:	01412483          	lw	s1,20(sp)
300048b4:	01012903          	lw	s2,16(sp)
300048b8:	00c12983          	lw	s3,12(sp)
300048bc:	00812a03          	lw	s4,8(sp)
300048c0:	00000513          	li	a0,0
300048c4:	02010113          	addi	sp,sp,32
300048c8:	00008067          	ret
300048cc:	00154503          	lbu	a0,1(a0)
300048d0:	03040a13          	addi	s4,s0,48
300048d4:	00100693          	li	a3,1
300048d8:	00048613          	mv	a2,s1
300048dc:	000a0593          	mv	a1,s4
300048e0:	aa8ff0ef          	jal	ra,30003b88 <disk_write>
300048e4:	08051a63          	bnez	a0,30004978 <_ZL11move_windowP5FATFSm+0x108>
300048e8:	01c42783          	lw	a5,28(s0)
300048ec:	02042703          	lw	a4,32(s0)
300048f0:	00040223          	sb	zero,4(s0)
300048f4:	00e78733          	add	a4,a5,a4
300048f8:	fae4f6e3          	bgeu	s1,a4,300048a4 <_ZL11move_windowP5FATFSm+0x34>
300048fc:	00344903          	lbu	s2,3(s0)
30004900:	00100713          	li	a4,1
30004904:	01276663          	bltu	a4,s2,30004910 <_ZL11move_windowP5FATFSm+0xa0>
30004908:	f9dff06f          	j	300048a4 <_ZL11move_windowP5FATFSm+0x34>
3000490c:	01c42783          	lw	a5,28(s0)
30004910:	00144503          	lbu	a0,1(s0)
30004914:	00f484b3          	add	s1,s1,a5
30004918:	00100693          	li	a3,1
3000491c:	00048613          	mv	a2,s1
30004920:	000a0593          	mv	a1,s4
30004924:	a64ff0ef          	jal	ra,30003b88 <disk_write>
30004928:	fff90913          	addi	s2,s2,-1
3000492c:	0ff97913          	andi	s2,s2,255
30004930:	00100793          	li	a5,1
30004934:	fcf91ce3          	bne	s2,a5,3000490c <_ZL11move_windowP5FATFSm+0x9c>
30004938:	f60988e3          	beqz	s3,300048a8 <_ZL11move_windowP5FATFSm+0x38>
3000493c:	00144503          	lbu	a0,1(s0)
30004940:	00100693          	li	a3,1
30004944:	00098613          	mv	a2,s3
30004948:	03040593          	addi	a1,s0,48
3000494c:	8ecff0ef          	jal	ra,30003a38 <disk_read>
30004950:	02051463          	bnez	a0,30004978 <_ZL11move_windowP5FATFSm+0x108>
30004954:	03342623          	sw	s3,44(s0)
30004958:	01c12083          	lw	ra,28(sp)
3000495c:	01812403          	lw	s0,24(sp)
30004960:	01412483          	lw	s1,20(sp)
30004964:	01012903          	lw	s2,16(sp)
30004968:	00c12983          	lw	s3,12(sp)
3000496c:	00812a03          	lw	s4,8(sp)
30004970:	02010113          	addi	sp,sp,32
30004974:	00008067          	ret
30004978:	01c12083          	lw	ra,28(sp)
3000497c:	01812403          	lw	s0,24(sp)
30004980:	01412483          	lw	s1,20(sp)
30004984:	01012903          	lw	s2,16(sp)
30004988:	00c12983          	lw	s3,12(sp)
3000498c:	00812a03          	lw	s4,8(sp)
30004990:	00100513          	li	a0,1
30004994:	02010113          	addi	sp,sp,32
30004998:	00008067          	ret

3000499c <_ZL8check_fsP5FATFSm>:
3000499c:	ff010113          	addi	sp,sp,-16
300049a0:	00812423          	sw	s0,8(sp)
300049a4:	00112623          	sw	ra,12(sp)
300049a8:	00050413          	mv	s0,a0
300049ac:	00154503          	lbu	a0,1(a0)
300049b0:	00058613          	mv	a2,a1
300049b4:	00100693          	li	a3,1
300049b8:	03040593          	addi	a1,s0,48
300049bc:	87cff0ef          	jal	ra,30003a38 <disk_read>
300049c0:	08051263          	bnez	a0,30004a44 <_ZL8check_fsP5FATFSm+0xa8>
300049c4:	22f44783          	lbu	a5,559(s0)
300049c8:	22e44703          	lbu	a4,558(s0)
300049cc:	00200513          	li	a0,2
300049d0:	00879793          	slli	a5,a5,0x8
300049d4:	00e7e7b3          	or	a5,a5,a4
300049d8:	01079793          	slli	a5,a5,0x10
300049dc:	ffffb737          	lui	a4,0xffffb
300049e0:	4107d793          	srai	a5,a5,0x10
300049e4:	a5570713          	addi	a4,a4,-1451 # ffffaa55 <__bss_end__+0xcfefaa55>
300049e8:	04e79663          	bne	a5,a4,30004a34 <_ZL8check_fsP5FATFSm+0x98>
300049ec:	06845783          	lhu	a5,104(s0)
300049f0:	06645703          	lhu	a4,102(s0)
300049f4:	01000537          	lui	a0,0x1000
300049f8:	01079793          	slli	a5,a5,0x10
300049fc:	00e7e7b3          	or	a5,a5,a4
30004a00:	fff50693          	addi	a3,a0,-1 # ffffff <stackPointer+0xff92bf>
30004a04:	00544537          	lui	a0,0x544
30004a08:	14650713          	addi	a4,a0,326 # 544146 <stackPointer+0x53d406>
30004a0c:	00d7f7b3          	and	a5,a5,a3
30004a10:	00000513          	li	a0,0
30004a14:	02e78063          	beq	a5,a4,30004a34 <_ZL8check_fsP5FATFSm+0x98>
30004a18:	08445503          	lhu	a0,132(s0)
30004a1c:	08245783          	lhu	a5,130(s0)
30004a20:	01051513          	slli	a0,a0,0x10
30004a24:	00f56533          	or	a0,a0,a5
30004a28:	00d57533          	and	a0,a0,a3
30004a2c:	40e50533          	sub	a0,a0,a4
30004a30:	00a03533          	snez	a0,a0
30004a34:	00c12083          	lw	ra,12(sp)
30004a38:	00812403          	lw	s0,8(sp)
30004a3c:	01010113          	addi	sp,sp,16
30004a40:	00008067          	ret
30004a44:	00c12083          	lw	ra,12(sp)
30004a48:	00812403          	lw	s0,8(sp)
30004a4c:	00300513          	li	a0,3
30004a50:	01010113          	addi	sp,sp,16
30004a54:	00008067          	ret

30004a58 <_ZL11chk_mountedPPKcPP5FATFSh>:
30004a58:	00052703          	lw	a4,0(a0)
30004a5c:	00900693          	li	a3,9
30004a60:	00074783          	lbu	a5,0(a4)
30004a64:	fd078793          	addi	a5,a5,-48
30004a68:	00f6e863          	bltu	a3,a5,30004a78 <_ZL11chk_mountedPPKcPP5FATFSh+0x20>
30004a6c:	00174803          	lbu	a6,1(a4)
30004a70:	03a00693          	li	a3,58
30004a74:	28d80863          	beq	a6,a3,30004d04 <_ZL11chk_mountedPPKcPP5FATFSh+0x2ac>
30004a78:	ff010113          	addi	sp,sp,-16
30004a7c:	300137b7          	lui	a5,0x30013
30004a80:	00812423          	sw	s0,8(sp)
30004a84:	3107a403          	lw	s0,784(a5) # 30013310 <_ZL5FatFs>
30004a88:	00112623          	sw	ra,12(sp)
30004a8c:	00912223          	sw	s1,4(sp)
30004a90:	0085a023          	sw	s0,0(a1)
30004a94:	2a040263          	beqz	s0,30004d38 <_ZL11chk_mountedPPKcPP5FATFSh+0x2e0>
30004a98:	00044783          	lbu	a5,0(s0)
30004a9c:	00060493          	mv	s1,a2
30004aa0:	02078e63          	beqz	a5,30004adc <_ZL11chk_mountedPPKcPP5FATFSh+0x84>
30004aa4:	00144503          	lbu	a0,1(s0)
30004aa8:	ca5fe0ef          	jal	ra,3000374c <disk_status>
30004aac:	00157793          	andi	a5,a0,1
30004ab0:	02079663          	bnez	a5,30004adc <_ZL11chk_mountedPPKcPP5FATFSh+0x84>
30004ab4:	00000713          	li	a4,0
30004ab8:	00048663          	beqz	s1,30004ac4 <_ZL11chk_mountedPPKcPP5FATFSh+0x6c>
30004abc:	00457513          	andi	a0,a0,4
30004ac0:	24051e63          	bnez	a0,30004d1c <_ZL11chk_mountedPPKcPP5FATFSh+0x2c4>
30004ac4:	00c12083          	lw	ra,12(sp)
30004ac8:	00812403          	lw	s0,8(sp)
30004acc:	00412483          	lw	s1,4(sp)
30004ad0:	00070513          	mv	a0,a4
30004ad4:	01010113          	addi	sp,sp,16
30004ad8:	00008067          	ret
30004adc:	00041023          	sh	zero,0(s0)
30004ae0:	00000513          	li	a0,0
30004ae4:	c8dfe0ef          	jal	ra,30003770 <disk_initialize>
30004ae8:	00157793          	andi	a5,a0,1
30004aec:	00300713          	li	a4,3
30004af0:	fc079ae3          	bnez	a5,30004ac4 <_ZL11chk_mountedPPKcPP5FATFSh+0x6c>
30004af4:	00048663          	beqz	s1,30004b00 <_ZL11chk_mountedPPKcPP5FATFSh+0xa8>
30004af8:	00457513          	andi	a0,a0,4
30004afc:	22051063          	bnez	a0,30004d1c <_ZL11chk_mountedPPKcPP5FATFSh+0x2c4>
30004b00:	00000593          	li	a1,0
30004b04:	00040513          	mv	a0,s0
30004b08:	e95ff0ef          	jal	ra,3000499c <_ZL8check_fsP5FATFSm>
30004b0c:	00100793          	li	a5,1
30004b10:	00000493          	li	s1,0
30004b14:	1cf50663          	beq	a0,a5,30004ce0 <_ZL11chk_mountedPPKcPP5FATFSh+0x288>
30004b18:	00300793          	li	a5,3
30004b1c:	00100713          	li	a4,1
30004b20:	faf502e3          	beq	a0,a5,30004ac4 <_ZL11chk_mountedPPKcPP5FATFSh+0x6c>
30004b24:	1c051263          	bnez	a0,30004ce8 <_ZL11chk_mountedPPKcPP5FATFSh+0x290>
30004b28:	03c44783          	lbu	a5,60(s0)
30004b2c:	03b44683          	lbu	a3,59(s0)
30004b30:	20000713          	li	a4,512
30004b34:	00879793          	slli	a5,a5,0x8
30004b38:	00d7e7b3          	or	a5,a5,a3
30004b3c:	01079793          	slli	a5,a5,0x10
30004b40:	4107d793          	srai	a5,a5,0x10
30004b44:	1ae79263          	bne	a5,a4,30004ce8 <_ZL11chk_mountedPPKcPP5FATFSh+0x290>
30004b48:	04744783          	lbu	a5,71(s0)
30004b4c:	04644703          	lbu	a4,70(s0)
30004b50:	00879793          	slli	a5,a5,0x8
30004b54:	00e7e7b3          	or	a5,a5,a4
30004b58:	00079463          	bnez	a5,30004b60 <_ZL11chk_mountedPPKcPP5FATFSh+0x108>
30004b5c:	05442783          	lw	a5,84(s0)
30004b60:	04044703          	lbu	a4,64(s0)
30004b64:	00f42e23          	sw	a5,28(s0)
30004b68:	00100613          	li	a2,1
30004b6c:	fff70693          	addi	a3,a4,-1
30004b70:	00e401a3          	sb	a4,3(s0)
30004b74:	0ff6f693          	andi	a3,a3,255
30004b78:	16d66863          	bltu	a2,a3,30004ce8 <_ZL11chk_mountedPPKcPP5FATFSh+0x290>
30004b7c:	03d44683          	lbu	a3,61(s0)
30004b80:	00d40123          	sb	a3,2(s0)
30004b84:	16068263          	beqz	a3,30004ce8 <_ZL11chk_mountedPPKcPP5FATFSh+0x290>
30004b88:	fff68613          	addi	a2,a3,-1
30004b8c:	00d67633          	and	a2,a2,a3
30004b90:	14061c63          	bnez	a2,30004ce8 <_ZL11chk_mountedPPKcPP5FATFSh+0x290>
30004b94:	04244583          	lbu	a1,66(s0)
30004b98:	04144603          	lbu	a2,65(s0)
30004b9c:	00859593          	slli	a1,a1,0x8
30004ba0:	00c5e5b3          	or	a1,a1,a2
30004ba4:	00b41423          	sh	a1,8(s0)
30004ba8:	00f5f613          	andi	a2,a1,15
30004bac:	12061e63          	bnez	a2,30004ce8 <_ZL11chk_mountedPPKcPP5FATFSh+0x290>
30004bb0:	04444603          	lbu	a2,68(s0)
30004bb4:	04344503          	lbu	a0,67(s0)
30004bb8:	00861613          	slli	a2,a2,0x8
30004bbc:	00a66633          	or	a2,a2,a0
30004bc0:	00061463          	bnez	a2,30004bc8 <_ZL11chk_mountedPPKcPP5FATFSh+0x170>
30004bc4:	05042603          	lw	a2,80(s0)
30004bc8:	03f44503          	lbu	a0,63(s0)
30004bcc:	03e44803          	lbu	a6,62(s0)
30004bd0:	00851513          	slli	a0,a0,0x8
30004bd4:	01056533          	or	a0,a0,a6
30004bd8:	10050863          	beqz	a0,30004ce8 <_ZL11chk_mountedPPKcPP5FATFSh+0x290>
30004bdc:	02f70733          	mul	a4,a4,a5
30004be0:	0045d813          	srli	a6,a1,0x4
30004be4:	00a80833          	add	a6,a6,a0
30004be8:	00e80833          	add	a6,a6,a4
30004bec:	0f066e63          	bltu	a2,a6,30004ce8 <_ZL11chk_mountedPPKcPP5FATFSh+0x290>
30004bf0:	41060633          	sub	a2,a2,a6
30004bf4:	02d658b3          	divu	a7,a2,a3
30004bf8:	0ed66863          	bltu	a2,a3,30004ce8 <_ZL11chk_mountedPPKcPP5FATFSh+0x290>
30004bfc:	00001637          	lui	a2,0x1
30004c00:	ff560613          	addi	a2,a2,-11 # ff5 <stackPointer-0x5d4b>
30004c04:	00950533          	add	a0,a0,s1
30004c08:	01048833          	add	a6,s1,a6
30004c0c:	00288693          	addi	a3,a7,2
30004c10:	17167e63          	bgeu	a2,a7,30004d8c <_ZL11chk_mountedPPKcPP5FATFSh+0x334>
30004c14:	00010637          	lui	a2,0x10
30004c18:	ff560613          	addi	a2,a2,-11 # fff5 <stackPointer+0x92b5>
30004c1c:	00d42c23          	sw	a3,24(s0)
30004c20:	03042423          	sw	a6,40(s0)
30004c24:	02a42023          	sw	a0,32(s0)
30004c28:	1f167263          	bgeu	a2,a7,30004e0c <_ZL11chk_mountedPPKcPP5FATFSh+0x3b4>
30004c2c:	0a059e63          	bnez	a1,30004ce8 <_ZL11chk_mountedPPKcPP5FATFSh+0x290>
30004c30:	05c42603          	lw	a2,92(s0)
30004c34:	00269713          	slli	a4,a3,0x2
30004c38:	1ff70713          	addi	a4,a4,511
30004c3c:	02c42223          	sw	a2,36(s0)
30004c40:	00975713          	srli	a4,a4,0x9
30004c44:	0ae7e263          	bltu	a5,a4,30004ce8 <_ZL11chk_mountedPPKcPP5FATFSh+0x290>
30004c48:	06144603          	lbu	a2,97(s0)
30004c4c:	06044783          	lbu	a5,96(s0)
30004c50:	00144503          	lbu	a0,1(s0)
30004c54:	00861613          	slli	a2,a2,0x8
30004c58:	00f66633          	or	a2,a2,a5
30004c5c:	00960633          	add	a2,a2,s1
30004c60:	fff00793          	li	a5,-1
30004c64:	00c42a23          	sw	a2,20(s0)
30004c68:	00f42823          	sw	a5,16(s0)
30004c6c:	00042623          	sw	zero,12(s0)
30004c70:	000402a3          	sb	zero,5(s0)
30004c74:	00100693          	li	a3,1
30004c78:	03040593          	addi	a1,s0,48
30004c7c:	dbdfe0ef          	jal	ra,30003a38 <disk_read>
30004c80:	00300613          	li	a2,3
30004c84:	02051663          	bnez	a0,30004cb0 <_ZL11chk_mountedPPKcPP5FATFSh+0x258>
30004c88:	22f44783          	lbu	a5,559(s0)
30004c8c:	22e44703          	lbu	a4,558(s0)
30004c90:	00300613          	li	a2,3
30004c94:	00879793          	slli	a5,a5,0x8
30004c98:	00e7e7b3          	or	a5,a5,a4
30004c9c:	01079793          	slli	a5,a5,0x10
30004ca0:	ffffb737          	lui	a4,0xffffb
30004ca4:	4107d793          	srai	a5,a5,0x10
30004ca8:	a5570713          	addi	a4,a4,-1451 # ffffaa55 <__bss_end__+0xcfefaa55>
30004cac:	12e78663          	beq	a5,a4,30004dd8 <_ZL11chk_mountedPPKcPP5FATFSh+0x380>
30004cb0:	30013737          	lui	a4,0x30013
30004cb4:	30c75783          	lhu	a5,780(a4) # 3001330c <_ZL4Fsid>
30004cb8:	00c40023          	sb	a2,0(s0)
30004cbc:	02042623          	sw	zero,44(s0)
30004cc0:	00178793          	addi	a5,a5,1
30004cc4:	01079793          	slli	a5,a5,0x10
30004cc8:	0107d793          	srli	a5,a5,0x10
30004ccc:	30f71623          	sh	a5,780(a4)
30004cd0:	00f41323          	sh	a5,6(s0)
30004cd4:	00040223          	sb	zero,4(s0)
30004cd8:	00000713          	li	a4,0
30004cdc:	de9ff06f          	j	30004ac4 <_ZL11chk_mountedPPKcPP5FATFSh+0x6c>
30004ce0:	1f244783          	lbu	a5,498(s0)
30004ce4:	06079863          	bnez	a5,30004d54 <_ZL11chk_mountedPPKcPP5FATFSh+0x2fc>
30004ce8:	00c12083          	lw	ra,12(sp)
30004cec:	00812403          	lw	s0,8(sp)
30004cf0:	00d00713          	li	a4,13
30004cf4:	00412483          	lw	s1,4(sp)
30004cf8:	00070513          	mv	a0,a4
30004cfc:	01010113          	addi	sp,sp,16
30004d00:	00008067          	ret
30004d04:	00270713          	addi	a4,a4,2
30004d08:	00e52023          	sw	a4,0(a0)
30004d0c:	00b00713          	li	a4,11
30004d10:	d60784e3          	beqz	a5,30004a78 <_ZL11chk_mountedPPKcPP5FATFSh+0x20>
30004d14:	00070513          	mv	a0,a4
30004d18:	00008067          	ret
30004d1c:	00c12083          	lw	ra,12(sp)
30004d20:	00812403          	lw	s0,8(sp)
30004d24:	00a00713          	li	a4,10
30004d28:	00412483          	lw	s1,4(sp)
30004d2c:	00070513          	mv	a0,a4
30004d30:	01010113          	addi	sp,sp,16
30004d34:	00008067          	ret
30004d38:	00c12083          	lw	ra,12(sp)
30004d3c:	00812403          	lw	s0,8(sp)
30004d40:	00c00713          	li	a4,12
30004d44:	00412483          	lw	s1,4(sp)
30004d48:	00070513          	mv	a0,a4
30004d4c:	01010113          	addi	sp,sp,16
30004d50:	00008067          	ret
30004d54:	1f744483          	lbu	s1,503(s0)
30004d58:	1f644683          	lbu	a3,502(s0)
30004d5c:	1f844783          	lbu	a5,504(s0)
30004d60:	1f944703          	lbu	a4,505(s0)
30004d64:	00849493          	slli	s1,s1,0x8
30004d68:	00d4e4b3          	or	s1,s1,a3
30004d6c:	01079793          	slli	a5,a5,0x10
30004d70:	0097e7b3          	or	a5,a5,s1
30004d74:	01871493          	slli	s1,a4,0x18
30004d78:	00f4e4b3          	or	s1,s1,a5
30004d7c:	00048593          	mv	a1,s1
30004d80:	00040513          	mv	a0,s0
30004d84:	c19ff0ef          	jal	ra,3000499c <_ZL8check_fsP5FATFSm>
30004d88:	d91ff06f          	j	30004b18 <_ZL11chk_mountedPPKcPP5FATFSh+0xc0>
30004d8c:	00d42c23          	sw	a3,24(s0)
30004d90:	03042423          	sw	a6,40(s0)
30004d94:	02a42023          	sw	a0,32(s0)
30004d98:	f40588e3          	beqz	a1,30004ce8 <_ZL11chk_mountedPPKcPP5FATFSh+0x290>
30004d9c:	00169613          	slli	a2,a3,0x1
30004da0:	00d60633          	add	a2,a2,a3
30004da4:	00165613          	srli	a2,a2,0x1
30004da8:	00a70733          	add	a4,a4,a0
30004dac:	0016f693          	andi	a3,a3,1
30004db0:	00d606b3          	add	a3,a2,a3
30004db4:	02e42223          	sw	a4,36(s0)
30004db8:	00100613          	li	a2,1
30004dbc:	1ff68693          	addi	a3,a3,511
30004dc0:	0096d713          	srli	a4,a3,0x9
30004dc4:	f2e7e2e3          	bltu	a5,a4,30004ce8 <_ZL11chk_mountedPPKcPP5FATFSh+0x290>
30004dc8:	fff00793          	li	a5,-1
30004dcc:	00f42823          	sw	a5,16(s0)
30004dd0:	00042623          	sw	zero,12(s0)
30004dd4:	eddff06f          	j	30004cb0 <_ZL11chk_mountedPPKcPP5FATFSh+0x258>
30004dd8:	03042703          	lw	a4,48(s0)
30004ddc:	416157b7          	lui	a5,0x41615
30004de0:	25278793          	addi	a5,a5,594 # 41615252 <__bss_end__+0x11515252>
30004de4:	ecf716e3          	bne	a4,a5,30004cb0 <_ZL11chk_mountedPPKcPP5FATFSh+0x258>
30004de8:	21442703          	lw	a4,532(s0)
30004dec:	614177b7          	lui	a5,0x61417
30004df0:	27278793          	addi	a5,a5,626 # 61417272 <__bss_end__+0x31317272>
30004df4:	eaf71ee3          	bne	a4,a5,30004cb0 <_ZL11chk_mountedPPKcPP5FATFSh+0x258>
30004df8:	21842703          	lw	a4,536(s0)
30004dfc:	21c42783          	lw	a5,540(s0)
30004e00:	00e42823          	sw	a4,16(s0)
30004e04:	00f42623          	sw	a5,12(s0)
30004e08:	ea9ff06f          	j	30004cb0 <_ZL11chk_mountedPPKcPP5FATFSh+0x258>
30004e0c:	ec058ee3          	beqz	a1,30004ce8 <_ZL11chk_mountedPPKcPP5FATFSh+0x290>
30004e10:	00a70733          	add	a4,a4,a0
30004e14:	02e42223          	sw	a4,36(s0)
30004e18:	00169693          	slli	a3,a3,0x1
30004e1c:	00200613          	li	a2,2
30004e20:	f9dff06f          	j	30004dbc <_ZL11chk_mountedPPKcPP5FATFSh+0x364>

30004e24 <_Z7get_fatP5FATFSm.part.5>:
30004e24:	fe010113          	addi	sp,sp,-32
30004e28:	00812c23          	sw	s0,24(sp)
30004e2c:	00912a23          	sw	s1,20(sp)
30004e30:	00112e23          	sw	ra,28(sp)
30004e34:	01212823          	sw	s2,16(sp)
30004e38:	01312623          	sw	s3,12(sp)
30004e3c:	00054703          	lbu	a4,0(a0)
30004e40:	00200793          	li	a5,2
30004e44:	00050493          	mv	s1,a0
30004e48:	00058413          	mv	s0,a1
30004e4c:	02f70c63          	beq	a4,a5,30004e84 <_Z7get_fatP5FATFSm.part.5+0x60>
30004e50:	00300793          	li	a5,3
30004e54:	0cf70063          	beq	a4,a5,30004f14 <_Z7get_fatP5FATFSm.part.5+0xf0>
30004e58:	00100693          	li	a3,1
30004e5c:	fff00793          	li	a5,-1
30004e60:	06d70a63          	beq	a4,a3,30004ed4 <_Z7get_fatP5FATFSm.part.5+0xb0>
30004e64:	01c12083          	lw	ra,28(sp)
30004e68:	01812403          	lw	s0,24(sp)
30004e6c:	01412483          	lw	s1,20(sp)
30004e70:	01012903          	lw	s2,16(sp)
30004e74:	00c12983          	lw	s3,12(sp)
30004e78:	00078513          	mv	a0,a5
30004e7c:	02010113          	addi	sp,sp,32
30004e80:	00008067          	ret
30004e84:	02052783          	lw	a5,32(a0)
30004e88:	0085d593          	srli	a1,a1,0x8
30004e8c:	00f585b3          	add	a1,a1,a5
30004e90:	9e1ff0ef          	jal	ra,30004870 <_ZL11move_windowP5FATFSm>
30004e94:	04051e63          	bnez	a0,30004ef0 <_Z7get_fatP5FATFSm.part.5+0xcc>
30004e98:	00141413          	slli	s0,s0,0x1
30004e9c:	1fe47413          	andi	s0,s0,510
30004ea0:	00848433          	add	s0,s1,s0
30004ea4:	03144783          	lbu	a5,49(s0)
30004ea8:	03044703          	lbu	a4,48(s0)
30004eac:	01c12083          	lw	ra,28(sp)
30004eb0:	01812403          	lw	s0,24(sp)
30004eb4:	00879793          	slli	a5,a5,0x8
30004eb8:	00e7e7b3          	or	a5,a5,a4
30004ebc:	01412483          	lw	s1,20(sp)
30004ec0:	01012903          	lw	s2,16(sp)
30004ec4:	00c12983          	lw	s3,12(sp)
30004ec8:	00078513          	mv	a0,a5
30004ecc:	02010113          	addi	sp,sp,32
30004ed0:	00008067          	ret
30004ed4:	0015d913          	srli	s2,a1,0x1
30004ed8:	02052783          	lw	a5,32(a0)
30004edc:	00b90933          	add	s2,s2,a1
30004ee0:	00995593          	srli	a1,s2,0x9
30004ee4:	00f585b3          	add	a1,a1,a5
30004ee8:	989ff0ef          	jal	ra,30004870 <_ZL11move_windowP5FATFSm>
30004eec:	0a050063          	beqz	a0,30004f8c <_Z7get_fatP5FATFSm.part.5+0x168>
30004ef0:	01c12083          	lw	ra,28(sp)
30004ef4:	01812403          	lw	s0,24(sp)
30004ef8:	fff00793          	li	a5,-1
30004efc:	01412483          	lw	s1,20(sp)
30004f00:	01012903          	lw	s2,16(sp)
30004f04:	00c12983          	lw	s3,12(sp)
30004f08:	00078513          	mv	a0,a5
30004f0c:	02010113          	addi	sp,sp,32
30004f10:	00008067          	ret
30004f14:	02052783          	lw	a5,32(a0)
30004f18:	0075d593          	srli	a1,a1,0x7
30004f1c:	00f585b3          	add	a1,a1,a5
30004f20:	951ff0ef          	jal	ra,30004870 <_ZL11move_windowP5FATFSm>
30004f24:	fc0516e3          	bnez	a0,30004ef0 <_Z7get_fatP5FATFSm.part.5+0xcc>
30004f28:	00241413          	slli	s0,s0,0x2
30004f2c:	1fc47413          	andi	s0,s0,508
30004f30:	03040713          	addi	a4,s0,48
30004f34:	00e48733          	add	a4,s1,a4
30004f38:	00374783          	lbu	a5,3(a4)
30004f3c:	00274683          	lbu	a3,2(a4)
30004f40:	00848433          	add	s0,s1,s0
30004f44:	03044603          	lbu	a2,48(s0)
30004f48:	00174703          	lbu	a4,1(a4)
30004f4c:	01879793          	slli	a5,a5,0x18
30004f50:	01069693          	slli	a3,a3,0x10
30004f54:	00d7e7b3          	or	a5,a5,a3
30004f58:	00c7e7b3          	or	a5,a5,a2
30004f5c:	00871713          	slli	a4,a4,0x8
30004f60:	00e7e7b3          	or	a5,a5,a4
30004f64:	00479793          	slli	a5,a5,0x4
30004f68:	01c12083          	lw	ra,28(sp)
30004f6c:	01812403          	lw	s0,24(sp)
30004f70:	0047d793          	srli	a5,a5,0x4
30004f74:	01412483          	lw	s1,20(sp)
30004f78:	01012903          	lw	s2,16(sp)
30004f7c:	00c12983          	lw	s3,12(sp)
30004f80:	00078513          	mv	a0,a5
30004f84:	02010113          	addi	sp,sp,32
30004f88:	00008067          	ret
30004f8c:	0204a783          	lw	a5,32(s1)
30004f90:	00190993          	addi	s3,s2,1
30004f94:	0099d593          	srli	a1,s3,0x9
30004f98:	1ff97913          	andi	s2,s2,511
30004f9c:	01248933          	add	s2,s1,s2
30004fa0:	00f585b3          	add	a1,a1,a5
30004fa4:	00048513          	mv	a0,s1
30004fa8:	03094903          	lbu	s2,48(s2)
30004fac:	8c5ff0ef          	jal	ra,30004870 <_ZL11move_windowP5FATFSm>
30004fb0:	f40510e3          	bnez	a0,30004ef0 <_Z7get_fatP5FATFSm.part.5+0xcc>
30004fb4:	1ff9f993          	andi	s3,s3,511
30004fb8:	013484b3          	add	s1,s1,s3
30004fbc:	0304c783          	lbu	a5,48(s1)
30004fc0:	00147413          	andi	s0,s0,1
30004fc4:	00879793          	slli	a5,a5,0x8
30004fc8:	0127e7b3          	or	a5,a5,s2
30004fcc:	f8041ee3          	bnez	s0,30004f68 <_Z7get_fatP5FATFSm.part.5+0x144>
30004fd0:	01479793          	slli	a5,a5,0x14
30004fd4:	0147d793          	srli	a5,a5,0x14
30004fd8:	e8dff06f          	j	30004e64 <_Z7get_fatP5FATFSm.part.5+0x40>

30004fdc <_ZL7dir_sdiP3DIRt>:
30004fdc:	fe010113          	addi	sp,sp,-32
30004fe0:	00852783          	lw	a5,8(a0)
30004fe4:	01212823          	sw	s2,16(sp)
30004fe8:	00112e23          	sw	ra,28(sp)
30004fec:	00812c23          	sw	s0,24(sp)
30004ff0:	00912a23          	sw	s1,20(sp)
30004ff4:	01312623          	sw	s3,12(sp)
30004ff8:	01412423          	sw	s4,8(sp)
30004ffc:	00b51323          	sh	a1,6(a0)
30005000:	00100713          	li	a4,1
30005004:	00050913          	mv	s2,a0
30005008:	08e78c63          	beq	a5,a4,300050a0 <_ZL7dir_sdiP3DIRt+0xc4>
3000500c:	00052503          	lw	a0,0(a0)
30005010:	01852703          	lw	a4,24(a0)
30005014:	08e7f663          	bgeu	a5,a4,300050a0 <_ZL7dir_sdiP3DIRt+0xc4>
30005018:	00058413          	mv	s0,a1
3000501c:	06079663          	bnez	a5,30005088 <_ZL7dir_sdiP3DIRt+0xac>
30005020:	00054683          	lbu	a3,0(a0)
30005024:	00300793          	li	a5,3
30005028:	04f68c63          	beq	a3,a5,30005080 <_ZL7dir_sdiP3DIRt+0xa4>
3000502c:	00092623          	sw	zero,12(s2)
30005030:	00855783          	lhu	a5,8(a0)
30005034:	06f47663          	bgeu	s0,a5,300050a0 <_ZL7dir_sdiP3DIRt+0xc4>
30005038:	02452783          	lw	a5,36(a0)
3000503c:	00445713          	srli	a4,s0,0x4
30005040:	00e787b3          	add	a5,a5,a4
30005044:	00f92823          	sw	a5,16(s2)
30005048:	00f47413          	andi	s0,s0,15
3000504c:	00541413          	slli	s0,s0,0x5
30005050:	03050513          	addi	a0,a0,48
30005054:	00850533          	add	a0,a0,s0
30005058:	01c12083          	lw	ra,28(sp)
3000505c:	01812403          	lw	s0,24(sp)
30005060:	00a92a23          	sw	a0,20(s2)
30005064:	01412483          	lw	s1,20(sp)
30005068:	01012903          	lw	s2,16(sp)
3000506c:	00c12983          	lw	s3,12(sp)
30005070:	00812a03          	lw	s4,8(sp)
30005074:	00000513          	li	a0,0
30005078:	02010113          	addi	sp,sp,32
3000507c:	00008067          	ret
30005080:	02452783          	lw	a5,36(a0)
30005084:	fa0784e3          	beqz	a5,3000502c <_ZL7dir_sdiP3DIRt+0x50>
30005088:	00254483          	lbu	s1,2(a0)
3000508c:	00449493          	slli	s1,s1,0x4
30005090:	06946a63          	bltu	s0,s1,30005104 <_ZL7dir_sdiP3DIRt+0x128>
30005094:	00100693          	li	a3,1
30005098:	00f6f463          	bgeu	a3,a5,300050a0 <_ZL7dir_sdiP3DIRt+0xc4>
3000509c:	02e7e463          	bltu	a5,a4,300050c4 <_ZL7dir_sdiP3DIRt+0xe8>
300050a0:	00200513          	li	a0,2
300050a4:	01c12083          	lw	ra,28(sp)
300050a8:	01812403          	lw	s0,24(sp)
300050ac:	01412483          	lw	s1,20(sp)
300050b0:	01012903          	lw	s2,16(sp)
300050b4:	00c12983          	lw	s3,12(sp)
300050b8:	00812a03          	lw	s4,8(sp)
300050bc:	02010113          	addi	sp,sp,32
300050c0:	00008067          	ret
300050c4:	fff00993          	li	s3,-1
300050c8:	00100a13          	li	s4,1
300050cc:	0080006f          	j	300050d4 <_ZL7dir_sdiP3DIRt+0xf8>
300050d0:	02946a63          	bltu	s0,s1,30005104 <_ZL7dir_sdiP3DIRt+0x128>
300050d4:	00078593          	mv	a1,a5
300050d8:	40940433          	sub	s0,s0,s1
300050dc:	d49ff0ef          	jal	ra,30004e24 <_Z7get_fatP5FATFSm.part.5>
300050e0:	01041413          	slli	s0,s0,0x10
300050e4:	00050793          	mv	a5,a0
300050e8:	01045413          	srli	s0,s0,0x10
300050ec:	05350863          	beq	a0,s3,3000513c <_ZL7dir_sdiP3DIRt+0x160>
300050f0:	faaa78e3          	bgeu	s4,a0,300050a0 <_ZL7dir_sdiP3DIRt+0xc4>
300050f4:	00092503          	lw	a0,0(s2)
300050f8:	01852703          	lw	a4,24(a0)
300050fc:	fce7eae3          	bltu	a5,a4,300050d0 <_ZL7dir_sdiP3DIRt+0xf4>
30005100:	fa1ff06f          	j	300050a0 <_ZL7dir_sdiP3DIRt+0xc4>
30005104:	00f92623          	sw	a5,12(s2)
30005108:	01852683          	lw	a3,24(a0)
3000510c:	ffe78793          	addi	a5,a5,-2
30005110:	00000713          	li	a4,0
30005114:	ffe68693          	addi	a3,a3,-2
30005118:	00d7fa63          	bgeu	a5,a3,3000512c <_ZL7dir_sdiP3DIRt+0x150>
3000511c:	00254703          	lbu	a4,2(a0)
30005120:	02852683          	lw	a3,40(a0)
30005124:	02f707b3          	mul	a5,a4,a5
30005128:	00d78733          	add	a4,a5,a3
3000512c:	00445793          	srli	a5,s0,0x4
30005130:	00e78733          	add	a4,a5,a4
30005134:	00e92823          	sw	a4,16(s2)
30005138:	f11ff06f          	j	30005048 <_ZL7dir_sdiP3DIRt+0x6c>
3000513c:	00100513          	li	a0,1
30005140:	f65ff06f          	j	300050a4 <_ZL7dir_sdiP3DIRt+0xc8>

30005144 <_Z7put_fatP5FATFSmm.part.6>:
30005144:	fe010113          	addi	sp,sp,-32
30005148:	00812c23          	sw	s0,24(sp)
3000514c:	00912a23          	sw	s1,20(sp)
30005150:	01412423          	sw	s4,8(sp)
30005154:	00112e23          	sw	ra,28(sp)
30005158:	01212823          	sw	s2,16(sp)
3000515c:	01312623          	sw	s3,12(sp)
30005160:	01512223          	sw	s5,4(sp)
30005164:	01612023          	sw	s6,0(sp)
30005168:	00054903          	lbu	s2,0(a0)
3000516c:	00200793          	li	a5,2
30005170:	00050413          	mv	s0,a0
30005174:	00058493          	mv	s1,a1
30005178:	00060a13          	mv	s4,a2
3000517c:	04f90663          	beq	s2,a5,300051c8 <_Z7put_fatP5FATFSmm.part.6+0x84>
30005180:	00300793          	li	a5,3
30005184:	0ef90863          	beq	s2,a5,30005274 <_Z7put_fatP5FATFSmm.part.6+0x130>
30005188:	00100793          	li	a5,1
3000518c:	00200993          	li	s3,2
30005190:	06f90663          	beq	s2,a5,300051fc <_Z7put_fatP5FATFSmm.part.6+0xb8>
30005194:	00100793          	li	a5,1
30005198:	00f40223          	sb	a5,4(s0)
3000519c:	01c12083          	lw	ra,28(sp)
300051a0:	01812403          	lw	s0,24(sp)
300051a4:	00098513          	mv	a0,s3
300051a8:	01412483          	lw	s1,20(sp)
300051ac:	01012903          	lw	s2,16(sp)
300051b0:	00c12983          	lw	s3,12(sp)
300051b4:	00812a03          	lw	s4,8(sp)
300051b8:	00412a83          	lw	s5,4(sp)
300051bc:	00012b03          	lw	s6,0(sp)
300051c0:	02010113          	addi	sp,sp,32
300051c4:	00008067          	ret
300051c8:	02052783          	lw	a5,32(a0)
300051cc:	0085d593          	srli	a1,a1,0x8
300051d0:	00f585b3          	add	a1,a1,a5
300051d4:	e9cff0ef          	jal	ra,30004870 <_ZL11move_windowP5FATFSm>
300051d8:	00050993          	mv	s3,a0
300051dc:	fa051ce3          	bnez	a0,30005194 <_Z7put_fatP5FATFSmm.part.6+0x50>
300051e0:	00149493          	slli	s1,s1,0x1
300051e4:	1fe4f493          	andi	s1,s1,510
300051e8:	009404b3          	add	s1,s0,s1
300051ec:	408a5793          	srai	a5,s4,0x8
300051f0:	03448823          	sb	s4,48(s1)
300051f4:	02f488a3          	sb	a5,49(s1)
300051f8:	f9dff06f          	j	30005194 <_Z7put_fatP5FATFSmm.part.6+0x50>
300051fc:	02052783          	lw	a5,32(a0)
30005200:	0015da93          	srli	s5,a1,0x1
30005204:	00ba8ab3          	add	s5,s5,a1
30005208:	009ad593          	srli	a1,s5,0x9
3000520c:	00f585b3          	add	a1,a1,a5
30005210:	e60ff0ef          	jal	ra,30004870 <_ZL11move_windowP5FATFSm>
30005214:	00050993          	mv	s3,a0
30005218:	f6051ee3          	bnez	a0,30005194 <_Z7put_fatP5FATFSmm.part.6+0x50>
3000521c:	02042783          	lw	a5,32(s0)
30005220:	001a8b13          	addi	s6,s5,1
30005224:	009b5593          	srli	a1,s6,0x9
30005228:	1ffafa93          	andi	s5,s5,511
3000522c:	0014f493          	andi	s1,s1,1
30005230:	00f585b3          	add	a1,a1,a5
30005234:	01540ab3          	add	s5,s0,s5
30005238:	08048e63          	beqz	s1,300052d4 <_Z7put_fatP5FATFSmm.part.6+0x190>
3000523c:	030ac783          	lbu	a5,48(s5)
30005240:	000016b7          	lui	a3,0x1
30005244:	004a1713          	slli	a4,s4,0x4
30005248:	ff068693          	addi	a3,a3,-16 # ff0 <stackPointer-0x5d50>
3000524c:	00f7f793          	andi	a5,a5,15
30005250:	00d77733          	and	a4,a4,a3
30005254:	00e7e7b3          	or	a5,a5,a4
30005258:	02fa8823          	sb	a5,48(s5)
3000525c:	01240223          	sb	s2,4(s0)
30005260:	00040513          	mv	a0,s0
30005264:	e0cff0ef          	jal	ra,30004870 <_ZL11move_windowP5FATFSm>
30005268:	0a050263          	beqz	a0,3000530c <_Z7put_fatP5FATFSmm.part.6+0x1c8>
3000526c:	00050993          	mv	s3,a0
30005270:	f25ff06f          	j	30005194 <_Z7put_fatP5FATFSmm.part.6+0x50>
30005274:	02052783          	lw	a5,32(a0)
30005278:	0075d593          	srli	a1,a1,0x7
3000527c:	00f585b3          	add	a1,a1,a5
30005280:	df0ff0ef          	jal	ra,30004870 <_ZL11move_windowP5FATFSm>
30005284:	00050993          	mv	s3,a0
30005288:	f00516e3          	bnez	a0,30005194 <_Z7put_fatP5FATFSmm.part.6+0x50>
3000528c:	00249493          	slli	s1,s1,0x2
30005290:	1fc4f493          	andi	s1,s1,508
30005294:	03048793          	addi	a5,s1,48
30005298:	00f407b3          	add	a5,s0,a5
3000529c:	0037c603          	lbu	a2,3(a5)
300052a0:	f0000737          	lui	a4,0xf0000
300052a4:	009404b3          	add	s1,s0,s1
300052a8:	01861613          	slli	a2,a2,0x18
300052ac:	00e67633          	and	a2,a2,a4
300052b0:	01466a33          	or	s4,a2,s4
300052b4:	03448823          	sb	s4,48(s1)
300052b8:	408a5693          	srai	a3,s4,0x8
300052bc:	010a5713          	srli	a4,s4,0x10
300052c0:	018a5a13          	srli	s4,s4,0x18
300052c4:	00d780a3          	sb	a3,1(a5)
300052c8:	00e78123          	sb	a4,2(a5)
300052cc:	014781a3          	sb	s4,3(a5)
300052d0:	ec5ff06f          	j	30005194 <_Z7put_fatP5FATFSmm.part.6+0x50>
300052d4:	034a8823          	sb	s4,48(s5)
300052d8:	01240223          	sb	s2,4(s0)
300052dc:	00040513          	mv	a0,s0
300052e0:	d90ff0ef          	jal	ra,30004870 <_ZL11move_windowP5FATFSm>
300052e4:	f80514e3          	bnez	a0,3000526c <_Z7put_fatP5FATFSmm.part.6+0x128>
300052e8:	1ffb7b13          	andi	s6,s6,511
300052ec:	01640b33          	add	s6,s0,s6
300052f0:	030b4783          	lbu	a5,48(s6)
300052f4:	008a5a13          	srli	s4,s4,0x8
300052f8:	00fa7a13          	andi	s4,s4,15
300052fc:	ff07f793          	andi	a5,a5,-16
30005300:	0147ea33          	or	s4,a5,s4
30005304:	034b0823          	sb	s4,48(s6)
30005308:	e8dff06f          	j	30005194 <_Z7put_fatP5FATFSmm.part.6+0x50>
3000530c:	1ffb7b13          	andi	s6,s6,511
30005310:	004a5a13          	srli	s4,s4,0x4
30005314:	0ffa7a13          	andi	s4,s4,255
30005318:	01640b33          	add	s6,s0,s6
3000531c:	034b0823          	sb	s4,48(s6)
30005320:	e75ff06f          	j	30005194 <_Z7put_fatP5FATFSmm.part.6+0x50>

30005324 <_ZL8dir_nextP3DIRi.constprop.11>:
30005324:	fe010113          	addi	sp,sp,-32
30005328:	00812c23          	sw	s0,24(sp)
3000532c:	00655403          	lhu	s0,6(a0)
30005330:	00112e23          	sw	ra,28(sp)
30005334:	00912a23          	sw	s1,20(sp)
30005338:	00140413          	addi	s0,s0,1
3000533c:	01041413          	slli	s0,s0,0x10
30005340:	01212823          	sw	s2,16(sp)
30005344:	01312623          	sw	s3,12(sp)
30005348:	01045413          	srli	s0,s0,0x10
3000534c:	0e040063          	beqz	s0,3000542c <_ZL8dir_nextP3DIRi.constprop.11+0x108>
30005350:	01052703          	lw	a4,16(a0)
30005354:	0c070c63          	beqz	a4,3000542c <_ZL8dir_nextP3DIRi.constprop.11+0x108>
30005358:	00f47913          	andi	s2,s0,15
3000535c:	00050493          	mv	s1,a0
30005360:	00052503          	lw	a0,0(a0)
30005364:	02090c63          	beqz	s2,3000539c <_ZL8dir_nextP3DIRi.constprop.11+0x78>
30005368:	03050793          	addi	a5,a0,48
3000536c:	00591913          	slli	s2,s2,0x5
30005370:	012787b3          	add	a5,a5,s2
30005374:	00849323          	sh	s0,6(s1)
30005378:	00f4aa23          	sw	a5,20(s1)
3000537c:	00000513          	li	a0,0
30005380:	01c12083          	lw	ra,28(sp)
30005384:	01812403          	lw	s0,24(sp)
30005388:	01412483          	lw	s1,20(sp)
3000538c:	01012903          	lw	s2,16(sp)
30005390:	00c12983          	lw	s3,12(sp)
30005394:	02010113          	addi	sp,sp,32
30005398:	00008067          	ret
3000539c:	00c4a583          	lw	a1,12(s1)
300053a0:	00170713          	addi	a4,a4,1 # f0000001 <__bss_end__+0xbff00001>
300053a4:	00e4a823          	sw	a4,16(s1)
300053a8:	06058e63          	beqz	a1,30005424 <_ZL8dir_nextP3DIRi.constprop.11+0x100>
300053ac:	00254683          	lbu	a3,2(a0)
300053b0:	00445713          	srli	a4,s0,0x4
300053b4:	fff68693          	addi	a3,a3,-1
300053b8:	00e6f733          	and	a4,a3,a4
300053bc:	fa0716e3          	bnez	a4,30005368 <_ZL8dir_nextP3DIRi.constprop.11+0x44>
300053c0:	00100993          	li	s3,1
300053c4:	08b9f463          	bgeu	s3,a1,3000544c <_ZL8dir_nextP3DIRi.constprop.11+0x128>
300053c8:	01852703          	lw	a4,24(a0)
300053cc:	08e5f063          	bgeu	a1,a4,3000544c <_ZL8dir_nextP3DIRi.constprop.11+0x128>
300053d0:	a55ff0ef          	jal	ra,30004e24 <_Z7get_fatP5FATFSm.part.5>
300053d4:	00050713          	mv	a4,a0
300053d8:	06a9fa63          	bgeu	s3,a0,3000544c <_ZL8dir_nextP3DIRi.constprop.11+0x128>
300053dc:	fff00793          	li	a5,-1
300053e0:	00100513          	li	a0,1
300053e4:	f8f70ee3          	beq	a4,a5,30005380 <_ZL8dir_nextP3DIRi.constprop.11+0x5c>
300053e8:	0004a503          	lw	a0,0(s1)
300053ec:	01852683          	lw	a3,24(a0)
300053f0:	02d77e63          	bgeu	a4,a3,3000542c <_ZL8dir_nextP3DIRi.constprop.11+0x108>
300053f4:	00e4a623          	sw	a4,12(s1)
300053f8:	01852603          	lw	a2,24(a0)
300053fc:	ffe70713          	addi	a4,a4,-2
30005400:	00000693          	li	a3,0
30005404:	ffe60613          	addi	a2,a2,-2
30005408:	00c77a63          	bgeu	a4,a2,3000541c <_ZL8dir_nextP3DIRi.constprop.11+0xf8>
3000540c:	00254683          	lbu	a3,2(a0)
30005410:	02852603          	lw	a2,40(a0)
30005414:	02e68733          	mul	a4,a3,a4
30005418:	00c706b3          	add	a3,a4,a2
3000541c:	00d4a823          	sw	a3,16(s1)
30005420:	f49ff06f          	j	30005368 <_ZL8dir_nextP3DIRi.constprop.11+0x44>
30005424:	00855703          	lhu	a4,8(a0)
30005428:	f4e460e3          	bltu	s0,a4,30005368 <_ZL8dir_nextP3DIRi.constprop.11+0x44>
3000542c:	01c12083          	lw	ra,28(sp)
30005430:	01812403          	lw	s0,24(sp)
30005434:	01412483          	lw	s1,20(sp)
30005438:	01012903          	lw	s2,16(sp)
3000543c:	00c12983          	lw	s3,12(sp)
30005440:	00400513          	li	a0,4
30005444:	02010113          	addi	sp,sp,32
30005448:	00008067          	ret
3000544c:	00200513          	li	a0,2
30005450:	f31ff06f          	j	30005380 <_ZL8dir_nextP3DIRi.constprop.11+0x5c>

30005454 <_ZL4syncP5FATFS>:
30005454:	fe010113          	addi	sp,sp,-32
30005458:	00812c23          	sw	s0,24(sp)
3000545c:	00112e23          	sw	ra,28(sp)
30005460:	00912a23          	sw	s1,20(sp)
30005464:	01212823          	sw	s2,16(sp)
30005468:	01312623          	sw	s3,12(sp)
3000546c:	02c52483          	lw	s1,44(a0)
30005470:	00050413          	mv	s0,a0
30005474:	00048663          	beqz	s1,30005480 <_ZL4syncP5FATFS+0x2c>
30005478:	00454783          	lbu	a5,4(a0)
3000547c:	04079263          	bnez	a5,300054c0 <_ZL4syncP5FATFS+0x6c>
30005480:	00044703          	lbu	a4,0(s0)
30005484:	00300793          	li	a5,3
30005488:	0af70463          	beq	a4,a5,30005530 <_ZL4syncP5FATFS+0xdc>
3000548c:	00144503          	lbu	a0,1(s0)
30005490:	00000613          	li	a2,0
30005494:	00000593          	li	a1,0
30005498:	9b9fe0ef          	jal	ra,30003e50 <disk_ioctl>
3000549c:	00a037b3          	snez	a5,a0
300054a0:	01c12083          	lw	ra,28(sp)
300054a4:	01812403          	lw	s0,24(sp)
300054a8:	01412483          	lw	s1,20(sp)
300054ac:	01012903          	lw	s2,16(sp)
300054b0:	00c12983          	lw	s3,12(sp)
300054b4:	00078513          	mv	a0,a5
300054b8:	02010113          	addi	sp,sp,32
300054bc:	00008067          	ret
300054c0:	00154503          	lbu	a0,1(a0)
300054c4:	03040993          	addi	s3,s0,48
300054c8:	00100693          	li	a3,1
300054cc:	00048613          	mv	a2,s1
300054d0:	00098593          	mv	a1,s3
300054d4:	eb4fe0ef          	jal	ra,30003b88 <disk_write>
300054d8:	00100793          	li	a5,1
300054dc:	fc0512e3          	bnez	a0,300054a0 <_ZL4syncP5FATFS+0x4c>
300054e0:	01c42703          	lw	a4,28(s0)
300054e4:	02042683          	lw	a3,32(s0)
300054e8:	00040223          	sb	zero,4(s0)
300054ec:	00d706b3          	add	a3,a4,a3
300054f0:	f8d4f8e3          	bgeu	s1,a3,30005480 <_ZL4syncP5FATFS+0x2c>
300054f4:	00344903          	lbu	s2,3(s0)
300054f8:	0127e663          	bltu	a5,s2,30005504 <_ZL4syncP5FATFS+0xb0>
300054fc:	f85ff06f          	j	30005480 <_ZL4syncP5FATFS+0x2c>
30005500:	01c42703          	lw	a4,28(s0)
30005504:	00144503          	lbu	a0,1(s0)
30005508:	00e484b3          	add	s1,s1,a4
3000550c:	00100693          	li	a3,1
30005510:	00048613          	mv	a2,s1
30005514:	00098593          	mv	a1,s3
30005518:	e70fe0ef          	jal	ra,30003b88 <disk_write>
3000551c:	fff90913          	addi	s2,s2,-1
30005520:	0ff97913          	andi	s2,s2,255
30005524:	00100793          	li	a5,1
30005528:	fcf91ce3          	bne	s2,a5,30005500 <_ZL4syncP5FATFS+0xac>
3000552c:	f55ff06f          	j	30005480 <_ZL4syncP5FATFS+0x2c>
30005530:	00544783          	lbu	a5,5(s0)
30005534:	f4078ce3          	beqz	a5,3000548c <_ZL4syncP5FATFS+0x38>
30005538:	03040793          	addi	a5,s0,48
3000553c:	20000613          	li	a2,512
30005540:	00000593          	li	a1,0
30005544:	00078513          	mv	a0,a5
30005548:	02042623          	sw	zero,44(s0)
3000554c:	0e1050ef          	jal	ra,3000ae2c <memset>
30005550:	ffffb737          	lui	a4,0xffffb
30005554:	a5570713          	addi	a4,a4,-1451 # ffffaa55 <__bss_end__+0xcfefaa55>
30005558:	22e41723          	sh	a4,558(s0)
3000555c:	41615737          	lui	a4,0x41615
30005560:	01042583          	lw	a1,16(s0)
30005564:	00c42683          	lw	a3,12(s0)
30005568:	25270713          	addi	a4,a4,594 # 41615252 <__bss_end__+0x11515252>
3000556c:	00050793          	mv	a5,a0
30005570:	02e42823          	sw	a4,48(s0)
30005574:	01442603          	lw	a2,20(s0)
30005578:	00144503          	lbu	a0,1(s0)
3000557c:	61417737          	lui	a4,0x61417
30005580:	27270713          	addi	a4,a4,626 # 61417272 <__bss_end__+0x31317272>
30005584:	20b42c23          	sw	a1,536(s0)
30005588:	20d42e23          	sw	a3,540(s0)
3000558c:	20e42a23          	sw	a4,532(s0)
30005590:	00100693          	li	a3,1
30005594:	00078593          	mv	a1,a5
30005598:	df0fe0ef          	jal	ra,30003b88 <disk_write>
3000559c:	000402a3          	sb	zero,5(s0)
300055a0:	eedff06f          	j	3000548c <_ZL4syncP5FATFS+0x38>

300055a4 <_ZL8dir_findP3DIR.part.7>:
300055a4:	fb010113          	addi	sp,sp,-80
300055a8:	03812423          	sw	s8,40(sp)
300055ac:	03912223          	sw	s9,36(sp)
300055b0:	00052c03          	lw	s8,0(a0)
300055b4:	01052c83          	lw	s9,16(a0)
300055b8:	03412c23          	sw	s4,56(sp)
300055bc:	00010a37          	lui	s4,0x10
300055c0:	04912223          	sw	s1,68(sp)
300055c4:	05212023          	sw	s2,64(sp)
300055c8:	03312e23          	sw	s3,60(sp)
300055cc:	03512a23          	sw	s5,52(sp)
300055d0:	03612823          	sw	s6,48(sp)
300055d4:	03712623          	sw	s7,44(sp)
300055d8:	04112623          	sw	ra,76(sp)
300055dc:	04812423          	sw	s0,72(sp)
300055e0:	03a12023          	sw	s10,32(sp)
300055e4:	01b12e23          	sw	s11,28(sp)
300055e8:	00050b93          	mv	s7,a0
300055ec:	0ff00993          	li	s3,255
300055f0:	0ff00493          	li	s1,255
300055f4:	0e500913          	li	s2,229
300055f8:	30010b37          	lui	s6,0x30010
300055fc:	fffa0a13          	addi	s4,s4,-1 # ffff <stackPointer+0x92bf>
30005600:	0fe00a93          	li	s5,254
30005604:	02cc2403          	lw	s0,44(s8)
30005608:	01940863          	beq	s0,s9,30005618 <_ZL8dir_findP3DIR.part.7+0x74>
3000560c:	004c4783          	lbu	a5,4(s8)
30005610:	08079663          	bnez	a5,3000569c <_ZL8dir_findP3DIR.part.7+0xf8>
30005614:	0e0c9c63          	bnez	s9,3000570c <_ZL8dir_findP3DIR.part.7+0x168>
30005618:	014ba403          	lw	s0,20(s7)
3000561c:	00044703          	lbu	a4,0(s0)
30005620:	10070a63          	beqz	a4,30005734 <_ZL8dir_findP3DIR.part.7+0x190>
30005624:	00b44783          	lbu	a5,11(s0)
30005628:	03f7f693          	andi	a3,a5,63
3000562c:	01270a63          	beq	a4,s2,30005640 <_ZL8dir_findP3DIR.part.7+0x9c>
30005630:	0087f793          	andi	a5,a5,8
30005634:	1e078663          	beqz	a5,30005820 <_ZL8dir_findP3DIR.part.7+0x27c>
30005638:	00f00793          	li	a5,15
3000563c:	12f68c63          	beq	a3,a5,30005774 <_ZL8dir_findP3DIR.part.7+0x1d0>
30005640:	0ff00493          	li	s1,255
30005644:	006bd403          	lhu	s0,6(s7)
30005648:	00140413          	addi	s0,s0,1
3000564c:	01041413          	slli	s0,s0,0x10
30005650:	01045413          	srli	s0,s0,0x10
30005654:	0e040063          	beqz	s0,30005734 <_ZL8dir_findP3DIR.part.7+0x190>
30005658:	010bac83          	lw	s9,16(s7)
3000565c:	0c0c8c63          	beqz	s9,30005734 <_ZL8dir_findP3DIR.part.7+0x190>
30005660:	00f47d13          	andi	s10,s0,15
30005664:	000bac03          	lw	s8,0(s7)
30005668:	000d1e63          	bnez	s10,30005684 <_ZL8dir_findP3DIR.part.7+0xe0>
3000566c:	00cba583          	lw	a1,12(s7)
30005670:	001c8c93          	addi	s9,s9,1
30005674:	019ba823          	sw	s9,16(s7)
30005678:	26059263          	bnez	a1,300058dc <_ZL8dir_findP3DIR.part.7+0x338>
3000567c:	008c5783          	lhu	a5,8(s8)
30005680:	0af47a63          	bgeu	s0,a5,30005734 <_ZL8dir_findP3DIR.part.7+0x190>
30005684:	030c0793          	addi	a5,s8,48
30005688:	005d1d13          	slli	s10,s10,0x5
3000568c:	01a787b3          	add	a5,a5,s10
30005690:	008b9323          	sh	s0,6(s7)
30005694:	00fbaa23          	sw	a5,20(s7)
30005698:	f6dff06f          	j	30005604 <_ZL8dir_findP3DIR.part.7+0x60>
3000569c:	001c4503          	lbu	a0,1(s8)
300056a0:	030c0d93          	addi	s11,s8,48
300056a4:	00100693          	li	a3,1
300056a8:	00040613          	mv	a2,s0
300056ac:	000d8593          	mv	a1,s11
300056b0:	cd8fe0ef          	jal	ra,30003b88 <disk_write>
300056b4:	22051063          	bnez	a0,300058d4 <_ZL8dir_findP3DIR.part.7+0x330>
300056b8:	01cc2783          	lw	a5,28(s8)
300056bc:	020c2703          	lw	a4,32(s8)
300056c0:	000c0223          	sb	zero,4(s8)
300056c4:	00e78733          	add	a4,a5,a4
300056c8:	f4e476e3          	bgeu	s0,a4,30005614 <_ZL8dir_findP3DIR.part.7+0x70>
300056cc:	003c4d03          	lbu	s10,3(s8)
300056d0:	00100713          	li	a4,1
300056d4:	01a76663          	bltu	a4,s10,300056e0 <_ZL8dir_findP3DIR.part.7+0x13c>
300056d8:	f3dff06f          	j	30005614 <_ZL8dir_findP3DIR.part.7+0x70>
300056dc:	01cc2783          	lw	a5,28(s8)
300056e0:	001c4503          	lbu	a0,1(s8)
300056e4:	00f40433          	add	s0,s0,a5
300056e8:	00100693          	li	a3,1
300056ec:	00040613          	mv	a2,s0
300056f0:	000d8593          	mv	a1,s11
300056f4:	c94fe0ef          	jal	ra,30003b88 <disk_write>
300056f8:	fffd0d13          	addi	s10,s10,-1
300056fc:	0ffd7d13          	andi	s10,s10,255
30005700:	00100793          	li	a5,1
30005704:	fcfd1ce3          	bne	s10,a5,300056dc <_ZL8dir_findP3DIR.part.7+0x138>
30005708:	f00c88e3          	beqz	s9,30005618 <_ZL8dir_findP3DIR.part.7+0x74>
3000570c:	001c4503          	lbu	a0,1(s8)
30005710:	00100693          	li	a3,1
30005714:	000c8613          	mv	a2,s9
30005718:	030c0593          	addi	a1,s8,48
3000571c:	b1cfe0ef          	jal	ra,30003a38 <disk_read>
30005720:	1a051a63          	bnez	a0,300058d4 <_ZL8dir_findP3DIR.part.7+0x330>
30005724:	039c2623          	sw	s9,44(s8)
30005728:	014ba403          	lw	s0,20(s7)
3000572c:	00044703          	lbu	a4,0(s0)
30005730:	ee071ae3          	bnez	a4,30005624 <_ZL8dir_findP3DIR.part.7+0x80>
30005734:	00400513          	li	a0,4
30005738:	04c12083          	lw	ra,76(sp)
3000573c:	04812403          	lw	s0,72(sp)
30005740:	04412483          	lw	s1,68(sp)
30005744:	04012903          	lw	s2,64(sp)
30005748:	03c12983          	lw	s3,60(sp)
3000574c:	03812a03          	lw	s4,56(sp)
30005750:	03412a83          	lw	s5,52(sp)
30005754:	03012b03          	lw	s6,48(sp)
30005758:	02c12b83          	lw	s7,44(sp)
3000575c:	02812c03          	lw	s8,40(sp)
30005760:	02412c83          	lw	s9,36(sp)
30005764:	02012d03          	lw	s10,32(sp)
30005768:	01c12d83          	lw	s11,28(sp)
3000576c:	05010113          	addi	sp,sp,80
30005770:	00008067          	ret
30005774:	01cbac83          	lw	s9,28(s7)
30005778:	ec0c86e3          	beqz	s9,30005644 <_ZL8dir_findP3DIR.part.7+0xa0>
3000577c:	04077793          	andi	a5,a4,64
30005780:	2c078a63          	beqz	a5,30005a54 <_ZL8dir_findP3DIR.part.7+0x4b0>
30005784:	006bd783          	lhu	a5,6(s7)
30005788:	00d44983          	lbu	s3,13(s0)
3000578c:	0bf77493          	andi	s1,a4,191
30005790:	02fb9023          	sh	a5,32(s7)
30005794:	00d44783          	lbu	a5,13(s0)
30005798:	eb3794e3          	bne	a5,s3,30005640 <_ZL8dir_findP3DIR.part.7+0x9c>
3000579c:	00044783          	lbu	a5,0(s0)
300057a0:	50cb0d13          	addi	s10,s6,1292 # 3001050c <_ZL6LfnOfs>
300057a4:	00dd0c13          	addi	s8,s10,13
300057a8:	fbf7f793          	andi	a5,a5,-65
300057ac:	fff78793          	addi	a5,a5,-1
300057b0:	00179d93          	slli	s11,a5,0x1
300057b4:	00fd8db3          	add	s11,s11,a5
300057b8:	002d9d93          	slli	s11,s11,0x2
300057bc:	00fd8db3          	add	s11,s11,a5
300057c0:	00100693          	li	a3,1
300057c4:	0100006f          	j	300057d4 <_ZL8dir_findP3DIR.part.7+0x230>
300057c8:	e7451ce3          	bne	a0,s4,30005640 <_ZL8dir_findP3DIR.part.7+0x9c>
300057cc:	001d0d13          	addi	s10,s10,1
300057d0:	298d0663          	beq	s10,s8,30005a5c <_ZL8dir_findP3DIR.part.7+0x4b8>
300057d4:	000d4703          	lbu	a4,0(s10)
300057d8:	00e40733          	add	a4,s0,a4
300057dc:	00174783          	lbu	a5,1(a4)
300057e0:	00074703          	lbu	a4,0(a4)
300057e4:	00879793          	slli	a5,a5,0x8
300057e8:	00e7e533          	or	a0,a5,a4
300057ec:	fc068ee3          	beqz	a3,300057c8 <_ZL8dir_findP3DIR.part.7+0x224>
300057f0:	a71fe0ef          	jal	ra,30004260 <ff_wtoupper>
300057f4:	001d9793          	slli	a5,s11,0x1
300057f8:	00a12623          	sw	a0,12(sp)
300057fc:	00fc87b3          	add	a5,s9,a5
30005800:	e5bae0e3          	bltu	s5,s11,30005640 <_ZL8dir_findP3DIR.part.7+0x9c>
30005804:	0007d503          	lhu	a0,0(a5)
30005808:	001d8d93          	addi	s11,s11,1
3000580c:	a55fe0ef          	jal	ra,30004260 <ff_wtoupper>
30005810:	00c12703          	lw	a4,12(sp)
30005814:	00050693          	mv	a3,a0
30005818:	faa70ae3          	beq	a4,a0,300057cc <_ZL8dir_findP3DIR.part.7+0x228>
3000581c:	e25ff06f          	j	30005640 <_ZL8dir_findP3DIR.part.7+0x9c>
30005820:	00f00793          	li	a5,15
30005824:	f4f688e3          	beq	a3,a5,30005774 <_ZL8dir_findP3DIR.part.7+0x1d0>
30005828:	12048863          	beqz	s1,30005958 <_ZL8dir_findP3DIR.part.7+0x3b4>
3000582c:	018ba783          	lw	a5,24(s7)
30005830:	fff00713          	li	a4,-1
30005834:	02eb9023          	sh	a4,32(s7)
30005838:	00b7c703          	lbu	a4,11(a5)
3000583c:	0ff00493          	li	s1,255
30005840:	00177713          	andi	a4,a4,1
30005844:	e00710e3          	bnez	a4,30005644 <_ZL8dir_findP3DIR.part.7+0xa0>
30005848:	0007c683          	lbu	a3,0(a5)
3000584c:	00044703          	lbu	a4,0(s0)
30005850:	dee69ae3          	bne	a3,a4,30005644 <_ZL8dir_findP3DIR.part.7+0xa0>
30005854:	0017c683          	lbu	a3,1(a5)
30005858:	00144703          	lbu	a4,1(s0)
3000585c:	dee694e3          	bne	a3,a4,30005644 <_ZL8dir_findP3DIR.part.7+0xa0>
30005860:	0027c683          	lbu	a3,2(a5)
30005864:	00244703          	lbu	a4,2(s0)
30005868:	dce69ee3          	bne	a3,a4,30005644 <_ZL8dir_findP3DIR.part.7+0xa0>
3000586c:	0037c683          	lbu	a3,3(a5)
30005870:	00344703          	lbu	a4,3(s0)
30005874:	dce698e3          	bne	a3,a4,30005644 <_ZL8dir_findP3DIR.part.7+0xa0>
30005878:	0047c683          	lbu	a3,4(a5)
3000587c:	00444703          	lbu	a4,4(s0)
30005880:	dce692e3          	bne	a3,a4,30005644 <_ZL8dir_findP3DIR.part.7+0xa0>
30005884:	0057c683          	lbu	a3,5(a5)
30005888:	00544703          	lbu	a4,5(s0)
3000588c:	dae69ce3          	bne	a3,a4,30005644 <_ZL8dir_findP3DIR.part.7+0xa0>
30005890:	0067c683          	lbu	a3,6(a5)
30005894:	00644703          	lbu	a4,6(s0)
30005898:	dae696e3          	bne	a3,a4,30005644 <_ZL8dir_findP3DIR.part.7+0xa0>
3000589c:	0077c683          	lbu	a3,7(a5)
300058a0:	00744703          	lbu	a4,7(s0)
300058a4:	dae690e3          	bne	a3,a4,30005644 <_ZL8dir_findP3DIR.part.7+0xa0>
300058a8:	0087c683          	lbu	a3,8(a5)
300058ac:	00844703          	lbu	a4,8(s0)
300058b0:	d8e698e3          	bne	a3,a4,30005640 <_ZL8dir_findP3DIR.part.7+0x9c>
300058b4:	0097c683          	lbu	a3,9(a5)
300058b8:	00944703          	lbu	a4,9(s0)
300058bc:	d8e692e3          	bne	a3,a4,30005640 <_ZL8dir_findP3DIR.part.7+0x9c>
300058c0:	00a44703          	lbu	a4,10(s0)
300058c4:	00a7c783          	lbu	a5,10(a5)
300058c8:	d6f71ee3          	bne	a4,a5,30005644 <_ZL8dir_findP3DIR.part.7+0xa0>
300058cc:	00000513          	li	a0,0
300058d0:	e69ff06f          	j	30005738 <_ZL8dir_findP3DIR.part.7+0x194>
300058d4:	00100513          	li	a0,1
300058d8:	e61ff06f          	j	30005738 <_ZL8dir_findP3DIR.part.7+0x194>
300058dc:	002c4703          	lbu	a4,2(s8)
300058e0:	00445793          	srli	a5,s0,0x4
300058e4:	fff70713          	addi	a4,a4,-1
300058e8:	00f777b3          	and	a5,a4,a5
300058ec:	d8079ce3          	bnez	a5,30005684 <_ZL8dir_findP3DIR.part.7+0xe0>
300058f0:	00100c93          	li	s9,1
300058f4:	04bcfe63          	bgeu	s9,a1,30005950 <_ZL8dir_findP3DIR.part.7+0x3ac>
300058f8:	018c2783          	lw	a5,24(s8)
300058fc:	04f5fa63          	bgeu	a1,a5,30005950 <_ZL8dir_findP3DIR.part.7+0x3ac>
30005900:	000c0513          	mv	a0,s8
30005904:	d20ff0ef          	jal	ra,30004e24 <_Z7get_fatP5FATFSm.part.5>
30005908:	04acf463          	bgeu	s9,a0,30005950 <_ZL8dir_findP3DIR.part.7+0x3ac>
3000590c:	fff00793          	li	a5,-1
30005910:	fcf502e3          	beq	a0,a5,300058d4 <_ZL8dir_findP3DIR.part.7+0x330>
30005914:	000bac03          	lw	s8,0(s7)
30005918:	018c2783          	lw	a5,24(s8)
3000591c:	e0f57ce3          	bgeu	a0,a5,30005734 <_ZL8dir_findP3DIR.part.7+0x190>
30005920:	00aba623          	sw	a0,12(s7)
30005924:	018c2783          	lw	a5,24(s8)
30005928:	ffe50513          	addi	a0,a0,-2
3000592c:	00000c93          	li	s9,0
30005930:	ffe78793          	addi	a5,a5,-2
30005934:	00f57a63          	bgeu	a0,a5,30005948 <_ZL8dir_findP3DIR.part.7+0x3a4>
30005938:	002c4c83          	lbu	s9,2(s8)
3000593c:	028c2783          	lw	a5,40(s8)
30005940:	02ac8533          	mul	a0,s9,a0
30005944:	00f50cb3          	add	s9,a0,a5
30005948:	019ba823          	sw	s9,16(s7)
3000594c:	d39ff06f          	j	30005684 <_ZL8dir_findP3DIR.part.7+0xe0>
30005950:	00200513          	li	a0,2
30005954:	de5ff06f          	j	30005738 <_ZL8dir_findP3DIR.part.7+0x194>
30005958:	00144683          	lbu	a3,1(s0)
3000595c:	00771793          	slli	a5,a4,0x7
30005960:	40175713          	srai	a4,a4,0x1
30005964:	00d787b3          	add	a5,a5,a3
30005968:	00e78733          	add	a4,a5,a4
3000596c:	00244683          	lbu	a3,2(s0)
30005970:	0ff77793          	andi	a5,a4,255
30005974:	00779713          	slli	a4,a5,0x7
30005978:	00d70733          	add	a4,a4,a3
3000597c:	0017d793          	srli	a5,a5,0x1
30005980:	00f70733          	add	a4,a4,a5
30005984:	00344683          	lbu	a3,3(s0)
30005988:	0ff77713          	andi	a4,a4,255
3000598c:	00771793          	slli	a5,a4,0x7
30005990:	00d787b3          	add	a5,a5,a3
30005994:	00175713          	srli	a4,a4,0x1
30005998:	00e787b3          	add	a5,a5,a4
3000599c:	00444683          	lbu	a3,4(s0)
300059a0:	0ff7f793          	andi	a5,a5,255
300059a4:	00779713          	slli	a4,a5,0x7
300059a8:	00d70733          	add	a4,a4,a3
300059ac:	0017d793          	srli	a5,a5,0x1
300059b0:	00f70733          	add	a4,a4,a5
300059b4:	00544683          	lbu	a3,5(s0)
300059b8:	0ff77713          	andi	a4,a4,255
300059bc:	00771793          	slli	a5,a4,0x7
300059c0:	00d787b3          	add	a5,a5,a3
300059c4:	00175713          	srli	a4,a4,0x1
300059c8:	00e787b3          	add	a5,a5,a4
300059cc:	00644683          	lbu	a3,6(s0)
300059d0:	0ff7f793          	andi	a5,a5,255
300059d4:	00779713          	slli	a4,a5,0x7
300059d8:	00d70733          	add	a4,a4,a3
300059dc:	0017d793          	srli	a5,a5,0x1
300059e0:	00f70733          	add	a4,a4,a5
300059e4:	00744683          	lbu	a3,7(s0)
300059e8:	0ff77713          	andi	a4,a4,255
300059ec:	00771793          	slli	a5,a4,0x7
300059f0:	00d787b3          	add	a5,a5,a3
300059f4:	00175713          	srli	a4,a4,0x1
300059f8:	00e787b3          	add	a5,a5,a4
300059fc:	00844683          	lbu	a3,8(s0)
30005a00:	0ff7f793          	andi	a5,a5,255
30005a04:	00779713          	slli	a4,a5,0x7
30005a08:	00d70733          	add	a4,a4,a3
30005a0c:	0017d793          	srli	a5,a5,0x1
30005a10:	00f70733          	add	a4,a4,a5
30005a14:	00944683          	lbu	a3,9(s0)
30005a18:	0ff77713          	andi	a4,a4,255
30005a1c:	00771793          	slli	a5,a4,0x7
30005a20:	00d787b3          	add	a5,a5,a3
30005a24:	00175713          	srli	a4,a4,0x1
30005a28:	00e787b3          	add	a5,a5,a4
30005a2c:	00a44683          	lbu	a3,10(s0)
30005a30:	0ff7f793          	andi	a5,a5,255
30005a34:	00779713          	slli	a4,a5,0x7
30005a38:	00d70733          	add	a4,a4,a3
30005a3c:	0017d793          	srli	a5,a5,0x1
30005a40:	00f707b3          	add	a5,a4,a5
30005a44:	0ff7f793          	andi	a5,a5,255
30005a48:	df3792e3          	bne	a5,s3,3000582c <_ZL8dir_findP3DIR.part.7+0x288>
30005a4c:	00000513          	li	a0,0
30005a50:	ce9ff06f          	j	30005738 <_ZL8dir_findP3DIR.part.7+0x194>
30005a54:	be9716e3          	bne	a4,s1,30005640 <_ZL8dir_findP3DIR.part.7+0x9c>
30005a58:	d3dff06f          	j	30005794 <_ZL8dir_findP3DIR.part.7+0x1f0>
30005a5c:	00044783          	lbu	a5,0(s0)
30005a60:	0407f793          	andi	a5,a5,64
30005a64:	00078c63          	beqz	a5,30005a7c <_ZL8dir_findP3DIR.part.7+0x4d8>
30005a68:	00068a63          	beqz	a3,30005a7c <_ZL8dir_findP3DIR.part.7+0x4d8>
30005a6c:	001d9d93          	slli	s11,s11,0x1
30005a70:	01bc8cb3          	add	s9,s9,s11
30005a74:	000cd783          	lhu	a5,0(s9)
30005a78:	bc0794e3          	bnez	a5,30005640 <_ZL8dir_findP3DIR.part.7+0x9c>
30005a7c:	fff48493          	addi	s1,s1,-1
30005a80:	0ff4f493          	andi	s1,s1,255
30005a84:	bc1ff06f          	j	30005644 <_ZL8dir_findP3DIR.part.7+0xa0>

30005a88 <_ZL11follow_pathP3DIRPKc>:
30005a88:	fb010113          	addi	sp,sp,-80
30005a8c:	03412c23          	sw	s4,56(sp)
30005a90:	01b12e23          	sw	s11,28(sp)
30005a94:	04112623          	sw	ra,76(sp)
30005a98:	04812423          	sw	s0,72(sp)
30005a9c:	04912223          	sw	s1,68(sp)
30005aa0:	05212023          	sw	s2,64(sp)
30005aa4:	03312e23          	sw	s3,60(sp)
30005aa8:	03512a23          	sw	s5,52(sp)
30005aac:	03612823          	sw	s6,48(sp)
30005ab0:	03712623          	sw	s7,44(sp)
30005ab4:	03812423          	sw	s8,40(sp)
30005ab8:	03912223          	sw	s9,36(sp)
30005abc:	03a12023          	sw	s10,32(sp)
30005ac0:	0005c703          	lbu	a4,0(a1)
30005ac4:	02f00693          	li	a3,47
30005ac8:	00058a13          	mv	s4,a1
30005acc:	00050d93          	mv	s11,a0
30005ad0:	12d70063          	beq	a4,a3,30005bf0 <_ZL11follow_pathP3DIRPKc+0x168>
30005ad4:	05c00693          	li	a3,92
30005ad8:	10d70c63          	beq	a4,a3,30005bf0 <_ZL11follow_pathP3DIRPKc+0x168>
30005adc:	000da423          	sw	zero,8(s11)
30005ae0:	000a4683          	lbu	a3,0(s4)
30005ae4:	01f00713          	li	a4,31
30005ae8:	10d77e63          	bgeu	a4,a3,30005c04 <_ZL11follow_pathP3DIRPKc+0x17c>
30005aec:	300109b7          	lui	s3,0x30010
30005af0:	50c98793          	addi	a5,s3,1292 # 3001050c <_ZL6LfnOfs>
30005af4:	02f00493          	li	s1,47
30005af8:	00f12623          	sw	a5,12(sp)
30005afc:	05c00713          	li	a4,92
30005b00:	000a4503          	lbu	a0,0(s4)
30005b04:	00950463          	beq	a0,s1,30005b0c <_ZL11follow_pathP3DIRPKc+0x84>
30005b08:	00e51663          	bne	a0,a4,30005b14 <_ZL11follow_pathP3DIRPKc+0x8c>
30005b0c:	001a0a13          	addi	s4,s4,1
30005b10:	ff1ff06f          	j	30005b00 <_ZL11follow_pathP3DIRPKc+0x78>
30005b14:	01051513          	slli	a0,a0,0x10
30005b18:	01055513          	srli	a0,a0,0x10
30005b1c:	01f00693          	li	a3,31
30005b20:	01cda983          	lw	s3,28(s11)
30005b24:	08a6f663          	bgeu	a3,a0,30005bb0 <_ZL11follow_pathP3DIRPKc+0x128>
30005b28:	08950463          	beq	a0,s1,30005bb0 <_ZL11follow_pathP3DIRPKc+0x128>
30005b2c:	08e50263          	beq	a0,a4,30005bb0 <_ZL11follow_pathP3DIRPKc+0x128>
30005b30:	00098913          	mv	s2,s3
30005b34:	00098b13          	mv	s6,s3
30005b38:	00100413          	li	s0,1
30005b3c:	07f00d13          	li	s10,127
30005b40:	02200c93          	li	s9,34
30005b44:	01f00c13          	li	s8,31
30005b48:	05c00b93          	li	s7,92
30005b4c:	0300006f          	j	30005b7c <_ZL11follow_pathP3DIRPKc+0xf4>
30005b50:	00140713          	addi	a4,s0,1
30005b54:	00ab1023          	sh	a0,0(s6)
30005b58:	00ea0ab3          	add	s5,s4,a4
30005b5c:	fffac503          	lbu	a0,-1(s5)
30005b60:	3cac7463          	bgeu	s8,a0,30005f28 <_ZL11follow_pathP3DIRPKc+0x4a0>
30005b64:	0a950a63          	beq	a0,s1,30005c18 <_ZL11follow_pathP3DIRPKc+0x190>
30005b68:	0b750863          	beq	a0,s7,30005c18 <_ZL11follow_pathP3DIRPKc+0x190>
30005b6c:	10000793          	li	a5,256
30005b70:	002b0b13          	addi	s6,s6,2
30005b74:	02f70e63          	beq	a4,a5,30005bb0 <_ZL11follow_pathP3DIRPKc+0x128>
30005b78:	00070413          	mv	s0,a4
30005b7c:	00100593          	li	a1,1
30005b80:	e68fe0ef          	jal	ra,300041e8 <ff_convert>
30005b84:	02050663          	beqz	a0,30005bb0 <_ZL11follow_pathP3DIRPKc+0x128>
30005b88:	fcad64e3          	bltu	s10,a0,30005b50 <_ZL11follow_pathP3DIRPKc+0xc8>
30005b8c:	03950263          	beq	a0,s9,30005bb0 <_ZL11follow_pathP3DIRPKc+0x128>
30005b90:	3000f7b7          	lui	a5,0x3000f
30005b94:	d7d78693          	addi	a3,a5,-643 # 3000ed7d <__clzsi2+0xa9>
30005b98:	02a00713          	li	a4,42
30005b9c:	00c0006f          	j	30005ba8 <_ZL11follow_pathP3DIRPKc+0x120>
30005ba0:	0006c703          	lbu	a4,0(a3)
30005ba4:	fa0706e3          	beqz	a4,30005b50 <_ZL11follow_pathP3DIRPKc+0xc8>
30005ba8:	00168693          	addi	a3,a3,1
30005bac:	fee51ae3          	bne	a0,a4,30005ba0 <_ZL11follow_pathP3DIRPKc+0x118>
30005bb0:	00600513          	li	a0,6
30005bb4:	04c12083          	lw	ra,76(sp)
30005bb8:	04812403          	lw	s0,72(sp)
30005bbc:	04412483          	lw	s1,68(sp)
30005bc0:	04012903          	lw	s2,64(sp)
30005bc4:	03c12983          	lw	s3,60(sp)
30005bc8:	03812a03          	lw	s4,56(sp)
30005bcc:	03412a83          	lw	s5,52(sp)
30005bd0:	03012b03          	lw	s6,48(sp)
30005bd4:	02c12b83          	lw	s7,44(sp)
30005bd8:	02812c03          	lw	s8,40(sp)
30005bdc:	02412c83          	lw	s9,36(sp)
30005be0:	02012d03          	lw	s10,32(sp)
30005be4:	01c12d83          	lw	s11,28(sp)
30005be8:	05010113          	addi	sp,sp,80
30005bec:	00008067          	ret
30005bf0:	001a0a13          	addi	s4,s4,1
30005bf4:	000da423          	sw	zero,8(s11)
30005bf8:	000a4683          	lbu	a3,0(s4)
30005bfc:	01f00713          	li	a4,31
30005c00:	eed766e3          	bltu	a4,a3,30005aec <_ZL11follow_pathP3DIRPKc+0x64>
30005c04:	00000593          	li	a1,0
30005c08:	000d8513          	mv	a0,s11
30005c0c:	bd0ff0ef          	jal	ra,30004fdc <_ZL7dir_sdiP3DIRt>
30005c10:	000daa23          	sw	zero,20(s11)
30005c14:	fa1ff06f          	j	30005bb4 <_ZL11follow_pathP3DIRPKc+0x12c>
30005c18:	00000b93          	li	s7,0
30005c1c:	00141793          	slli	a5,s0,0x1
30005c20:	00f987b3          	add	a5,s3,a5
30005c24:	02000593          	li	a1,32
30005c28:	02e00693          	li	a3,46
30005c2c:	ffe7d703          	lhu	a4,-2(a5)
30005c30:	ffe78793          	addi	a5,a5,-2
30005c34:	00b70463          	beq	a4,a1,30005c3c <_ZL11follow_pathP3DIRPKc+0x1b4>
30005c38:	00d71863          	bne	a4,a3,30005c48 <_ZL11follow_pathP3DIRPKc+0x1c0>
30005c3c:	fff40413          	addi	s0,s0,-1
30005c40:	fe0416e3          	bnez	s0,30005c2c <_ZL11follow_pathP3DIRPKc+0x1a4>
30005c44:	f6dff06f          	j	30005bb0 <_ZL11follow_pathP3DIRPKc+0x128>
30005c48:	018da783          	lw	a5,24(s11)
30005c4c:	00141713          	slli	a4,s0,0x1
30005c50:	00e98733          	add	a4,s3,a4
30005c54:	00071023          	sh	zero,0(a4)
30005c58:	02000693          	li	a3,32
30005c5c:	00d780a3          	sb	a3,1(a5)
30005c60:	00d78123          	sb	a3,2(a5)
30005c64:	00d781a3          	sb	a3,3(a5)
30005c68:	00d78223          	sb	a3,4(a5)
30005c6c:	00d782a3          	sb	a3,5(a5)
30005c70:	00d78323          	sb	a3,6(a5)
30005c74:	00d783a3          	sb	a3,7(a5)
30005c78:	00d78423          	sb	a3,8(a5)
30005c7c:	00d784a3          	sb	a3,9(a5)
30005c80:	00d78523          	sb	a3,10(a5)
30005c84:	00b78023          	sb	a1,0(a5)
30005c88:	00000b13          	li	s6,0
30005c8c:	02000693          	li	a3,32
30005c90:	02e00793          	li	a5,46
30005c94:	00095503          	lhu	a0,0(s2)
30005c98:	00290913          	addi	s2,s2,2
30005c9c:	00d50463          	beq	a0,a3,30005ca4 <_ZL11follow_pathP3DIRPKc+0x21c>
30005ca0:	00f51663          	bne	a0,a5,30005cac <_ZL11follow_pathP3DIRPKc+0x224>
30005ca4:	001b0b13          	addi	s6,s6,1
30005ca8:	fedff06f          	j	30005c94 <_ZL11follow_pathP3DIRPKc+0x20c>
30005cac:	000b0463          	beqz	s6,30005cb4 <_ZL11follow_pathP3DIRPKc+0x22c>
30005cb0:	003beb93          	ori	s7,s7,3
30005cb4:	00070793          	mv	a5,a4
30005cb8:	02e00693          	li	a3,46
30005cbc:	ffe7d703          	lhu	a4,-2(a5)
30005cc0:	ffe78793          	addi	a5,a5,-2
30005cc4:	00d70663          	beq	a4,a3,30005cd0 <_ZL11follow_pathP3DIRPKc+0x248>
30005cc8:	fff40413          	addi	s0,s0,-1
30005ccc:	fe0418e3          	bnez	s0,30005cbc <_ZL11follow_pathP3DIRPKc+0x234>
30005cd0:	001b0b13          	addi	s6,s6,1
30005cd4:	28050663          	beqz	a0,30005f60 <_ZL11follow_pathP3DIRPKc+0x4d8>
30005cd8:	00000c93          	li	s9,0
30005cdc:	00800c13          	li	s8,8
30005ce0:	00000d13          	li	s10,0
30005ce4:	02000813          	li	a6,32
30005ce8:	02e00693          	li	a3,46
30005cec:	00b00a13          	li	s4,11
30005cf0:	07f00913          	li	s2,127
30005cf4:	07050863          	beq	a0,a6,30005d64 <_ZL11follow_pathP3DIRPKc+0x2dc>
30005cf8:	06d50463          	beq	a0,a3,30005d60 <_ZL11follow_pathP3DIRPKc+0x2d8>
30005cfc:	178d7063          	bgeu	s10,s8,30005e5c <_ZL11follow_pathP3DIRPKc+0x3d4>
30005d00:	15640063          	beq	s0,s6,30005e40 <_ZL11follow_pathP3DIRPKc+0x3b8>
30005d04:	1ea96063          	bltu	s2,a0,30005ee4 <_ZL11follow_pathP3DIRPKc+0x45c>
30005d08:	02b00793          	li	a5,43
30005d0c:	20f50063          	beq	a0,a5,30005f0c <_ZL11follow_pathP3DIRPKc+0x484>
30005d10:	3000f7b7          	lui	a5,0x3000f
30005d14:	d8978793          	addi	a5,a5,-631 # 3000ed89 <__clzsi2+0xb5>
30005d18:	02c00713          	li	a4,44
30005d1c:	00178793          	addi	a5,a5,1
30005d20:	1ea70663          	beq	a4,a0,30005f0c <_ZL11follow_pathP3DIRPKc+0x484>
30005d24:	0007c703          	lbu	a4,0(a5)
30005d28:	fe071ae3          	bnez	a4,30005d1c <_ZL11follow_pathP3DIRPKc+0x294>
30005d2c:	fbf50793          	addi	a5,a0,-65
30005d30:	01079793          	slli	a5,a5,0x10
30005d34:	0107d793          	srli	a5,a5,0x10
30005d38:	01900713          	li	a4,25
30005d3c:	1ef77a63          	bgeu	a4,a5,30005f30 <_ZL11follow_pathP3DIRPKc+0x4a8>
30005d40:	f9f50793          	addi	a5,a0,-97
30005d44:	01079793          	slli	a5,a5,0x10
30005d48:	0107d793          	srli	a5,a5,0x10
30005d4c:	00f76663          	bltu	a4,a5,30005d58 <_ZL11follow_pathP3DIRPKc+0x2d0>
30005d50:	fe050513          	addi	a0,a0,-32
30005d54:	001cec93          	ori	s9,s9,1
30005d58:	0ff57513          	andi	a0,a0,255
30005d5c:	1b80006f          	j	30005f14 <_ZL11follow_pathP3DIRPKc+0x48c>
30005d60:	0f640063          	beq	s0,s6,30005e40 <_ZL11follow_pathP3DIRPKc+0x3b8>
30005d64:	003beb93          	ori	s7,s7,3
30005d68:	001b1793          	slli	a5,s6,0x1
30005d6c:	00f987b3          	add	a5,s3,a5
30005d70:	0007d503          	lhu	a0,0(a5)
30005d74:	001b0b13          	addi	s6,s6,1
30005d78:	f6051ee3          	bnez	a0,30005cf4 <_ZL11follow_pathP3DIRPKc+0x26c>
30005d7c:	018da783          	lw	a5,24(s11)
30005d80:	0e500713          	li	a4,229
30005d84:	0007c683          	lbu	a3,0(a5)
30005d88:	0ee68a63          	beq	a3,a4,30005e7c <_ZL11follow_pathP3DIRPKc+0x3f4>
30005d8c:	00800713          	li	a4,8
30005d90:	10ec0063          	beq	s8,a4,30005e90 <_ZL11follow_pathP3DIRPKc+0x408>
30005d94:	00ccf713          	andi	a4,s9,12
30005d98:	00c00693          	li	a3,12
30005d9c:	10d70863          	beq	a4,a3,30005eac <_ZL11follow_pathP3DIRPKc+0x424>
30005da0:	003cfc93          	andi	s9,s9,3
30005da4:	00300693          	li	a3,3
30005da8:	10dc8263          	beq	s9,a3,30005eac <_ZL11follow_pathP3DIRPKc+0x424>
30005dac:	002bf693          	andi	a3,s7,2
30005db0:	00069e63          	bnez	a3,30005dcc <_ZL11follow_pathP3DIRPKc+0x344>
30005db4:	00100693          	li	a3,1
30005db8:	00dc9463          	bne	s9,a3,30005dc0 <_ZL11follow_pathP3DIRPKc+0x338>
30005dbc:	010beb93          	ori	s7,s7,16
30005dc0:	00400693          	li	a3,4
30005dc4:	00d71463          	bne	a4,a3,30005dcc <_ZL11follow_pathP3DIRPKc+0x344>
30005dc8:	008beb93          	ori	s7,s7,8
30005dcc:	017785a3          	sb	s7,11(a5)
30005dd0:	00000593          	li	a1,0
30005dd4:	000d8513          	mv	a0,s11
30005dd8:	a04ff0ef          	jal	ra,30004fdc <_ZL7dir_sdiP3DIRt>
30005ddc:	0e051463          	bnez	a0,30005ec4 <_ZL11follow_pathP3DIRPKc+0x43c>
30005de0:	000d8513          	mv	a0,s11
30005de4:	fc0ff0ef          	jal	ra,300055a4 <_ZL8dir_findP3DIR.part.7>
30005de8:	018da783          	lw	a5,24(s11)
30005dec:	00b7c783          	lbu	a5,11(a5)
30005df0:	0c051e63          	bnez	a0,30005ecc <_ZL11follow_pathP3DIRPKc+0x444>
30005df4:	0047f793          	andi	a5,a5,4
30005df8:	da079ee3          	bnez	a5,30005bb4 <_ZL11follow_pathP3DIRPKc+0x12c>
30005dfc:	014da703          	lw	a4,20(s11)
30005e00:	00b74783          	lbu	a5,11(a4)
30005e04:	0107f793          	andi	a5,a5,16
30005e08:	0c078a63          	beqz	a5,30005edc <_ZL11follow_pathP3DIRPKc+0x454>
30005e0c:	01574783          	lbu	a5,21(a4)
30005e10:	01474583          	lbu	a1,20(a4)
30005e14:	01b74683          	lbu	a3,27(a4)
30005e18:	01a74603          	lbu	a2,26(a4)
30005e1c:	00879793          	slli	a5,a5,0x8
30005e20:	00b7e7b3          	or	a5,a5,a1
30005e24:	00869713          	slli	a4,a3,0x8
30005e28:	01079793          	slli	a5,a5,0x10
30005e2c:	00c76733          	or	a4,a4,a2
30005e30:	00e7e7b3          	or	a5,a5,a4
30005e34:	00fda423          	sw	a5,8(s11)
30005e38:	000a8a13          	mv	s4,s5
30005e3c:	cc1ff06f          	j	30005afc <_ZL11follow_pathP3DIRPKc+0x74>
30005e40:	0f4c0e63          	beq	s8,s4,30005f3c <_ZL11follow_pathP3DIRPKc+0x4b4>
30005e44:	002c9c93          	slli	s9,s9,0x2
30005e48:	0ffcfc93          	andi	s9,s9,255
30005e4c:	00040b13          	mv	s6,s0
30005e50:	00b00c13          	li	s8,11
30005e54:	00800d13          	li	s10,8
30005e58:	f11ff06f          	j	30005d68 <_ZL11follow_pathP3DIRPKc+0x2e0>
30005e5c:	0f4c0063          	beq	s8,s4,30005f3c <_ZL11follow_pathP3DIRPKc+0x4b4>
30005e60:	ff6402e3          	beq	s0,s6,30005e44 <_ZL11follow_pathP3DIRPKc+0x3bc>
30005e64:	003beb93          	ori	s7,s7,3
30005e68:	fd647ee3          	bgeu	s0,s6,30005e44 <_ZL11follow_pathP3DIRPKc+0x3bc>
30005e6c:	018da783          	lw	a5,24(s11)
30005e70:	0e500713          	li	a4,229
30005e74:	0007c683          	lbu	a3,0(a5)
30005e78:	f0e69ae3          	bne	a3,a4,30005d8c <_ZL11follow_pathP3DIRPKc+0x304>
30005e7c:	00500713          	li	a4,5
30005e80:	00e78023          	sb	a4,0(a5)
30005e84:	00800713          	li	a4,8
30005e88:	018da783          	lw	a5,24(s11)
30005e8c:	f0ec14e3          	bne	s8,a4,30005d94 <_ZL11follow_pathP3DIRPKc+0x30c>
30005e90:	002c9c93          	slli	s9,s9,0x2
30005e94:	00ccf713          	andi	a4,s9,12
30005e98:	00c00693          	li	a3,12
30005e9c:	00d70863          	beq	a4,a3,30005eac <_ZL11follow_pathP3DIRPKc+0x424>
30005ea0:	002bf693          	andi	a3,s7,2
30005ea4:	f0068ee3          	beqz	a3,30005dc0 <_ZL11follow_pathP3DIRPKc+0x338>
30005ea8:	f25ff06f          	j	30005dcc <_ZL11follow_pathP3DIRPKc+0x344>
30005eac:	002beb93          	ori	s7,s7,2
30005eb0:	017785a3          	sb	s7,11(a5)
30005eb4:	00000593          	li	a1,0
30005eb8:	000d8513          	mv	a0,s11
30005ebc:	920ff0ef          	jal	ra,30004fdc <_ZL7dir_sdiP3DIRt>
30005ec0:	f20500e3          	beqz	a0,30005de0 <_ZL11follow_pathP3DIRPKc+0x358>
30005ec4:	018da783          	lw	a5,24(s11)
30005ec8:	00b7c783          	lbu	a5,11(a5)
30005ecc:	00400713          	li	a4,4
30005ed0:	cee512e3          	bne	a0,a4,30005bb4 <_ZL11follow_pathP3DIRPKc+0x12c>
30005ed4:	0047f793          	andi	a5,a5,4
30005ed8:	cc079ee3          	bnez	a5,30005bb4 <_ZL11follow_pathP3DIRPKc+0x12c>
30005edc:	00500513          	li	a0,5
30005ee0:	cd5ff06f          	j	30005bb4 <_ZL11follow_pathP3DIRPKc+0x12c>
30005ee4:	00000593          	li	a1,0
30005ee8:	b00fe0ef          	jal	ra,300041e8 <ff_convert>
30005eec:	002beb93          	ori	s7,s7,2
30005ef0:	02000813          	li	a6,32
30005ef4:	02e00693          	li	a3,46
30005ef8:	00050a63          	beqz	a0,30005f0c <_ZL11follow_pathP3DIRPKc+0x484>
30005efc:	00c12783          	lw	a5,12(sp)
30005f00:	00a78533          	add	a0,a5,a0
30005f04:	f9054503          	lbu	a0,-112(a0)
30005f08:	e00510e3          	bnez	a0,30005d08 <_ZL11follow_pathP3DIRPKc+0x280>
30005f0c:	003beb93          	ori	s7,s7,3
30005f10:	05f00513          	li	a0,95
30005f14:	018da783          	lw	a5,24(s11)
30005f18:	01a787b3          	add	a5,a5,s10
30005f1c:	00a78023          	sb	a0,0(a5)
30005f20:	001d0d13          	addi	s10,s10,1
30005f24:	e45ff06f          	j	30005d68 <_ZL11follow_pathP3DIRPKc+0x2e0>
30005f28:	00400b93          	li	s7,4
30005f2c:	cf1ff06f          	j	30005c1c <_ZL11follow_pathP3DIRPKc+0x194>
30005f30:	002cec93          	ori	s9,s9,2
30005f34:	0ff57513          	andi	a0,a0,255
30005f38:	fddff06f          	j	30005f14 <_ZL11follow_pathP3DIRPKc+0x48c>
30005f3c:	018da783          	lw	a5,24(s11)
30005f40:	0e500713          	li	a4,229
30005f44:	003beb93          	ori	s7,s7,3
30005f48:	0007c683          	lbu	a3,0(a5)
30005f4c:	e4e694e3          	bne	a3,a4,30005d94 <_ZL11follow_pathP3DIRPKc+0x30c>
30005f50:	00500713          	li	a4,5
30005f54:	00e78023          	sb	a4,0(a5)
30005f58:	018da783          	lw	a5,24(s11)
30005f5c:	e39ff06f          	j	30005d94 <_ZL11follow_pathP3DIRPKc+0x30c>
30005f60:	018da783          	lw	a5,24(s11)
30005f64:	0e500713          	li	a4,229
30005f68:	0007c683          	lbu	a3,0(a5)
30005f6c:	00e68663          	beq	a3,a4,30005f78 <_ZL11follow_pathP3DIRPKc+0x4f0>
30005f70:	00000713          	li	a4,0
30005f74:	f2dff06f          	j	30005ea0 <_ZL11follow_pathP3DIRPKc+0x418>
30005f78:	00800c13          	li	s8,8
30005f7c:	00000c93          	li	s9,0
30005f80:	efdff06f          	j	30005e7c <_ZL11follow_pathP3DIRPKc+0x3f4>

30005f84 <_ZL8dir_readP3DIR>:
30005f84:	fb010113          	addi	sp,sp,-80
30005f88:	03912223          	sw	s9,36(sp)
30005f8c:	01052c83          	lw	s9,16(a0)
30005f90:	01b12e23          	sw	s11,28(sp)
30005f94:	04112623          	sw	ra,76(sp)
30005f98:	04812423          	sw	s0,72(sp)
30005f9c:	04912223          	sw	s1,68(sp)
30005fa0:	05212023          	sw	s2,64(sp)
30005fa4:	03312e23          	sw	s3,60(sp)
30005fa8:	03412c23          	sw	s4,56(sp)
30005fac:	03512a23          	sw	s5,52(sp)
30005fb0:	03612823          	sw	s6,48(sp)
30005fb4:	03712623          	sw	s7,44(sp)
30005fb8:	03812423          	sw	s8,40(sp)
30005fbc:	03a12023          	sw	s10,32(sp)
30005fc0:	00050d93          	mv	s11,a0
30005fc4:	2a0c8463          	beqz	s9,3000626c <_ZL8dir_readP3DIR+0x2e8>
30005fc8:	00010ab7          	lui	s5,0x10
30005fcc:	00052d03          	lw	s10,0(a0)
30005fd0:	fffa8793          	addi	a5,s5,-1 # ffff <stackPointer+0x92bf>
30005fd4:	0ff00b13          	li	s6,255
30005fd8:	0ff00493          	li	s1,255
30005fdc:	0e500913          	li	s2,229
30005fe0:	0ff00b93          	li	s7,255
30005fe4:	02e00993          	li	s3,46
30005fe8:	00f12623          	sw	a5,12(sp)
30005fec:	00f00a13          	li	s4,15
30005ff0:	02cd2403          	lw	s0,44(s10)
30005ff4:	028c8663          	beq	s9,s0,30006020 <_ZL8dir_readP3DIR+0x9c>
30005ff8:	004d4703          	lbu	a4,4(s10)
30005ffc:	001d4503          	lbu	a0,1(s10)
30006000:	030d0c13          	addi	s8,s10,48
30006004:	2c071a63          	bnez	a4,300062d8 <_ZL8dir_readP3DIR+0x354>
30006008:	00100693          	li	a3,1
3000600c:	000c8613          	mv	a2,s9
30006010:	000c0593          	mv	a1,s8
30006014:	a25fd0ef          	jal	ra,30003a38 <disk_read>
30006018:	2a051863          	bnez	a0,300062c8 <_ZL8dir_readP3DIR+0x344>
3000601c:	039d2623          	sw	s9,44(s10)
30006020:	014da703          	lw	a4,20(s11)
30006024:	00074783          	lbu	a5,0(a4)
30006028:	24078263          	beqz	a5,3000626c <_ZL8dir_readP3DIR+0x2e8>
3000602c:	01278e63          	beq	a5,s2,30006048 <_ZL8dir_readP3DIR+0xc4>
30006030:	01378c63          	beq	a5,s3,30006048 <_ZL8dir_readP3DIR+0xc4>
30006034:	00b74683          	lbu	a3,11(a4)
30006038:	0086f613          	andi	a2,a3,8
3000603c:	03f6f693          	andi	a3,a3,63
30006040:	06060263          	beqz	a2,300060a4 <_ZL8dir_readP3DIR+0x120>
30006044:	07468263          	beq	a3,s4,300060a8 <_ZL8dir_readP3DIR+0x124>
30006048:	006dd403          	lhu	s0,6(s11)
3000604c:	0ff00493          	li	s1,255
30006050:	00140413          	addi	s0,s0,1
30006054:	01041413          	slli	s0,s0,0x10
30006058:	01045413          	srli	s0,s0,0x10
3000605c:	20040863          	beqz	s0,3000626c <_ZL8dir_readP3DIR+0x2e8>
30006060:	010dac83          	lw	s9,16(s11)
30006064:	200c8463          	beqz	s9,3000626c <_ZL8dir_readP3DIR+0x2e8>
30006068:	00f47713          	andi	a4,s0,15
3000606c:	000dad03          	lw	s10,0(s11)
30006070:	24071063          	bnez	a4,300062b0 <_ZL8dir_readP3DIR+0x32c>
30006074:	00cda583          	lw	a1,12(s11)
30006078:	001c8c93          	addi	s9,s9,1
3000607c:	019da823          	sw	s9,16(s11)
30006080:	2c059463          	bnez	a1,30006348 <_ZL8dir_readP3DIR+0x3c4>
30006084:	008d5703          	lhu	a4,8(s10)
30006088:	1ee47263          	bgeu	s0,a4,3000626c <_ZL8dir_readP3DIR+0x2e8>
3000608c:	030d0713          	addi	a4,s10,48
30006090:	008d9323          	sh	s0,6(s11)
30006094:	00edaa23          	sw	a4,20(s11)
30006098:	f40c9ce3          	bnez	s9,30005ff0 <_ZL8dir_readP3DIR+0x6c>
3000609c:	00000513          	li	a0,0
300060a0:	1d40006f          	j	30006274 <_ZL8dir_readP3DIR+0x2f0>
300060a4:	49469a63          	bne	a3,s4,30006538 <_ZL8dir_readP3DIR+0x5b4>
300060a8:	0407f693          	andi	a3,a5,64
300060ac:	22068263          	beqz	a3,300062d0 <_ZL8dir_readP3DIR+0x34c>
300060b0:	006dd683          	lhu	a3,6(s11)
300060b4:	00d74b03          	lbu	s6,13(a4)
300060b8:	0bf7f493          	andi	s1,a5,191
300060bc:	02dd9023          	sh	a3,32(s11)
300060c0:	00d74783          	lbu	a5,13(a4)
300060c4:	f96792e3          	bne	a5,s6,30006048 <_ZL8dir_readP3DIR+0xc4>
300060c8:	00074783          	lbu	a5,0(a4)
300060cc:	00274603          	lbu	a2,2(a4)
300060d0:	00174583          	lbu	a1,1(a4)
300060d4:	03f7f793          	andi	a5,a5,63
300060d8:	fff78693          	addi	a3,a5,-1
300060dc:	00169793          	slli	a5,a3,0x1
300060e0:	00d787b3          	add	a5,a5,a3
300060e4:	00861613          	slli	a2,a2,0x8
300060e8:	00279793          	slli	a5,a5,0x2
300060ec:	00d787b3          	add	a5,a5,a3
300060f0:	00b666b3          	or	a3,a2,a1
300060f4:	0fe00613          	li	a2,254
300060f8:	01cda803          	lw	a6,28(s11)
300060fc:	f4f666e3          	bltu	a2,a5,30006048 <_ZL8dir_readP3DIR+0xc4>
30006100:	00179613          	slli	a2,a5,0x1
30006104:	00c80633          	add	a2,a6,a2
30006108:	00d61023          	sh	a3,0(a2)
3000610c:	00474603          	lbu	a2,4(a4)
30006110:	00374503          	lbu	a0,3(a4)
30006114:	00178593          	addi	a1,a5,1
30006118:	00861613          	slli	a2,a2,0x8
3000611c:	00a66633          	or	a2,a2,a0
30006120:	2a069063          	bnez	a3,300063c0 <_ZL8dir_readP3DIR+0x43c>
30006124:	00c12783          	lw	a5,12(sp)
30006128:	f2f610e3          	bne	a2,a5,30006048 <_ZL8dir_readP3DIR+0xc4>
3000612c:	00674683          	lbu	a3,6(a4)
30006130:	00574783          	lbu	a5,5(a4)
30006134:	00869693          	slli	a3,a3,0x8
30006138:	00f6e6b3          	or	a3,a3,a5
3000613c:	00c12783          	lw	a5,12(sp)
30006140:	f0f694e3          	bne	a3,a5,30006048 <_ZL8dir_readP3DIR+0xc4>
30006144:	00874603          	lbu	a2,8(a4)
30006148:	00774783          	lbu	a5,7(a4)
3000614c:	00861613          	slli	a2,a2,0x8
30006150:	00f66633          	or	a2,a2,a5
30006154:	00c12783          	lw	a5,12(sp)
30006158:	eef618e3          	bne	a2,a5,30006048 <_ZL8dir_readP3DIR+0xc4>
3000615c:	00a74683          	lbu	a3,10(a4)
30006160:	00974783          	lbu	a5,9(a4)
30006164:	00869693          	slli	a3,a3,0x8
30006168:	00f6e6b3          	or	a3,a3,a5
3000616c:	00c12783          	lw	a5,12(sp)
30006170:	ecf69ce3          	bne	a3,a5,30006048 <_ZL8dir_readP3DIR+0xc4>
30006174:	00f74603          	lbu	a2,15(a4)
30006178:	00e74783          	lbu	a5,14(a4)
3000617c:	00861613          	slli	a2,a2,0x8
30006180:	00f66633          	or	a2,a2,a5
30006184:	00c12783          	lw	a5,12(sp)
30006188:	ecf610e3          	bne	a2,a5,30006048 <_ZL8dir_readP3DIR+0xc4>
3000618c:	01174683          	lbu	a3,17(a4)
30006190:	01074783          	lbu	a5,16(a4)
30006194:	00869693          	slli	a3,a3,0x8
30006198:	00f6e6b3          	or	a3,a3,a5
3000619c:	00c12783          	lw	a5,12(sp)
300061a0:	eaf694e3          	bne	a3,a5,30006048 <_ZL8dir_readP3DIR+0xc4>
300061a4:	01374603          	lbu	a2,19(a4)
300061a8:	01274783          	lbu	a5,18(a4)
300061ac:	00861613          	slli	a2,a2,0x8
300061b0:	00f66633          	or	a2,a2,a5
300061b4:	00c12783          	lw	a5,12(sp)
300061b8:	e8f618e3          	bne	a2,a5,30006048 <_ZL8dir_readP3DIR+0xc4>
300061bc:	01574683          	lbu	a3,21(a4)
300061c0:	01474783          	lbu	a5,20(a4)
300061c4:	00869693          	slli	a3,a3,0x8
300061c8:	00f6e6b3          	or	a3,a3,a5
300061cc:	00c12783          	lw	a5,12(sp)
300061d0:	e6f69ce3          	bne	a3,a5,30006048 <_ZL8dir_readP3DIR+0xc4>
300061d4:	01774603          	lbu	a2,23(a4)
300061d8:	01674783          	lbu	a5,22(a4)
300061dc:	00861613          	slli	a2,a2,0x8
300061e0:	00f66633          	or	a2,a2,a5
300061e4:	00c12783          	lw	a5,12(sp)
300061e8:	e6f610e3          	bne	a2,a5,30006048 <_ZL8dir_readP3DIR+0xc4>
300061ec:	01974683          	lbu	a3,25(a4)
300061f0:	01874783          	lbu	a5,24(a4)
300061f4:	00869693          	slli	a3,a3,0x8
300061f8:	00f6e6b3          	or	a3,a3,a5
300061fc:	00c12783          	lw	a5,12(sp)
30006200:	e4f694e3          	bne	a3,a5,30006048 <_ZL8dir_readP3DIR+0xc4>
30006204:	01d74603          	lbu	a2,29(a4)
30006208:	01c74783          	lbu	a5,28(a4)
3000620c:	00861613          	slli	a2,a2,0x8
30006210:	00f66633          	or	a2,a2,a5
30006214:	00c12783          	lw	a5,12(sp)
30006218:	e2f618e3          	bne	a2,a5,30006048 <_ZL8dir_readP3DIR+0xc4>
3000621c:	01f74683          	lbu	a3,31(a4)
30006220:	01e74783          	lbu	a5,30(a4)
30006224:	00869693          	slli	a3,a3,0x8
30006228:	00f6e6b3          	or	a3,a3,a5
3000622c:	00c12783          	lw	a5,12(sp)
30006230:	e0f69ce3          	bne	a3,a5,30006048 <_ZL8dir_readP3DIR+0xc4>
30006234:	00074783          	lbu	a5,0(a4)
30006238:	0407f793          	andi	a5,a5,64
3000623c:	00078a63          	beqz	a5,30006250 <_ZL8dir_readP3DIR+0x2cc>
30006240:	e17584e3          	beq	a1,s7,30006048 <_ZL8dir_readP3DIR+0xc4>
30006244:	00159593          	slli	a1,a1,0x1
30006248:	00b80833          	add	a6,a6,a1
3000624c:	00081023          	sh	zero,0(a6)
30006250:	006dd403          	lhu	s0,6(s11)
30006254:	fff48493          	addi	s1,s1,-1
30006258:	0ff4f493          	andi	s1,s1,255
3000625c:	00140413          	addi	s0,s0,1
30006260:	01041413          	slli	s0,s0,0x10
30006264:	01045413          	srli	s0,s0,0x10
30006268:	de041ce3          	bnez	s0,30006060 <_ZL8dir_readP3DIR+0xdc>
3000626c:	00400513          	li	a0,4
30006270:	000da823          	sw	zero,16(s11)
30006274:	04c12083          	lw	ra,76(sp)
30006278:	04812403          	lw	s0,72(sp)
3000627c:	04412483          	lw	s1,68(sp)
30006280:	04012903          	lw	s2,64(sp)
30006284:	03c12983          	lw	s3,60(sp)
30006288:	03812a03          	lw	s4,56(sp)
3000628c:	03412a83          	lw	s5,52(sp)
30006290:	03012b03          	lw	s6,48(sp)
30006294:	02c12b83          	lw	s7,44(sp)
30006298:	02812c03          	lw	s8,40(sp)
3000629c:	02412c83          	lw	s9,36(sp)
300062a0:	02012d03          	lw	s10,32(sp)
300062a4:	01c12d83          	lw	s11,28(sp)
300062a8:	05010113          	addi	sp,sp,80
300062ac:	00008067          	ret
300062b0:	030d0693          	addi	a3,s10,48
300062b4:	00571713          	slli	a4,a4,0x5
300062b8:	00e68733          	add	a4,a3,a4
300062bc:	008d9323          	sh	s0,6(s11)
300062c0:	00edaa23          	sw	a4,20(s11)
300062c4:	d2dff06f          	j	30005ff0 <_ZL8dir_readP3DIR+0x6c>
300062c8:	00100513          	li	a0,1
300062cc:	fa5ff06f          	j	30006270 <_ZL8dir_readP3DIR+0x2ec>
300062d0:	d6979ce3          	bne	a5,s1,30006048 <_ZL8dir_readP3DIR+0xc4>
300062d4:	dedff06f          	j	300060c0 <_ZL8dir_readP3DIR+0x13c>
300062d8:	00100693          	li	a3,1
300062dc:	00040613          	mv	a2,s0
300062e0:	000c0593          	mv	a1,s8
300062e4:	8a5fd0ef          	jal	ra,30003b88 <disk_write>
300062e8:	fe0510e3          	bnez	a0,300062c8 <_ZL8dir_readP3DIR+0x344>
300062ec:	01cd2683          	lw	a3,28(s10)
300062f0:	020d2703          	lw	a4,32(s10)
300062f4:	000d0223          	sb	zero,4(s10)
300062f8:	001d4503          	lbu	a0,1(s10)
300062fc:	00e68733          	add	a4,a3,a4
30006300:	d0e474e3          	bgeu	s0,a4,30006008 <_ZL8dir_readP3DIR+0x84>
30006304:	003d4a83          	lbu	s5,3(s10)
30006308:	00100613          	li	a2,1
3000630c:	01566863          	bltu	a2,s5,3000631c <_ZL8dir_readP3DIR+0x398>
30006310:	cf9ff06f          	j	30006008 <_ZL8dir_readP3DIR+0x84>
30006314:	01cd2683          	lw	a3,28(s10)
30006318:	001d4503          	lbu	a0,1(s10)
3000631c:	00d40433          	add	s0,s0,a3
30006320:	00040613          	mv	a2,s0
30006324:	00100693          	li	a3,1
30006328:	000c0593          	mv	a1,s8
3000632c:	85dfd0ef          	jal	ra,30003b88 <disk_write>
30006330:	fffa8713          	addi	a4,s5,-1
30006334:	0ff77a93          	andi	s5,a4,255
30006338:	00100693          	li	a3,1
3000633c:	fcda9ce3          	bne	s5,a3,30006314 <_ZL8dir_readP3DIR+0x390>
30006340:	001d4503          	lbu	a0,1(s10)
30006344:	cc5ff06f          	j	30006008 <_ZL8dir_readP3DIR+0x84>
30006348:	002d4683          	lbu	a3,2(s10)
3000634c:	00445713          	srli	a4,s0,0x4
30006350:	fff68693          	addi	a3,a3,-1
30006354:	00e6f733          	and	a4,a3,a4
30006358:	d2071ae3          	bnez	a4,3000608c <_ZL8dir_readP3DIR+0x108>
3000635c:	00100c93          	li	s9,1
30006360:	04bcfc63          	bgeu	s9,a1,300063b8 <_ZL8dir_readP3DIR+0x434>
30006364:	018d2703          	lw	a4,24(s10)
30006368:	04e5f863          	bgeu	a1,a4,300063b8 <_ZL8dir_readP3DIR+0x434>
3000636c:	000d0513          	mv	a0,s10
30006370:	ab5fe0ef          	jal	ra,30004e24 <_Z7get_fatP5FATFSm.part.5>
30006374:	04acf263          	bgeu	s9,a0,300063b8 <_ZL8dir_readP3DIR+0x434>
30006378:	fff00793          	li	a5,-1
3000637c:	f4f506e3          	beq	a0,a5,300062c8 <_ZL8dir_readP3DIR+0x344>
30006380:	000dad03          	lw	s10,0(s11)
30006384:	018d2783          	lw	a5,24(s10)
30006388:	eef572e3          	bgeu	a0,a5,3000626c <_ZL8dir_readP3DIR+0x2e8>
3000638c:	00ada623          	sw	a0,12(s11)
30006390:	018d2783          	lw	a5,24(s10)
30006394:	ffe50513          	addi	a0,a0,-2
30006398:	ffe78793          	addi	a5,a5,-2
3000639c:	2af57463          	bgeu	a0,a5,30006644 <_ZL8dir_readP3DIR+0x6c0>
300063a0:	002d4783          	lbu	a5,2(s10)
300063a4:	028d2703          	lw	a4,40(s10)
300063a8:	02a78533          	mul	a0,a5,a0
300063ac:	00e50cb3          	add	s9,a0,a4
300063b0:	019da823          	sw	s9,16(s11)
300063b4:	cd9ff06f          	j	3000608c <_ZL8dir_readP3DIR+0x108>
300063b8:	00200513          	li	a0,2
300063bc:	eb5ff06f          	j	30006270 <_ZL8dir_readP3DIR+0x2ec>
300063c0:	c97584e3          	beq	a1,s7,30006048 <_ZL8dir_readP3DIR+0xc4>
300063c4:	00159593          	slli	a1,a1,0x1
300063c8:	00b80533          	add	a0,a6,a1
300063cc:	00c51023          	sh	a2,0(a0)
300063d0:	00674683          	lbu	a3,6(a4)
300063d4:	00574883          	lbu	a7,5(a4)
300063d8:	00278593          	addi	a1,a5,2
300063dc:	00869693          	slli	a3,a3,0x8
300063e0:	0116e6b3          	or	a3,a3,a7
300063e4:	d4060ce3          	beqz	a2,3000613c <_ZL8dir_readP3DIR+0x1b8>
300063e8:	c77580e3          	beq	a1,s7,30006048 <_ZL8dir_readP3DIR+0xc4>
300063ec:	00d51123          	sh	a3,2(a0)
300063f0:	00874603          	lbu	a2,8(a4)
300063f4:	00774883          	lbu	a7,7(a4)
300063f8:	00378593          	addi	a1,a5,3
300063fc:	00861613          	slli	a2,a2,0x8
30006400:	01166633          	or	a2,a2,a7
30006404:	d40688e3          	beqz	a3,30006154 <_ZL8dir_readP3DIR+0x1d0>
30006408:	c57580e3          	beq	a1,s7,30006048 <_ZL8dir_readP3DIR+0xc4>
3000640c:	00c51223          	sh	a2,4(a0)
30006410:	00a74683          	lbu	a3,10(a4)
30006414:	00974883          	lbu	a7,9(a4)
30006418:	00478593          	addi	a1,a5,4
3000641c:	00869693          	slli	a3,a3,0x8
30006420:	0116e6b3          	or	a3,a3,a7
30006424:	d40604e3          	beqz	a2,3000616c <_ZL8dir_readP3DIR+0x1e8>
30006428:	c37580e3          	beq	a1,s7,30006048 <_ZL8dir_readP3DIR+0xc4>
3000642c:	00d51323          	sh	a3,6(a0)
30006430:	00f74603          	lbu	a2,15(a4)
30006434:	00e74883          	lbu	a7,14(a4)
30006438:	00578593          	addi	a1,a5,5
3000643c:	00861613          	slli	a2,a2,0x8
30006440:	01166633          	or	a2,a2,a7
30006444:	d40680e3          	beqz	a3,30006184 <_ZL8dir_readP3DIR+0x200>
30006448:	c17580e3          	beq	a1,s7,30006048 <_ZL8dir_readP3DIR+0xc4>
3000644c:	00c51423          	sh	a2,8(a0)
30006450:	01174683          	lbu	a3,17(a4)
30006454:	01074883          	lbu	a7,16(a4)
30006458:	00678593          	addi	a1,a5,6
3000645c:	00869693          	slli	a3,a3,0x8
30006460:	0116e6b3          	or	a3,a3,a7
30006464:	d2060ce3          	beqz	a2,3000619c <_ZL8dir_readP3DIR+0x218>
30006468:	bf7580e3          	beq	a1,s7,30006048 <_ZL8dir_readP3DIR+0xc4>
3000646c:	00d51523          	sh	a3,10(a0)
30006470:	01374603          	lbu	a2,19(a4)
30006474:	01274883          	lbu	a7,18(a4)
30006478:	00778593          	addi	a1,a5,7
3000647c:	00861613          	slli	a2,a2,0x8
30006480:	01166633          	or	a2,a2,a7
30006484:	d20688e3          	beqz	a3,300061b4 <_ZL8dir_readP3DIR+0x230>
30006488:	bd7580e3          	beq	a1,s7,30006048 <_ZL8dir_readP3DIR+0xc4>
3000648c:	00c51623          	sh	a2,12(a0)
30006490:	01574683          	lbu	a3,21(a4)
30006494:	01474883          	lbu	a7,20(a4)
30006498:	00878593          	addi	a1,a5,8
3000649c:	00869693          	slli	a3,a3,0x8
300064a0:	0116e6b3          	or	a3,a3,a7
300064a4:	d20604e3          	beqz	a2,300061cc <_ZL8dir_readP3DIR+0x248>
300064a8:	bb7580e3          	beq	a1,s7,30006048 <_ZL8dir_readP3DIR+0xc4>
300064ac:	00d51723          	sh	a3,14(a0)
300064b0:	01774603          	lbu	a2,23(a4)
300064b4:	01674883          	lbu	a7,22(a4)
300064b8:	00978593          	addi	a1,a5,9
300064bc:	00861613          	slli	a2,a2,0x8
300064c0:	01166633          	or	a2,a2,a7
300064c4:	d20680e3          	beqz	a3,300061e4 <_ZL8dir_readP3DIR+0x260>
300064c8:	b97580e3          	beq	a1,s7,30006048 <_ZL8dir_readP3DIR+0xc4>
300064cc:	00c51823          	sh	a2,16(a0)
300064d0:	01974683          	lbu	a3,25(a4)
300064d4:	01874883          	lbu	a7,24(a4)
300064d8:	00a78593          	addi	a1,a5,10
300064dc:	00869693          	slli	a3,a3,0x8
300064e0:	0116e6b3          	or	a3,a3,a7
300064e4:	d0060ce3          	beqz	a2,300061fc <_ZL8dir_readP3DIR+0x278>
300064e8:	b77580e3          	beq	a1,s7,30006048 <_ZL8dir_readP3DIR+0xc4>
300064ec:	00d51923          	sh	a3,18(a0)
300064f0:	01d74603          	lbu	a2,29(a4)
300064f4:	01c74883          	lbu	a7,28(a4)
300064f8:	00b78593          	addi	a1,a5,11
300064fc:	00861613          	slli	a2,a2,0x8
30006500:	01166633          	or	a2,a2,a7
30006504:	d00688e3          	beqz	a3,30006214 <_ZL8dir_readP3DIR+0x290>
30006508:	b57580e3          	beq	a1,s7,30006048 <_ZL8dir_readP3DIR+0xc4>
3000650c:	00c51a23          	sh	a2,20(a0)
30006510:	01f74683          	lbu	a3,31(a4)
30006514:	01e74883          	lbu	a7,30(a4)
30006518:	00c78593          	addi	a1,a5,12
3000651c:	00869693          	slli	a3,a3,0x8
30006520:	0116e6b3          	or	a3,a3,a7
30006524:	d00604e3          	beqz	a2,3000622c <_ZL8dir_readP3DIR+0x2a8>
30006528:	b37580e3          	beq	a1,s7,30006048 <_ZL8dir_readP3DIR+0xc4>
3000652c:	00d78593          	addi	a1,a5,13
30006530:	00d51b23          	sh	a3,22(a0)
30006534:	d01ff06f          	j	30006234 <_ZL8dir_readP3DIR+0x2b0>
30006538:	00048a63          	beqz	s1,3000654c <_ZL8dir_readP3DIR+0x5c8>
3000653c:	fff00793          	li	a5,-1
30006540:	02fd9023          	sh	a5,32(s11)
30006544:	00000513          	li	a0,0
30006548:	d2dff06f          	j	30006274 <_ZL8dir_readP3DIR+0x2f0>
3000654c:	00174603          	lbu	a2,1(a4)
30006550:	00779693          	slli	a3,a5,0x7
30006554:	4017d793          	srai	a5,a5,0x1
30006558:	00c686b3          	add	a3,a3,a2
3000655c:	00f687b3          	add	a5,a3,a5
30006560:	00274603          	lbu	a2,2(a4)
30006564:	0ff7f793          	andi	a5,a5,255
30006568:	00779693          	slli	a3,a5,0x7
3000656c:	00c686b3          	add	a3,a3,a2
30006570:	0017d793          	srli	a5,a5,0x1
30006574:	00374603          	lbu	a2,3(a4)
30006578:	00f686b3          	add	a3,a3,a5
3000657c:	0ff6f693          	andi	a3,a3,255
30006580:	00769793          	slli	a5,a3,0x7
30006584:	00c787b3          	add	a5,a5,a2
30006588:	0016d693          	srli	a3,a3,0x1
3000658c:	00474603          	lbu	a2,4(a4)
30006590:	00d787b3          	add	a5,a5,a3
30006594:	0ff7f793          	andi	a5,a5,255
30006598:	00779693          	slli	a3,a5,0x7
3000659c:	00c686b3          	add	a3,a3,a2
300065a0:	0017d793          	srli	a5,a5,0x1
300065a4:	00574603          	lbu	a2,5(a4)
300065a8:	00f686b3          	add	a3,a3,a5
300065ac:	0ff6f693          	andi	a3,a3,255
300065b0:	00769793          	slli	a5,a3,0x7
300065b4:	00c787b3          	add	a5,a5,a2
300065b8:	0016d693          	srli	a3,a3,0x1
300065bc:	00674603          	lbu	a2,6(a4)
300065c0:	00d787b3          	add	a5,a5,a3
300065c4:	0ff7f793          	andi	a5,a5,255
300065c8:	00779693          	slli	a3,a5,0x7
300065cc:	00c686b3          	add	a3,a3,a2
300065d0:	0017d793          	srli	a5,a5,0x1
300065d4:	00774603          	lbu	a2,7(a4)
300065d8:	00f686b3          	add	a3,a3,a5
300065dc:	0ff6f693          	andi	a3,a3,255
300065e0:	00769793          	slli	a5,a3,0x7
300065e4:	00c787b3          	add	a5,a5,a2
300065e8:	0016d693          	srli	a3,a3,0x1
300065ec:	00874603          	lbu	a2,8(a4)
300065f0:	00d787b3          	add	a5,a5,a3
300065f4:	0ff7f793          	andi	a5,a5,255
300065f8:	00779693          	slli	a3,a5,0x7
300065fc:	00c686b3          	add	a3,a3,a2
30006600:	0017d793          	srli	a5,a5,0x1
30006604:	00f686b3          	add	a3,a3,a5
30006608:	00974603          	lbu	a2,9(a4)
3000660c:	0ff6f693          	andi	a3,a3,255
30006610:	00769793          	slli	a5,a3,0x7
30006614:	00c787b3          	add	a5,a5,a2
30006618:	0016d693          	srli	a3,a3,0x1
3000661c:	00d787b3          	add	a5,a5,a3
30006620:	00a74683          	lbu	a3,10(a4)
30006624:	0ff7f793          	andi	a5,a5,255
30006628:	00779713          	slli	a4,a5,0x7
3000662c:	00d70733          	add	a4,a4,a3
30006630:	0017d793          	srli	a5,a5,0x1
30006634:	00f707b3          	add	a5,a4,a5
30006638:	0ff7f793          	andi	a5,a5,255
3000663c:	f16790e3          	bne	a5,s6,3000653c <_ZL8dir_readP3DIR+0x5b8>
30006640:	a5dff06f          	j	3000609c <_ZL8dir_readP3DIR+0x118>
30006644:	030d0793          	addi	a5,s10,48
30006648:	000da823          	sw	zero,16(s11)
3000664c:	008d9323          	sh	s0,6(s11)
30006650:	00fdaa23          	sw	a5,20(s11)
30006654:	00000513          	li	a0,0
30006658:	c1dff06f          	j	30006274 <_ZL8dir_readP3DIR+0x2f0>

3000665c <_ZL12create_chainP5FATFSm>:
3000665c:	fd010113          	addi	sp,sp,-48
30006660:	02912223          	sw	s1,36(sp)
30006664:	01312e23          	sw	s3,28(sp)
30006668:	02112623          	sw	ra,44(sp)
3000666c:	02812423          	sw	s0,40(sp)
30006670:	03212023          	sw	s2,32(sp)
30006674:	01412c23          	sw	s4,24(sp)
30006678:	01512a23          	sw	s5,20(sp)
3000667c:	01612823          	sw	s6,16(sp)
30006680:	01712623          	sw	s7,12(sp)
30006684:	01812423          	sw	s8,8(sp)
30006688:	01912223          	sw	s9,4(sp)
3000668c:	01a12023          	sw	s10,0(sp)
30006690:	00058993          	mv	s3,a1
30006694:	00050493          	mv	s1,a0
30006698:	1c059463          	bnez	a1,30006860 <_ZL12create_chainP5FATFSm+0x204>
3000669c:	00c52b83          	lw	s7,12(a0)
300066a0:	01852783          	lw	a5,24(a0)
300066a4:	140b9c63          	bnez	s7,300067fc <_ZL12create_chainP5FATFSm+0x1a0>
300066a8:	00100b93          	li	s7,1
300066ac:	000b8413          	mv	s0,s7
300066b0:	10000a37          	lui	s4,0x10000
300066b4:	00001ab7          	lui	s5,0x1
300066b8:	00140413          	addi	s0,s0,1
300066bc:	00100b13          	li	s6,1
300066c0:	00200c93          	li	s9,2
300066c4:	00300913          	li	s2,3
300066c8:	fffa0a13          	addi	s4,s4,-1 # fffffff <stackPointer+0xfff92bf>
300066cc:	fffa8a93          	addi	s5,s5,-1 # fff <stackPointer-0x5d41>
300066d0:	0ef46463          	bltu	s0,a5,300067b8 <_ZL12create_chainP5FATFSm+0x15c>
300066d4:	1b7b7c63          	bgeu	s6,s7,3000688c <_ZL12create_chainP5FATFSm+0x230>
300066d8:	04fce263          	bltu	s9,a5,3000671c <_ZL12create_chainP5FATFSm+0xc0>
300066dc:	00100413          	li	s0,1
300066e0:	00040513          	mv	a0,s0
300066e4:	02c12083          	lw	ra,44(sp)
300066e8:	02812403          	lw	s0,40(sp)
300066ec:	02412483          	lw	s1,36(sp)
300066f0:	02012903          	lw	s2,32(sp)
300066f4:	01c12983          	lw	s3,28(sp)
300066f8:	01812a03          	lw	s4,24(sp)
300066fc:	01412a83          	lw	s5,20(sp)
30006700:	01012b03          	lw	s6,16(sp)
30006704:	00c12b83          	lw	s7,12(sp)
30006708:	00812c03          	lw	s8,8(sp)
3000670c:	00412c83          	lw	s9,4(sp)
30006710:	00012d03          	lw	s10,0(sp)
30006714:	03010113          	addi	sp,sp,48
30006718:	00008067          	ret
3000671c:	0004c783          	lbu	a5,0(s1)
30006720:	00200413          	li	s0,2
30006724:	0b978063          	beq	a5,s9,300067c4 <_ZL12create_chainP5FATFSm+0x168>
30006728:	0d278e63          	beq	a5,s2,30006804 <_ZL12create_chainP5FATFSm+0x1a8>
3000672c:	01678663          	beq	a5,s6,30006738 <_ZL12create_chainP5FATFSm+0xdc>
30006730:	fff00413          	li	s0,-1
30006734:	fadff06f          	j	300066e0 <_ZL12create_chainP5FATFSm+0x84>
30006738:	00145c13          	srli	s8,s0,0x1
3000673c:	0204a783          	lw	a5,32(s1)
30006740:	008c0c33          	add	s8,s8,s0
30006744:	009c5593          	srli	a1,s8,0x9
30006748:	00f585b3          	add	a1,a1,a5
3000674c:	00048513          	mv	a0,s1
30006750:	920fe0ef          	jal	ra,30004870 <_ZL11move_windowP5FATFSm>
30006754:	fc051ee3          	bnez	a0,30006730 <_ZL12create_chainP5FATFSm+0xd4>
30006758:	0204a783          	lw	a5,32(s1)
3000675c:	001c0d13          	addi	s10,s8,1
30006760:	009d5593          	srli	a1,s10,0x9
30006764:	1ffc7c13          	andi	s8,s8,511
30006768:	01848c33          	add	s8,s1,s8
3000676c:	00f585b3          	add	a1,a1,a5
30006770:	00048513          	mv	a0,s1
30006774:	030c4c03          	lbu	s8,48(s8)
30006778:	8f8fe0ef          	jal	ra,30004870 <_ZL11move_windowP5FATFSm>
3000677c:	fa051ae3          	bnez	a0,30006730 <_ZL12create_chainP5FATFSm+0xd4>
30006780:	1ffd7d13          	andi	s10,s10,511
30006784:	01a48d33          	add	s10,s1,s10
30006788:	030d4783          	lbu	a5,48(s10)
3000678c:	00147713          	andi	a4,s0,1
30006790:	00879793          	slli	a5,a5,0x8
30006794:	0187ec33          	or	s8,a5,s8
30006798:	015c77b3          	and	a5,s8,s5
3000679c:	0e071c63          	bnez	a4,30006894 <_ZL12create_chainP5FATFSm+0x238>
300067a0:	0e078e63          	beqz	a5,3000689c <_ZL12create_chainP5FATFSm+0x240>
300067a4:	f3678ce3          	beq	a5,s6,300066dc <_ZL12create_chainP5FATFSm+0x80>
300067a8:	0e8b8263          	beq	s7,s0,3000688c <_ZL12create_chainP5FATFSm+0x230>
300067ac:	0184a783          	lw	a5,24(s1)
300067b0:	00140413          	addi	s0,s0,1
300067b4:	f2f470e3          	bgeu	s0,a5,300066d4 <_ZL12create_chainP5FATFSm+0x78>
300067b8:	f28b72e3          	bgeu	s6,s0,300066dc <_ZL12create_chainP5FATFSm+0x80>
300067bc:	0004c783          	lbu	a5,0(s1)
300067c0:	f79794e3          	bne	a5,s9,30006728 <_ZL12create_chainP5FATFSm+0xcc>
300067c4:	0204a783          	lw	a5,32(s1)
300067c8:	00845593          	srli	a1,s0,0x8
300067cc:	00048513          	mv	a0,s1
300067d0:	00f585b3          	add	a1,a1,a5
300067d4:	89cfe0ef          	jal	ra,30004870 <_ZL11move_windowP5FATFSm>
300067d8:	f4051ce3          	bnez	a0,30006730 <_ZL12create_chainP5FATFSm+0xd4>
300067dc:	00141713          	slli	a4,s0,0x1
300067e0:	1fe77713          	andi	a4,a4,510
300067e4:	00e48733          	add	a4,s1,a4
300067e8:	03174783          	lbu	a5,49(a4)
300067ec:	03074703          	lbu	a4,48(a4)
300067f0:	00879793          	slli	a5,a5,0x8
300067f4:	00e7e7b3          	or	a5,a5,a4
300067f8:	fa9ff06f          	j	300067a0 <_ZL12create_chainP5FATFSm+0x144>
300067fc:	eafbe8e3          	bltu	s7,a5,300066ac <_ZL12create_chainP5FATFSm+0x50>
30006800:	ea9ff06f          	j	300066a8 <_ZL12create_chainP5FATFSm+0x4c>
30006804:	0204a783          	lw	a5,32(s1)
30006808:	00745593          	srli	a1,s0,0x7
3000680c:	00048513          	mv	a0,s1
30006810:	00f585b3          	add	a1,a1,a5
30006814:	85cfe0ef          	jal	ra,30004870 <_ZL11move_windowP5FATFSm>
30006818:	f0051ce3          	bnez	a0,30006730 <_ZL12create_chainP5FATFSm+0xd4>
3000681c:	00241713          	slli	a4,s0,0x2
30006820:	1fc77713          	andi	a4,a4,508
30006824:	03070693          	addi	a3,a4,48
30006828:	00d486b3          	add	a3,s1,a3
3000682c:	0036c783          	lbu	a5,3(a3)
30006830:	0026c603          	lbu	a2,2(a3)
30006834:	00e48733          	add	a4,s1,a4
30006838:	03074583          	lbu	a1,48(a4)
3000683c:	0016c703          	lbu	a4,1(a3)
30006840:	01879793          	slli	a5,a5,0x18
30006844:	01061693          	slli	a3,a2,0x10
30006848:	00d7e7b3          	or	a5,a5,a3
3000684c:	00b7e7b3          	or	a5,a5,a1
30006850:	00871713          	slli	a4,a4,0x8
30006854:	00e7e7b3          	or	a5,a5,a4
30006858:	0147f7b3          	and	a5,a5,s4
3000685c:	f45ff06f          	j	300067a0 <_ZL12create_chainP5FATFSm+0x144>
30006860:	00100913          	li	s2,1
30006864:	e6b97ce3          	bgeu	s2,a1,300066dc <_ZL12create_chainP5FATFSm+0x80>
30006868:	01852783          	lw	a5,24(a0)
3000686c:	e6f5f8e3          	bgeu	a1,a5,300066dc <_ZL12create_chainP5FATFSm+0x80>
30006870:	db4fe0ef          	jal	ra,30004e24 <_Z7get_fatP5FATFSm.part.5>
30006874:	00050413          	mv	s0,a0
30006878:	e6a972e3          	bgeu	s2,a0,300066dc <_ZL12create_chainP5FATFSm+0x80>
3000687c:	0184a783          	lw	a5,24(s1)
30006880:	00098b93          	mv	s7,s3
30006884:	e2f574e3          	bgeu	a0,a5,300066ac <_ZL12create_chainP5FATFSm+0x50>
30006888:	e59ff06f          	j	300066e0 <_ZL12create_chainP5FATFSm+0x84>
3000688c:	00000413          	li	s0,0
30006890:	e51ff06f          	j	300066e0 <_ZL12create_chainP5FATFSm+0x84>
30006894:	004c5793          	srli	a5,s8,0x4
30006898:	f09ff06f          	j	300067a0 <_ZL12create_chainP5FATFSm+0x144>
3000689c:	0184a783          	lw	a5,24(s1)
300068a0:	e2f47ee3          	bgeu	s0,a5,300066dc <_ZL12create_chainP5FATFSm+0x80>
300068a4:	10000637          	lui	a2,0x10000
300068a8:	fff60613          	addi	a2,a2,-1 # fffffff <stackPointer+0xfff92bf>
300068ac:	00040593          	mv	a1,s0
300068b0:	00048513          	mv	a0,s1
300068b4:	891fe0ef          	jal	ra,30005144 <_Z7put_fatP5FATFSmm.part.6>
300068b8:	00050a63          	beqz	a0,300068cc <_ZL12create_chainP5FATFSm+0x270>
300068bc:	00100793          	li	a5,1
300068c0:	e0f51ee3          	bne	a0,a5,300066dc <_ZL12create_chainP5FATFSm+0x80>
300068c4:	fff00413          	li	s0,-1
300068c8:	e19ff06f          	j	300066e0 <_ZL12create_chainP5FATFSm+0x84>
300068cc:	02098463          	beqz	s3,300068f4 <_ZL12create_chainP5FATFSm+0x298>
300068d0:	00100793          	li	a5,1
300068d4:	e137f4e3          	bgeu	a5,s3,300066dc <_ZL12create_chainP5FATFSm+0x80>
300068d8:	0184a783          	lw	a5,24(s1)
300068dc:	e0f9f0e3          	bgeu	s3,a5,300066dc <_ZL12create_chainP5FATFSm+0x80>
300068e0:	00040613          	mv	a2,s0
300068e4:	00098593          	mv	a1,s3
300068e8:	00048513          	mv	a0,s1
300068ec:	859fe0ef          	jal	ra,30005144 <_Z7put_fatP5FATFSmm.part.6>
300068f0:	fc0516e3          	bnez	a0,300068bc <_ZL12create_chainP5FATFSm+0x260>
300068f4:	0104a783          	lw	a5,16(s1)
300068f8:	0084a623          	sw	s0,12(s1)
300068fc:	fff00713          	li	a4,-1
30006900:	dee780e3          	beq	a5,a4,300066e0 <_ZL12create_chainP5FATFSm+0x84>
30006904:	fff78793          	addi	a5,a5,-1
30006908:	00f4a823          	sw	a5,16(s1)
3000690c:	00100793          	li	a5,1
30006910:	00f482a3          	sb	a5,5(s1)
30006914:	dcdff06f          	j	300066e0 <_ZL12create_chainP5FATFSm+0x84>

30006918 <_ZL12remove_chainP5FATFSm.part.8>:
30006918:	fd010113          	addi	sp,sp,-48
3000691c:	01312e23          	sw	s3,28(sp)
30006920:	01412c23          	sw	s4,24(sp)
30006924:	100009b7          	lui	s3,0x10000
30006928:	00001a37          	lui	s4,0x1
3000692c:	02812423          	sw	s0,40(sp)
30006930:	02912223          	sw	s1,36(sp)
30006934:	01512a23          	sw	s5,20(sp)
30006938:	01612823          	sw	s6,16(sp)
3000693c:	01712623          	sw	s7,12(sp)
30006940:	01812423          	sw	s8,8(sp)
30006944:	02112623          	sw	ra,44(sp)
30006948:	03212023          	sw	s2,32(sp)
3000694c:	01912223          	sw	s9,4(sp)
30006950:	00050413          	mv	s0,a0
30006954:	00058493          	mv	s1,a1
30006958:	00100c13          	li	s8,1
3000695c:	00200b13          	li	s6,2
30006960:	00300a93          	li	s5,3
30006964:	fff98993          	addi	s3,s3,-1 # fffffff <stackPointer+0xfff92bf>
30006968:	fffa0a13          	addi	s4,s4,-1 # fff <stackPointer-0x5d41>
3000696c:	fff00b93          	li	s7,-1
30006970:	01842783          	lw	a5,24(s0)
30006974:	18f4fa63          	bgeu	s1,a5,30006b08 <_ZL12remove_chainP5FATFSm.part.8+0x1f0>
30006978:	049c7663          	bgeu	s8,s1,300069c4 <_ZL12remove_chainP5FATFSm.part.8+0xac>
3000697c:	00044783          	lbu	a5,0(s0)
30006980:	15678863          	beq	a5,s6,30006ad0 <_ZL12remove_chainP5FATFSm.part.8+0x1b8>
30006984:	0f578863          	beq	a5,s5,30006a74 <_ZL12remove_chainP5FATFSm.part.8+0x15c>
30006988:	05878263          	beq	a5,s8,300069cc <_ZL12remove_chainP5FATFSm.part.8+0xb4>
3000698c:	00100513          	li	a0,1
30006990:	02c12083          	lw	ra,44(sp)
30006994:	02812403          	lw	s0,40(sp)
30006998:	02412483          	lw	s1,36(sp)
3000699c:	02012903          	lw	s2,32(sp)
300069a0:	01c12983          	lw	s3,28(sp)
300069a4:	01812a03          	lw	s4,24(sp)
300069a8:	01412a83          	lw	s5,20(sp)
300069ac:	01012b03          	lw	s6,16(sp)
300069b0:	00c12b83          	lw	s7,12(sp)
300069b4:	00812c03          	lw	s8,8(sp)
300069b8:	00412c83          	lw	s9,4(sp)
300069bc:	03010113          	addi	sp,sp,48
300069c0:	00008067          	ret
300069c4:	00200513          	li	a0,2
300069c8:	fc9ff06f          	j	30006990 <_ZL12remove_chainP5FATFSm.part.8+0x78>
300069cc:	0014d913          	srli	s2,s1,0x1
300069d0:	02042783          	lw	a5,32(s0)
300069d4:	00990933          	add	s2,s2,s1
300069d8:	00995593          	srli	a1,s2,0x9
300069dc:	00f585b3          	add	a1,a1,a5
300069e0:	00040513          	mv	a0,s0
300069e4:	e8dfd0ef          	jal	ra,30004870 <_ZL11move_windowP5FATFSm>
300069e8:	fa0512e3          	bnez	a0,3000698c <_ZL12remove_chainP5FATFSm.part.8+0x74>
300069ec:	02042783          	lw	a5,32(s0)
300069f0:	00190c93          	addi	s9,s2,1
300069f4:	009cd593          	srli	a1,s9,0x9
300069f8:	1ff97913          	andi	s2,s2,511
300069fc:	01240933          	add	s2,s0,s2
30006a00:	00f585b3          	add	a1,a1,a5
30006a04:	00040513          	mv	a0,s0
30006a08:	03094903          	lbu	s2,48(s2)
30006a0c:	e65fd0ef          	jal	ra,30004870 <_ZL11move_windowP5FATFSm>
30006a10:	f6051ee3          	bnez	a0,3000698c <_ZL12remove_chainP5FATFSm.part.8+0x74>
30006a14:	1ffcfc93          	andi	s9,s9,511
30006a18:	01940cb3          	add	s9,s0,s9
30006a1c:	030cc783          	lbu	a5,48(s9)
30006a20:	0014f713          	andi	a4,s1,1
30006a24:	00879793          	slli	a5,a5,0x8
30006a28:	0127e7b3          	or	a5,a5,s2
30006a2c:	0147f933          	and	s2,a5,s4
30006a30:	0e071063          	bnez	a4,30006b10 <_ZL12remove_chainP5FATFSm.part.8+0x1f8>
30006a34:	0c090a63          	beqz	s2,30006b08 <_ZL12remove_chainP5FATFSm.part.8+0x1f0>
30006a38:	f98906e3          	beq	s2,s8,300069c4 <_ZL12remove_chainP5FATFSm.part.8+0xac>
30006a3c:	01842783          	lw	a5,24(s0)
30006a40:	f8f4f2e3          	bgeu	s1,a5,300069c4 <_ZL12remove_chainP5FATFSm.part.8+0xac>
30006a44:	00000613          	li	a2,0
30006a48:	00048593          	mv	a1,s1
30006a4c:	00040513          	mv	a0,s0
30006a50:	ef4fe0ef          	jal	ra,30005144 <_Z7put_fatP5FATFSmm.part.6>
30006a54:	f2051ee3          	bnez	a0,30006990 <_ZL12remove_chainP5FATFSm.part.8+0x78>
30006a58:	01042783          	lw	a5,16(s0)
30006a5c:	01778863          	beq	a5,s7,30006a6c <_ZL12remove_chainP5FATFSm.part.8+0x154>
30006a60:	00178793          	addi	a5,a5,1
30006a64:	00f42823          	sw	a5,16(s0)
30006a68:	018402a3          	sb	s8,5(s0)
30006a6c:	00090493          	mv	s1,s2
30006a70:	f01ff06f          	j	30006970 <_ZL12remove_chainP5FATFSm.part.8+0x58>
30006a74:	02042783          	lw	a5,32(s0)
30006a78:	0074d593          	srli	a1,s1,0x7
30006a7c:	00040513          	mv	a0,s0
30006a80:	00f585b3          	add	a1,a1,a5
30006a84:	dedfd0ef          	jal	ra,30004870 <_ZL11move_windowP5FATFSm>
30006a88:	f00512e3          	bnez	a0,3000698c <_ZL12remove_chainP5FATFSm.part.8+0x74>
30006a8c:	00249793          	slli	a5,s1,0x2
30006a90:	1fc7f793          	andi	a5,a5,508
30006a94:	03078713          	addi	a4,a5,48
30006a98:	00e40733          	add	a4,s0,a4
30006a9c:	00374903          	lbu	s2,3(a4)
30006aa0:	00274683          	lbu	a3,2(a4)
30006aa4:	00f407b3          	add	a5,s0,a5
30006aa8:	0307c603          	lbu	a2,48(a5)
30006aac:	00174783          	lbu	a5,1(a4)
30006ab0:	01891913          	slli	s2,s2,0x18
30006ab4:	01069713          	slli	a4,a3,0x10
30006ab8:	00e96933          	or	s2,s2,a4
30006abc:	00c96933          	or	s2,s2,a2
30006ac0:	00879793          	slli	a5,a5,0x8
30006ac4:	00f96933          	or	s2,s2,a5
30006ac8:	01397933          	and	s2,s2,s3
30006acc:	f69ff06f          	j	30006a34 <_ZL12remove_chainP5FATFSm.part.8+0x11c>
30006ad0:	02042783          	lw	a5,32(s0)
30006ad4:	0084d593          	srli	a1,s1,0x8
30006ad8:	00040513          	mv	a0,s0
30006adc:	00f585b3          	add	a1,a1,a5
30006ae0:	d91fd0ef          	jal	ra,30004870 <_ZL11move_windowP5FATFSm>
30006ae4:	ea0514e3          	bnez	a0,3000698c <_ZL12remove_chainP5FATFSm.part.8+0x74>
30006ae8:	00149793          	slli	a5,s1,0x1
30006aec:	1fe7f793          	andi	a5,a5,510
30006af0:	00f407b3          	add	a5,s0,a5
30006af4:	0317c903          	lbu	s2,49(a5)
30006af8:	0307c783          	lbu	a5,48(a5)
30006afc:	00891913          	slli	s2,s2,0x8
30006b00:	00f96933          	or	s2,s2,a5
30006b04:	f31ff06f          	j	30006a34 <_ZL12remove_chainP5FATFSm.part.8+0x11c>
30006b08:	00000513          	li	a0,0
30006b0c:	e85ff06f          	j	30006990 <_ZL12remove_chainP5FATFSm.part.8+0x78>
30006b10:	0047d913          	srli	s2,a5,0x4
30006b14:	f21ff06f          	j	30006a34 <_ZL12remove_chainP5FATFSm.part.8+0x11c>

30006b18 <_ZL12dir_registerP3DIR>:
30006b18:	f7010113          	addi	sp,sp,-144
30006b1c:	07612823          	sw	s6,112(sp)
30006b20:	01852b03          	lw	s6,24(a0)
30006b24:	07512a23          	sw	s5,116(sp)
30006b28:	07a12023          	sw	s10,96(sp)
30006b2c:	08112623          	sw	ra,140(sp)
30006b30:	08812423          	sw	s0,136(sp)
30006b34:	08912223          	sw	s1,132(sp)
30006b38:	09212023          	sw	s2,128(sp)
30006b3c:	07312e23          	sw	s3,124(sp)
30006b40:	07412c23          	sw	s4,120(sp)
30006b44:	07712623          	sw	s7,108(sp)
30006b48:	07812423          	sw	s8,104(sp)
30006b4c:	07912223          	sw	s9,100(sp)
30006b50:	05b12e23          	sw	s11,92(sp)
30006b54:	00bb4703          	lbu	a4,11(s6)
30006b58:	000b4283          	lbu	t0,0(s6)
30006b5c:	001b4f83          	lbu	t6,1(s6)
30006b60:	002b4f03          	lbu	t5,2(s6)
30006b64:	003b4e83          	lbu	t4,3(s6)
30006b68:	01c52a83          	lw	s5,28(a0)
30006b6c:	005b4303          	lbu	t1,5(s6)
30006b70:	006b4883          	lbu	a7,6(s6)
30006b74:	008b4583          	lbu	a1,8(s6)
30006b78:	009b4603          	lbu	a2,9(s6)
30006b7c:	00ab4683          	lbu	a3,10(s6)
30006b80:	00050d13          	mv	s10,a0
30006b84:	004b4e03          	lbu	t3,4(s6)
30006b88:	007b4503          	lbu	a0,7(s6)
30006b8c:	02e12623          	sw	a4,44(sp)
30006b90:	04510223          	sb	t0,68(sp)
30006b94:	05f102a3          	sb	t6,69(sp)
30006b98:	05e10323          	sb	t5,70(sp)
30006b9c:	05d103a3          	sb	t4,71(sp)
30006ba0:	05c10423          	sb	t3,72(sp)
30006ba4:	04e107a3          	sb	a4,79(sp)
30006ba8:	046104a3          	sb	t1,73(sp)
30006bac:	05110523          	sb	a7,74(sp)
30006bb0:	04a105a3          	sb	a0,75(sp)
30006bb4:	04b10623          	sb	a1,76(sp)
30006bb8:	04c106a3          	sb	a2,77(sp)
30006bbc:	04d10723          	sb	a3,78(sp)
30006bc0:	00177713          	andi	a4,a4,1
30006bc4:	36070463          	beqz	a4,30006f2c <_ZL12dir_registerP3DIR+0x414>
30006bc8:	0fff7793          	andi	a5,t5,255
30006bcc:	00f12823          	sw	a5,16(sp)
30006bd0:	0ffe7793          	andi	a5,t3,255
30006bd4:	00f12a23          	sw	a5,20(sp)
30006bd8:	0ff37793          	andi	a5,t1,255
30006bdc:	00f12623          	sw	a5,12(sp)
30006be0:	0ff8f793          	andi	a5,a7,255
30006be4:	00f12e23          	sw	a5,28(sp)
30006be8:	0ff57793          	andi	a5,a0,255
30006bec:	00f12c23          	sw	a5,24(sp)
30006bf0:	0ff5f793          	andi	a5,a1,255
30006bf4:	02f12023          	sw	a5,32(sp)
30006bf8:	0ff67793          	andi	a5,a2,255
30006bfc:	02f12223          	sw	a5,36(sp)
30006c00:	000b05a3          	sb	zero,11(s6)
30006c04:	0ff6f793          	andi	a5,a3,255
30006c08:	0ff2f993          	andi	s3,t0,255
30006c0c:	0ffffd93          	andi	s11,t6,255
30006c10:	0ffefc93          	andi	s9,t4,255
30006c14:	02f12423          	sw	a5,40(sp)
30006c18:	000d2e23          	sw	zero,28(s10)
30006c1c:	00100c13          	li	s8,1
30006c20:	03900413          	li	s0,57
30006c24:	00f00493          	li	s1,15
30006c28:	00800b93          	li	s7,8
30006c2c:	02000913          	li	s2,32
30006c30:	00700a13          	li	s4,7
30006c34:	01012783          	lw	a5,16(sp)
30006c38:	013b0023          	sb	s3,0(s6)
30006c3c:	01bb00a3          	sb	s11,1(s6)
30006c40:	00fb0123          	sb	a5,2(s6)
30006c44:	01412783          	lw	a5,20(sp)
30006c48:	019b01a3          	sb	s9,3(s6)
30006c4c:	000c0713          	mv	a4,s8
30006c50:	00fb0223          	sb	a5,4(s6)
30006c54:	00c12783          	lw	a5,12(sp)
30006c58:	00fb02a3          	sb	a5,5(s6)
30006c5c:	01c12783          	lw	a5,28(sp)
30006c60:	00fb0323          	sb	a5,6(s6)
30006c64:	01812783          	lw	a5,24(sp)
30006c68:	00fb03a3          	sb	a5,7(s6)
30006c6c:	02012783          	lw	a5,32(sp)
30006c70:	00fb0423          	sb	a5,8(s6)
30006c74:	02412783          	lw	a5,36(sp)
30006c78:	00fb04a3          	sb	a5,9(s6)
30006c7c:	02812783          	lw	a5,40(sp)
30006c80:	00fb0523          	sb	a5,10(s6)
30006c84:	00500793          	li	a5,5
30006c88:	0387f863          	bgeu	a5,s8,30006cb8 <_ZL12dir_registerP3DIR+0x1a0>
30006c8c:	000ad503          	lhu	a0,0(s5)
30006c90:	000a8593          	mv	a1,s5
30006c94:	00f71613          	slli	a2,a4,0xf
30006c98:	00258593          	addi	a1,a1,2
30006c9c:	00c50633          	add	a2,a0,a2
30006ca0:	40175713          	srai	a4,a4,0x1
30006ca4:	0005d503          	lhu	a0,0(a1)
30006ca8:	00e60733          	add	a4,a2,a4
30006cac:	01071713          	slli	a4,a4,0x10
30006cb0:	01075713          	srli	a4,a4,0x10
30006cb4:	fe0510e3          	bnez	a0,30006c94 <_ZL12dir_registerP3DIR+0x17c>
30006cb8:	00f77613          	andi	a2,a4,15
30006cbc:	03060593          	addi	a1,a2,48
30006cc0:	00b47463          	bgeu	s0,a1,30006cc8 <_ZL12dir_registerP3DIR+0x1b0>
30006cc4:	03760593          	addi	a1,a2,55
30006cc8:	00475613          	srli	a2,a4,0x4
30006ccc:	01061613          	slli	a2,a2,0x10
30006cd0:	04b101a3          	sb	a1,67(sp)
30006cd4:	01065613          	srli	a2,a2,0x10
30006cd8:	1ee4f663          	bgeu	s1,a4,30006ec4 <_ZL12dir_registerP3DIR+0x3ac>
30006cdc:	00f67593          	andi	a1,a2,15
30006ce0:	03058513          	addi	a0,a1,48
30006ce4:	00a47463          	bgeu	s0,a0,30006cec <_ZL12dir_registerP3DIR+0x1d4>
30006ce8:	03758513          	addi	a0,a1,55
30006cec:	00875593          	srli	a1,a4,0x8
30006cf0:	01059593          	slli	a1,a1,0x10
30006cf4:	04a10123          	sb	a0,66(sp)
30006cf8:	0105d593          	srli	a1,a1,0x10
30006cfc:	1ec4fa63          	bgeu	s1,a2,30006ef0 <_ZL12dir_registerP3DIR+0x3d8>
30006d00:	00f5f513          	andi	a0,a1,15
30006d04:	03050613          	addi	a2,a0,48
30006d08:	00c47463          	bgeu	s0,a2,30006d10 <_ZL12dir_registerP3DIR+0x1f8>
30006d0c:	03750613          	addi	a2,a0,55
30006d10:	00c75713          	srli	a4,a4,0xc
30006d14:	01071713          	slli	a4,a4,0x10
30006d18:	04c100a3          	sb	a2,65(sp)
30006d1c:	01075713          	srli	a4,a4,0x10
30006d20:	1eb4f263          	bgeu	s1,a1,30006f04 <_ZL12dir_registerP3DIR+0x3ec>
30006d24:	0ff77713          	andi	a4,a4,255
30006d28:	03070613          	addi	a2,a4,48
30006d2c:	0ff67613          	andi	a2,a2,255
30006d30:	00c47663          	bgeu	s0,a2,30006d3c <_ZL12dir_registerP3DIR+0x224>
30006d34:	03770713          	addi	a4,a4,55
30006d38:	0ff77613          	andi	a2,a4,255
30006d3c:	07e00713          	li	a4,126
30006d40:	04c10023          	sb	a2,64(sp)
30006d44:	02e10fa3          	sb	a4,63(sp)
30006d48:	00300613          	li	a2,3
30006d4c:	19298463          	beq	s3,s2,30006ed4 <_ZL12dir_registerP3DIR+0x3bc>
30006d50:	00000713          	li	a4,0
30006d54:	00c0006f          	j	30006d60 <_ZL12dir_registerP3DIR+0x248>
30006d58:	0005c503          	lbu	a0,0(a1)
30006d5c:	01250863          	beq	a0,s2,30006d6c <_ZL12dir_registerP3DIR+0x254>
30006d60:	00170713          	addi	a4,a4,1
30006d64:	00eb05b3          	add	a1,s6,a4
30006d68:	fec718e3          	bne	a4,a2,30006d58 <_ZL12dir_registerP3DIR+0x240>
30006d6c:	05010793          	addi	a5,sp,80
30006d70:	00c78533          	add	a0,a5,a2
30006d74:	fec54303          	lbu	t1,-20(a0)
30006d78:	00170713          	addi	a4,a4,1
30006d7c:	00160513          	addi	a0,a2,1
30006d80:	00658023          	sb	t1,0(a1)
30006d84:	0cea6263          	bltu	s4,a4,30006e48 <_ZL12dir_registerP3DIR+0x330>
30006d88:	05010793          	addi	a5,sp,80
30006d8c:	00a78633          	add	a2,a5,a0
30006d90:	fec64303          	lbu	t1,-20(a2)
30006d94:	00eb0633          	add	a2,s6,a4
30006d98:	00170593          	addi	a1,a4,1
30006d9c:	00660023          	sb	t1,0(a2)
30006da0:	00150613          	addi	a2,a0,1
30006da4:	0b758263          	beq	a1,s7,30006e48 <_ZL12dir_registerP3DIR+0x330>
30006da8:	02000313          	li	t1,32
30006dac:	01760863          	beq	a2,s7,30006dbc <_ZL12dir_registerP3DIR+0x2a4>
30006db0:	00c78633          	add	a2,a5,a2
30006db4:	fec64303          	lbu	t1,-20(a2)
30006db8:	00250613          	addi	a2,a0,2
30006dbc:	00bb05b3          	add	a1,s6,a1
30006dc0:	00270513          	addi	a0,a4,2
30006dc4:	00658023          	sb	t1,0(a1)
30006dc8:	09750063          	beq	a0,s7,30006e48 <_ZL12dir_registerP3DIR+0x330>
30006dcc:	02000313          	li	t1,32
30006dd0:	01760a63          	beq	a2,s7,30006de4 <_ZL12dir_registerP3DIR+0x2cc>
30006dd4:	05010793          	addi	a5,sp,80
30006dd8:	00c785b3          	add	a1,a5,a2
30006ddc:	fec5c303          	lbu	t1,-20(a1)
30006de0:	00160613          	addi	a2,a2,1
30006de4:	00ab0533          	add	a0,s6,a0
30006de8:	00370593          	addi	a1,a4,3
30006dec:	00650023          	sb	t1,0(a0)
30006df0:	05758c63          	beq	a1,s7,30006e48 <_ZL12dir_registerP3DIR+0x330>
30006df4:	02000513          	li	a0,32
30006df8:	01461463          	bne	a2,s4,30006e00 <_ZL12dir_registerP3DIR+0x2e8>
30006dfc:	04314503          	lbu	a0,67(sp)
30006e00:	00bb05b3          	add	a1,s6,a1
30006e04:	00470613          	addi	a2,a4,4
30006e08:	00a58023          	sb	a0,0(a1)
30006e0c:	03760e63          	beq	a2,s7,30006e48 <_ZL12dir_registerP3DIR+0x330>
30006e10:	00cb0633          	add	a2,s6,a2
30006e14:	02000513          	li	a0,32
30006e18:	00570593          	addi	a1,a4,5
30006e1c:	00a60023          	sb	a0,0(a2)
30006e20:	03758463          	beq	a1,s7,30006e48 <_ZL12dir_registerP3DIR+0x330>
30006e24:	00bb05b3          	add	a1,s6,a1
30006e28:	00670613          	addi	a2,a4,6
30006e2c:	00a58023          	sb	a0,0(a1)
30006e30:	01760c63          	beq	a2,s7,30006e48 <_ZL12dir_registerP3DIR+0x330>
30006e34:	00cb0633          	add	a2,s6,a2
30006e38:	00a60023          	sb	a0,0(a2)
30006e3c:	00100793          	li	a5,1
30006e40:	00f70463          	beq	a4,a5,30006e48 <_ZL12dir_registerP3DIR+0x330>
30006e44:	00ab03a3          	sb	a0,7(s6)
30006e48:	00000593          	li	a1,0
30006e4c:	000d0513          	mv	a0,s10
30006e50:	98cfe0ef          	jal	ra,30004fdc <_ZL7dir_sdiP3DIRt>
30006e54:	00050313          	mv	t1,a0
30006e58:	0c051063          	bnez	a0,30006f18 <_ZL12dir_registerP3DIR+0x400>
30006e5c:	000d0513          	mv	a0,s10
30006e60:	f44fe0ef          	jal	ra,300055a4 <_ZL8dir_findP3DIR.part.7>
30006e64:	00050313          	mv	t1,a0
30006e68:	0a051863          	bnez	a0,30006f18 <_ZL12dir_registerP3DIR+0x400>
30006e6c:	001c0693          	addi	a3,s8,1
30006e70:	01069c13          	slli	s8,a3,0x10
30006e74:	010c5c13          	srli	s8,s8,0x10
30006e78:	06400713          	li	a4,100
30006e7c:	daec1ce3          	bne	s8,a4,30006c34 <_ZL12dir_registerP3DIR+0x11c>
30006e80:	00700313          	li	t1,7
30006e84:	08c12083          	lw	ra,140(sp)
30006e88:	08812403          	lw	s0,136(sp)
30006e8c:	08412483          	lw	s1,132(sp)
30006e90:	08012903          	lw	s2,128(sp)
30006e94:	07c12983          	lw	s3,124(sp)
30006e98:	07812a03          	lw	s4,120(sp)
30006e9c:	07412a83          	lw	s5,116(sp)
30006ea0:	07012b03          	lw	s6,112(sp)
30006ea4:	06c12b83          	lw	s7,108(sp)
30006ea8:	06812c03          	lw	s8,104(sp)
30006eac:	06412c83          	lw	s9,100(sp)
30006eb0:	06012d03          	lw	s10,96(sp)
30006eb4:	05c12d83          	lw	s11,92(sp)
30006eb8:	00030513          	mv	a0,t1
30006ebc:	09010113          	addi	sp,sp,144
30006ec0:	00008067          	ret
30006ec4:	07e00713          	li	a4,126
30006ec8:	04e10123          	sb	a4,66(sp)
30006ecc:	00600613          	li	a2,6
30006ed0:	e92990e3          	bne	s3,s2,30006d50 <_ZL12dir_registerP3DIR+0x238>
30006ed4:	05010793          	addi	a5,sp,80
30006ed8:	00c78733          	add	a4,a5,a2
30006edc:	fec74583          	lbu	a1,-20(a4)
30006ee0:	00160513          	addi	a0,a2,1
30006ee4:	00100713          	li	a4,1
30006ee8:	00bb0023          	sb	a1,0(s6)
30006eec:	e9dff06f          	j	30006d88 <_ZL12dir_registerP3DIR+0x270>
30006ef0:	07e00713          	li	a4,126
30006ef4:	04e100a3          	sb	a4,65(sp)
30006ef8:	00500613          	li	a2,5
30006efc:	e5299ae3          	bne	s3,s2,30006d50 <_ZL12dir_registerP3DIR+0x238>
30006f00:	fd5ff06f          	j	30006ed4 <_ZL12dir_registerP3DIR+0x3bc>
30006f04:	07e00713          	li	a4,126
30006f08:	04e10023          	sb	a4,64(sp)
30006f0c:	00400613          	li	a2,4
30006f10:	e52990e3          	bne	s3,s2,30006d50 <_ZL12dir_registerP3DIR+0x238>
30006f14:	fc1ff06f          	j	30006ed4 <_ZL12dir_registerP3DIR+0x3bc>
30006f18:	00400713          	li	a4,4
30006f1c:	f6e314e3          	bne	t1,a4,30006e84 <_ZL12dir_registerP3DIR+0x36c>
30006f20:	02c12783          	lw	a5,44(sp)
30006f24:	00fb05a3          	sb	a5,11(s6)
30006f28:	015d2e23          	sw	s5,28(s10)
30006f2c:	02c12783          	lw	a5,44(sp)
30006f30:	00100493          	li	s1,1
30006f34:	0027f793          	andi	a5,a5,2
30006f38:	04078063          	beqz	a5,30006f78 <_ZL12dir_registerP3DIR+0x460>
30006f3c:	000ad783          	lhu	a5,0(s5)
30006f40:	02078c63          	beqz	a5,30006f78 <_ZL12dir_registerP3DIR+0x460>
30006f44:	00000793          	li	a5,0
30006f48:	00178793          	addi	a5,a5,1
30006f4c:	01079793          	slli	a5,a5,0x10
30006f50:	0107d793          	srli	a5,a5,0x10
30006f54:	00179713          	slli	a4,a5,0x1
30006f58:	00ea8733          	add	a4,s5,a4
30006f5c:	00075703          	lhu	a4,0(a4)
30006f60:	fe0714e3          	bnez	a4,30006f48 <_ZL12dir_registerP3DIR+0x430>
30006f64:	01978493          	addi	s1,a5,25
30006f68:	00d00793          	li	a5,13
30006f6c:	02f4c4b3          	div	s1,s1,a5
30006f70:	01049493          	slli	s1,s1,0x10
30006f74:	0104d493          	srli	s1,s1,0x10
30006f78:	00000593          	li	a1,0
30006f7c:	000d0513          	mv	a0,s10
30006f80:	85cfe0ef          	jal	ra,30004fdc <_ZL7dir_sdiP3DIRt>
30006f84:	00050313          	mv	t1,a0
30006f88:	ee051ee3          	bnez	a0,30006e84 <_ZL12dir_registerP3DIR+0x36c>
30006f8c:	000d2503          	lw	a0,0(s10)
30006f90:	010d2583          	lw	a1,16(s10)
30006f94:	00000993          	li	s3,0
30006f98:	00000413          	li	s0,0
30006f9c:	8d5fd0ef          	jal	ra,30004870 <_ZL11move_windowP5FATFSm>
30006fa0:	0e500913          	li	s2,229
30006fa4:	00100a13          	li	s4,1
30006fa8:	fff00a93          	li	s5,-1
30006fac:	00100b13          	li	s6,1
30006fb0:	00050313          	mv	t1,a0
30006fb4:	ec0518e3          	bnez	a0,30006e84 <_ZL12dir_registerP3DIR+0x36c>
30006fb8:	014d2783          	lw	a5,20(s10)
30006fbc:	0007c783          	lbu	a5,0(a5)
30006fc0:	07278e63          	beq	a5,s2,3000703c <_ZL12dir_registerP3DIR+0x524>
30006fc4:	06078c63          	beqz	a5,3000703c <_ZL12dir_registerP3DIR+0x524>
30006fc8:	00000b93          	li	s7,0
30006fcc:	006d5403          	lhu	s0,6(s10)
30006fd0:	00140413          	addi	s0,s0,1
30006fd4:	01041413          	slli	s0,s0,0x10
30006fd8:	01045413          	srli	s0,s0,0x10
30006fdc:	12040663          	beqz	s0,30007108 <_ZL12dir_registerP3DIR+0x5f0>
30006fe0:	010d2583          	lw	a1,16(s10)
30006fe4:	12058263          	beqz	a1,30007108 <_ZL12dir_registerP3DIR+0x5f0>
30006fe8:	00f47c93          	andi	s9,s0,15
30006fec:	000d2503          	lw	a0,0(s10)
30006ff0:	000c9e63          	bnez	s9,3000700c <_ZL12dir_registerP3DIR+0x4f4>
30006ff4:	00cd2683          	lw	a3,12(s10)
30006ff8:	00158593          	addi	a1,a1,1
30006ffc:	00bd2823          	sw	a1,16(s10)
30007000:	10069863          	bnez	a3,30007110 <_ZL12dir_registerP3DIR+0x5f8>
30007004:	00855783          	lhu	a5,8(a0)
30007008:	10f47063          	bgeu	s0,a5,30007108 <_ZL12dir_registerP3DIR+0x5f0>
3000700c:	03050793          	addi	a5,a0,48
30007010:	005c9c93          	slli	s9,s9,0x5
30007014:	019787b3          	add	a5,a5,s9
30007018:	008d1323          	sh	s0,6(s10)
3000701c:	00fd2a23          	sw	a5,20(s10)
30007020:	851fd0ef          	jal	ra,30004870 <_ZL11move_windowP5FATFSm>
30007024:	000b8413          	mv	s0,s7
30007028:	00050313          	mv	t1,a0
3000702c:	e4051ce3          	bnez	a0,30006e84 <_ZL12dir_registerP3DIR+0x36c>
30007030:	014d2783          	lw	a5,20(s10)
30007034:	0007c783          	lbu	a5,0(a5)
30007038:	f92796e3          	bne	a5,s2,30006fc4 <_ZL12dir_registerP3DIR+0x4ac>
3000703c:	00041463          	bnez	s0,30007044 <_ZL12dir_registerP3DIR+0x52c>
30007040:	006d5983          	lhu	s3,6(s10)
30007044:	00140b93          	addi	s7,s0,1
30007048:	010b9b93          	slli	s7,s7,0x10
3000704c:	010bdb93          	srli	s7,s7,0x10
30007050:	f7749ee3          	bne	s1,s7,30006fcc <_ZL12dir_registerP3DIR+0x4b4>
30007054:	00100793          	li	a5,1
30007058:	12f49a63          	bne	s1,a5,3000718c <_ZL12dir_registerP3DIR+0x674>
3000705c:	010d2583          	lw	a1,16(s10)
30007060:	000d2503          	lw	a0,0(s10)
30007064:	80dfd0ef          	jal	ra,30004870 <_ZL11move_windowP5FATFSm>
30007068:	00050313          	mv	t1,a0
3000706c:	e0051ce3          	bnez	a0,30006e84 <_ZL12dir_registerP3DIR+0x36c>
30007070:	014d2783          	lw	a5,20(s10)
30007074:	00a12623          	sw	a0,12(sp)
30007078:	02000613          	li	a2,32
3000707c:	00078513          	mv	a0,a5
30007080:	00000593          	li	a1,0
30007084:	5a9030ef          	jal	ra,3000ae2c <memset>
30007088:	018d2703          	lw	a4,24(s10)
3000708c:	00450693          	addi	a3,a0,4
30007090:	00050793          	mv	a5,a0
30007094:	00470613          	addi	a2,a4,4
30007098:	00d736b3          	sltu	a3,a4,a3
3000709c:	00c53633          	sltu	a2,a0,a2
300070a0:	0016c693          	xori	a3,a3,1
300070a4:	00164613          	xori	a2,a2,1
300070a8:	00c6e6b3          	or	a3,a3,a2
300070ac:	00c12303          	lw	t1,12(sp)
300070b0:	5a068063          	beqz	a3,30007650 <_ZL12dir_registerP3DIR+0xb38>
300070b4:	00e566b3          	or	a3,a0,a4
300070b8:	0036f693          	andi	a3,a3,3
300070bc:	58069a63          	bnez	a3,30007650 <_ZL12dir_registerP3DIR+0xb38>
300070c0:	00072683          	lw	a3,0(a4)
300070c4:	00d52023          	sw	a3,0(a0)
300070c8:	00472683          	lw	a3,4(a4)
300070cc:	00d52223          	sw	a3,4(a0)
300070d0:	00874683          	lbu	a3,8(a4)
300070d4:	00d78423          	sb	a3,8(a5)
300070d8:	00974683          	lbu	a3,9(a4)
300070dc:	00d784a3          	sb	a3,9(a5)
300070e0:	00a74703          	lbu	a4,10(a4)
300070e4:	00e78523          	sb	a4,10(a5)
300070e8:	018d2703          	lw	a4,24(s10)
300070ec:	00b74703          	lbu	a4,11(a4)
300070f0:	01877713          	andi	a4,a4,24
300070f4:	00e78623          	sb	a4,12(a5)
300070f8:	000d2783          	lw	a5,0(s10)
300070fc:	00100713          	li	a4,1
30007100:	00e78223          	sb	a4,4(a5)
30007104:	d81ff06f          	j	30006e84 <_ZL12dir_registerP3DIR+0x36c>
30007108:	00400313          	li	t1,4
3000710c:	d79ff06f          	j	30006e84 <_ZL12dir_registerP3DIR+0x36c>
30007110:	00254703          	lbu	a4,2(a0)
30007114:	00445793          	srli	a5,s0,0x4
30007118:	fff70713          	addi	a4,a4,-1
3000711c:	00f777b3          	and	a5,a4,a5
30007120:	ee0796e3          	bnez	a5,3000700c <_ZL12dir_registerP3DIR+0x4f4>
30007124:	06da7063          	bgeu	s4,a3,30007184 <_ZL12dir_registerP3DIR+0x66c>
30007128:	01852783          	lw	a5,24(a0)
3000712c:	04f6fc63          	bgeu	a3,a5,30007184 <_ZL12dir_registerP3DIR+0x66c>
30007130:	00068593          	mv	a1,a3
30007134:	cf1fd0ef          	jal	ra,30004e24 <_Z7get_fatP5FATFSm.part.5>
30007138:	00050793          	mv	a5,a0
3000713c:	04aa7463          	bgeu	s4,a0,30007184 <_ZL12dir_registerP3DIR+0x66c>
30007140:	3d550263          	beq	a0,s5,30007504 <_ZL12dir_registerP3DIR+0x9ec>
30007144:	000d2503          	lw	a0,0(s10)
30007148:	01852703          	lw	a4,24(a0)
3000714c:	24e7fe63          	bgeu	a5,a4,300073a8 <_ZL12dir_registerP3DIR+0x890>
30007150:	ffe78713          	addi	a4,a5,-2
30007154:	00e12c23          	sw	a4,24(sp)
30007158:	00fd2623          	sw	a5,12(s10)
3000715c:	01852783          	lw	a5,24(a0)
30007160:	00000593          	li	a1,0
30007164:	ffe78793          	addi	a5,a5,-2
30007168:	00f77a63          	bgeu	a4,a5,3000717c <_ZL12dir_registerP3DIR+0x664>
3000716c:	00254583          	lbu	a1,2(a0)
30007170:	02852783          	lw	a5,40(a0)
30007174:	02e585b3          	mul	a1,a1,a4
30007178:	00f585b3          	add	a1,a1,a5
3000717c:	00bd2823          	sw	a1,16(s10)
30007180:	e8dff06f          	j	3000700c <_ZL12dir_registerP3DIR+0x4f4>
30007184:	00200313          	li	t1,2
30007188:	cfdff06f          	j	30006e84 <_ZL12dir_registerP3DIR+0x36c>
3000718c:	00098593          	mv	a1,s3
30007190:	000d0513          	mv	a0,s10
30007194:	e49fd0ef          	jal	ra,30004fdc <_ZL7dir_sdiP3DIRt>
30007198:	00050313          	mv	t1,a0
3000719c:	ce0514e3          	bnez	a0,30006e84 <_ZL12dir_registerP3DIR+0x36c>
300071a0:	018d2783          	lw	a5,24(s10)
300071a4:	00010ab7          	lui	s5,0x10
300071a8:	fffa8493          	addi	s1,s5,-1 # ffff <stackPointer+0x92bf>
300071ac:	0007c683          	lbu	a3,0(a5)
300071b0:	0017c583          	lbu	a1,1(a5)
300071b4:	0027c603          	lbu	a2,2(a5)
300071b8:	00769713          	slli	a4,a3,0x7
300071bc:	00b70733          	add	a4,a4,a1
300071c0:	4016d693          	srai	a3,a3,0x1
300071c4:	00d70733          	add	a4,a4,a3
300071c8:	0ff77713          	andi	a4,a4,255
300071cc:	00771693          	slli	a3,a4,0x7
300071d0:	00c686b3          	add	a3,a3,a2
300071d4:	00175713          	srli	a4,a4,0x1
300071d8:	0037c603          	lbu	a2,3(a5)
300071dc:	00e686b3          	add	a3,a3,a4
300071e0:	0ff6f693          	andi	a3,a3,255
300071e4:	00769713          	slli	a4,a3,0x7
300071e8:	00c70733          	add	a4,a4,a2
300071ec:	0016d693          	srli	a3,a3,0x1
300071f0:	0047c603          	lbu	a2,4(a5)
300071f4:	00d70733          	add	a4,a4,a3
300071f8:	0ff77713          	andi	a4,a4,255
300071fc:	00771693          	slli	a3,a4,0x7
30007200:	00c686b3          	add	a3,a3,a2
30007204:	00175713          	srli	a4,a4,0x1
30007208:	0057c603          	lbu	a2,5(a5)
3000720c:	00e686b3          	add	a3,a3,a4
30007210:	0ff6f693          	andi	a3,a3,255
30007214:	00769713          	slli	a4,a3,0x7
30007218:	00c70733          	add	a4,a4,a2
3000721c:	0016d693          	srli	a3,a3,0x1
30007220:	0067c603          	lbu	a2,6(a5)
30007224:	00d70733          	add	a4,a4,a3
30007228:	0ff77713          	andi	a4,a4,255
3000722c:	00771693          	slli	a3,a4,0x7
30007230:	00c686b3          	add	a3,a3,a2
30007234:	00175713          	srli	a4,a4,0x1
30007238:	0077c603          	lbu	a2,7(a5)
3000723c:	00e686b3          	add	a3,a3,a4
30007240:	0ff6f693          	andi	a3,a3,255
30007244:	00769713          	slli	a4,a3,0x7
30007248:	00c70733          	add	a4,a4,a2
3000724c:	0016d693          	srli	a3,a3,0x1
30007250:	0087c603          	lbu	a2,8(a5)
30007254:	00d70733          	add	a4,a4,a3
30007258:	0ff77713          	andi	a4,a4,255
3000725c:	00771693          	slli	a3,a4,0x7
30007260:	00c686b3          	add	a3,a3,a2
30007264:	00175713          	srli	a4,a4,0x1
30007268:	00e686b3          	add	a3,a3,a4
3000726c:	0097c603          	lbu	a2,9(a5)
30007270:	0ff6f693          	andi	a3,a3,255
30007274:	00769713          	slli	a4,a3,0x7
30007278:	00c70733          	add	a4,a4,a2
3000727c:	0016d693          	srli	a3,a3,0x1
30007280:	00d70733          	add	a4,a4,a3
30007284:	00a7c683          	lbu	a3,10(a5)
30007288:	0ff77793          	andi	a5,a4,255
3000728c:	00779913          	slli	s2,a5,0x7
30007290:	00d90933          	add	s2,s2,a3
30007294:	0017d793          	srli	a5,a5,0x1
30007298:	00f907b3          	add	a5,s2,a5
3000729c:	00f00a13          	li	s4,15
300072a0:	0ff7f913          	andi	s2,a5,255
300072a4:	fff00b13          	li	s6,-1
300072a8:	ffda8a93          	addi	s5,s5,-3
300072ac:	00100993          	li	s3,1
300072b0:	010d2583          	lw	a1,16(s10)
300072b4:	000d2503          	lw	a0,0(s10)
300072b8:	db8fd0ef          	jal	ra,30004870 <_ZL11move_windowP5FATFSm>
300072bc:	00050313          	mv	t1,a0
300072c0:	bc0512e3          	bnez	a0,30006e84 <_ZL12dir_registerP3DIR+0x36c>
300072c4:	0ff47613          	andi	a2,s0,255
300072c8:	fff60693          	addi	a3,a2,-1
300072cc:	00169713          	slli	a4,a3,0x1
300072d0:	00d70733          	add	a4,a4,a3
300072d4:	01cd2583          	lw	a1,28(s10)
300072d8:	014d2783          	lw	a5,20(s10)
300072dc:	00271713          	slli	a4,a4,0x2
300072e0:	00d70733          	add	a4,a4,a3
300072e4:	00171513          	slli	a0,a4,0x1
300072e8:	012786a3          	sb	s2,13(a5)
300072ec:	014785a3          	sb	s4,11(a5)
300072f0:	00078623          	sb	zero,12(a5)
300072f4:	00078d23          	sb	zero,26(a5)
300072f8:	00078da3          	sb	zero,27(a5)
300072fc:	00a58533          	add	a0,a1,a0
30007300:	00055683          	lhu	a3,0(a0)
30007304:	4086d893          	srai	a7,a3,0x8
30007308:	00d780a3          	sb	a3,1(a5)
3000730c:	01178123          	sb	a7,2(a5)
30007310:	1e069e63          	bnez	a3,3000750c <_ZL12dir_registerP3DIR+0x9f4>
30007314:	016781a3          	sb	s6,3(a5)
30007318:	01678223          	sb	s6,4(a5)
3000731c:	016782a3          	sb	s6,5(a5)
30007320:	01678323          	sb	s6,6(a5)
30007324:	016783a3          	sb	s6,7(a5)
30007328:	01678423          	sb	s6,8(a5)
3000732c:	016784a3          	sb	s6,9(a5)
30007330:	01678523          	sb	s6,10(a5)
30007334:	01678723          	sb	s6,14(a5)
30007338:	016787a3          	sb	s6,15(a5)
3000733c:	01678823          	sb	s6,16(a5)
30007340:	016788a3          	sb	s6,17(a5)
30007344:	01678923          	sb	s6,18(a5)
30007348:	016789a3          	sb	s6,19(a5)
3000734c:	01678a23          	sb	s6,20(a5)
30007350:	01678aa3          	sb	s6,21(a5)
30007354:	01678b23          	sb	s6,22(a5)
30007358:	01678ba3          	sb	s6,23(a5)
3000735c:	01678c23          	sb	s6,24(a5)
30007360:	01678ca3          	sb	s6,25(a5)
30007364:	01678e23          	sb	s6,28(a5)
30007368:	01678ea3          	sb	s6,29(a5)
3000736c:	01678f23          	sb	s6,30(a5)
30007370:	01678fa3          	sb	s6,31(a5)
30007374:	04066613          	ori	a2,a2,64
30007378:	00c78023          	sb	a2,0(a5)
3000737c:	000d2783          	lw	a5,0(s10)
30007380:	000d0513          	mv	a0,s10
30007384:	01378223          	sb	s3,4(a5)
30007388:	f9dfd0ef          	jal	ra,30005324 <_ZL8dir_nextP3DIRi.constprop.11>
3000738c:	00050313          	mv	t1,a0
30007390:	ae051ae3          	bnez	a0,30006e84 <_ZL12dir_registerP3DIR+0x36c>
30007394:	fff40413          	addi	s0,s0,-1
30007398:	01041413          	slli	s0,s0,0x10
3000739c:	01045413          	srli	s0,s0,0x10
300073a0:	f00418e3          	bnez	s0,300072b0 <_ZL12dir_registerP3DIR+0x798>
300073a4:	cb9ff06f          	j	3000705c <_ZL12dir_registerP3DIR+0x544>
300073a8:	00cd2583          	lw	a1,12(s10)
300073ac:	ab0ff0ef          	jal	ra,3000665c <_ZL12create_chainP5FATFSm>
300073b0:	00050793          	mv	a5,a0
300073b4:	ac0506e3          	beqz	a0,30006e80 <_ZL12dir_registerP3DIR+0x368>
300073b8:	dd4506e3          	beq	a0,s4,30007184 <_ZL12dir_registerP3DIR+0x66c>
300073bc:	15550463          	beq	a0,s5,30007504 <_ZL12dir_registerP3DIR+0x9ec>
300073c0:	000d2c03          	lw	s8,0(s10)
300073c4:	02cc2d83          	lw	s11,44(s8)
300073c8:	030c0813          	addi	a6,s8,48
300073cc:	000d8663          	beqz	s11,300073d8 <_ZL12dir_registerP3DIR+0x8c0>
300073d0:	004c4703          	lbu	a4,4(s8)
300073d4:	2c071c63          	bnez	a4,300076ac <_ZL12dir_registerP3DIR+0xb94>
300073d8:	20000613          	li	a2,512
300073dc:	00000593          	li	a1,0
300073e0:	00080513          	mv	a0,a6
300073e4:	00f12623          	sw	a5,12(sp)
300073e8:	245030ef          	jal	ra,3000ae2c <memset>
300073ec:	000d2683          	lw	a3,0(s10)
300073f0:	00c12783          	lw	a5,12(sp)
300073f4:	00000713          	li	a4,0
300073f8:	0186a603          	lw	a2,24(a3)
300073fc:	ffe78593          	addi	a1,a5,-2
30007400:	00b12c23          	sw	a1,24(sp)
30007404:	ffe60613          	addi	a2,a2,-2
30007408:	00c5fa63          	bgeu	a1,a2,3000741c <_ZL12dir_registerP3DIR+0x904>
3000740c:	0026c703          	lbu	a4,2(a3)
30007410:	0286a603          	lw	a2,40(a3)
30007414:	02b70733          	mul	a4,a4,a1
30007418:	00c70733          	add	a4,a4,a2
3000741c:	02e6a623          	sw	a4,44(a3)
30007420:	000d2703          	lw	a4,0(s10)
30007424:	00274c03          	lbu	s8,2(a4)
30007428:	260c0663          	beqz	s8,30007694 <_ZL12dir_registerP3DIR+0xb7c>
3000742c:	00000c13          	li	s8,0
30007430:	0200006f          	j	30007450 <_ZL12dir_registerP3DIR+0x938>
30007434:	001d8d93          	addi	s11,s11,1
30007438:	03b72623          	sw	s11,44(a4)
3000743c:	000d2703          	lw	a4,0(s10)
30007440:	001c0893          	addi	a7,s8,1
30007444:	0ff8fc13          	andi	s8,a7,255
30007448:	00274683          	lbu	a3,2(a4)
3000744c:	24dc7463          	bgeu	s8,a3,30007694 <_ZL12dir_registerP3DIR+0xb7c>
30007450:	01670223          	sb	s6,4(a4)
30007454:	000d2703          	lw	a4,0(s10)
30007458:	02c72d83          	lw	s11,44(a4)
3000745c:	fc0d8ce3          	beqz	s11,30007434 <_ZL12dir_registerP3DIR+0x91c>
30007460:	00474683          	lbu	a3,4(a4)
30007464:	fc0688e3          	beqz	a3,30007434 <_ZL12dir_registerP3DIR+0x91c>
30007468:	00174503          	lbu	a0,1(a4)
3000746c:	00f12823          	sw	a5,16(sp)
30007470:	03070793          	addi	a5,a4,48
30007474:	00100693          	li	a3,1
30007478:	000d8613          	mv	a2,s11
3000747c:	00078593          	mv	a1,a5
30007480:	00e12623          	sw	a4,12(sp)
30007484:	00f12e23          	sw	a5,28(sp)
30007488:	f00fc0ef          	jal	ra,30003b88 <disk_write>
3000748c:	06051c63          	bnez	a0,30007504 <_ZL12dir_registerP3DIR+0x9ec>
30007490:	00c12703          	lw	a4,12(sp)
30007494:	01012783          	lw	a5,16(sp)
30007498:	01c72683          	lw	a3,28(a4)
3000749c:	02072603          	lw	a2,32(a4)
300074a0:	00070223          	sb	zero,4(a4)
300074a4:	00c68633          	add	a2,a3,a2
300074a8:	04cdf863          	bgeu	s11,a2,300074f8 <_ZL12dir_registerP3DIR+0x9e0>
300074ac:	00374303          	lbu	t1,3(a4)
300074b0:	006a6663          	bltu	s4,t1,300074bc <_ZL12dir_registerP3DIR+0x9a4>
300074b4:	0440006f          	j	300074f8 <_ZL12dir_registerP3DIR+0x9e0>
300074b8:	01c72683          	lw	a3,28(a4)
300074bc:	00174503          	lbu	a0,1(a4)
300074c0:	01c12583          	lw	a1,28(sp)
300074c4:	00dd8db3          	add	s11,s11,a3
300074c8:	000d8613          	mv	a2,s11
300074cc:	00100693          	li	a3,1
300074d0:	00612a23          	sw	t1,20(sp)
300074d4:	00f12823          	sw	a5,16(sp)
300074d8:	00e12623          	sw	a4,12(sp)
300074dc:	eacfc0ef          	jal	ra,30003b88 <disk_write>
300074e0:	01412303          	lw	t1,20(sp)
300074e4:	00c12703          	lw	a4,12(sp)
300074e8:	01012783          	lw	a5,16(sp)
300074ec:	fff30313          	addi	t1,t1,-1
300074f0:	0ff37313          	andi	t1,t1,255
300074f4:	fd4312e3          	bne	t1,s4,300074b8 <_ZL12dir_registerP3DIR+0x9a0>
300074f8:	000d2703          	lw	a4,0(s10)
300074fc:	02c72d83          	lw	s11,44(a4)
30007500:	f35ff06f          	j	30007434 <_ZL12dir_registerP3DIR+0x91c>
30007504:	00100313          	li	t1,1
30007508:	97dff06f          	j	30006e84 <_ZL12dir_registerP3DIR+0x36c>
3000750c:	e09684e3          	beq	a3,s1,30007314 <_ZL12dir_registerP3DIR+0x7fc>
30007510:	00170713          	addi	a4,a4,1
30007514:	00171713          	slli	a4,a4,0x1
30007518:	00e58733          	add	a4,a1,a4
3000751c:	00075683          	lhu	a3,0(a4)
30007520:	4086d593          	srai	a1,a3,0x8
30007524:	00d781a3          	sb	a3,3(a5)
30007528:	00b78223          	sb	a1,4(a5)
3000752c:	de0688e3          	beqz	a3,3000731c <_ZL12dir_registerP3DIR+0x804>
30007530:	de9686e3          	beq	a3,s1,3000731c <_ZL12dir_registerP3DIR+0x804>
30007534:	00275683          	lhu	a3,2(a4)
30007538:	4086d593          	srai	a1,a3,0x8
3000753c:	00d782a3          	sb	a3,5(a5)
30007540:	00b78323          	sb	a1,6(a5)
30007544:	de0680e3          	beqz	a3,30007324 <_ZL12dir_registerP3DIR+0x80c>
30007548:	dc968ee3          	beq	a3,s1,30007324 <_ZL12dir_registerP3DIR+0x80c>
3000754c:	00475683          	lhu	a3,4(a4)
30007550:	4086d593          	srai	a1,a3,0x8
30007554:	00d783a3          	sb	a3,7(a5)
30007558:	00b78423          	sb	a1,8(a5)
3000755c:	dc0688e3          	beqz	a3,3000732c <_ZL12dir_registerP3DIR+0x814>
30007560:	dc9686e3          	beq	a3,s1,3000732c <_ZL12dir_registerP3DIR+0x814>
30007564:	00675683          	lhu	a3,6(a4)
30007568:	4086d593          	srai	a1,a3,0x8
3000756c:	00d784a3          	sb	a3,9(a5)
30007570:	00b78523          	sb	a1,10(a5)
30007574:	dc0680e3          	beqz	a3,30007334 <_ZL12dir_registerP3DIR+0x81c>
30007578:	da968ee3          	beq	a3,s1,30007334 <_ZL12dir_registerP3DIR+0x81c>
3000757c:	00875683          	lhu	a3,8(a4)
30007580:	4086d593          	srai	a1,a3,0x8
30007584:	00d78723          	sb	a3,14(a5)
30007588:	00b787a3          	sb	a1,15(a5)
3000758c:	da0688e3          	beqz	a3,3000733c <_ZL12dir_registerP3DIR+0x824>
30007590:	da9686e3          	beq	a3,s1,3000733c <_ZL12dir_registerP3DIR+0x824>
30007594:	00a75683          	lhu	a3,10(a4)
30007598:	4086d593          	srai	a1,a3,0x8
3000759c:	00d78823          	sb	a3,16(a5)
300075a0:	00b788a3          	sb	a1,17(a5)
300075a4:	da0680e3          	beqz	a3,30007344 <_ZL12dir_registerP3DIR+0x82c>
300075a8:	d8968ee3          	beq	a3,s1,30007344 <_ZL12dir_registerP3DIR+0x82c>
300075ac:	00c75683          	lhu	a3,12(a4)
300075b0:	4086d593          	srai	a1,a3,0x8
300075b4:	00d78923          	sb	a3,18(a5)
300075b8:	00b789a3          	sb	a1,19(a5)
300075bc:	d80688e3          	beqz	a3,3000734c <_ZL12dir_registerP3DIR+0x834>
300075c0:	d89686e3          	beq	a3,s1,3000734c <_ZL12dir_registerP3DIR+0x834>
300075c4:	00e75683          	lhu	a3,14(a4)
300075c8:	4086d593          	srai	a1,a3,0x8
300075cc:	00d78a23          	sb	a3,20(a5)
300075d0:	00b78aa3          	sb	a1,21(a5)
300075d4:	d80680e3          	beqz	a3,30007354 <_ZL12dir_registerP3DIR+0x83c>
300075d8:	d6968ee3          	beq	a3,s1,30007354 <_ZL12dir_registerP3DIR+0x83c>
300075dc:	01075683          	lhu	a3,16(a4)
300075e0:	4086d593          	srai	a1,a3,0x8
300075e4:	00d78b23          	sb	a3,22(a5)
300075e8:	00b78ba3          	sb	a1,23(a5)
300075ec:	d60688e3          	beqz	a3,3000735c <_ZL12dir_registerP3DIR+0x844>
300075f0:	d69686e3          	beq	a3,s1,3000735c <_ZL12dir_registerP3DIR+0x844>
300075f4:	01275683          	lhu	a3,18(a4)
300075f8:	4086d593          	srai	a1,a3,0x8
300075fc:	00d78c23          	sb	a3,24(a5)
30007600:	00b78ca3          	sb	a1,25(a5)
30007604:	d60680e3          	beqz	a3,30007364 <_ZL12dir_registerP3DIR+0x84c>
30007608:	d4968ee3          	beq	a3,s1,30007364 <_ZL12dir_registerP3DIR+0x84c>
3000760c:	01475683          	lhu	a3,20(a4)
30007610:	4086d593          	srai	a1,a3,0x8
30007614:	00d78e23          	sb	a3,28(a5)
30007618:	00b78ea3          	sb	a1,29(a5)
3000761c:	d40688e3          	beqz	a3,3000736c <_ZL12dir_registerP3DIR+0x854>
30007620:	d49686e3          	beq	a3,s1,3000736c <_ZL12dir_registerP3DIR+0x854>
30007624:	01675683          	lhu	a3,22(a4)
30007628:	fff68713          	addi	a4,a3,-1
3000762c:	4086d593          	srai	a1,a3,0x8
30007630:	01071713          	slli	a4,a4,0x10
30007634:	00d78f23          	sb	a3,30(a5)
30007638:	00b78fa3          	sb	a1,31(a5)
3000763c:	01075713          	srli	a4,a4,0x10
30007640:	d2eaeae3          	bltu	s5,a4,30007374 <_ZL12dir_registerP3DIR+0x85c>
30007644:	01a55703          	lhu	a4,26(a0)
30007648:	d20718e3          	bnez	a4,30007378 <_ZL12dir_registerP3DIR+0x860>
3000764c:	d29ff06f          	j	30007374 <_ZL12dir_registerP3DIR+0x85c>
30007650:	00074683          	lbu	a3,0(a4)
30007654:	00d78023          	sb	a3,0(a5)
30007658:	00174683          	lbu	a3,1(a4)
3000765c:	00d780a3          	sb	a3,1(a5)
30007660:	00274683          	lbu	a3,2(a4)
30007664:	00d78123          	sb	a3,2(a5)
30007668:	00374683          	lbu	a3,3(a4)
3000766c:	00d781a3          	sb	a3,3(a5)
30007670:	00474683          	lbu	a3,4(a4)
30007674:	00d78223          	sb	a3,4(a5)
30007678:	00574683          	lbu	a3,5(a4)
3000767c:	00d782a3          	sb	a3,5(a5)
30007680:	00674683          	lbu	a3,6(a4)
30007684:	00d78323          	sb	a3,6(a5)
30007688:	00774683          	lbu	a3,7(a4)
3000768c:	00d783a3          	sb	a3,7(a5)
30007690:	a41ff06f          	j	300070d0 <_ZL12dir_registerP3DIR+0x5b8>
30007694:	02c72683          	lw	a3,44(a4)
30007698:	418688b3          	sub	a7,a3,s8
3000769c:	03172623          	sw	a7,44(a4)
300076a0:	000d2503          	lw	a0,0(s10)
300076a4:	01812703          	lw	a4,24(sp)
300076a8:	ab1ff06f          	j	30007158 <_ZL12dir_registerP3DIR+0x640>
300076ac:	00a12823          	sw	a0,16(sp)
300076b0:	001c4503          	lbu	a0,1(s8)
300076b4:	00100693          	li	a3,1
300076b8:	000d8613          	mv	a2,s11
300076bc:	00080593          	mv	a1,a6
300076c0:	01012623          	sw	a6,12(sp)
300076c4:	cc4fc0ef          	jal	ra,30003b88 <disk_write>
300076c8:	e2051ee3          	bnez	a0,30007504 <_ZL12dir_registerP3DIR+0x9ec>
300076cc:	01cc2683          	lw	a3,28(s8)
300076d0:	020c2703          	lw	a4,32(s8)
300076d4:	000c0223          	sb	zero,4(s8)
300076d8:	00c12803          	lw	a6,12(sp)
300076dc:	00e68733          	add	a4,a3,a4
300076e0:	01012783          	lw	a5,16(sp)
300076e4:	04edf863          	bgeu	s11,a4,30007734 <_ZL12dir_registerP3DIR+0xc1c>
300076e8:	003c4703          	lbu	a4,3(s8)
300076ec:	00ea6663          	bltu	s4,a4,300076f8 <_ZL12dir_registerP3DIR+0xbe0>
300076f0:	0440006f          	j	30007734 <_ZL12dir_registerP3DIR+0xc1c>
300076f4:	01cc2683          	lw	a3,28(s8)
300076f8:	001c4503          	lbu	a0,1(s8)
300076fc:	00dd8db3          	add	s11,s11,a3
30007700:	00080593          	mv	a1,a6
30007704:	00100693          	li	a3,1
30007708:	000d8613          	mv	a2,s11
3000770c:	00e12a23          	sw	a4,20(sp)
30007710:	00f12823          	sw	a5,16(sp)
30007714:	01012623          	sw	a6,12(sp)
30007718:	c70fc0ef          	jal	ra,30003b88 <disk_write>
3000771c:	01412703          	lw	a4,20(sp)
30007720:	00c12803          	lw	a6,12(sp)
30007724:	01012783          	lw	a5,16(sp)
30007728:	fff70713          	addi	a4,a4,-1
3000772c:	0ff77713          	andi	a4,a4,255
30007730:	fd4712e3          	bne	a4,s4,300076f4 <_ZL12dir_registerP3DIR+0xbdc>
30007734:	000d2703          	lw	a4,0(s10)
30007738:	03070813          	addi	a6,a4,48
3000773c:	c9dff06f          	j	300073d8 <_ZL12dir_registerP3DIR+0x8c0>

30007740 <_Z10clust2sectP5FATFSm>:
30007740:	01852703          	lw	a4,24(a0)
30007744:	ffe58593          	addi	a1,a1,-2
30007748:	ffe70713          	addi	a4,a4,-2
3000774c:	00e5fc63          	bgeu	a1,a4,30007764 <_Z10clust2sectP5FATFSm+0x24>
30007750:	00254783          	lbu	a5,2(a0)
30007754:	02852703          	lw	a4,40(a0)
30007758:	02b78533          	mul	a0,a5,a1
3000775c:	00e50533          	add	a0,a0,a4
30007760:	00008067          	ret
30007764:	00000513          	li	a0,0
30007768:	00008067          	ret

3000776c <_Z7get_fatP5FATFSm>:
3000776c:	00100713          	li	a4,1
30007770:	06b77663          	bgeu	a4,a1,300077dc <_Z7get_fatP5FATFSm+0x70>
30007774:	fe010113          	addi	sp,sp,-32
30007778:	00912a23          	sw	s1,20(sp)
3000777c:	00112e23          	sw	ra,28(sp)
30007780:	00812c23          	sw	s0,24(sp)
30007784:	01212823          	sw	s2,16(sp)
30007788:	01312623          	sw	s3,12(sp)
3000778c:	01852683          	lw	a3,24(a0)
30007790:	00050493          	mv	s1,a0
30007794:	00100793          	li	a5,1
30007798:	02d5f263          	bgeu	a1,a3,300077bc <_Z7get_fatP5FATFSm+0x50>
3000779c:	00054683          	lbu	a3,0(a0)
300077a0:	00200793          	li	a5,2
300077a4:	00058413          	mv	s0,a1
300077a8:	12f68663          	beq	a3,a5,300078d4 <_Z7get_fatP5FATFSm+0x168>
300077ac:	00300793          	li	a5,3
300077b0:	0cf68463          	beq	a3,a5,30007878 <_Z7get_fatP5FATFSm+0x10c>
300077b4:	fff00793          	li	a5,-1
300077b8:	02e68863          	beq	a3,a4,300077e8 <_Z7get_fatP5FATFSm+0x7c>
300077bc:	01c12083          	lw	ra,28(sp)
300077c0:	01812403          	lw	s0,24(sp)
300077c4:	01412483          	lw	s1,20(sp)
300077c8:	01012903          	lw	s2,16(sp)
300077cc:	00c12983          	lw	s3,12(sp)
300077d0:	00078513          	mv	a0,a5
300077d4:	02010113          	addi	sp,sp,32
300077d8:	00008067          	ret
300077dc:	00100793          	li	a5,1
300077e0:	00078513          	mv	a0,a5
300077e4:	00008067          	ret
300077e8:	0015d913          	srli	s2,a1,0x1
300077ec:	02052783          	lw	a5,32(a0)
300077f0:	00b90933          	add	s2,s2,a1
300077f4:	00995593          	srli	a1,s2,0x9
300077f8:	00f585b3          	add	a1,a1,a5
300077fc:	874fd0ef          	jal	ra,30004870 <_ZL11move_windowP5FATFSm>
30007800:	04051a63          	bnez	a0,30007854 <_Z7get_fatP5FATFSm+0xe8>
30007804:	0204a783          	lw	a5,32(s1)
30007808:	00190993          	addi	s3,s2,1
3000780c:	0099d593          	srli	a1,s3,0x9
30007810:	1ff97913          	andi	s2,s2,511
30007814:	01248933          	add	s2,s1,s2
30007818:	00f585b3          	add	a1,a1,a5
3000781c:	00048513          	mv	a0,s1
30007820:	03094903          	lbu	s2,48(s2)
30007824:	84cfd0ef          	jal	ra,30004870 <_ZL11move_windowP5FATFSm>
30007828:	02051663          	bnez	a0,30007854 <_Z7get_fatP5FATFSm+0xe8>
3000782c:	1ff9f593          	andi	a1,s3,511
30007830:	00b485b3          	add	a1,s1,a1
30007834:	0305c783          	lbu	a5,48(a1)
30007838:	00147593          	andi	a1,s0,1
3000783c:	00879793          	slli	a5,a5,0x8
30007840:	0127e7b3          	or	a5,a5,s2
30007844:	08059463          	bnez	a1,300078cc <_Z7get_fatP5FATFSm+0x160>
30007848:	01479793          	slli	a5,a5,0x14
3000784c:	0147d793          	srli	a5,a5,0x14
30007850:	f6dff06f          	j	300077bc <_Z7get_fatP5FATFSm+0x50>
30007854:	01c12083          	lw	ra,28(sp)
30007858:	01812403          	lw	s0,24(sp)
3000785c:	fff00793          	li	a5,-1
30007860:	01412483          	lw	s1,20(sp)
30007864:	01012903          	lw	s2,16(sp)
30007868:	00c12983          	lw	s3,12(sp)
3000786c:	00078513          	mv	a0,a5
30007870:	02010113          	addi	sp,sp,32
30007874:	00008067          	ret
30007878:	02052783          	lw	a5,32(a0)
3000787c:	0075d593          	srli	a1,a1,0x7
30007880:	00f585b3          	add	a1,a1,a5
30007884:	fedfc0ef          	jal	ra,30004870 <_ZL11move_windowP5FATFSm>
30007888:	fc0516e3          	bnez	a0,30007854 <_Z7get_fatP5FATFSm+0xe8>
3000788c:	00241593          	slli	a1,s0,0x2
30007890:	1fc5f593          	andi	a1,a1,508
30007894:	03058713          	addi	a4,a1,48
30007898:	00e48733          	add	a4,s1,a4
3000789c:	00374783          	lbu	a5,3(a4)
300078a0:	00274683          	lbu	a3,2(a4)
300078a4:	00b485b3          	add	a1,s1,a1
300078a8:	0305c603          	lbu	a2,48(a1)
300078ac:	00174703          	lbu	a4,1(a4)
300078b0:	01879793          	slli	a5,a5,0x18
300078b4:	01069693          	slli	a3,a3,0x10
300078b8:	00d7e7b3          	or	a5,a5,a3
300078bc:	00c7e7b3          	or	a5,a5,a2
300078c0:	00871713          	slli	a4,a4,0x8
300078c4:	00e7e7b3          	or	a5,a5,a4
300078c8:	00479793          	slli	a5,a5,0x4
300078cc:	0047d793          	srli	a5,a5,0x4
300078d0:	eedff06f          	j	300077bc <_Z7get_fatP5FATFSm+0x50>
300078d4:	02052783          	lw	a5,32(a0)
300078d8:	0085d593          	srli	a1,a1,0x8
300078dc:	00f585b3          	add	a1,a1,a5
300078e0:	f91fc0ef          	jal	ra,30004870 <_ZL11move_windowP5FATFSm>
300078e4:	f60518e3          	bnez	a0,30007854 <_Z7get_fatP5FATFSm+0xe8>
300078e8:	00141593          	slli	a1,s0,0x1
300078ec:	1fe5f593          	andi	a1,a1,510
300078f0:	00b485b3          	add	a1,s1,a1
300078f4:	0315c783          	lbu	a5,49(a1)
300078f8:	0305c703          	lbu	a4,48(a1)
300078fc:	00879793          	slli	a5,a5,0x8
30007900:	00e7e7b3          	or	a5,a5,a4
30007904:	eb9ff06f          	j	300077bc <_Z7get_fatP5FATFSm+0x50>

30007908 <_Z7put_fatP5FATFSmm>:
30007908:	fe010113          	addi	sp,sp,-32
3000790c:	01312623          	sw	s3,12(sp)
30007910:	00112e23          	sw	ra,28(sp)
30007914:	00812c23          	sw	s0,24(sp)
30007918:	00912a23          	sw	s1,20(sp)
3000791c:	01212823          	sw	s2,16(sp)
30007920:	01412423          	sw	s4,8(sp)
30007924:	01512223          	sw	s5,4(sp)
30007928:	01612023          	sw	s6,0(sp)
3000792c:	00100793          	li	a5,1
30007930:	00200993          	li	s3,2
30007934:	02b7fc63          	bgeu	a5,a1,3000796c <_Z7put_fatP5FATFSmm+0x64>
30007938:	01852703          	lw	a4,24(a0)
3000793c:	00050493          	mv	s1,a0
30007940:	00200993          	li	s3,2
30007944:	02e5f463          	bgeu	a1,a4,3000796c <_Z7put_fatP5FATFSmm+0x64>
30007948:	00054a03          	lbu	s4,0(a0)
3000794c:	00060913          	mv	s2,a2
30007950:	00058413          	mv	s0,a1
30007954:	053a0263          	beq	s4,s3,30007998 <_Z7put_fatP5FATFSmm+0x90>
30007958:	00300713          	li	a4,3
3000795c:	0eea0c63          	beq	s4,a4,30007a54 <_Z7put_fatP5FATFSmm+0x14c>
30007960:	06fa0663          	beq	s4,a5,300079cc <_Z7put_fatP5FATFSmm+0xc4>
30007964:	00100793          	li	a5,1
30007968:	00f48223          	sb	a5,4(s1)
3000796c:	01c12083          	lw	ra,28(sp)
30007970:	01812403          	lw	s0,24(sp)
30007974:	00098513          	mv	a0,s3
30007978:	01412483          	lw	s1,20(sp)
3000797c:	01012903          	lw	s2,16(sp)
30007980:	00c12983          	lw	s3,12(sp)
30007984:	00812a03          	lw	s4,8(sp)
30007988:	00412a83          	lw	s5,4(sp)
3000798c:	00012b03          	lw	s6,0(sp)
30007990:	02010113          	addi	sp,sp,32
30007994:	00008067          	ret
30007998:	02052783          	lw	a5,32(a0)
3000799c:	0085d593          	srli	a1,a1,0x8
300079a0:	00f585b3          	add	a1,a1,a5
300079a4:	ecdfc0ef          	jal	ra,30004870 <_ZL11move_windowP5FATFSm>
300079a8:	00050993          	mv	s3,a0
300079ac:	fa051ce3          	bnez	a0,30007964 <_Z7put_fatP5FATFSmm+0x5c>
300079b0:	00141793          	slli	a5,s0,0x1
300079b4:	1fe7f793          	andi	a5,a5,510
300079b8:	00f487b3          	add	a5,s1,a5
300079bc:	40895713          	srai	a4,s2,0x8
300079c0:	03278823          	sb	s2,48(a5)
300079c4:	02e788a3          	sb	a4,49(a5)
300079c8:	f9dff06f          	j	30007964 <_Z7put_fatP5FATFSmm+0x5c>
300079cc:	02052783          	lw	a5,32(a0)
300079d0:	0015da93          	srli	s5,a1,0x1
300079d4:	00ba8ab3          	add	s5,s5,a1
300079d8:	009ad593          	srli	a1,s5,0x9
300079dc:	00f585b3          	add	a1,a1,a5
300079e0:	e91fc0ef          	jal	ra,30004870 <_ZL11move_windowP5FATFSm>
300079e4:	00050993          	mv	s3,a0
300079e8:	f6051ee3          	bnez	a0,30007964 <_Z7put_fatP5FATFSmm+0x5c>
300079ec:	0204a783          	lw	a5,32(s1)
300079f0:	001a8b13          	addi	s6,s5,1
300079f4:	009b5593          	srli	a1,s6,0x9
300079f8:	1ffafa93          	andi	s5,s5,511
300079fc:	00147413          	andi	s0,s0,1
30007a00:	00f585b3          	add	a1,a1,a5
30007a04:	01548ab3          	add	s5,s1,s5
30007a08:	0a040663          	beqz	s0,30007ab4 <_Z7put_fatP5FATFSmm+0x1ac>
30007a0c:	030ac783          	lbu	a5,48(s5)
30007a10:	000016b7          	lui	a3,0x1
30007a14:	00491713          	slli	a4,s2,0x4
30007a18:	ff068693          	addi	a3,a3,-16 # ff0 <stackPointer-0x5d50>
30007a1c:	00f7f793          	andi	a5,a5,15
30007a20:	00d77733          	and	a4,a4,a3
30007a24:	00e7e7b3          	or	a5,a5,a4
30007a28:	02fa8823          	sb	a5,48(s5)
30007a2c:	01448223          	sb	s4,4(s1)
30007a30:	00048513          	mv	a0,s1
30007a34:	e3dfc0ef          	jal	ra,30004870 <_ZL11move_windowP5FATFSm>
30007a38:	0a051a63          	bnez	a0,30007aec <_Z7put_fatP5FATFSmm+0x1e4>
30007a3c:	1ffb7b13          	andi	s6,s6,511
30007a40:	00495793          	srli	a5,s2,0x4
30007a44:	0ff7f793          	andi	a5,a5,255
30007a48:	01648b33          	add	s6,s1,s6
30007a4c:	02fb0823          	sb	a5,48(s6)
30007a50:	f15ff06f          	j	30007964 <_Z7put_fatP5FATFSmm+0x5c>
30007a54:	02052783          	lw	a5,32(a0)
30007a58:	0075d593          	srli	a1,a1,0x7
30007a5c:	00f585b3          	add	a1,a1,a5
30007a60:	e11fc0ef          	jal	ra,30004870 <_ZL11move_windowP5FATFSm>
30007a64:	00050993          	mv	s3,a0
30007a68:	ee051ee3          	bnez	a0,30007964 <_Z7put_fatP5FATFSmm+0x5c>
30007a6c:	00241593          	slli	a1,s0,0x2
30007a70:	1fc5f593          	andi	a1,a1,508
30007a74:	03058713          	addi	a4,a1,48
30007a78:	00e48733          	add	a4,s1,a4
30007a7c:	00374783          	lbu	a5,3(a4)
30007a80:	f00006b7          	lui	a3,0xf0000
30007a84:	00b485b3          	add	a1,s1,a1
30007a88:	01879793          	slli	a5,a5,0x18
30007a8c:	00d7f7b3          	and	a5,a5,a3
30007a90:	0127e933          	or	s2,a5,s2
30007a94:	03258823          	sb	s2,48(a1)
30007a98:	40895693          	srai	a3,s2,0x8
30007a9c:	01095793          	srli	a5,s2,0x10
30007aa0:	01895913          	srli	s2,s2,0x18
30007aa4:	00d700a3          	sb	a3,1(a4)
30007aa8:	00f70123          	sb	a5,2(a4)
30007aac:	012701a3          	sb	s2,3(a4)
30007ab0:	eb5ff06f          	j	30007964 <_Z7put_fatP5FATFSmm+0x5c>
30007ab4:	032a8823          	sb	s2,48(s5)
30007ab8:	01448223          	sb	s4,4(s1)
30007abc:	00048513          	mv	a0,s1
30007ac0:	db1fc0ef          	jal	ra,30004870 <_ZL11move_windowP5FATFSm>
30007ac4:	02051463          	bnez	a0,30007aec <_Z7put_fatP5FATFSmm+0x1e4>
30007ac8:	1ffb7b13          	andi	s6,s6,511
30007acc:	01648b33          	add	s6,s1,s6
30007ad0:	030b4703          	lbu	a4,48(s6)
30007ad4:	00895793          	srli	a5,s2,0x8
30007ad8:	00f7f793          	andi	a5,a5,15
30007adc:	ff077713          	andi	a4,a4,-16
30007ae0:	00f767b3          	or	a5,a4,a5
30007ae4:	02fb0823          	sb	a5,48(s6)
30007ae8:	e7dff06f          	j	30007964 <_Z7put_fatP5FATFSmm+0x5c>
30007aec:	00050993          	mv	s3,a0
30007af0:	e75ff06f          	j	30007964 <_Z7put_fatP5FATFSmm+0x5c>

30007af4 <_Z11gen_numnamePhPKhPKtt>:
30007af4:	00458793          	addi	a5,a1,4
30007af8:	00450713          	addi	a4,a0,4
30007afc:	00f537b3          	sltu	a5,a0,a5
30007b00:	00e5b733          	sltu	a4,a1,a4
30007b04:	0017c793          	xori	a5,a5,1
30007b08:	00174713          	xori	a4,a4,1
30007b0c:	00e7e7b3          	or	a5,a5,a4
30007b10:	ff010113          	addi	sp,sp,-16
30007b14:	24078c63          	beqz	a5,30007d6c <_Z11gen_numnamePhPKhPKtt+0x278>
30007b18:	00b567b3          	or	a5,a0,a1
30007b1c:	0037f793          	andi	a5,a5,3
30007b20:	24079663          	bnez	a5,30007d6c <_Z11gen_numnamePhPKhPKtt+0x278>
30007b24:	0005a783          	lw	a5,0(a1)
30007b28:	00f52023          	sw	a5,0(a0)
30007b2c:	0045a783          	lw	a5,4(a1)
30007b30:	00f52223          	sw	a5,4(a0)
30007b34:	0085c783          	lbu	a5,8(a1)
30007b38:	00f50423          	sb	a5,8(a0)
30007b3c:	0095c783          	lbu	a5,9(a1)
30007b40:	00f504a3          	sb	a5,9(a0)
30007b44:	00a5c783          	lbu	a5,10(a1)
30007b48:	00f50523          	sb	a5,10(a0)
30007b4c:	00500793          	li	a5,5
30007b50:	02d7f663          	bgeu	a5,a3,30007b7c <_Z11gen_numnamePhPKhPKtt+0x88>
30007b54:	00065703          	lhu	a4,0(a2)
30007b58:	00f69793          	slli	a5,a3,0xf
30007b5c:	00260613          	addi	a2,a2,2
30007b60:	00f707b3          	add	a5,a4,a5
30007b64:	0016d693          	srli	a3,a3,0x1
30007b68:	00065703          	lhu	a4,0(a2)
30007b6c:	00d786b3          	add	a3,a5,a3
30007b70:	01069693          	slli	a3,a3,0x10
30007b74:	0106d693          	srli	a3,a3,0x10
30007b78:	fe0710e3          	bnez	a4,30007b58 <_Z11gen_numnamePhPKhPKtt+0x64>
30007b7c:	00f6f713          	andi	a4,a3,15
30007b80:	03070793          	addi	a5,a4,48
30007b84:	03900613          	li	a2,57
30007b88:	00f67463          	bgeu	a2,a5,30007b90 <_Z11gen_numnamePhPKhPKtt+0x9c>
30007b8c:	03770793          	addi	a5,a4,55
30007b90:	00f107a3          	sb	a5,15(sp)
30007b94:	00f00793          	li	a5,15
30007b98:	0046d713          	srli	a4,a3,0x4
30007b9c:	20d7fa63          	bgeu	a5,a3,30007db0 <_Z11gen_numnamePhPKhPKtt+0x2bc>
30007ba0:	00f77613          	andi	a2,a4,15
30007ba4:	03060793          	addi	a5,a2,48
30007ba8:	03900593          	li	a1,57
30007bac:	16f5e063          	bltu	a1,a5,30007d0c <_Z11gen_numnamePhPKhPKtt+0x218>
30007bb0:	00f10723          	sb	a5,14(sp)
30007bb4:	00f00793          	li	a5,15
30007bb8:	0086d613          	srli	a2,a3,0x8
30007bbc:	16e7f263          	bgeu	a5,a4,30007d20 <_Z11gen_numnamePhPKhPKtt+0x22c>
30007bc0:	00f67713          	andi	a4,a2,15
30007bc4:	03070793          	addi	a5,a4,48
30007bc8:	03900593          	li	a1,57
30007bcc:	16f5e863          	bltu	a1,a5,30007d3c <_Z11gen_numnamePhPKhPKtt+0x248>
30007bd0:	00f106a3          	sb	a5,13(sp)
30007bd4:	00f00793          	li	a5,15
30007bd8:	00c6d693          	srli	a3,a3,0xc
30007bdc:	1ec7f463          	bgeu	a5,a2,30007dc4 <_Z11gen_numnamePhPKhPKtt+0x2d0>
30007be0:	0ff6f693          	andi	a3,a3,255
30007be4:	03068793          	addi	a5,a3,48 # f0000030 <__bss_end__+0xbff00030>
30007be8:	0ff7f793          	andi	a5,a5,255
30007bec:	03900713          	li	a4,57
30007bf0:	16f76463          	bltu	a4,a5,30007d58 <_Z11gen_numnamePhPKhPKtt+0x264>
30007bf4:	00f10623          	sb	a5,12(sp)
30007bf8:	00300613          	li	a2,3
30007bfc:	01010793          	addi	a5,sp,16
30007c00:	00c78833          	add	a6,a5,a2
30007c04:	07e00793          	li	a5,126
30007c08:	fef80c23          	sb	a5,-8(a6)
30007c0c:	00054703          	lbu	a4,0(a0)
30007c10:	02000793          	li	a5,32
30007c14:	1af70c63          	beq	a4,a5,30007dcc <_Z11gen_numnamePhPKhPKtt+0x2d8>
30007c18:	00000793          	li	a5,0
30007c1c:	02000593          	li	a1,32
30007c20:	00c0006f          	j	30007c2c <_Z11gen_numnamePhPKhPKtt+0x138>
30007c24:	00074683          	lbu	a3,0(a4)
30007c28:	00b68863          	beq	a3,a1,30007c38 <_Z11gen_numnamePhPKhPKtt+0x144>
30007c2c:	00178793          	addi	a5,a5,1
30007c30:	00f50733          	add	a4,a0,a5
30007c34:	fec798e3          	bne	a5,a2,30007c24 <_Z11gen_numnamePhPKhPKtt+0x130>
30007c38:	ff884583          	lbu	a1,-8(a6)
30007c3c:	00178793          	addi	a5,a5,1
30007c40:	00700693          	li	a3,7
30007c44:	00b70023          	sb	a1,0(a4)
30007c48:	00160613          	addi	a2,a2,1
30007c4c:	0af6ec63          	bltu	a3,a5,30007d04 <_Z11gen_numnamePhPKhPKtt+0x210>
30007c50:	01010713          	addi	a4,sp,16
30007c54:	00c70733          	add	a4,a4,a2
30007c58:	ff874583          	lbu	a1,-8(a4)
30007c5c:	00f50733          	add	a4,a0,a5
30007c60:	00178693          	addi	a3,a5,1
30007c64:	00b70023          	sb	a1,0(a4)
30007c68:	00800593          	li	a1,8
30007c6c:	00160713          	addi	a4,a2,1
30007c70:	08b68a63          	beq	a3,a1,30007d04 <_Z11gen_numnamePhPKhPKtt+0x210>
30007c74:	02000813          	li	a6,32
30007c78:	0ab71863          	bne	a4,a1,30007d28 <_Z11gen_numnamePhPKhPKtt+0x234>
30007c7c:	00d506b3          	add	a3,a0,a3
30007c80:	01068023          	sb	a6,0(a3)
30007c84:	00278613          	addi	a2,a5,2
30007c88:	00800693          	li	a3,8
30007c8c:	06d60c63          	beq	a2,a3,30007d04 <_Z11gen_numnamePhPKhPKtt+0x210>
30007c90:	02000593          	li	a1,32
30007c94:	0ad71863          	bne	a4,a3,30007d44 <_Z11gen_numnamePhPKhPKtt+0x250>
30007c98:	00c50633          	add	a2,a0,a2
30007c9c:	00b60023          	sb	a1,0(a2)
30007ca0:	00378693          	addi	a3,a5,3
30007ca4:	00800613          	li	a2,8
30007ca8:	04c68e63          	beq	a3,a2,30007d04 <_Z11gen_numnamePhPKhPKtt+0x210>
30007cac:	00700593          	li	a1,7
30007cb0:	02000613          	li	a2,32
30007cb4:	0ab70863          	beq	a4,a1,30007d64 <_Z11gen_numnamePhPKhPKtt+0x270>
30007cb8:	00d506b3          	add	a3,a0,a3
30007cbc:	00478713          	addi	a4,a5,4
30007cc0:	00c68023          	sb	a2,0(a3)
30007cc4:	00800593          	li	a1,8
30007cc8:	02b70e63          	beq	a4,a1,30007d04 <_Z11gen_numnamePhPKhPKtt+0x210>
30007ccc:	00e50733          	add	a4,a0,a4
30007cd0:	02000613          	li	a2,32
30007cd4:	00578693          	addi	a3,a5,5
30007cd8:	00c70023          	sb	a2,0(a4)
30007cdc:	02b68463          	beq	a3,a1,30007d04 <_Z11gen_numnamePhPKhPKtt+0x210>
30007ce0:	00d506b3          	add	a3,a0,a3
30007ce4:	00678713          	addi	a4,a5,6
30007ce8:	00c68023          	sb	a2,0(a3)
30007cec:	00b70c63          	beq	a4,a1,30007d04 <_Z11gen_numnamePhPKhPKtt+0x210>
30007cf0:	00e50733          	add	a4,a0,a4
30007cf4:	00c70023          	sb	a2,0(a4)
30007cf8:	00100713          	li	a4,1
30007cfc:	00e78463          	beq	a5,a4,30007d04 <_Z11gen_numnamePhPKhPKtt+0x210>
30007d00:	00c503a3          	sb	a2,7(a0)
30007d04:	01010113          	addi	sp,sp,16
30007d08:	00008067          	ret
30007d0c:	03760793          	addi	a5,a2,55
30007d10:	00f10723          	sb	a5,14(sp)
30007d14:	00f00793          	li	a5,15
30007d18:	0086d613          	srli	a2,a3,0x8
30007d1c:	eae7e2e3          	bltu	a5,a4,30007bc0 <_Z11gen_numnamePhPKhPKtt+0xcc>
30007d20:	00500613          	li	a2,5
30007d24:	ed9ff06f          	j	30007bfc <_Z11gen_numnamePhPKhPKtt+0x108>
30007d28:	01010593          	addi	a1,sp,16
30007d2c:	00e58733          	add	a4,a1,a4
30007d30:	ff874803          	lbu	a6,-8(a4)
30007d34:	00260713          	addi	a4,a2,2
30007d38:	f45ff06f          	j	30007c7c <_Z11gen_numnamePhPKhPKtt+0x188>
30007d3c:	03770793          	addi	a5,a4,55
30007d40:	e91ff06f          	j	30007bd0 <_Z11gen_numnamePhPKhPKtt+0xdc>
30007d44:	01010693          	addi	a3,sp,16
30007d48:	00e686b3          	add	a3,a3,a4
30007d4c:	ff86c583          	lbu	a1,-8(a3)
30007d50:	00170713          	addi	a4,a4,1
30007d54:	f45ff06f          	j	30007c98 <_Z11gen_numnamePhPKhPKtt+0x1a4>
30007d58:	03768693          	addi	a3,a3,55
30007d5c:	0ff6f793          	andi	a5,a3,255
30007d60:	e95ff06f          	j	30007bf4 <_Z11gen_numnamePhPKhPKtt+0x100>
30007d64:	00f14603          	lbu	a2,15(sp)
30007d68:	f51ff06f          	j	30007cb8 <_Z11gen_numnamePhPKhPKtt+0x1c4>
30007d6c:	0005c783          	lbu	a5,0(a1)
30007d70:	00f50023          	sb	a5,0(a0)
30007d74:	0015c783          	lbu	a5,1(a1)
30007d78:	00f500a3          	sb	a5,1(a0)
30007d7c:	0025c783          	lbu	a5,2(a1)
30007d80:	00f50123          	sb	a5,2(a0)
30007d84:	0035c783          	lbu	a5,3(a1)
30007d88:	00f501a3          	sb	a5,3(a0)
30007d8c:	0045c783          	lbu	a5,4(a1)
30007d90:	00f50223          	sb	a5,4(a0)
30007d94:	0055c783          	lbu	a5,5(a1)
30007d98:	00f502a3          	sb	a5,5(a0)
30007d9c:	0065c783          	lbu	a5,6(a1)
30007da0:	00f50323          	sb	a5,6(a0)
30007da4:	0075c783          	lbu	a5,7(a1)
30007da8:	00f503a3          	sb	a5,7(a0)
30007dac:	d89ff06f          	j	30007b34 <_Z11gen_numnamePhPKhPKtt+0x40>
30007db0:	07e00793          	li	a5,126
30007db4:	00f10723          	sb	a5,14(sp)
30007db8:	00600613          	li	a2,6
30007dbc:	01610813          	addi	a6,sp,22
30007dc0:	e4dff06f          	j	30007c0c <_Z11gen_numnamePhPKhPKtt+0x118>
30007dc4:	00400613          	li	a2,4
30007dc8:	e35ff06f          	j	30007bfc <_Z11gen_numnamePhPKhPKtt+0x108>
30007dcc:	ff884703          	lbu	a4,-8(a6)
30007dd0:	00160613          	addi	a2,a2,1
30007dd4:	00100793          	li	a5,1
30007dd8:	00e50023          	sb	a4,0(a0)
30007ddc:	e75ff06f          	j	30007c50 <_Z11gen_numnamePhPKhPKtt+0x15c>

30007de0 <f_mount>:
30007de0:	02051463          	bnez	a0,30007e08 <f_mount+0x28>
30007de4:	300137b7          	lui	a5,0x30013
30007de8:	3107a703          	lw	a4,784(a5) # 30013310 <_ZL5FatFs>
30007dec:	00070463          	beqz	a4,30007df4 <f_mount+0x14>
30007df0:	00070023          	sb	zero,0(a4)
30007df4:	00058463          	beqz	a1,30007dfc <f_mount+0x1c>
30007df8:	00058023          	sb	zero,0(a1)
30007dfc:	30b7a823          	sw	a1,784(a5)
30007e00:	00000513          	li	a0,0
30007e04:	00008067          	ret
30007e08:	00b00513          	li	a0,11
30007e0c:	00008067          	ret

30007e10 <f_open>:
30007e10:	fa010113          	addi	sp,sp,-96
30007e14:	04912a23          	sw	s1,84(sp)
30007e18:	05212823          	sw	s2,80(sp)
30007e1c:	05312623          	sw	s3,76(sp)
30007e20:	05412423          	sw	s4,72(sp)
30007e24:	04112e23          	sw	ra,92(sp)
30007e28:	04812c23          	sw	s0,88(sp)
30007e2c:	00060913          	mv	s2,a2
30007e30:	00b12623          	sw	a1,12(sp)
30007e34:	00052023          	sw	zero,0(a0)
30007e38:	00050493          	mv	s1,a0
30007e3c:	01e67613          	andi	a2,a2,30
30007e40:	01c10593          	addi	a1,sp,28
30007e44:	00c10513          	addi	a0,sp,12
30007e48:	c11fc0ef          	jal	ra,30004a58 <_ZL11chk_mountedPPKcPP5FATFSh>
30007e4c:	01010793          	addi	a5,sp,16
30007e50:	02f12a23          	sw	a5,52(sp)
30007e54:	300137b7          	lui	a5,0x30013
30007e58:	0d478793          	addi	a5,a5,212 # 300130d4 <_ZL6LfnBuf>
30007e5c:	02f12c23          	sw	a5,56(sp)
30007e60:	01f97993          	andi	s3,s2,31
30007e64:	01c97a13          	andi	s4,s2,28
30007e68:	02050863          	beqz	a0,30007e98 <f_open+0x88>
30007e6c:	000a0663          	beqz	s4,30007e78 <f_open+0x68>
30007e70:	00400793          	li	a5,4
30007e74:	14f50063          	beq	a0,a5,30007fb4 <f_open+0x1a4>
30007e78:	05c12083          	lw	ra,92(sp)
30007e7c:	05812403          	lw	s0,88(sp)
30007e80:	05412483          	lw	s1,84(sp)
30007e84:	05012903          	lw	s2,80(sp)
30007e88:	04c12983          	lw	s3,76(sp)
30007e8c:	04812a03          	lw	s4,72(sp)
30007e90:	06010113          	addi	sp,sp,96
30007e94:	00008067          	ret
30007e98:	00c12583          	lw	a1,12(sp)
30007e9c:	01c10513          	addi	a0,sp,28
30007ea0:	be9fd0ef          	jal	ra,30005a88 <_ZL11follow_pathP3DIRPKc>
30007ea4:	03012403          	lw	s0,48(sp)
30007ea8:	fc0512e3          	bnez	a0,30007e6c <f_open+0x5c>
30007eac:	00600513          	li	a0,6
30007eb0:	fc0404e3          	beqz	s0,30007e78 <f_open+0x68>
30007eb4:	00b44783          	lbu	a5,11(s0)
30007eb8:	020a0663          	beqz	s4,30007ee4 <f_open+0xd4>
30007ebc:	0117f793          	andi	a5,a5,17
30007ec0:	00700513          	li	a0,7
30007ec4:	fa079ae3          	bnez	a5,30007e78 <f_open+0x68>
30007ec8:	00497793          	andi	a5,s2,4
30007ecc:	00800513          	li	a0,8
30007ed0:	fa0794e3          	bnez	a5,30007e78 <f_open+0x68>
30007ed4:	00897913          	andi	s2,s2,8
30007ed8:	0e091863          	bnez	s2,30007fc8 <f_open+0x1b8>
30007edc:	01c12603          	lw	a2,28(sp)
30007ee0:	0340006f          	j	30007f14 <f_open+0x104>
30007ee4:	0107f713          	andi	a4,a5,16
30007ee8:	00400513          	li	a0,4
30007eec:	f80716e3          	bnez	a4,30007e78 <f_open+0x68>
30007ef0:	00297713          	andi	a4,s2,2
30007ef4:	00070863          	beqz	a4,30007f04 <f_open+0xf4>
30007ef8:	0017f793          	andi	a5,a5,1
30007efc:	00700513          	li	a0,7
30007f00:	f6079ce3          	bnez	a5,30007e78 <f_open+0x68>
30007f04:	00897913          	andi	s2,s2,8
30007f08:	01c12603          	lw	a2,28(sp)
30007f0c:	00090463          	beqz	s2,30007f14 <f_open+0x104>
30007f10:	0209e993          	ori	s3,s3,32
30007f14:	02c62783          	lw	a5,44(a2)
30007f18:	01348323          	sb	s3,6(s1)
30007f1c:	0284a023          	sw	s0,32(s1)
30007f20:	00f4ae23          	sw	a5,28(s1)
30007f24:	01544783          	lbu	a5,21(s0)
30007f28:	01444583          	lbu	a1,20(s0)
30007f2c:	01b44703          	lbu	a4,27(s0)
30007f30:	01a44683          	lbu	a3,26(s0)
30007f34:	00879793          	slli	a5,a5,0x8
30007f38:	00b7e7b3          	or	a5,a5,a1
30007f3c:	00871713          	slli	a4,a4,0x8
30007f40:	00d76733          	or	a4,a4,a3
30007f44:	01079793          	slli	a5,a5,0x10
30007f48:	00e7e7b3          	or	a5,a5,a4
30007f4c:	00f4a823          	sw	a5,16(s1)
30007f50:	01d44683          	lbu	a3,29(s0)
30007f54:	01c44583          	lbu	a1,28(s0)
30007f58:	01e44703          	lbu	a4,30(s0)
30007f5c:	01f44783          	lbu	a5,31(s0)
30007f60:	00869693          	slli	a3,a3,0x8
30007f64:	00b6e6b3          	or	a3,a3,a1
30007f68:	01071713          	slli	a4,a4,0x10
30007f6c:	00d76733          	or	a4,a4,a3
30007f70:	01879793          	slli	a5,a5,0x18
30007f74:	00e7e7b3          	or	a5,a5,a4
30007f78:	00f4a623          	sw	a5,12(s1)
30007f7c:	0004a423          	sw	zero,8(s1)
30007f80:	0004ac23          	sw	zero,24(s1)
30007f84:	00c4a023          	sw	a2,0(s1)
30007f88:	00665783          	lhu	a5,6(a2)
30007f8c:	05c12083          	lw	ra,92(sp)
30007f90:	05812403          	lw	s0,88(sp)
30007f94:	00f49223          	sh	a5,4(s1)
30007f98:	05012903          	lw	s2,80(sp)
30007f9c:	05412483          	lw	s1,84(sp)
30007fa0:	04c12983          	lw	s3,76(sp)
30007fa4:	04812a03          	lw	s4,72(sp)
30007fa8:	00000513          	li	a0,0
30007fac:	06010113          	addi	sp,sp,96
30007fb0:	00008067          	ret
30007fb4:	01c10513          	addi	a0,sp,28
30007fb8:	b61fe0ef          	jal	ra,30006b18 <_ZL12dir_registerP3DIR>
30007fbc:	0089e993          	ori	s3,s3,8
30007fc0:	03012403          	lw	s0,48(sp)
30007fc4:	ea051ae3          	bnez	a0,30007e78 <f_open+0x68>
30007fc8:	f7cfb0ef          	jal	ra,30003744 <get_fattime>
30007fcc:	01544783          	lbu	a5,21(s0)
30007fd0:	01444883          	lbu	a7,20(s0)
30007fd4:	01b44903          	lbu	s2,27(s0)
30007fd8:	01a44703          	lbu	a4,26(s0)
30007fdc:	00879793          	slli	a5,a5,0x8
30007fe0:	01c12603          	lw	a2,28(sp)
30007fe4:	0117e7b3          	or	a5,a5,a7
30007fe8:	00891913          	slli	s2,s2,0x8
30007fec:	01079793          	slli	a5,a5,0x10
30007ff0:	40855813          	srai	a6,a0,0x8
30007ff4:	01055593          	srli	a1,a0,0x10
30007ff8:	01855693          	srli	a3,a0,0x18
30007ffc:	00e96933          	or	s2,s2,a4
30008000:	00a40723          	sb	a0,14(s0)
30008004:	010407a3          	sb	a6,15(s0)
30008008:	00b40823          	sb	a1,16(s0)
3000800c:	00d408a3          	sb	a3,17(s0)
30008010:	000405a3          	sb	zero,11(s0)
30008014:	00040e23          	sb	zero,28(s0)
30008018:	00040ea3          	sb	zero,29(s0)
3000801c:	00040f23          	sb	zero,30(s0)
30008020:	00040fa3          	sb	zero,31(s0)
30008024:	00040d23          	sb	zero,26(s0)
30008028:	00040da3          	sb	zero,27(s0)
3000802c:	00040a23          	sb	zero,20(s0)
30008030:	00040aa3          	sb	zero,21(s0)
30008034:	0127e933          	or	s2,a5,s2
30008038:	00100793          	li	a5,1
3000803c:	00f60223          	sb	a5,4(a2)
30008040:	ec0908e3          	beqz	s2,30007f10 <f_open+0x100>
30008044:	00100793          	li	a5,1
30008048:	00200513          	li	a0,2
3000804c:	e2f906e3          	beq	s2,a5,30007e78 <f_open+0x68>
30008050:	01862783          	lw	a5,24(a2)
30008054:	e2f972e3          	bgeu	s2,a5,30007e78 <f_open+0x68>
30008058:	00090593          	mv	a1,s2
3000805c:	00060513          	mv	a0,a2
30008060:	02c62a03          	lw	s4,44(a2)
30008064:	8b5fe0ef          	jal	ra,30006918 <_ZL12remove_chainP5FATFSm.part.8>
30008068:	e00518e3          	bnez	a0,30007e78 <f_open+0x68>
3000806c:	01c12503          	lw	a0,28(sp)
30008070:	fff90913          	addi	s2,s2,-1
30008074:	000a0593          	mv	a1,s4
30008078:	01252623          	sw	s2,12(a0)
3000807c:	ff4fc0ef          	jal	ra,30004870 <_ZL11move_windowP5FATFSm>
30008080:	de051ce3          	bnez	a0,30007e78 <f_open+0x68>
30008084:	01c12603          	lw	a2,28(sp)
30008088:	e89ff06f          	j	30007f10 <f_open+0x100>

3000808c <f_read>:
3000808c:	fb010113          	addi	sp,sp,-80
30008090:	00052783          	lw	a5,0(a0)
30008094:	04112623          	sw	ra,76(sp)
30008098:	04812423          	sw	s0,72(sp)
3000809c:	04912223          	sw	s1,68(sp)
300080a0:	05212023          	sw	s2,64(sp)
300080a4:	03312e23          	sw	s3,60(sp)
300080a8:	03412c23          	sw	s4,56(sp)
300080ac:	03512a23          	sw	s5,52(sp)
300080b0:	03612823          	sw	s6,48(sp)
300080b4:	03712623          	sw	s7,44(sp)
300080b8:	03812423          	sw	s8,40(sp)
300080bc:	03912223          	sw	s9,36(sp)
300080c0:	03a12023          	sw	s10,32(sp)
300080c4:	01b12e23          	sw	s11,28(sp)
300080c8:	0006a023          	sw	zero,0(a3)
300080cc:	00c12623          	sw	a2,12(sp)
300080d0:	14078c63          	beqz	a5,30008228 <f_read+0x19c>
300080d4:	0007c703          	lbu	a4,0(a5)
300080d8:	00050413          	mv	s0,a0
300080dc:	00900513          	li	a0,9
300080e0:	00070a63          	beqz	a4,300080f4 <f_read+0x68>
300080e4:	00068913          	mv	s2,a3
300080e8:	0067d703          	lhu	a4,6(a5)
300080ec:	00445683          	lhu	a3,4(s0)
300080f0:	04e68063          	beq	a3,a4,30008130 <f_read+0xa4>
300080f4:	04c12083          	lw	ra,76(sp)
300080f8:	04812403          	lw	s0,72(sp)
300080fc:	04412483          	lw	s1,68(sp)
30008100:	04012903          	lw	s2,64(sp)
30008104:	03c12983          	lw	s3,60(sp)
30008108:	03812a03          	lw	s4,56(sp)
3000810c:	03412a83          	lw	s5,52(sp)
30008110:	03012b03          	lw	s6,48(sp)
30008114:	02c12b83          	lw	s7,44(sp)
30008118:	02812c03          	lw	s8,40(sp)
3000811c:	02412c83          	lw	s9,36(sp)
30008120:	02012d03          	lw	s10,32(sp)
30008124:	01c12d83          	lw	s11,28(sp)
30008128:	05010113          	addi	sp,sp,80
3000812c:	00008067          	ret
30008130:	0017c503          	lbu	a0,1(a5)
30008134:	00058c93          	mv	s9,a1
30008138:	e14fb0ef          	jal	ra,3000374c <disk_status>
3000813c:	00157793          	andi	a5,a0,1
30008140:	00300513          	li	a0,3
30008144:	fa0798e3          	bnez	a5,300080f4 <f_read+0x68>
30008148:	00644783          	lbu	a5,6(s0)
3000814c:	01879713          	slli	a4,a5,0x18
30008150:	41875713          	srai	a4,a4,0x18
30008154:	2a074a63          	bltz	a4,30008408 <f_read+0x37c>
30008158:	0017f793          	andi	a5,a5,1
3000815c:	00700513          	li	a0,7
30008160:	f8078ae3          	beqz	a5,300080f4 <f_read+0x68>
30008164:	00842783          	lw	a5,8(s0)
30008168:	00c42d03          	lw	s10,12(s0)
3000816c:	00c12603          	lw	a2,12(sp)
30008170:	40fd0d33          	sub	s10,s10,a5
30008174:	01a67463          	bgeu	a2,s10,3000817c <f_read+0xf0>
30008178:	00060d13          	mv	s10,a2
3000817c:	1c0d0c63          	beqz	s10,30008354 <f_read+0x2c8>
30008180:	20000b13          	li	s6,512
30008184:	00100a13          	li	s4,1
30008188:	1ff00a93          	li	s5,511
3000818c:	fff00b93          	li	s7,-1
30008190:	1ff7f493          	andi	s1,a5,511
30008194:	00042503          	lw	a0,0(s0)
30008198:	0c049863          	bnez	s1,30008268 <f_read+0x1dc>
3000819c:	00254703          	lbu	a4,2(a0)
300081a0:	0097d993          	srli	s3,a5,0x9
300081a4:	fff70713          	addi	a4,a4,-1
300081a8:	013779b3          	and	s3,a4,s3
300081ac:	0ff9f993          	andi	s3,s3,255
300081b0:	08098063          	beqz	s3,30008230 <f_read+0x1a4>
300081b4:	01442783          	lw	a5,20(s0)
300081b8:	01852703          	lw	a4,24(a0)
300081bc:	ffe78793          	addi	a5,a5,-2
300081c0:	ffe70713          	addi	a4,a4,-2
300081c4:	08e7f863          	bgeu	a5,a4,30008254 <f_read+0x1c8>
300081c8:	00254703          	lbu	a4,2(a0)
300081cc:	02852803          	lw	a6,40(a0)
300081d0:	02e78c33          	mul	s8,a5,a4
300081d4:	010c0db3          	add	s11,s8,a6
300081d8:	060d8e63          	beqz	s11,30008254 <f_read+0x1c8>
300081dc:	01b98db3          	add	s11,s3,s11
300081e0:	23aaf863          	bgeu	s5,s10,30008410 <f_read+0x384>
300081e4:	009d5493          	srli	s1,s10,0x9
300081e8:	009987b3          	add	a5,s3,s1
300081ec:	00f77463          	bgeu	a4,a5,300081f4 <f_read+0x168>
300081f0:	413704b3          	sub	s1,a4,s3
300081f4:	00154503          	lbu	a0,1(a0)
300081f8:	0ff4f693          	andi	a3,s1,255
300081fc:	000d8613          	mv	a2,s11
30008200:	000c8593          	mv	a1,s9
30008204:	01012623          	sw	a6,12(sp)
30008208:	831fb0ef          	jal	ra,30003a38 <disk_read>
3000820c:	00c12803          	lw	a6,12(sp)
30008210:	14050663          	beqz	a0,3000835c <f_read+0x2d0>
30008214:	00644783          	lbu	a5,6(s0)
30008218:	00100513          	li	a0,1
3000821c:	f807e793          	ori	a5,a5,-128
30008220:	00f40323          	sb	a5,6(s0)
30008224:	ed1ff06f          	j	300080f4 <f_read+0x68>
30008228:	00900513          	li	a0,9
3000822c:	ec9ff06f          	j	300080f4 <f_read+0x68>
30008230:	00079e63          	bnez	a5,3000824c <f_read+0x1c0>
30008234:	01042783          	lw	a5,16(s0)
30008238:	00fa7e63          	bgeu	s4,a5,30008254 <f_read+0x1c8>
3000823c:	fd778ce3          	beq	a5,s7,30008214 <f_read+0x188>
30008240:	00042503          	lw	a0,0(s0)
30008244:	00f42a23          	sw	a5,20(s0)
30008248:	f71ff06f          	j	300081b8 <f_read+0x12c>
3000824c:	01442583          	lw	a1,20(s0)
30008250:	12ba6663          	bltu	s4,a1,3000837c <f_read+0x2f0>
30008254:	00644783          	lbu	a5,6(s0)
30008258:	00200513          	li	a0,2
3000825c:	f807e793          	ori	a5,a5,-128
30008260:	00f40323          	sb	a5,6(s0)
30008264:	e91ff06f          	j	300080f4 <f_read+0x68>
30008268:	01842d83          	lw	s11,24(s0)
3000826c:	409b04b3          	sub	s1,s6,s1
30008270:	009d7463          	bgeu	s10,s1,30008278 <f_read+0x1ec>
30008274:	000d0493          	mv	s1,s10
30008278:	000d8593          	mv	a1,s11
3000827c:	df4fc0ef          	jal	ra,30004870 <_ZL11move_windowP5FATFSm>
30008280:	f8051ae3          	bnez	a0,30008214 <f_read+0x188>
30008284:	00842703          	lw	a4,8(s0)
30008288:	00042783          	lw	a5,0(s0)
3000828c:	004c8613          	addi	a2,s9,4
30008290:	1ff77713          	andi	a4,a4,511
30008294:	03070693          	addi	a3,a4,48
30008298:	03470713          	addi	a4,a4,52
3000829c:	00d786b3          	add	a3,a5,a3
300082a0:	00e787b3          	add	a5,a5,a4
300082a4:	00fcb7b3          	sltu	a5,s9,a5
300082a8:	00c6b633          	sltu	a2,a3,a2
300082ac:	0196e733          	or	a4,a3,s9
300082b0:	0017c793          	xori	a5,a5,1
300082b4:	00164613          	xori	a2,a2,1
300082b8:	00377713          	andi	a4,a4,3
300082bc:	00c7e7b3          	or	a5,a5,a2
300082c0:	00173713          	seqz	a4,a4
300082c4:	00f777b3          	and	a5,a4,a5
300082c8:	fff48513          	addi	a0,s1,-1
300082cc:	14078a63          	beqz	a5,30008420 <f_read+0x394>
300082d0:	00953793          	sltiu	a5,a0,9
300082d4:	14079663          	bnez	a5,30008420 <f_read+0x394>
300082d8:	ffc4f593          	andi	a1,s1,-4
300082dc:	00068793          	mv	a5,a3
300082e0:	000c8713          	mv	a4,s9
300082e4:	00d585b3          	add	a1,a1,a3
300082e8:	0007a603          	lw	a2,0(a5)
300082ec:	00470713          	addi	a4,a4,4
300082f0:	00478793          	addi	a5,a5,4
300082f4:	fec72e23          	sw	a2,-4(a4)
300082f8:	feb798e3          	bne	a5,a1,300082e8 <f_read+0x25c>
300082fc:	ffc4f793          	andi	a5,s1,-4
30008300:	40f50533          	sub	a0,a0,a5
30008304:	00f686b3          	add	a3,a3,a5
30008308:	00fc8733          	add	a4,s9,a5
3000830c:	02f48263          	beq	s1,a5,30008330 <f_read+0x2a4>
30008310:	0006c783          	lbu	a5,0(a3)
30008314:	00f70023          	sb	a5,0(a4)
30008318:	00050c63          	beqz	a0,30008330 <f_read+0x2a4>
3000831c:	0016c783          	lbu	a5,1(a3)
30008320:	00f700a3          	sb	a5,1(a4)
30008324:	01450663          	beq	a0,s4,30008330 <f_read+0x2a4>
30008328:	0026c783          	lbu	a5,2(a3)
3000832c:	00f70123          	sb	a5,2(a4)
30008330:	00842783          	lw	a5,8(s0)
30008334:	00092703          	lw	a4,0(s2)
30008338:	409d0d33          	sub	s10,s10,s1
3000833c:	00f487b3          	add	a5,s1,a5
30008340:	00f42423          	sw	a5,8(s0)
30008344:	00970733          	add	a4,a4,s1
30008348:	00e92023          	sw	a4,0(s2)
3000834c:	009c8cb3          	add	s9,s9,s1
30008350:	e40d10e3          	bnez	s10,30008190 <f_read+0x104>
30008354:	00000513          	li	a0,0
30008358:	d9dff06f          	j	300080f4 <f_read+0x68>
3000835c:	00042683          	lw	a3,0(s0)
30008360:	0046c783          	lbu	a5,4(a3)
30008364:	00078863          	beqz	a5,30008374 <f_read+0x2e8>
30008368:	02c6a783          	lw	a5,44(a3)
3000836c:	41b78db3          	sub	s11,a5,s11
30008370:	029de063          	bltu	s11,s1,30008390 <f_read+0x304>
30008374:	00949493          	slli	s1,s1,0x9
30008378:	fb9ff06f          	j	30008330 <f_read+0x2a4>
3000837c:	01852783          	lw	a5,24(a0)
30008380:	ecf5fae3          	bgeu	a1,a5,30008254 <f_read+0x1c8>
30008384:	aa1fc0ef          	jal	ra,30004e24 <_Z7get_fatP5FATFSm.part.5>
30008388:	00050793          	mv	a5,a0
3000838c:	eadff06f          	j	30008238 <f_read+0x1ac>
30008390:	413787b3          	sub	a5,a5,s3
30008394:	410787b3          	sub	a5,a5,a6
30008398:	418787b3          	sub	a5,a5,s8
3000839c:	00979793          	slli	a5,a5,0x9
300083a0:	00478593          	addi	a1,a5,4
300083a4:	00fc8733          	add	a4,s9,a5
300083a8:	03068613          	addi	a2,a3,48
300083ac:	03468793          	addi	a5,a3,52
300083b0:	00bc85b3          	add	a1,s9,a1
300083b4:	00b636b3          	sltu	a3,a2,a1
300083b8:	00f737b3          	sltu	a5,a4,a5
300083bc:	0017c793          	xori	a5,a5,1
300083c0:	0016c693          	xori	a3,a3,1
300083c4:	009d9d93          	slli	s11,s11,0x9
300083c8:	00f6e6b3          	or	a3,a3,a5
300083cc:	01bc87b3          	add	a5,s9,s11
300083d0:	06068863          	beqz	a3,30008440 <f_read+0x3b4>
300083d4:	00c766b3          	or	a3,a4,a2
300083d8:	0036f693          	andi	a3,a3,3
300083dc:	06069263          	bnez	a3,30008440 <f_read+0x3b4>
300083e0:	00070793          	mv	a5,a4
300083e4:	00060713          	mv	a4,a2
300083e8:	20078613          	addi	a2,a5,512
300083ec:	00072683          	lw	a3,0(a4)
300083f0:	00478793          	addi	a5,a5,4
300083f4:	00470713          	addi	a4,a4,4
300083f8:	fed7ae23          	sw	a3,-4(a5)
300083fc:	fec798e3          	bne	a5,a2,300083ec <f_read+0x360>
30008400:	00949493          	slli	s1,s1,0x9
30008404:	f2dff06f          	j	30008330 <f_read+0x2a4>
30008408:	00200513          	li	a0,2
3000840c:	ce9ff06f          	j	300080f4 <f_read+0x68>
30008410:	00842483          	lw	s1,8(s0)
30008414:	01b42c23          	sw	s11,24(s0)
30008418:	1ff4f493          	andi	s1,s1,511
3000841c:	e51ff06f          	j	3000826c <f_read+0x1e0>
30008420:	00968633          	add	a2,a3,s1
30008424:	000c8793          	mv	a5,s9
30008428:	00168693          	addi	a3,a3,1
3000842c:	fff6c703          	lbu	a4,-1(a3)
30008430:	00178793          	addi	a5,a5,1
30008434:	fee78fa3          	sb	a4,-1(a5)
30008438:	fec698e3          	bne	a3,a2,30008428 <f_read+0x39c>
3000843c:	ef5ff06f          	j	30008330 <f_read+0x2a4>
30008440:	20078693          	addi	a3,a5,512
30008444:	00160613          	addi	a2,a2,1
30008448:	fff64703          	lbu	a4,-1(a2)
3000844c:	00178793          	addi	a5,a5,1
30008450:	fee78fa3          	sb	a4,-1(a5)
30008454:	fef698e3          	bne	a3,a5,30008444 <f_read+0x3b8>
30008458:	00949493          	slli	s1,s1,0x9
3000845c:	ed5ff06f          	j	30008330 <f_read+0x2a4>

30008460 <f_write>:
30008460:	00052783          	lw	a5,0(a0)
30008464:	0006a023          	sw	zero,0(a3)
30008468:	1c078463          	beqz	a5,30008630 <f_write+0x1d0>
3000846c:	fb010113          	addi	sp,sp,-80
30008470:	04812423          	sw	s0,72(sp)
30008474:	04112623          	sw	ra,76(sp)
30008478:	04912223          	sw	s1,68(sp)
3000847c:	05212023          	sw	s2,64(sp)
30008480:	03312e23          	sw	s3,60(sp)
30008484:	03412c23          	sw	s4,56(sp)
30008488:	03512a23          	sw	s5,52(sp)
3000848c:	03612823          	sw	s6,48(sp)
30008490:	03712623          	sw	s7,44(sp)
30008494:	03812423          	sw	s8,40(sp)
30008498:	03912223          	sw	s9,36(sp)
3000849c:	03a12023          	sw	s10,32(sp)
300084a0:	01b12e23          	sw	s11,28(sp)
300084a4:	0007c703          	lbu	a4,0(a5)
300084a8:	00050413          	mv	s0,a0
300084ac:	00900513          	li	a0,9
300084b0:	00070a63          	beqz	a4,300084c4 <f_write+0x64>
300084b4:	00068993          	mv	s3,a3
300084b8:	0067d703          	lhu	a4,6(a5)
300084bc:	00445683          	lhu	a3,4(s0)
300084c0:	04e68063          	beq	a3,a4,30008500 <f_write+0xa0>
300084c4:	04c12083          	lw	ra,76(sp)
300084c8:	04812403          	lw	s0,72(sp)
300084cc:	04412483          	lw	s1,68(sp)
300084d0:	04012903          	lw	s2,64(sp)
300084d4:	03c12983          	lw	s3,60(sp)
300084d8:	03812a03          	lw	s4,56(sp)
300084dc:	03412a83          	lw	s5,52(sp)
300084e0:	03012b03          	lw	s6,48(sp)
300084e4:	02c12b83          	lw	s7,44(sp)
300084e8:	02812c03          	lw	s8,40(sp)
300084ec:	02412c83          	lw	s9,36(sp)
300084f0:	02012d03          	lw	s10,32(sp)
300084f4:	01c12d83          	lw	s11,28(sp)
300084f8:	05010113          	addi	sp,sp,80
300084fc:	00008067          	ret
30008500:	0017c503          	lbu	a0,1(a5)
30008504:	00058913          	mv	s2,a1
30008508:	00060c93          	mv	s9,a2
3000850c:	a40fb0ef          	jal	ra,3000374c <disk_status>
30008510:	00157793          	andi	a5,a0,1
30008514:	00300513          	li	a0,3
30008518:	fa0796e3          	bnez	a5,300084c4 <f_write+0x64>
3000851c:	00644703          	lbu	a4,6(s0)
30008520:	01871793          	slli	a5,a4,0x18
30008524:	4187d793          	srai	a5,a5,0x18
30008528:	3a07c463          	bltz	a5,300088d0 <f_write+0x470>
3000852c:	00277793          	andi	a5,a4,2
30008530:	00700513          	li	a0,7
30008534:	f80788e3          	beqz	a5,300084c4 <f_write+0x64>
30008538:	00c42683          	lw	a3,12(s0)
3000853c:	00842783          	lw	a5,8(s0)
30008540:	01968633          	add	a2,a3,s9
30008544:	1ed66a63          	bltu	a2,a3,30008738 <f_write+0x2d8>
30008548:	1e0c8863          	beqz	s9,30008738 <f_write+0x2d8>
3000854c:	20000a93          	li	s5,512
30008550:	00100b13          	li	s6,1
30008554:	00100a13          	li	s4,1
30008558:	1ff00b93          	li	s7,511
3000855c:	fff00c13          	li	s8,-1
30008560:	1ff7f493          	andi	s1,a5,511
30008564:	00042d03          	lw	s10,0(s0)
30008568:	0c049863          	bnez	s1,30008638 <f_write+0x1d8>
3000856c:	002d4703          	lbu	a4,2(s10)
30008570:	0097d493          	srli	s1,a5,0x9
30008574:	fff70713          	addi	a4,a4,-1
30008578:	009774b3          	and	s1,a4,s1
3000857c:	0ff4f493          	andi	s1,s1,255
30008580:	02049063          	bnez	s1,300085a0 <f_write+0x140>
30008584:	34079a63          	bnez	a5,300088d8 <f_write+0x478>
30008588:	01042503          	lw	a0,16(s0)
3000858c:	20050463          	beqz	a0,30008794 <f_write+0x334>
30008590:	1d450063          	beq	a0,s4,30008750 <f_write+0x2f0>
30008594:	09850463          	beq	a0,s8,3000861c <f_write+0x1bc>
30008598:	00042d03          	lw	s10,0(s0)
3000859c:	00a42a23          	sw	a0,20(s0)
300085a0:	02cd2783          	lw	a5,44(s10)
300085a4:	01842703          	lw	a4,24(s0)
300085a8:	2ae78063          	beq	a5,a4,30008848 <f_write+0x3e8>
300085ac:	01442783          	lw	a5,20(s0)
300085b0:	018d2703          	lw	a4,24(s10)
300085b4:	ffe78793          	addi	a5,a5,-2
300085b8:	ffe70713          	addi	a4,a4,-2
300085bc:	18e7fa63          	bgeu	a5,a4,30008750 <f_write+0x2f0>
300085c0:	002d4703          	lbu	a4,2(s10)
300085c4:	028d2803          	lw	a6,40(s10)
300085c8:	02e78db3          	mul	s11,a5,a4
300085cc:	010d87b3          	add	a5,s11,a6
300085d0:	18078063          	beqz	a5,30008750 <f_write+0x2f0>
300085d4:	00f487b3          	add	a5,s1,a5
300085d8:	199bf663          	bgeu	s7,s9,30008764 <f_write+0x304>
300085dc:	009cd893          	srli	a7,s9,0x9
300085e0:	011486b3          	add	a3,s1,a7
300085e4:	00d77463          	bgeu	a4,a3,300085ec <f_write+0x18c>
300085e8:	409708b3          	sub	a7,a4,s1
300085ec:	001d4503          	lbu	a0,1(s10)
300085f0:	0ff8f693          	andi	a3,a7,255
300085f4:	00078613          	mv	a2,a5
300085f8:	00090593          	mv	a1,s2
300085fc:	01012623          	sw	a6,12(sp)
30008600:	01112423          	sw	a7,8(sp)
30008604:	00f12223          	sw	a5,4(sp)
30008608:	d80fb0ef          	jal	ra,30003b88 <disk_write>
3000860c:	00412783          	lw	a5,4(sp)
30008610:	00812883          	lw	a7,8(sp)
30008614:	00c12803          	lw	a6,12(sp)
30008618:	16050263          	beqz	a0,3000877c <f_write+0x31c>
3000861c:	00644783          	lbu	a5,6(s0)
30008620:	00100513          	li	a0,1
30008624:	f807e793          	ori	a5,a5,-128
30008628:	00f40323          	sb	a5,6(s0)
3000862c:	e99ff06f          	j	300084c4 <f_write+0x64>
30008630:	00900513          	li	a0,9
30008634:	00008067          	ret
30008638:	01842783          	lw	a5,24(s0)
3000863c:	409a84b3          	sub	s1,s5,s1
30008640:	009cf463          	bgeu	s9,s1,30008648 <f_write+0x1e8>
30008644:	000c8493          	mv	s1,s9
30008648:	00078593          	mv	a1,a5
3000864c:	000d0513          	mv	a0,s10
30008650:	a20fc0ef          	jal	ra,30004870 <_ZL11move_windowP5FATFSm>
30008654:	fc0514e3          	bnez	a0,3000861c <f_write+0x1bc>
30008658:	00842683          	lw	a3,8(s0)
3000865c:	00042783          	lw	a5,0(s0)
30008660:	00490613          	addi	a2,s2,4
30008664:	1ff6f693          	andi	a3,a3,511
30008668:	03068713          	addi	a4,a3,48
3000866c:	03468693          	addi	a3,a3,52
30008670:	00e78733          	add	a4,a5,a4
30008674:	00d787b3          	add	a5,a5,a3
30008678:	00f937b3          	sltu	a5,s2,a5
3000867c:	00c73633          	sltu	a2,a4,a2
30008680:	012766b3          	or	a3,a4,s2
30008684:	0017c793          	xori	a5,a5,1
30008688:	00164613          	xori	a2,a2,1
3000868c:	0036f693          	andi	a3,a3,3
30008690:	00c7e7b3          	or	a5,a5,a2
30008694:	0016b693          	seqz	a3,a3
30008698:	00f6f7b3          	and	a5,a3,a5
3000869c:	fff48513          	addi	a0,s1,-1
300086a0:	24078463          	beqz	a5,300088e8 <f_write+0x488>
300086a4:	00953793          	sltiu	a5,a0,9
300086a8:	24079063          	bnez	a5,300088e8 <f_write+0x488>
300086ac:	ffc4f593          	andi	a1,s1,-4
300086b0:	00090793          	mv	a5,s2
300086b4:	00070693          	mv	a3,a4
300086b8:	012585b3          	add	a1,a1,s2
300086bc:	0007a603          	lw	a2,0(a5)
300086c0:	00468693          	addi	a3,a3,4
300086c4:	00478793          	addi	a5,a5,4
300086c8:	fec6ae23          	sw	a2,-4(a3)
300086cc:	feb798e3          	bne	a5,a1,300086bc <f_write+0x25c>
300086d0:	ffc4f793          	andi	a5,s1,-4
300086d4:	40f50533          	sub	a0,a0,a5
300086d8:	00f906b3          	add	a3,s2,a5
300086dc:	00f70733          	add	a4,a4,a5
300086e0:	02f48263          	beq	s1,a5,30008704 <f_write+0x2a4>
300086e4:	0006c783          	lbu	a5,0(a3)
300086e8:	00f70023          	sb	a5,0(a4)
300086ec:	00050c63          	beqz	a0,30008704 <f_write+0x2a4>
300086f0:	0016c783          	lbu	a5,1(a3)
300086f4:	00f700a3          	sb	a5,1(a4)
300086f8:	01450663          	beq	a0,s4,30008704 <f_write+0x2a4>
300086fc:	0026c783          	lbu	a5,2(a3)
30008700:	00f70123          	sb	a5,2(a4)
30008704:	00042783          	lw	a5,0(s0)
30008708:	01678223          	sb	s6,4(a5)
3000870c:	00842783          	lw	a5,8(s0)
30008710:	0009a703          	lw	a4,0(s3)
30008714:	409c8cb3          	sub	s9,s9,s1
30008718:	00f487b3          	add	a5,s1,a5
3000871c:	00f42423          	sw	a5,8(s0)
30008720:	00970733          	add	a4,a4,s1
30008724:	00e9a023          	sw	a4,0(s3)
30008728:	00990933          	add	s2,s2,s1
3000872c:	e20c9ae3          	bnez	s9,30008560 <f_write+0x100>
30008730:	00c42683          	lw	a3,12(s0)
30008734:	00644703          	lbu	a4,6(s0)
30008738:	00f6f463          	bgeu	a3,a5,30008740 <f_write+0x2e0>
3000873c:	00f42623          	sw	a5,12(s0)
30008740:	02076713          	ori	a4,a4,32
30008744:	00e40323          	sb	a4,6(s0)
30008748:	00000513          	li	a0,0
3000874c:	d79ff06f          	j	300084c4 <f_write+0x64>
30008750:	00644783          	lbu	a5,6(s0)
30008754:	00200513          	li	a0,2
30008758:	f807e793          	ori	a5,a5,-128
3000875c:	00f40323          	sb	a5,6(s0)
30008760:	d65ff06f          	j	300084c4 <f_write+0x64>
30008764:	00842483          	lw	s1,8(s0)
30008768:	00c42703          	lw	a4,12(s0)
3000876c:	18e4fe63          	bgeu	s1,a4,30008908 <f_write+0x4a8>
30008770:	00f42c23          	sw	a5,24(s0)
30008774:	1ff4f493          	andi	s1,s1,511
30008778:	ec5ff06f          	j	3000863c <f_write+0x1dc>
3000877c:	00042683          	lw	a3,0(s0)
30008780:	02c6a703          	lw	a4,44(a3)
30008784:	40f70633          	sub	a2,a4,a5
30008788:	03166863          	bltu	a2,a7,300087b8 <f_write+0x358>
3000878c:	00989493          	slli	s1,a7,0x9
30008790:	f7dff06f          	j	3000870c <f_write+0x2ac>
30008794:	00000593          	li	a1,0
30008798:	000d0513          	mv	a0,s10
3000879c:	ec1fd0ef          	jal	ra,3000665c <_ZL12create_chainP5FATFSm>
300087a0:	00a42823          	sw	a0,16(s0)
300087a4:	de0516e3          	bnez	a0,30008590 <f_write+0x130>
300087a8:	00c42683          	lw	a3,12(s0)
300087ac:	00644703          	lbu	a4,6(s0)
300087b0:	00842783          	lw	a5,8(s0)
300087b4:	f85ff06f          	j	30008738 <f_write+0x2d8>
300087b8:	40970733          	sub	a4,a4,s1
300087bc:	41070733          	sub	a4,a4,a6
300087c0:	41b70733          	sub	a4,a4,s11
300087c4:	00971713          	slli	a4,a4,0x9
300087c8:	00470593          	addi	a1,a4,4
300087cc:	03068793          	addi	a5,a3,48
300087d0:	03468513          	addi	a0,a3,52
300087d4:	00e90733          	add	a4,s2,a4
300087d8:	00b905b3          	add	a1,s2,a1
300087dc:	00b7b5b3          	sltu	a1,a5,a1
300087e0:	00a73533          	sltu	a0,a4,a0
300087e4:	0015c593          	xori	a1,a1,1
300087e8:	00154513          	xori	a0,a0,1
300087ec:	00961613          	slli	a2,a2,0x9
300087f0:	00a5e5b3          	or	a1,a1,a0
300087f4:	00c90633          	add	a2,s2,a2
300087f8:	23068693          	addi	a3,a3,560
300087fc:	02058a63          	beqz	a1,30008830 <f_write+0x3d0>
30008800:	00e7e5b3          	or	a1,a5,a4
30008804:	0035f593          	andi	a1,a1,3
30008808:	02059463          	bnez	a1,30008830 <f_write+0x3d0>
3000880c:	00072603          	lw	a2,0(a4)
30008810:	00478793          	addi	a5,a5,4
30008814:	00470713          	addi	a4,a4,4
30008818:	fec7ae23          	sw	a2,-4(a5)
3000881c:	fed798e3          	bne	a5,a3,3000880c <f_write+0x3ac>
30008820:	00042783          	lw	a5,0(s0)
30008824:	00989493          	slli	s1,a7,0x9
30008828:	00078223          	sb	zero,4(a5)
3000882c:	ee1ff06f          	j	3000870c <f_write+0x2ac>
30008830:	00160613          	addi	a2,a2,1
30008834:	fff64703          	lbu	a4,-1(a2)
30008838:	00178793          	addi	a5,a5,1
3000883c:	fee78fa3          	sb	a4,-1(a5)
30008840:	fef698e3          	bne	a3,a5,30008830 <f_write+0x3d0>
30008844:	fddff06f          	j	30008820 <f_write+0x3c0>
30008848:	d60782e3          	beqz	a5,300085ac <f_write+0x14c>
3000884c:	004d4703          	lbu	a4,4(s10)
30008850:	d4070ee3          	beqz	a4,300085ac <f_write+0x14c>
30008854:	001d4503          	lbu	a0,1(s10)
30008858:	030d0593          	addi	a1,s10,48
3000885c:	00100693          	li	a3,1
30008860:	00078613          	mv	a2,a5
30008864:	00b12423          	sw	a1,8(sp)
30008868:	00f12223          	sw	a5,4(sp)
3000886c:	b1cfb0ef          	jal	ra,30003b88 <disk_write>
30008870:	da0516e3          	bnez	a0,3000861c <f_write+0x1bc>
30008874:	01cd2683          	lw	a3,28(s10)
30008878:	020d2703          	lw	a4,32(s10)
3000887c:	00412783          	lw	a5,4(sp)
30008880:	000d0223          	sb	zero,4(s10)
30008884:	00e68733          	add	a4,a3,a4
30008888:	04e7f063          	bgeu	a5,a4,300088c8 <f_write+0x468>
3000888c:	003d4d83          	lbu	s11,3(s10)
30008890:	01ba6663          	bltu	s4,s11,3000889c <f_write+0x43c>
30008894:	0340006f          	j	300088c8 <f_write+0x468>
30008898:	01cd2683          	lw	a3,28(s10)
3000889c:	001d4503          	lbu	a0,1(s10)
300088a0:	00812583          	lw	a1,8(sp)
300088a4:	00d787b3          	add	a5,a5,a3
300088a8:	00078613          	mv	a2,a5
300088ac:	00100693          	li	a3,1
300088b0:	00f12223          	sw	a5,4(sp)
300088b4:	ad4fb0ef          	jal	ra,30003b88 <disk_write>
300088b8:	fffd8713          	addi	a4,s11,-1
300088bc:	0ff77d93          	andi	s11,a4,255
300088c0:	00412783          	lw	a5,4(sp)
300088c4:	fd4d9ae3          	bne	s11,s4,30008898 <f_write+0x438>
300088c8:	00042d03          	lw	s10,0(s0)
300088cc:	ce1ff06f          	j	300085ac <f_write+0x14c>
300088d0:	00200513          	li	a0,2
300088d4:	bf1ff06f          	j	300084c4 <f_write+0x64>
300088d8:	01442583          	lw	a1,20(s0)
300088dc:	000d0513          	mv	a0,s10
300088e0:	d7dfd0ef          	jal	ra,3000665c <_ZL12create_chainP5FATFSm>
300088e4:	ec1ff06f          	j	300087a4 <f_write+0x344>
300088e8:	00970633          	add	a2,a4,s1
300088ec:	00090793          	mv	a5,s2
300088f0:	00178793          	addi	a5,a5,1
300088f4:	fff7c683          	lbu	a3,-1(a5)
300088f8:	00170713          	addi	a4,a4,1
300088fc:	fed70fa3          	sb	a3,-1(a4)
30008900:	fec718e3          	bne	a4,a2,300088f0 <f_write+0x490>
30008904:	e01ff06f          	j	30008704 <f_write+0x2a4>
30008908:	02cd2d83          	lw	s11,44(s10)
3000890c:	000d8663          	beqz	s11,30008918 <f_write+0x4b8>
30008910:	004d4703          	lbu	a4,4(s10)
30008914:	00071a63          	bnez	a4,30008928 <f_write+0x4c8>
30008918:	02fd2623          	sw	a5,44(s10)
3000891c:	00842483          	lw	s1,8(s0)
30008920:	00042d03          	lw	s10,0(s0)
30008924:	e4dff06f          	j	30008770 <f_write+0x310>
30008928:	001d4503          	lbu	a0,1(s10)
3000892c:	00f12223          	sw	a5,4(sp)
30008930:	030d0793          	addi	a5,s10,48
30008934:	00100693          	li	a3,1
30008938:	000d8613          	mv	a2,s11
3000893c:	00078593          	mv	a1,a5
30008940:	00f12423          	sw	a5,8(sp)
30008944:	a44fb0ef          	jal	ra,30003b88 <disk_write>
30008948:	cc051ae3          	bnez	a0,3000861c <f_write+0x1bc>
3000894c:	01cd2683          	lw	a3,28(s10)
30008950:	020d2703          	lw	a4,32(s10)
30008954:	000d0223          	sb	zero,4(s10)
30008958:	00412783          	lw	a5,4(sp)
3000895c:	00e68733          	add	a4,a3,a4
30008960:	04edf063          	bgeu	s11,a4,300089a0 <f_write+0x540>
30008964:	003d4483          	lbu	s1,3(s10)
30008968:	009a6663          	bltu	s4,s1,30008974 <f_write+0x514>
3000896c:	0340006f          	j	300089a0 <f_write+0x540>
30008970:	01cd2683          	lw	a3,28(s10)
30008974:	001d4503          	lbu	a0,1(s10)
30008978:	00812583          	lw	a1,8(sp)
3000897c:	00dd8db3          	add	s11,s11,a3
30008980:	000d8613          	mv	a2,s11
30008984:	00100693          	li	a3,1
30008988:	00f12223          	sw	a5,4(sp)
3000898c:	9fcfb0ef          	jal	ra,30003b88 <disk_write>
30008990:	fff48713          	addi	a4,s1,-1
30008994:	0ff77493          	andi	s1,a4,255
30008998:	00412783          	lw	a5,4(sp)
3000899c:	fd449ae3          	bne	s1,s4,30008970 <f_write+0x510>
300089a0:	00042d03          	lw	s10,0(s0)
300089a4:	f75ff06f          	j	30008918 <f_write+0x4b8>

300089a8 <f_sync>:
300089a8:	00052783          	lw	a5,0(a0)
300089ac:	10078e63          	beqz	a5,30008ac8 <f_sync+0x120>
300089b0:	0007c683          	lbu	a3,0(a5)
300089b4:	10068a63          	beqz	a3,30008ac8 <f_sync+0x120>
300089b8:	ff010113          	addi	sp,sp,-16
300089bc:	00812423          	sw	s0,8(sp)
300089c0:	00112623          	sw	ra,12(sp)
300089c4:	00912223          	sw	s1,4(sp)
300089c8:	00455603          	lhu	a2,4(a0)
300089cc:	0067d683          	lhu	a3,6(a5)
300089d0:	00050413          	mv	s0,a0
300089d4:	00900513          	li	a0,9
300089d8:	00d60c63          	beq	a2,a3,300089f0 <f_sync+0x48>
300089dc:	00c12083          	lw	ra,12(sp)
300089e0:	00812403          	lw	s0,8(sp)
300089e4:	00412483          	lw	s1,4(sp)
300089e8:	01010113          	addi	sp,sp,16
300089ec:	00008067          	ret
300089f0:	0017c503          	lbu	a0,1(a5)
300089f4:	d59fa0ef          	jal	ra,3000374c <disk_status>
300089f8:	00157513          	andi	a0,a0,1
300089fc:	0c051a63          	bnez	a0,30008ad0 <f_sync+0x128>
30008a00:	00644783          	lbu	a5,6(s0)
30008a04:	0207f793          	andi	a5,a5,32
30008a08:	fc078ae3          	beqz	a5,300089dc <f_sync+0x34>
30008a0c:	01c42583          	lw	a1,28(s0)
30008a10:	00042503          	lw	a0,0(s0)
30008a14:	e5dfb0ef          	jal	ra,30004870 <_ZL11move_windowP5FATFSm>
30008a18:	fc0512e3          	bnez	a0,300089dc <f_sync+0x34>
30008a1c:	02042483          	lw	s1,32(s0)
30008a20:	00b4c783          	lbu	a5,11(s1)
30008a24:	0207e793          	ori	a5,a5,32
30008a28:	00f485a3          	sb	a5,11(s1)
30008a2c:	00c42783          	lw	a5,12(s0)
30008a30:	00f48e23          	sb	a5,28(s1)
30008a34:	00c42783          	lw	a5,12(s0)
30008a38:	4087d793          	srai	a5,a5,0x8
30008a3c:	00f48ea3          	sb	a5,29(s1)
30008a40:	00e45783          	lhu	a5,14(s0)
30008a44:	00f48f23          	sb	a5,30(s1)
30008a48:	00f44783          	lbu	a5,15(s0)
30008a4c:	00f48fa3          	sb	a5,31(s1)
30008a50:	01042783          	lw	a5,16(s0)
30008a54:	00f48d23          	sb	a5,26(s1)
30008a58:	01042783          	lw	a5,16(s0)
30008a5c:	4087d793          	srai	a5,a5,0x8
30008a60:	00f48da3          	sb	a5,27(s1)
30008a64:	01245783          	lhu	a5,18(s0)
30008a68:	00f48a23          	sb	a5,20(s1)
30008a6c:	01245783          	lhu	a5,18(s0)
30008a70:	4087d793          	srai	a5,a5,0x8
30008a74:	00f48aa3          	sb	a5,21(s1)
30008a78:	ccdfa0ef          	jal	ra,30003744 <get_fattime>
30008a7c:	01055713          	srli	a4,a0,0x10
30008a80:	01855793          	srli	a5,a0,0x18
30008a84:	40855693          	srai	a3,a0,0x8
30008a88:	00a48b23          	sb	a0,22(s1)
30008a8c:	00d48ba3          	sb	a3,23(s1)
30008a90:	00e48c23          	sb	a4,24(s1)
30008a94:	00f48ca3          	sb	a5,25(s1)
30008a98:	00644783          	lbu	a5,6(s0)
30008a9c:	00042703          	lw	a4,0(s0)
30008aa0:	fdf7f793          	andi	a5,a5,-33
30008aa4:	00f40323          	sb	a5,6(s0)
30008aa8:	00100793          	li	a5,1
30008aac:	00f70223          	sb	a5,4(a4)
30008ab0:	00042503          	lw	a0,0(s0)
30008ab4:	00812403          	lw	s0,8(sp)
30008ab8:	00c12083          	lw	ra,12(sp)
30008abc:	00412483          	lw	s1,4(sp)
30008ac0:	01010113          	addi	sp,sp,16
30008ac4:	991fc06f          	j	30005454 <_ZL4syncP5FATFS>
30008ac8:	00900513          	li	a0,9
30008acc:	00008067          	ret
30008ad0:	00300513          	li	a0,3
30008ad4:	f09ff06f          	j	300089dc <f_sync+0x34>

30008ad8 <f_close>:
30008ad8:	00052783          	lw	a5,0(a0)
30008adc:	12078e63          	beqz	a5,30008c18 <f_close+0x140>
30008ae0:	ff010113          	addi	sp,sp,-16
30008ae4:	00812423          	sw	s0,8(sp)
30008ae8:	00112623          	sw	ra,12(sp)
30008aec:	00912223          	sw	s1,4(sp)
30008af0:	0007c703          	lbu	a4,0(a5)
30008af4:	00050413          	mv	s0,a0
30008af8:	00900513          	li	a0,9
30008afc:	00070863          	beqz	a4,30008b0c <f_close+0x34>
30008b00:	00445683          	lhu	a3,4(s0)
30008b04:	0067d703          	lhu	a4,6(a5)
30008b08:	00e68c63          	beq	a3,a4,30008b20 <f_close+0x48>
30008b0c:	00c12083          	lw	ra,12(sp)
30008b10:	00812403          	lw	s0,8(sp)
30008b14:	00412483          	lw	s1,4(sp)
30008b18:	01010113          	addi	sp,sp,16
30008b1c:	00008067          	ret
30008b20:	0017c503          	lbu	a0,1(a5)
30008b24:	c29fa0ef          	jal	ra,3000374c <disk_status>
30008b28:	00157793          	andi	a5,a0,1
30008b2c:	00300513          	li	a0,3
30008b30:	fc079ee3          	bnez	a5,30008b0c <f_close+0x34>
30008b34:	00644783          	lbu	a5,6(s0)
30008b38:	0207f793          	andi	a5,a5,32
30008b3c:	02079063          	bnez	a5,30008b5c <f_close+0x84>
30008b40:	00042023          	sw	zero,0(s0)
30008b44:	00000513          	li	a0,0
30008b48:	00c12083          	lw	ra,12(sp)
30008b4c:	00812403          	lw	s0,8(sp)
30008b50:	00412483          	lw	s1,4(sp)
30008b54:	01010113          	addi	sp,sp,16
30008b58:	00008067          	ret
30008b5c:	01c42583          	lw	a1,28(s0)
30008b60:	00042503          	lw	a0,0(s0)
30008b64:	d0dfb0ef          	jal	ra,30004870 <_ZL11move_windowP5FATFSm>
30008b68:	fa0512e3          	bnez	a0,30008b0c <f_close+0x34>
30008b6c:	02042483          	lw	s1,32(s0)
30008b70:	00b4c783          	lbu	a5,11(s1)
30008b74:	0207e793          	ori	a5,a5,32
30008b78:	00f485a3          	sb	a5,11(s1)
30008b7c:	00c42783          	lw	a5,12(s0)
30008b80:	00f48e23          	sb	a5,28(s1)
30008b84:	00c42783          	lw	a5,12(s0)
30008b88:	4087d793          	srai	a5,a5,0x8
30008b8c:	00f48ea3          	sb	a5,29(s1)
30008b90:	00e45783          	lhu	a5,14(s0)
30008b94:	00f48f23          	sb	a5,30(s1)
30008b98:	00f44783          	lbu	a5,15(s0)
30008b9c:	00f48fa3          	sb	a5,31(s1)
30008ba0:	01042783          	lw	a5,16(s0)
30008ba4:	00f48d23          	sb	a5,26(s1)
30008ba8:	01042783          	lw	a5,16(s0)
30008bac:	4087d793          	srai	a5,a5,0x8
30008bb0:	00f48da3          	sb	a5,27(s1)
30008bb4:	01245783          	lhu	a5,18(s0)
30008bb8:	00f48a23          	sb	a5,20(s1)
30008bbc:	01245783          	lhu	a5,18(s0)
30008bc0:	4087d793          	srai	a5,a5,0x8
30008bc4:	00f48aa3          	sb	a5,21(s1)
30008bc8:	b7dfa0ef          	jal	ra,30003744 <get_fattime>
30008bcc:	01055713          	srli	a4,a0,0x10
30008bd0:	01855793          	srli	a5,a0,0x18
30008bd4:	40855693          	srai	a3,a0,0x8
30008bd8:	00a48b23          	sb	a0,22(s1)
30008bdc:	00d48ba3          	sb	a3,23(s1)
30008be0:	00e48c23          	sb	a4,24(s1)
30008be4:	00f48ca3          	sb	a5,25(s1)
30008be8:	00644783          	lbu	a5,6(s0)
30008bec:	00042703          	lw	a4,0(s0)
30008bf0:	fdf7f793          	andi	a5,a5,-33
30008bf4:	00f40323          	sb	a5,6(s0)
30008bf8:	00100793          	li	a5,1
30008bfc:	00f70223          	sb	a5,4(a4)
30008c00:	00042503          	lw	a0,0(s0)
30008c04:	851fc0ef          	jal	ra,30005454 <_ZL4syncP5FATFS>
30008c08:	f00512e3          	bnez	a0,30008b0c <f_close+0x34>
30008c0c:	00042023          	sw	zero,0(s0)
30008c10:	00000513          	li	a0,0
30008c14:	f35ff06f          	j	30008b48 <f_close+0x70>
30008c18:	00900513          	li	a0,9
30008c1c:	00008067          	ret

30008c20 <f_lseek>:
30008c20:	00052783          	lw	a5,0(a0)
30008c24:	1a078a63          	beqz	a5,30008dd8 <f_lseek+0x1b8>
30008c28:	fe010113          	addi	sp,sp,-32
30008c2c:	00812c23          	sw	s0,24(sp)
30008c30:	00112e23          	sw	ra,28(sp)
30008c34:	00912a23          	sw	s1,20(sp)
30008c38:	01212823          	sw	s2,16(sp)
30008c3c:	01312623          	sw	s3,12(sp)
30008c40:	01412423          	sw	s4,8(sp)
30008c44:	0007c703          	lbu	a4,0(a5)
30008c48:	00050413          	mv	s0,a0
30008c4c:	00900513          	li	a0,9
30008c50:	00070863          	beqz	a4,30008c60 <f_lseek+0x40>
30008c54:	00445683          	lhu	a3,4(s0)
30008c58:	0067d703          	lhu	a4,6(a5)
30008c5c:	02e68263          	beq	a3,a4,30008c80 <f_lseek+0x60>
30008c60:	01c12083          	lw	ra,28(sp)
30008c64:	01812403          	lw	s0,24(sp)
30008c68:	01412483          	lw	s1,20(sp)
30008c6c:	01012903          	lw	s2,16(sp)
30008c70:	00c12983          	lw	s3,12(sp)
30008c74:	00812a03          	lw	s4,8(sp)
30008c78:	02010113          	addi	sp,sp,32
30008c7c:	00008067          	ret
30008c80:	0017c503          	lbu	a0,1(a5)
30008c84:	00058493          	mv	s1,a1
30008c88:	ac5fa0ef          	jal	ra,3000374c <disk_status>
30008c8c:	00157793          	andi	a5,a0,1
30008c90:	00300513          	li	a0,3
30008c94:	fc0796e3          	bnez	a5,30008c60 <f_lseek+0x40>
30008c98:	00644783          	lbu	a5,6(s0)
30008c9c:	01879713          	slli	a4,a5,0x18
30008ca0:	41875713          	srai	a4,a4,0x18
30008ca4:	1a074a63          	bltz	a4,30008e58 <f_lseek+0x238>
30008ca8:	00c42703          	lw	a4,12(s0)
30008cac:	10976463          	bltu	a4,s1,30008db4 <f_lseek+0x194>
30008cb0:	00842783          	lw	a5,8(s0)
30008cb4:	00042423          	sw	zero,8(s0)
30008cb8:	00000513          	li	a0,0
30008cbc:	fa0482e3          	beqz	s1,30008c60 <f_lseek+0x40>
30008cc0:	00042503          	lw	a0,0(s0)
30008cc4:	00254903          	lbu	s2,2(a0)
30008cc8:	00991913          	slli	s2,s2,0x9
30008ccc:	0e078c63          	beqz	a5,30008dc4 <f_lseek+0x1a4>
30008cd0:	fff78793          	addi	a5,a5,-1
30008cd4:	fff48713          	addi	a4,s1,-1
30008cd8:	03275733          	divu	a4,a4,s2
30008cdc:	0327d6b3          	divu	a3,a5,s2
30008ce0:	0ed76263          	bltu	a4,a3,30008dc4 <f_lseek+0x1a4>
30008ce4:	41200733          	neg	a4,s2
30008ce8:	00f777b3          	and	a5,a4,a5
30008cec:	00f42423          	sw	a5,8(s0)
30008cf0:	40f484b3          	sub	s1,s1,a5
30008cf4:	01442783          	lw	a5,20(s0)
30008cf8:	0e078463          	beqz	a5,30008de0 <f_lseek+0x1c0>
30008cfc:	18997a63          	bgeu	s2,s1,30008e90 <f_lseek+0x270>
30008d00:	00042683          	lw	a3,0(s0)
30008d04:	00100993          	li	s3,1
30008d08:	fff00a13          	li	s4,-1
30008d0c:	00644703          	lbu	a4,6(s0)
30008d10:	412484b3          	sub	s1,s1,s2
30008d14:	00068513          	mv	a0,a3
30008d18:	00277613          	andi	a2,a4,2
30008d1c:	00078593          	mv	a1,a5
30008d20:	12061063          	bnez	a2,30008e40 <f_lseek+0x220>
30008d24:	14f9f063          	bgeu	s3,a5,30008e64 <f_lseek+0x244>
30008d28:	0186a683          	lw	a3,24(a3)
30008d2c:	12d7fc63          	bgeu	a5,a3,30008e64 <f_lseek+0x244>
30008d30:	8f4fc0ef          	jal	ra,30004e24 <_Z7get_fatP5FATFSm.part.5>
30008d34:	00050793          	mv	a5,a0
30008d38:	13478e63          	beq	a5,s4,30008e74 <f_lseek+0x254>
30008d3c:	12f9f263          	bgeu	s3,a5,30008e60 <f_lseek+0x240>
30008d40:	00042683          	lw	a3,0(s0)
30008d44:	0186a703          	lw	a4,24(a3)
30008d48:	10e7fc63          	bgeu	a5,a4,30008e60 <f_lseek+0x240>
30008d4c:	00842703          	lw	a4,8(s0)
30008d50:	00f42a23          	sw	a5,20(s0)
30008d54:	00e90733          	add	a4,s2,a4
30008d58:	00e42423          	sw	a4,8(s0)
30008d5c:	fa9968e3          	bltu	s2,s1,30008d0c <f_lseek+0xec>
30008d60:	00e48733          	add	a4,s1,a4
30008d64:	00e42423          	sw	a4,8(s0)
30008d68:	1ff4f693          	andi	a3,s1,511
30008d6c:	10068e63          	beqz	a3,30008e88 <f_lseek+0x268>
30008d70:	00042603          	lw	a2,0(s0)
30008d74:	ffe78793          	addi	a5,a5,-2
30008d78:	01862683          	lw	a3,24(a2)
30008d7c:	ffe68693          	addi	a3,a3,-2
30008d80:	02d7f063          	bgeu	a5,a3,30008da0 <f_lseek+0x180>
30008d84:	00264683          	lbu	a3,2(a2)
30008d88:	02862603          	lw	a2,40(a2)
30008d8c:	0094d493          	srli	s1,s1,0x9
30008d90:	02f687b3          	mul	a5,a3,a5
30008d94:	00c786b3          	add	a3,a5,a2
30008d98:	00d487b3          	add	a5,s1,a3
30008d9c:	04069463          	bnez	a3,30008de4 <f_lseek+0x1c4>
30008da0:	00644783          	lbu	a5,6(s0)
30008da4:	00200513          	li	a0,2
30008da8:	f807e793          	ori	a5,a5,-128
30008dac:	00f40323          	sb	a5,6(s0)
30008db0:	eb1ff06f          	j	30008c60 <f_lseek+0x40>
30008db4:	0027f793          	andi	a5,a5,2
30008db8:	ee079ce3          	bnez	a5,30008cb0 <f_lseek+0x90>
30008dbc:	00070493          	mv	s1,a4
30008dc0:	ef1ff06f          	j	30008cb0 <f_lseek+0x90>
30008dc4:	01042783          	lw	a5,16(s0)
30008dc8:	04078863          	beqz	a5,30008e18 <f_lseek+0x1f8>
30008dcc:	00f42a23          	sw	a5,20(s0)
30008dd0:	f20796e3          	bnez	a5,30008cfc <f_lseek+0xdc>
30008dd4:	00c0006f          	j	30008de0 <f_lseek+0x1c0>
30008dd8:	00900513          	li	a0,9
30008ddc:	00008067          	ret
30008de0:	00842703          	lw	a4,8(s0)
30008de4:	1ff77693          	andi	a3,a4,511
30008de8:	00c42603          	lw	a2,12(s0)
30008dec:	00068863          	beqz	a3,30008dfc <f_lseek+0x1dc>
30008df0:	01842683          	lw	a3,24(s0)
30008df4:	00f68463          	beq	a3,a5,30008dfc <f_lseek+0x1dc>
30008df8:	00f42c23          	sw	a5,24(s0)
30008dfc:	08e67e63          	bgeu	a2,a4,30008e98 <f_lseek+0x278>
30008e00:	00644783          	lbu	a5,6(s0)
30008e04:	00e42623          	sw	a4,12(s0)
30008e08:	00000513          	li	a0,0
30008e0c:	0207e793          	ori	a5,a5,32
30008e10:	00f40323          	sb	a5,6(s0)
30008e14:	e4dff06f          	j	30008c60 <f_lseek+0x40>
30008e18:	00000593          	li	a1,0
30008e1c:	841fd0ef          	jal	ra,3000665c <_ZL12create_chainP5FATFSm>
30008e20:	00100713          	li	a4,1
30008e24:	00050793          	mv	a5,a0
30008e28:	f6e50ce3          	beq	a0,a4,30008da0 <f_lseek+0x180>
30008e2c:	fff00713          	li	a4,-1
30008e30:	04e50263          	beq	a0,a4,30008e74 <f_lseek+0x254>
30008e34:	00a42823          	sw	a0,16(s0)
30008e38:	00f42a23          	sw	a5,20(s0)
30008e3c:	f95ff06f          	j	30008dd0 <f_lseek+0x1b0>
30008e40:	81dfd0ef          	jal	ra,3000665c <_ZL12create_chainP5FATFSm>
30008e44:	00050793          	mv	a5,a0
30008e48:	ee0518e3          	bnez	a0,30008d38 <f_lseek+0x118>
30008e4c:	00842703          	lw	a4,8(s0)
30008e50:	00090493          	mv	s1,s2
30008e54:	f0dff06f          	j	30008d60 <f_lseek+0x140>
30008e58:	00200513          	li	a0,2
30008e5c:	e05ff06f          	j	30008c60 <f_lseek+0x40>
30008e60:	00644703          	lbu	a4,6(s0)
30008e64:	f8076713          	ori	a4,a4,-128
30008e68:	00e40323          	sb	a4,6(s0)
30008e6c:	00200513          	li	a0,2
30008e70:	df1ff06f          	j	30008c60 <f_lseek+0x40>
30008e74:	00644783          	lbu	a5,6(s0)
30008e78:	00100513          	li	a0,1
30008e7c:	f807e793          	ori	a5,a5,-128
30008e80:	00f40323          	sb	a5,6(s0)
30008e84:	dddff06f          	j	30008c60 <f_lseek+0x40>
30008e88:	00000793          	li	a5,0
30008e8c:	f59ff06f          	j	30008de4 <f_lseek+0x1c4>
30008e90:	00842703          	lw	a4,8(s0)
30008e94:	ecdff06f          	j	30008d60 <f_lseek+0x140>
30008e98:	00000513          	li	a0,0
30008e9c:	dc5ff06f          	j	30008c60 <f_lseek+0x40>

30008ea0 <f_opendir>:
30008ea0:	fd010113          	addi	sp,sp,-48
30008ea4:	02812423          	sw	s0,40(sp)
30008ea8:	00b12623          	sw	a1,12(sp)
30008eac:	00050413          	mv	s0,a0
30008eb0:	00050593          	mv	a1,a0
30008eb4:	00000613          	li	a2,0
30008eb8:	00c10513          	addi	a0,sp,12
30008ebc:	02112623          	sw	ra,44(sp)
30008ec0:	b99fb0ef          	jal	ra,30004a58 <_ZL11chk_mountedPPKcPP5FATFSh>
30008ec4:	00050a63          	beqz	a0,30008ed8 <f_opendir+0x38>
30008ec8:	02c12083          	lw	ra,44(sp)
30008ecc:	02812403          	lw	s0,40(sp)
30008ed0:	03010113          	addi	sp,sp,48
30008ed4:	00008067          	ret
30008ed8:	01410793          	addi	a5,sp,20
30008edc:	00f42c23          	sw	a5,24(s0)
30008ee0:	00c12583          	lw	a1,12(sp)
30008ee4:	300137b7          	lui	a5,0x30013
30008ee8:	0d478793          	addi	a5,a5,212 # 300130d4 <_ZL6LfnBuf>
30008eec:	00f42e23          	sw	a5,28(s0)
30008ef0:	00040513          	mv	a0,s0
30008ef4:	b95fc0ef          	jal	ra,30005a88 <_ZL11follow_pathP3DIRPKc>
30008ef8:	04051e63          	bnez	a0,30008f54 <f_opendir+0xb4>
30008efc:	01442783          	lw	a5,20(s0)
30008f00:	02078e63          	beqz	a5,30008f3c <f_opendir+0x9c>
30008f04:	00b7c703          	lbu	a4,11(a5)
30008f08:	01077713          	andi	a4,a4,16
30008f0c:	04070863          	beqz	a4,30008f5c <f_opendir+0xbc>
30008f10:	0157c703          	lbu	a4,21(a5)
30008f14:	0147c583          	lbu	a1,20(a5)
30008f18:	01b7c683          	lbu	a3,27(a5)
30008f1c:	01a7c603          	lbu	a2,26(a5)
30008f20:	00871793          	slli	a5,a4,0x8
30008f24:	00b7e7b3          	or	a5,a5,a1
30008f28:	00869713          	slli	a4,a3,0x8
30008f2c:	01079793          	slli	a5,a5,0x10
30008f30:	00c76733          	or	a4,a4,a2
30008f34:	00e7e7b3          	or	a5,a5,a4
30008f38:	00f42423          	sw	a5,8(s0)
30008f3c:	00042783          	lw	a5,0(s0)
30008f40:	00000593          	li	a1,0
30008f44:	00040513          	mv	a0,s0
30008f48:	0067d783          	lhu	a5,6(a5)
30008f4c:	00f41223          	sh	a5,4(s0)
30008f50:	88cfc0ef          	jal	ra,30004fdc <_ZL7dir_sdiP3DIRt>
30008f54:	00400793          	li	a5,4
30008f58:	f6f518e3          	bne	a0,a5,30008ec8 <f_opendir+0x28>
30008f5c:	02c12083          	lw	ra,44(sp)
30008f60:	02812403          	lw	s0,40(sp)
30008f64:	00500513          	li	a0,5
30008f68:	03010113          	addi	sp,sp,48
30008f6c:	00008067          	ret

30008f70 <f_readdir>:
30008f70:	00052703          	lw	a4,0(a0)
30008f74:	0c070063          	beqz	a4,30009034 <f_readdir+0xc4>
30008f78:	fe010113          	addi	sp,sp,-32
30008f7c:	00812c23          	sw	s0,24(sp)
30008f80:	00112e23          	sw	ra,28(sp)
30008f84:	00912a23          	sw	s1,20(sp)
30008f88:	00074683          	lbu	a3,0(a4)
30008f8c:	00050413          	mv	s0,a0
30008f90:	00900513          	li	a0,9
30008f94:	00068863          	beqz	a3,30008fa4 <f_readdir+0x34>
30008f98:	00445603          	lhu	a2,4(s0)
30008f9c:	00675683          	lhu	a3,6(a4)
30008fa0:	00d60c63          	beq	a2,a3,30008fb8 <f_readdir+0x48>
30008fa4:	01c12083          	lw	ra,28(sp)
30008fa8:	01812403          	lw	s0,24(sp)
30008fac:	01412483          	lw	s1,20(sp)
30008fb0:	02010113          	addi	sp,sp,32
30008fb4:	00008067          	ret
30008fb8:	00174503          	lbu	a0,1(a4)
30008fbc:	00058493          	mv	s1,a1
30008fc0:	f8cfa0ef          	jal	ra,3000374c <disk_status>
30008fc4:	00157793          	andi	a5,a0,1
30008fc8:	00300513          	li	a0,3
30008fcc:	fc079ce3          	bnez	a5,30008fa4 <f_readdir+0x34>
30008fd0:	04048a63          	beqz	s1,30009024 <f_readdir+0xb4>
30008fd4:	00410793          	addi	a5,sp,4
30008fd8:	00f42c23          	sw	a5,24(s0)
30008fdc:	300137b7          	lui	a5,0x30013
30008fe0:	0d478793          	addi	a5,a5,212 # 300130d4 <_ZL6LfnBuf>
30008fe4:	00f42e23          	sw	a5,28(s0)
30008fe8:	00040513          	mv	a0,s0
30008fec:	f99fc0ef          	jal	ra,30005f84 <_ZL8dir_readP3DIR>
30008ff0:	00400793          	li	a5,4
30008ff4:	04f50463          	beq	a0,a5,3000903c <f_readdir+0xcc>
30008ff8:	fa0516e3          	bnez	a0,30008fa4 <f_readdir+0x34>
30008ffc:	00048593          	mv	a1,s1
30009000:	00040513          	mv	a0,s0
30009004:	b78fb0ef          	jal	ra,3000437c <_ZL12get_fileinfoP3DIRP7FILINFO>
30009008:	00040513          	mv	a0,s0
3000900c:	b18fc0ef          	jal	ra,30005324 <_ZL8dir_nextP3DIRi.constprop.11>
30009010:	00400793          	li	a5,4
30009014:	f8f518e3          	bne	a0,a5,30008fa4 <f_readdir+0x34>
30009018:	00042823          	sw	zero,16(s0)
3000901c:	00000513          	li	a0,0
30009020:	f85ff06f          	j	30008fa4 <f_readdir+0x34>
30009024:	00000593          	li	a1,0
30009028:	00040513          	mv	a0,s0
3000902c:	fb1fb0ef          	jal	ra,30004fdc <_ZL7dir_sdiP3DIRt>
30009030:	f75ff06f          	j	30008fa4 <f_readdir+0x34>
30009034:	00900513          	li	a0,9
30009038:	00008067          	ret
3000903c:	00042823          	sw	zero,16(s0)
30009040:	fbdff06f          	j	30008ffc <f_readdir+0x8c>

30009044 <f_stat>:
30009044:	fb010113          	addi	sp,sp,-80
30009048:	04912223          	sw	s1,68(sp)
3000904c:	00a12623          	sw	a0,12(sp)
30009050:	00058493          	mv	s1,a1
30009054:	00000613          	li	a2,0
30009058:	01c10593          	addi	a1,sp,28
3000905c:	00c10513          	addi	a0,sp,12
30009060:	04812423          	sw	s0,72(sp)
30009064:	04112623          	sw	ra,76(sp)
30009068:	9f1fb0ef          	jal	ra,30004a58 <_ZL11chk_mountedPPKcPP5FATFSh>
3000906c:	00050413          	mv	s0,a0
30009070:	00050e63          	beqz	a0,3000908c <f_stat+0x48>
30009074:	00040513          	mv	a0,s0
30009078:	04c12083          	lw	ra,76(sp)
3000907c:	04812403          	lw	s0,72(sp)
30009080:	04412483          	lw	s1,68(sp)
30009084:	05010113          	addi	sp,sp,80
30009088:	00008067          	ret
3000908c:	01010793          	addi	a5,sp,16
30009090:	00c12583          	lw	a1,12(sp)
30009094:	02f12a23          	sw	a5,52(sp)
30009098:	300137b7          	lui	a5,0x30013
3000909c:	0d478793          	addi	a5,a5,212 # 300130d4 <_ZL6LfnBuf>
300090a0:	01c10513          	addi	a0,sp,28
300090a4:	02f12c23          	sw	a5,56(sp)
300090a8:	9e1fc0ef          	jal	ra,30005a88 <_ZL11follow_pathP3DIRPKc>
300090ac:	00050413          	mv	s0,a0
300090b0:	fc0512e3          	bnez	a0,30009074 <f_stat+0x30>
300090b4:	03012783          	lw	a5,48(sp)
300090b8:	02078463          	beqz	a5,300090e0 <f_stat+0x9c>
300090bc:	01c10513          	addi	a0,sp,28
300090c0:	00048593          	mv	a1,s1
300090c4:	ab8fb0ef          	jal	ra,3000437c <_ZL12get_fileinfoP3DIRP7FILINFO>
300090c8:	00040513          	mv	a0,s0
300090cc:	04c12083          	lw	ra,76(sp)
300090d0:	04812403          	lw	s0,72(sp)
300090d4:	04412483          	lw	s1,68(sp)
300090d8:	05010113          	addi	sp,sp,80
300090dc:	00008067          	ret
300090e0:	00600413          	li	s0,6
300090e4:	f91ff06f          	j	30009074 <f_stat+0x30>

300090e8 <f_getfree>:
300090e8:	fc010113          	addi	sp,sp,-64
300090ec:	02812c23          	sw	s0,56(sp)
300090f0:	00060413          	mv	s0,a2
300090f4:	02912a23          	sw	s1,52(sp)
300090f8:	00a12623          	sw	a0,12(sp)
300090fc:	00058493          	mv	s1,a1
30009100:	00000613          	li	a2,0
30009104:	00040593          	mv	a1,s0
30009108:	00c10513          	addi	a0,sp,12
3000910c:	03512223          	sw	s5,36(sp)
30009110:	02112e23          	sw	ra,60(sp)
30009114:	03212823          	sw	s2,48(sp)
30009118:	03312623          	sw	s3,44(sp)
3000911c:	03412423          	sw	s4,40(sp)
30009120:	03612023          	sw	s6,32(sp)
30009124:	01712e23          	sw	s7,28(sp)
30009128:	931fb0ef          	jal	ra,30004a58 <_ZL11chk_mountedPPKcPP5FATFSh>
3000912c:	00050a93          	mv	s5,a0
30009130:	00051e63          	bnez	a0,3000914c <f_getfree+0x64>
30009134:	00042503          	lw	a0,0(s0)
30009138:	01852983          	lw	s3,24(a0)
3000913c:	01052783          	lw	a5,16(a0)
30009140:	ffe98713          	addi	a4,s3,-2
30009144:	02f76c63          	bltu	a4,a5,3000917c <f_getfree+0x94>
30009148:	00f4a023          	sw	a5,0(s1)
3000914c:	03c12083          	lw	ra,60(sp)
30009150:	03812403          	lw	s0,56(sp)
30009154:	000a8513          	mv	a0,s5
30009158:	03412483          	lw	s1,52(sp)
3000915c:	03012903          	lw	s2,48(sp)
30009160:	02c12983          	lw	s3,44(sp)
30009164:	02812a03          	lw	s4,40(sp)
30009168:	02412a83          	lw	s5,36(sp)
3000916c:	02012b03          	lw	s6,32(sp)
30009170:	01c12b83          	lw	s7,28(sp)
30009174:	04010113          	addi	sp,sp,64
30009178:	00008067          	ret
3000917c:	00054903          	lbu	s2,0(a0)
30009180:	00100793          	li	a5,1
30009184:	08f90a63          	beq	s2,a5,30009218 <f_getfree+0x130>
30009188:	00200793          	li	a5,2
3000918c:	02052b83          	lw	s7,32(a0)
30009190:	00000713          	li	a4,0
30009194:	0ef90e63          	beq	s2,a5,30009290 <f_getfree+0x1a8>
30009198:	10000b37          	lui	s6,0x10000
3000919c:	00000813          	li	a6,0
300091a0:	00000a13          	li	s4,0
300091a4:	fffb0b13          	addi	s6,s6,-1 # fffffff <stackPointer+0xfff92bf>
300091a8:	0440006f          	j	300091ec <f_getfree+0x104>
300091ac:	00174603          	lbu	a2,1(a4)
300091b0:	00074583          	lbu	a1,0(a4)
300091b4:	00274683          	lbu	a3,2(a4)
300091b8:	00374783          	lbu	a5,3(a4)
300091bc:	00861613          	slli	a2,a2,0x8
300091c0:	00b66633          	or	a2,a2,a1
300091c4:	01069693          	slli	a3,a3,0x10
300091c8:	00c6e6b3          	or	a3,a3,a2
300091cc:	01879793          	slli	a5,a5,0x18
300091d0:	00d7e7b3          	or	a5,a5,a3
300091d4:	0167f7b3          	and	a5,a5,s6
300091d8:	0017b793          	seqz	a5,a5
300091dc:	00fa0a33          	add	s4,s4,a5
300091e0:	00470713          	addi	a4,a4,4
300091e4:	ffc80813          	addi	a6,a6,-4
300091e8:	08098463          	beqz	s3,30009270 <f_getfree+0x188>
300091ec:	fff98993          	addi	s3,s3,-1
300091f0:	fa081ee3          	bnez	a6,300091ac <f_getfree+0xc4>
300091f4:	000b8593          	mv	a1,s7
300091f8:	e78fb0ef          	jal	ra,30004870 <_ZL11move_windowP5FATFSm>
300091fc:	001b8b93          	addi	s7,s7,1
30009200:	00050793          	mv	a5,a0
30009204:	06051263          	bnez	a0,30009268 <f_getfree+0x180>
30009208:	00042503          	lw	a0,0(s0)
3000920c:	20000813          	li	a6,512
30009210:	03050713          	addi	a4,a0,48
30009214:	f99ff06f          	j	300091ac <f_getfree+0xc4>
30009218:	00200793          	li	a5,2
3000921c:	0d37f863          	bgeu	a5,s3,300092ec <f_getfree+0x204>
30009220:	00300913          	li	s2,3
30009224:	00000a13          	li	s4,0
30009228:	fff00993          	li	s3,-1
3000922c:	00100b13          	li	s6,1
30009230:	0080006f          	j	30009238 <f_getfree+0x150>
30009234:	00190913          	addi	s2,s2,1
30009238:	fff90593          	addi	a1,s2,-1
3000923c:	be9fb0ef          	jal	ra,30004e24 <_Z7get_fatP5FATFSm.part.5>
30009240:	00153793          	seqz	a5,a0
30009244:	0b350c63          	beq	a0,s3,300092fc <f_getfree+0x214>
30009248:	0d650263          	beq	a0,s6,3000930c <f_getfree+0x224>
3000924c:	00042503          	lw	a0,0(s0)
30009250:	00fa0a33          	add	s4,s4,a5
30009254:	01852783          	lw	a5,24(a0)
30009258:	fcf96ee3          	bltu	s2,a5,30009234 <f_getfree+0x14c>
3000925c:	01452823          	sw	s4,16(a0)
30009260:	0144a023          	sw	s4,0(s1)
30009264:	ee9ff06f          	j	3000914c <f_getfree+0x64>
30009268:	00042503          	lw	a0,0(s0)
3000926c:	00078a93          	mv	s5,a5
30009270:	01452823          	sw	s4,16(a0)
30009274:	00300793          	li	a5,3
30009278:	fef914e3          	bne	s2,a5,30009260 <f_getfree+0x178>
3000927c:	00042783          	lw	a5,0(s0)
30009280:	00100713          	li	a4,1
30009284:	00e782a3          	sb	a4,5(a5)
30009288:	0144a023          	sw	s4,0(s1)
3000928c:	ec1ff06f          	j	3000914c <f_getfree+0x64>
30009290:	00000693          	li	a3,0
30009294:	00000a13          	li	s4,0
30009298:	0280006f          	j	300092c0 <f_getfree+0x1d8>
3000929c:	00174783          	lbu	a5,1(a4)
300092a0:	00074603          	lbu	a2,0(a4)
300092a4:	ffe68693          	addi	a3,a3,-2
300092a8:	00879793          	slli	a5,a5,0x8
300092ac:	00c7e7b3          	or	a5,a5,a2
300092b0:	0017b793          	seqz	a5,a5
300092b4:	00fa0a33          	add	s4,s4,a5
300092b8:	00270713          	addi	a4,a4,2
300092bc:	fa0980e3          	beqz	s3,3000925c <f_getfree+0x174>
300092c0:	fff98993          	addi	s3,s3,-1
300092c4:	fc069ce3          	bnez	a3,3000929c <f_getfree+0x1b4>
300092c8:	000b8593          	mv	a1,s7
300092cc:	da4fb0ef          	jal	ra,30004870 <_ZL11move_windowP5FATFSm>
300092d0:	001b8b93          	addi	s7,s7,1
300092d4:	00050793          	mv	a5,a0
300092d8:	f80518e3          	bnez	a0,30009268 <f_getfree+0x180>
300092dc:	00042503          	lw	a0,0(s0)
300092e0:	20000693          	li	a3,512
300092e4:	03050713          	addi	a4,a0,48
300092e8:	fb5ff06f          	j	3000929c <f_getfree+0x1b4>
300092ec:	00000a13          	li	s4,0
300092f0:	00200a93          	li	s5,2
300092f4:	01452823          	sw	s4,16(a0)
300092f8:	f69ff06f          	j	30009260 <f_getfree+0x178>
300092fc:	00042503          	lw	a0,0(s0)
30009300:	00100a93          	li	s5,1
30009304:	01452823          	sw	s4,16(a0)
30009308:	f59ff06f          	j	30009260 <f_getfree+0x178>
3000930c:	00042503          	lw	a0,0(s0)
30009310:	00200a93          	li	s5,2
30009314:	01452823          	sw	s4,16(a0)
30009318:	f49ff06f          	j	30009260 <f_getfree+0x178>

3000931c <f_truncate>:
3000931c:	00052783          	lw	a5,0(a0)
30009320:	1a078863          	beqz	a5,300094d0 <f_truncate+0x1b4>
30009324:	fe010113          	addi	sp,sp,-32
30009328:	00812c23          	sw	s0,24(sp)
3000932c:	00112e23          	sw	ra,28(sp)
30009330:	00912a23          	sw	s1,20(sp)
30009334:	01212823          	sw	s2,16(sp)
30009338:	01312623          	sw	s3,12(sp)
3000933c:	01412423          	sw	s4,8(sp)
30009340:	01512223          	sw	s5,4(sp)
30009344:	0007c683          	lbu	a3,0(a5)
30009348:	00050413          	mv	s0,a0
3000934c:	00900513          	li	a0,9
30009350:	00068863          	beqz	a3,30009360 <f_truncate+0x44>
30009354:	00445603          	lhu	a2,4(s0)
30009358:	0067d683          	lhu	a3,6(a5)
3000935c:	02d60463          	beq	a2,a3,30009384 <f_truncate+0x68>
30009360:	01c12083          	lw	ra,28(sp)
30009364:	01812403          	lw	s0,24(sp)
30009368:	01412483          	lw	s1,20(sp)
3000936c:	01012903          	lw	s2,16(sp)
30009370:	00c12983          	lw	s3,12(sp)
30009374:	00812a03          	lw	s4,8(sp)
30009378:	00412a83          	lw	s5,4(sp)
3000937c:	02010113          	addi	sp,sp,32
30009380:	00008067          	ret
30009384:	0017c503          	lbu	a0,1(a5)
30009388:	bc4fa0ef          	jal	ra,3000374c <disk_status>
3000938c:	00157793          	andi	a5,a0,1
30009390:	00300513          	li	a0,3
30009394:	fc0796e3          	bnez	a5,30009360 <f_truncate+0x44>
30009398:	00644783          	lbu	a5,6(s0)
3000939c:	00200513          	li	a0,2
300093a0:	01879713          	slli	a4,a5,0x18
300093a4:	41875713          	srai	a4,a4,0x18
300093a8:	fa074ce3          	bltz	a4,30009360 <f_truncate+0x44>
300093ac:	0027f713          	andi	a4,a5,2
300093b0:	00700513          	li	a0,7
300093b4:	fa0706e3          	beqz	a4,30009360 <f_truncate+0x44>
300093b8:	00842703          	lw	a4,8(s0)
300093bc:	00c42683          	lw	a3,12(s0)
300093c0:	08d77663          	bgeu	a4,a3,3000944c <f_truncate+0x130>
300093c4:	0207e793          	ori	a5,a5,32
300093c8:	00e42623          	sw	a4,12(s0)
300093cc:	00f40323          	sb	a5,6(s0)
300093d0:	00042483          	lw	s1,0(s0)
300093d4:	08071063          	bnez	a4,30009454 <f_truncate+0x138>
300093d8:	01042903          	lw	s2,16(s0)
300093dc:	00100713          	li	a4,1
300093e0:	0f277c63          	bgeu	a4,s2,300094d8 <f_truncate+0x1bc>
300093e4:	0184a703          	lw	a4,24(s1)
300093e8:	0ee97863          	bgeu	s2,a4,300094d8 <f_truncate+0x1bc>
300093ec:	00100a93          	li	s5,1
300093f0:	fff00a13          	li	s4,-1
300093f4:	00090593          	mv	a1,s2
300093f8:	00048513          	mv	a0,s1
300093fc:	a29fb0ef          	jal	ra,30004e24 <_Z7get_fatP5FATFSm.part.5>
30009400:	00050993          	mv	s3,a0
30009404:	00090593          	mv	a1,s2
30009408:	00000613          	li	a2,0
3000940c:	00048513          	mv	a0,s1
30009410:	02098c63          	beqz	s3,30009448 <f_truncate+0x12c>
30009414:	0f598063          	beq	s3,s5,300094f4 <f_truncate+0x1d8>
30009418:	11498663          	beq	s3,s4,30009524 <f_truncate+0x208>
3000941c:	0184a783          	lw	a5,24(s1)
30009420:	0cf97a63          	bgeu	s2,a5,300094f4 <f_truncate+0x1d8>
30009424:	d21fb0ef          	jal	ra,30005144 <_Z7put_fatP5FATFSmm.part.6>
30009428:	10051063          	bnez	a0,30009528 <f_truncate+0x20c>
3000942c:	0104a783          	lw	a5,16(s1)
30009430:	00178713          	addi	a4,a5,1
30009434:	01478663          	beq	a5,s4,30009440 <f_truncate+0x124>
30009438:	00e4a823          	sw	a4,16(s1)
3000943c:	015482a3          	sb	s5,5(s1)
30009440:	0184a783          	lw	a5,24(s1)
30009444:	0cf9e663          	bltu	s3,a5,30009510 <f_truncate+0x1f4>
30009448:	00042823          	sw	zero,16(s0)
3000944c:	00000513          	li	a0,0
30009450:	f11ff06f          	j	30009360 <f_truncate+0x44>
30009454:	01442583          	lw	a1,20(s0)
30009458:	00100713          	li	a4,1
3000945c:	08b77863          	bgeu	a4,a1,300094ec <f_truncate+0x1d0>
30009460:	0184a703          	lw	a4,24(s1)
30009464:	08e5f463          	bgeu	a1,a4,300094ec <f_truncate+0x1d0>
30009468:	00048513          	mv	a0,s1
3000946c:	9b9fb0ef          	jal	ra,30004e24 <_Z7get_fatP5FATFSm.part.5>
30009470:	fff00793          	li	a5,-1
30009474:	00050493          	mv	s1,a0
30009478:	08f50663          	beq	a0,a5,30009504 <f_truncate+0x1e8>
3000947c:	00100913          	li	s2,1
30009480:	09250c63          	beq	a0,s2,30009518 <f_truncate+0x1fc>
30009484:	00042503          	lw	a0,0(s0)
30009488:	01852783          	lw	a5,24(a0)
3000948c:	fcf4f0e3          	bgeu	s1,a5,3000944c <f_truncate+0x130>
30009490:	01442583          	lw	a1,20(s0)
30009494:	08b97263          	bgeu	s2,a1,30009518 <f_truncate+0x1fc>
30009498:	08f5f063          	bgeu	a1,a5,30009518 <f_truncate+0x1fc>
3000949c:	10000637          	lui	a2,0x10000
300094a0:	fff60613          	addi	a2,a2,-1 # fffffff <stackPointer+0xfff92bf>
300094a4:	ca1fb0ef          	jal	ra,30005144 <_Z7put_fatP5FATFSmm.part.6>
300094a8:	02051063          	bnez	a0,300094c8 <f_truncate+0x1ac>
300094ac:	06997663          	bgeu	s2,s1,30009518 <f_truncate+0x1fc>
300094b0:	00042503          	lw	a0,0(s0)
300094b4:	01852783          	lw	a5,24(a0)
300094b8:	06f4f063          	bgeu	s1,a5,30009518 <f_truncate+0x1fc>
300094bc:	00048593          	mv	a1,s1
300094c0:	c58fd0ef          	jal	ra,30006918 <_ZL12remove_chainP5FATFSm.part.8>
300094c4:	f80504e3          	beqz	a0,3000944c <f_truncate+0x130>
300094c8:	00644783          	lbu	a5,6(s0)
300094cc:	0140006f          	j	300094e0 <f_truncate+0x1c4>
300094d0:	00900513          	li	a0,9
300094d4:	00008067          	ret
300094d8:	00042823          	sw	zero,16(s0)
300094dc:	00200513          	li	a0,2
300094e0:	f807e793          	ori	a5,a5,-128
300094e4:	00f40323          	sb	a5,6(s0)
300094e8:	e79ff06f          	j	30009360 <f_truncate+0x44>
300094ec:	00200513          	li	a0,2
300094f0:	ff1ff06f          	j	300094e0 <f_truncate+0x1c4>
300094f4:	00042823          	sw	zero,16(s0)
300094f8:	00200513          	li	a0,2
300094fc:	00644783          	lbu	a5,6(s0)
30009500:	fe1ff06f          	j	300094e0 <f_truncate+0x1c4>
30009504:	00644783          	lbu	a5,6(s0)
30009508:	00100513          	li	a0,1
3000950c:	fd5ff06f          	j	300094e0 <f_truncate+0x1c4>
30009510:	00098913          	mv	s2,s3
30009514:	ee1ff06f          	j	300093f4 <f_truncate+0xd8>
30009518:	00644783          	lbu	a5,6(s0)
3000951c:	00200513          	li	a0,2
30009520:	fc1ff06f          	j	300094e0 <f_truncate+0x1c4>
30009524:	00100513          	li	a0,1
30009528:	00042823          	sw	zero,16(s0)
3000952c:	00644783          	lbu	a5,6(s0)
30009530:	fb1ff06f          	j	300094e0 <f_truncate+0x1c4>

30009534 <f_unlink>:
30009534:	f7010113          	addi	sp,sp,-144
30009538:	00a12623          	sw	a0,12(sp)
3000953c:	00100613          	li	a2,1
30009540:	02810593          	addi	a1,sp,40
30009544:	00c10513          	addi	a0,sp,12
30009548:	08112623          	sw	ra,140(sp)
3000954c:	08812423          	sw	s0,136(sp)
30009550:	08912223          	sw	s1,132(sp)
30009554:	09212023          	sw	s2,128(sp)
30009558:	07312e23          	sw	s3,124(sp)
3000955c:	cfcfb0ef          	jal	ra,30004a58 <_ZL11chk_mountedPPKcPP5FATFSh>
30009560:	00050793          	mv	a5,a0
30009564:	02050263          	beqz	a0,30009588 <f_unlink+0x54>
30009568:	08c12083          	lw	ra,140(sp)
3000956c:	08812403          	lw	s0,136(sp)
30009570:	08412483          	lw	s1,132(sp)
30009574:	08012903          	lw	s2,128(sp)
30009578:	07c12983          	lw	s3,124(sp)
3000957c:	00078513          	mv	a0,a5
30009580:	09010113          	addi	sp,sp,144
30009584:	00008067          	ret
30009588:	01c10793          	addi	a5,sp,28
3000958c:	00c12583          	lw	a1,12(sp)
30009590:	04f12023          	sw	a5,64(sp)
30009594:	300137b7          	lui	a5,0x30013
30009598:	0d478793          	addi	a5,a5,212 # 300130d4 <_ZL6LfnBuf>
3000959c:	02810513          	addi	a0,sp,40
300095a0:	04f12223          	sw	a5,68(sp)
300095a4:	ce4fc0ef          	jal	ra,30005a88 <_ZL11follow_pathP3DIRPKc>
300095a8:	00050793          	mv	a5,a0
300095ac:	fa051ee3          	bnez	a0,30009568 <f_unlink+0x34>
300095b0:	03c12703          	lw	a4,60(sp)
300095b4:	00600793          	li	a5,6
300095b8:	fa0708e3          	beqz	a4,30009568 <f_unlink+0x34>
300095bc:	00b74683          	lbu	a3,11(a4)
300095c0:	00700793          	li	a5,7
300095c4:	0016f613          	andi	a2,a3,1
300095c8:	fa0610e3          	bnez	a2,30009568 <f_unlink+0x34>
300095cc:	01574403          	lbu	s0,21(a4)
300095d0:	01474583          	lbu	a1,20(a4)
300095d4:	01b74783          	lbu	a5,27(a4)
300095d8:	01a74603          	lbu	a2,26(a4)
300095dc:	00841413          	slli	s0,s0,0x8
300095e0:	00b46433          	or	s0,s0,a1
300095e4:	00879793          	slli	a5,a5,0x8
300095e8:	01041413          	slli	s0,s0,0x10
300095ec:	00c7e7b3          	or	a5,a5,a2
300095f0:	0106f693          	andi	a3,a3,16
300095f4:	00f46433          	or	s0,s0,a5
300095f8:	06068c63          	beqz	a3,30009670 <f_unlink+0x13c>
300095fc:	00100793          	li	a5,1
30009600:	0e87f463          	bgeu	a5,s0,300096e8 <f_unlink+0x1b4>
30009604:	02812783          	lw	a5,40(sp)
30009608:	00200593          	li	a1,2
3000960c:	04c10513          	addi	a0,sp,76
30009610:	04f12623          	sw	a5,76(sp)
30009614:	02c12783          	lw	a5,44(sp)
30009618:	06e12023          	sw	a4,96(sp)
3000961c:	04812a23          	sw	s0,84(sp)
30009620:	04f12823          	sw	a5,80(sp)
30009624:	03412783          	lw	a5,52(sp)
30009628:	04f12c23          	sw	a5,88(sp)
3000962c:	03812783          	lw	a5,56(sp)
30009630:	04f12e23          	sw	a5,92(sp)
30009634:	04012783          	lw	a5,64(sp)
30009638:	06f12223          	sw	a5,100(sp)
3000963c:	04412783          	lw	a5,68(sp)
30009640:	06f12423          	sw	a5,104(sp)
30009644:	04812783          	lw	a5,72(sp)
30009648:	06f12623          	sw	a5,108(sp)
3000964c:	991fb0ef          	jal	ra,30004fdc <_ZL7dir_sdiP3DIRt>
30009650:	00050793          	mv	a5,a0
30009654:	f0051ae3          	bnez	a0,30009568 <f_unlink+0x34>
30009658:	04c10513          	addi	a0,sp,76
3000965c:	929fc0ef          	jal	ra,30005f84 <_ZL8dir_readP3DIR>
30009660:	00050793          	mv	a5,a0
30009664:	0c050663          	beqz	a0,30009730 <f_unlink+0x1fc>
30009668:	00400713          	li	a4,4
3000966c:	eee51ee3          	bne	a0,a4,30009568 <f_unlink+0x34>
30009670:	04815583          	lhu	a1,72(sp)
30009674:	000107b7          	lui	a5,0x10
30009678:	fff78793          	addi	a5,a5,-1 # ffff <stackPointer+0x92bf>
3000967c:	02e15483          	lhu	s1,46(sp)
30009680:	00f59463          	bne	a1,a5,30009688 <f_unlink+0x154>
30009684:	00048593          	mv	a1,s1
30009688:	02810513          	addi	a0,sp,40
3000968c:	951fb0ef          	jal	ra,30004fdc <_ZL7dir_sdiP3DIRt>
30009690:	00050793          	mv	a5,a0
30009694:	ec051ae3          	bnez	a0,30009568 <f_unlink+0x34>
30009698:	fe500993          	li	s3,-27
3000969c:	00100913          	li	s2,1
300096a0:	0280006f          	j	300096c8 <f_unlink+0x194>
300096a4:	03c12783          	lw	a5,60(sp)
300096a8:	01378023          	sb	s3,0(a5)
300096ac:	02812783          	lw	a5,40(sp)
300096b0:	01278223          	sb	s2,4(a5)
300096b4:	02e15703          	lhu	a4,46(sp)
300096b8:	02977c63          	bgeu	a4,s1,300096f0 <f_unlink+0x1bc>
300096bc:	c69fb0ef          	jal	ra,30005324 <_ZL8dir_nextP3DIRi.constprop.11>
300096c0:	00050793          	mv	a5,a0
300096c4:	00051e63          	bnez	a0,300096e0 <f_unlink+0x1ac>
300096c8:	03812583          	lw	a1,56(sp)
300096cc:	02812503          	lw	a0,40(sp)
300096d0:	9a0fb0ef          	jal	ra,30004870 <_ZL11move_windowP5FATFSm>
300096d4:	00050793          	mv	a5,a0
300096d8:	02810513          	addi	a0,sp,40
300096dc:	fc0784e3          	beqz	a5,300096a4 <f_unlink+0x170>
300096e0:	00400713          	li	a4,4
300096e4:	e8e792e3          	bne	a5,a4,30009568 <f_unlink+0x34>
300096e8:	00200793          	li	a5,2
300096ec:	e7dff06f          	j	30009568 <f_unlink+0x34>
300096f0:	00041a63          	bnez	s0,30009704 <f_unlink+0x1d0>
300096f4:	00078513          	mv	a0,a5
300096f8:	d5dfb0ef          	jal	ra,30005454 <_ZL4syncP5FATFS>
300096fc:	00050793          	mv	a5,a0
30009700:	e69ff06f          	j	30009568 <f_unlink+0x34>
30009704:	00100713          	li	a4,1
30009708:	fee400e3          	beq	s0,a4,300096e8 <f_unlink+0x1b4>
3000970c:	0187a703          	lw	a4,24(a5)
30009710:	fce47ce3          	bgeu	s0,a4,300096e8 <f_unlink+0x1b4>
30009714:	00078513          	mv	a0,a5
30009718:	00040593          	mv	a1,s0
3000971c:	9fcfd0ef          	jal	ra,30006918 <_ZL12remove_chainP5FATFSm.part.8>
30009720:	00050793          	mv	a5,a0
30009724:	e40512e3          	bnez	a0,30009568 <f_unlink+0x34>
30009728:	02812783          	lw	a5,40(sp)
3000972c:	fc9ff06f          	j	300096f4 <f_unlink+0x1c0>
30009730:	00700793          	li	a5,7
30009734:	e35ff06f          	j	30009568 <f_unlink+0x34>

30009738 <f_mkdir>:
30009738:	f7010113          	addi	sp,sp,-144
3000973c:	08112623          	sw	ra,140(sp)
30009740:	08812423          	sw	s0,136(sp)
30009744:	08912223          	sw	s1,132(sp)
30009748:	09212023          	sw	s2,128(sp)
3000974c:	07312e23          	sw	s3,124(sp)
30009750:	07412c23          	sw	s4,120(sp)
30009754:	07512a23          	sw	s5,116(sp)
30009758:	07612823          	sw	s6,112(sp)
3000975c:	07712623          	sw	s7,108(sp)
30009760:	07812423          	sw	s8,104(sp)
30009764:	07912223          	sw	s9,100(sp)
30009768:	07a12023          	sw	s10,96(sp)
3000976c:	05b12e23          	sw	s11,92(sp)
30009770:	00a12e23          	sw	a0,28(sp)
30009774:	fd1f90ef          	jal	ra,30003744 <get_fattime>
30009778:	00050493          	mv	s1,a0
3000977c:	00100613          	li	a2,1
30009780:	02c10593          	addi	a1,sp,44
30009784:	01c10513          	addi	a0,sp,28
30009788:	ad0fb0ef          	jal	ra,30004a58 <_ZL11chk_mountedPPKcPP5FATFSh>
3000978c:	00050413          	mv	s0,a0
30009790:	04050263          	beqz	a0,300097d4 <f_mkdir+0x9c>
30009794:	00040513          	mv	a0,s0
30009798:	08c12083          	lw	ra,140(sp)
3000979c:	08812403          	lw	s0,136(sp)
300097a0:	08412483          	lw	s1,132(sp)
300097a4:	08012903          	lw	s2,128(sp)
300097a8:	07c12983          	lw	s3,124(sp)
300097ac:	07812a03          	lw	s4,120(sp)
300097b0:	07412a83          	lw	s5,116(sp)
300097b4:	07012b03          	lw	s6,112(sp)
300097b8:	06c12b83          	lw	s7,108(sp)
300097bc:	06812c03          	lw	s8,104(sp)
300097c0:	06412c83          	lw	s9,100(sp)
300097c4:	06012d03          	lw	s10,96(sp)
300097c8:	05c12d83          	lw	s11,92(sp)
300097cc:	09010113          	addi	sp,sp,144
300097d0:	00008067          	ret
300097d4:	02010793          	addi	a5,sp,32
300097d8:	01c12583          	lw	a1,28(sp)
300097dc:	04f12223          	sw	a5,68(sp)
300097e0:	300137b7          	lui	a5,0x30013
300097e4:	0d478793          	addi	a5,a5,212 # 300130d4 <_ZL6LfnBuf>
300097e8:	02c10513          	addi	a0,sp,44
300097ec:	04f12423          	sw	a5,72(sp)
300097f0:	a98fc0ef          	jal	ra,30005a88 <_ZL11follow_pathP3DIRPKc>
300097f4:	00050413          	mv	s0,a0
300097f8:	28050c63          	beqz	a0,30009a90 <f_mkdir+0x358>
300097fc:	00400793          	li	a5,4
30009800:	f8f51ae3          	bne	a0,a5,30009794 <f_mkdir+0x5c>
30009804:	02c12503          	lw	a0,44(sp)
30009808:	00000593          	li	a1,0
3000980c:	00700413          	li	s0,7
30009810:	e4dfc0ef          	jal	ra,3000665c <_ZL12create_chainP5FATFSm>
30009814:	00050913          	mv	s2,a0
30009818:	f6050ee3          	beqz	a0,30009794 <f_mkdir+0x5c>
3000981c:	00100793          	li	a5,1
30009820:	00200413          	li	s0,2
30009824:	f6f508e3          	beq	a0,a5,30009794 <f_mkdir+0x5c>
30009828:	fff00793          	li	a5,-1
3000982c:	02c12983          	lw	s3,44(sp)
30009830:	00100413          	li	s0,1
30009834:	f6f500e3          	beq	a0,a5,30009794 <f_mkdir+0x5c>
30009838:	02c9aa03          	lw	s4,44(s3)
3000983c:	03098c13          	addi	s8,s3,48
30009840:	000a0663          	beqz	s4,3000984c <f_mkdir+0x114>
30009844:	0049c783          	lbu	a5,4(s3)
30009848:	30079c63          	bnez	a5,30009b60 <f_mkdir+0x428>
3000984c:	0189a703          	lw	a4,24(s3)
30009850:	ffe90693          	addi	a3,s2,-2
30009854:	00000c93          	li	s9,0
30009858:	ffe70713          	addi	a4,a4,-2
3000985c:	00e6fa63          	bgeu	a3,a4,30009870 <f_mkdir+0x138>
30009860:	0029c783          	lbu	a5,2(s3)
30009864:	0289a703          	lw	a4,40(s3)
30009868:	02d787b3          	mul	a5,a5,a3
3000986c:	00e78cb3          	add	s9,a5,a4
30009870:	20000613          	li	a2,512
30009874:	00000593          	li	a1,0
30009878:	000c0513          	mv	a0,s8
3000987c:	5b0010ef          	jal	ra,3000ae2c <memset>
30009880:	05098593          	addi	a1,s3,80
30009884:	004c0693          	addi	a3,s8,4
30009888:	05498613          	addi	a2,s3,84
3000988c:	02000713          	li	a4,32
30009890:	00d5b6b3          	sltu	a3,a1,a3
30009894:	00cc3633          	sltu	a2,s8,a2
30009898:	00ec0023          	sb	a4,0(s8)
3000989c:	00ec00a3          	sb	a4,1(s8)
300098a0:	00ec0123          	sb	a4,2(s8)
300098a4:	00ec01a3          	sb	a4,3(s8)
300098a8:	00ec0223          	sb	a4,4(s8)
300098ac:	00ec02a3          	sb	a4,5(s8)
300098b0:	00ec0323          	sb	a4,6(s8)
300098b4:	00ec03a3          	sb	a4,7(s8)
300098b8:	00ec0423          	sb	a4,8(s8)
300098bc:	00ec04a3          	sb	a4,9(s8)
300098c0:	00ec0523          	sb	a4,10(s8)
300098c4:	01095a13          	srli	s4,s2,0x10
300098c8:	0016c713          	xori	a4,a3,1
300098cc:	4084db13          	srai	s6,s1,0x8
300098d0:	00164693          	xori	a3,a2,1
300098d4:	0104db93          	srli	s7,s1,0x10
300098d8:	02e00613          	li	a2,46
300098dc:	40895a93          	srai	s5,s2,0x8
300098e0:	0ff4f793          	andi	a5,s1,255
300098e4:	0184d513          	srli	a0,s1,0x18
300098e8:	0ff97813          	andi	a6,s2,255
300098ec:	0ffa7893          	andi	a7,s4,255
300098f0:	008a5313          	srli	t1,s4,0x8
300098f4:	0ffb7b13          	andi	s6,s6,255
300098f8:	0ffbfb93          	andi	s7,s7,255
300098fc:	0ffafa93          	andi	s5,s5,255
30009900:	02c98823          	sb	a2,48(s3)
30009904:	01000613          	li	a2,16
30009908:	00f12423          	sw	a5,8(sp)
3000990c:	00a12623          	sw	a0,12(sp)
30009910:	01012823          	sw	a6,16(sp)
30009914:	01112a23          	sw	a7,20(sp)
30009918:	00612c23          	sw	t1,24(sp)
3000991c:	02c98da3          	sb	a2,59(s3)
30009920:	04f98323          	sb	a5,70(s3)
30009924:	056983a3          	sb	s6,71(s3)
30009928:	05798423          	sb	s7,72(s3)
3000992c:	04a984a3          	sb	a0,73(s3)
30009930:	05098523          	sb	a6,74(s3)
30009934:	055985a3          	sb	s5,75(s3)
30009938:	05198223          	sb	a7,68(s3)
3000993c:	046982a3          	sb	t1,69(s3)
30009940:	00d76733          	or	a4,a4,a3
30009944:	1e070a63          	beqz	a4,30009b38 <f_mkdir+0x400>
30009948:	00bc6733          	or	a4,s8,a1
3000994c:	00377713          	andi	a4,a4,3
30009950:	1e071463          	bnez	a4,30009b38 <f_mkdir+0x400>
30009954:	000c2703          	lw	a4,0(s8)
30009958:	04e9a823          	sw	a4,80(s3)
3000995c:	004c2703          	lw	a4,4(s8)
30009960:	04e9aa23          	sw	a4,84(s3)
30009964:	008c2703          	lw	a4,8(s8)
30009968:	04e9ac23          	sw	a4,88(s3)
3000996c:	00cc2703          	lw	a4,12(s8)
30009970:	04e9ae23          	sw	a4,92(s3)
30009974:	010c2703          	lw	a4,16(s8)
30009978:	06e9a023          	sw	a4,96(s3)
3000997c:	014c2703          	lw	a4,20(s8)
30009980:	06e9a223          	sw	a4,100(s3)
30009984:	018c2703          	lw	a4,24(s8)
30009988:	06e9a423          	sw	a4,104(s3)
3000998c:	01cc2703          	lw	a4,28(s8)
30009990:	06e9a623          	sw	a4,108(s3)
30009994:	02c12d03          	lw	s10,44(sp)
30009998:	02e00693          	li	a3,46
3000999c:	04d988a3          	sb	a3,81(s3)
300099a0:	000d4583          	lbu	a1,0(s10)
300099a4:	00300613          	li	a2,3
300099a8:	03412683          	lw	a3,52(sp)
300099ac:	16c58863          	beq	a1,a2,30009b1c <f_mkdir+0x3e4>
300099b0:	0106d613          	srli	a2,a3,0x10
300099b4:	4086d593          	srai	a1,a3,0x8
300099b8:	0ff67513          	andi	a0,a2,255
300099bc:	0ff6f693          	andi	a3,a3,255
300099c0:	0ff5f593          	andi	a1,a1,255
300099c4:	00865613          	srli	a2,a2,0x8
300099c8:	06d98523          	sb	a3,106(s3)
300099cc:	06b985a3          	sb	a1,107(s3)
300099d0:	06a98223          	sb	a0,100(s3)
300099d4:	06c982a3          	sb	a2,101(s3)
300099d8:	002d4683          	lbu	a3,2(s10)
300099dc:	0a068e63          	beqz	a3,30009a98 <f_mkdir+0x360>
300099e0:	fff68413          	addi	s0,a3,-1
300099e4:	0ff47413          	andi	s0,s0,255
300099e8:	00140413          	addi	s0,s0,1
300099ec:	01940433          	add	s0,s0,s9
300099f0:	00100993          	li	s3,1
300099f4:	039d2623          	sw	s9,44(s10)
300099f8:	013d0223          	sb	s3,4(s10)
300099fc:	060c8a63          	beqz	s9,30009a70 <f_mkdir+0x338>
30009a00:	001d4503          	lbu	a0,1(s10)
30009a04:	030d0d93          	addi	s11,s10,48
30009a08:	00100693          	li	a3,1
30009a0c:	000c8613          	mv	a2,s9
30009a10:	000d8593          	mv	a1,s11
30009a14:	974fa0ef          	jal	ra,30003b88 <disk_write>
30009a18:	0e051463          	bnez	a0,30009b00 <f_mkdir+0x3c8>
30009a1c:	01cd2683          	lw	a3,28(s10)
30009a20:	020d2603          	lw	a2,32(s10)
30009a24:	000d0223          	sb	zero,4(s10)
30009a28:	00c68633          	add	a2,a3,a2
30009a2c:	04ccf263          	bgeu	s9,a2,30009a70 <f_mkdir+0x338>
30009a30:	003d4a03          	lbu	s4,3(s10)
30009a34:	00100613          	li	a2,1
30009a38:	03467c63          	bgeu	a2,s4,30009a70 <f_mkdir+0x338>
30009a3c:	000c8493          	mv	s1,s9
30009a40:	0080006f          	j	30009a48 <f_mkdir+0x310>
30009a44:	01cd2683          	lw	a3,28(s10)
30009a48:	001d4503          	lbu	a0,1(s10)
30009a4c:	00d484b3          	add	s1,s1,a3
30009a50:	00048613          	mv	a2,s1
30009a54:	00100693          	li	a3,1
30009a58:	000d8593          	mv	a1,s11
30009a5c:	92cfa0ef          	jal	ra,30003b88 <disk_write>
30009a60:	fffa0893          	addi	a7,s4,-1
30009a64:	0ff8fa13          	andi	s4,a7,255
30009a68:	00100693          	li	a3,1
30009a6c:	fcda1ce3          	bne	s4,a3,30009a44 <f_mkdir+0x30c>
30009a70:	001c8c93          	addi	s9,s9,1
30009a74:	20000613          	li	a2,512
30009a78:	00000593          	li	a1,0
30009a7c:	000c0513          	mv	a0,s8
30009a80:	3ac010ef          	jal	ra,3000ae2c <memset>
30009a84:	008c8a63          	beq	s9,s0,30009a98 <f_mkdir+0x360>
30009a88:	02c12d03          	lw	s10,44(sp)
30009a8c:	f69ff06f          	j	300099f4 <f_mkdir+0x2bc>
30009a90:	00800413          	li	s0,8
30009a94:	d01ff06f          	j	30009794 <f_mkdir+0x5c>
30009a98:	02c10513          	addi	a0,sp,44
30009a9c:	87cfd0ef          	jal	ra,30006b18 <_ZL12dir_registerP3DIR>
30009aa0:	00050413          	mv	s0,a0
30009aa4:	0a051a63          	bnez	a0,30009b58 <f_mkdir+0x420>
30009aa8:	04012783          	lw	a5,64(sp)
30009aac:	01000713          	li	a4,16
30009ab0:	02c12503          	lw	a0,44(sp)
30009ab4:	00e785a3          	sb	a4,11(a5)
30009ab8:	00812703          	lw	a4,8(sp)
30009abc:	01678ba3          	sb	s6,23(a5)
30009ac0:	01778c23          	sb	s7,24(a5)
30009ac4:	00e78b23          	sb	a4,22(a5)
30009ac8:	00c12703          	lw	a4,12(sp)
30009acc:	01578da3          	sb	s5,27(a5)
30009ad0:	00e78ca3          	sb	a4,25(a5)
30009ad4:	01012703          	lw	a4,16(sp)
30009ad8:	00e78d23          	sb	a4,26(a5)
30009adc:	01412703          	lw	a4,20(sp)
30009ae0:	00e78a23          	sb	a4,20(a5)
30009ae4:	01812703          	lw	a4,24(sp)
30009ae8:	00e78aa3          	sb	a4,21(a5)
30009aec:	00100793          	li	a5,1
30009af0:	00f50223          	sb	a5,4(a0)
30009af4:	961fb0ef          	jal	ra,30005454 <_ZL4syncP5FATFS>
30009af8:	00050413          	mv	s0,a0
30009afc:	c99ff06f          	j	30009794 <f_mkdir+0x5c>
30009b00:	02c12503          	lw	a0,44(sp)
30009b04:	00100413          	li	s0,1
30009b08:	01852783          	lw	a5,24(a0)
30009b0c:	c8f974e3          	bgeu	s2,a5,30009794 <f_mkdir+0x5c>
30009b10:	00090593          	mv	a1,s2
30009b14:	e05fc0ef          	jal	ra,30006918 <_ZL12remove_chainP5FATFSm.part.8>
30009b18:	c7dff06f          	j	30009794 <f_mkdir+0x5c>
30009b1c:	024d2603          	lw	a2,36(s10)
30009b20:	e8c698e3          	bne	a3,a2,300099b0 <f_mkdir+0x278>
30009b24:	00000613          	li	a2,0
30009b28:	00000513          	li	a0,0
30009b2c:	00000593          	li	a1,0
30009b30:	00000693          	li	a3,0
30009b34:	e95ff06f          	j	300099c8 <f_mkdir+0x290>
30009b38:	020c0613          	addi	a2,s8,32
30009b3c:	000c0713          	mv	a4,s8
30009b40:	00170713          	addi	a4,a4,1
30009b44:	fff74683          	lbu	a3,-1(a4)
30009b48:	00158593          	addi	a1,a1,1
30009b4c:	fed58fa3          	sb	a3,-1(a1)
30009b50:	fec718e3          	bne	a4,a2,30009b40 <f_mkdir+0x408>
30009b54:	e41ff06f          	j	30009994 <f_mkdir+0x25c>
30009b58:	02c12503          	lw	a0,44(sp)
30009b5c:	fadff06f          	j	30009b08 <f_mkdir+0x3d0>
30009b60:	0019c503          	lbu	a0,1(s3)
30009b64:	00100693          	li	a3,1
30009b68:	000a0613          	mv	a2,s4
30009b6c:	000c0593          	mv	a1,s8
30009b70:	818fa0ef          	jal	ra,30003b88 <disk_write>
30009b74:	fe0512e3          	bnez	a0,30009b58 <f_mkdir+0x420>
30009b78:	0209a703          	lw	a4,32(s3)
30009b7c:	01c9a783          	lw	a5,28(s3)
30009b80:	00098223          	sb	zero,4(s3)
30009b84:	00f70733          	add	a4,a4,a5
30009b88:	04ea7063          	bgeu	s4,a4,30009bc8 <f_mkdir+0x490>
30009b8c:	0039c403          	lbu	s0,3(s3)
30009b90:	00100713          	li	a4,1
30009b94:	00876663          	bltu	a4,s0,30009ba0 <f_mkdir+0x468>
30009b98:	0300006f          	j	30009bc8 <f_mkdir+0x490>
30009b9c:	01c9a783          	lw	a5,28(s3)
30009ba0:	0019c503          	lbu	a0,1(s3)
30009ba4:	00fa0a33          	add	s4,s4,a5
30009ba8:	00100693          	li	a3,1
30009bac:	000a0613          	mv	a2,s4
30009bb0:	000c0593          	mv	a1,s8
30009bb4:	fd5f90ef          	jal	ra,30003b88 <disk_write>
30009bb8:	fff40413          	addi	s0,s0,-1
30009bbc:	0ff47413          	andi	s0,s0,255
30009bc0:	00100793          	li	a5,1
30009bc4:	fcf41ce3          	bne	s0,a5,30009b9c <f_mkdir+0x464>
30009bc8:	02c12983          	lw	s3,44(sp)
30009bcc:	03098c13          	addi	s8,s3,48
30009bd0:	c7dff06f          	j	3000984c <f_mkdir+0x114>

30009bd4 <f_chmod>:
30009bd4:	fb010113          	addi	sp,sp,-80
30009bd8:	04812423          	sw	s0,72(sp)
30009bdc:	04912223          	sw	s1,68(sp)
30009be0:	00a12623          	sw	a0,12(sp)
30009be4:	00058493          	mv	s1,a1
30009be8:	00060413          	mv	s0,a2
30009bec:	01c10593          	addi	a1,sp,28
30009bf0:	00100613          	li	a2,1
30009bf4:	00c10513          	addi	a0,sp,12
30009bf8:	04112623          	sw	ra,76(sp)
30009bfc:	e5dfa0ef          	jal	ra,30004a58 <_ZL11chk_mountedPPKcPP5FATFSh>
30009c00:	00050c63          	beqz	a0,30009c18 <f_chmod+0x44>
30009c04:	04c12083          	lw	ra,76(sp)
30009c08:	04812403          	lw	s0,72(sp)
30009c0c:	04412483          	lw	s1,68(sp)
30009c10:	05010113          	addi	sp,sp,80
30009c14:	00008067          	ret
30009c18:	01010793          	addi	a5,sp,16
30009c1c:	00c12583          	lw	a1,12(sp)
30009c20:	02f12a23          	sw	a5,52(sp)
30009c24:	300137b7          	lui	a5,0x30013
30009c28:	0d478793          	addi	a5,a5,212 # 300130d4 <_ZL6LfnBuf>
30009c2c:	01c10513          	addi	a0,sp,28
30009c30:	02f12c23          	sw	a5,56(sp)
30009c34:	e55fb0ef          	jal	ra,30005a88 <_ZL11follow_pathP3DIRPKc>
30009c38:	fc0516e3          	bnez	a0,30009c04 <f_chmod+0x30>
30009c3c:	03012703          	lw	a4,48(sp)
30009c40:	00600513          	li	a0,6
30009c44:	fc0700e3          	beqz	a4,30009c04 <f_chmod+0x30>
30009c48:	00b74783          	lbu	a5,11(a4)
30009c4c:	01c12503          	lw	a0,28(sp)
30009c50:	0097c4b3          	xor	s1,a5,s1
30009c54:	00947433          	and	s0,s0,s1
30009c58:	02747413          	andi	s0,s0,39
30009c5c:	0087c433          	xor	s0,a5,s0
30009c60:	008705a3          	sb	s0,11(a4)
30009c64:	00100793          	li	a5,1
30009c68:	00f50223          	sb	a5,4(a0)
30009c6c:	fe8fb0ef          	jal	ra,30005454 <_ZL4syncP5FATFS>
30009c70:	04c12083          	lw	ra,76(sp)
30009c74:	04812403          	lw	s0,72(sp)
30009c78:	04412483          	lw	s1,68(sp)
30009c7c:	05010113          	addi	sp,sp,80
30009c80:	00008067          	ret

30009c84 <f_utime>:
30009c84:	fb010113          	addi	sp,sp,-80
30009c88:	04812423          	sw	s0,72(sp)
30009c8c:	00a12623          	sw	a0,12(sp)
30009c90:	00058413          	mv	s0,a1
30009c94:	00100613          	li	a2,1
30009c98:	01c10593          	addi	a1,sp,28
30009c9c:	00c10513          	addi	a0,sp,12
30009ca0:	04112623          	sw	ra,76(sp)
30009ca4:	db5fa0ef          	jal	ra,30004a58 <_ZL11chk_mountedPPKcPP5FATFSh>
30009ca8:	00050a63          	beqz	a0,30009cbc <f_utime+0x38>
30009cac:	04c12083          	lw	ra,76(sp)
30009cb0:	04812403          	lw	s0,72(sp)
30009cb4:	05010113          	addi	sp,sp,80
30009cb8:	00008067          	ret
30009cbc:	01010793          	addi	a5,sp,16
30009cc0:	00c12583          	lw	a1,12(sp)
30009cc4:	02f12a23          	sw	a5,52(sp)
30009cc8:	300137b7          	lui	a5,0x30013
30009ccc:	0d478793          	addi	a5,a5,212 # 300130d4 <_ZL6LfnBuf>
30009cd0:	01c10513          	addi	a0,sp,28
30009cd4:	02f12c23          	sw	a5,56(sp)
30009cd8:	db1fb0ef          	jal	ra,30005a88 <_ZL11follow_pathP3DIRPKc>
30009cdc:	fc0518e3          	bnez	a0,30009cac <f_utime+0x28>
30009ce0:	03012783          	lw	a5,48(sp)
30009ce4:	00600513          	li	a0,6
30009ce8:	fc0782e3          	beqz	a5,30009cac <f_utime+0x28>
30009cec:	00645703          	lhu	a4,6(s0)
30009cf0:	01c12683          	lw	a3,28(sp)
30009cf4:	00e78b23          	sb	a4,22(a5)
30009cf8:	00645703          	lhu	a4,6(s0)
30009cfc:	00068513          	mv	a0,a3
30009d00:	40875713          	srai	a4,a4,0x8
30009d04:	00e78ba3          	sb	a4,23(a5)
30009d08:	00445703          	lhu	a4,4(s0)
30009d0c:	00e78c23          	sb	a4,24(a5)
30009d10:	00445703          	lhu	a4,4(s0)
30009d14:	40875713          	srai	a4,a4,0x8
30009d18:	00e78ca3          	sb	a4,25(a5)
30009d1c:	00100793          	li	a5,1
30009d20:	00f68223          	sb	a5,4(a3)
30009d24:	f30fb0ef          	jal	ra,30005454 <_ZL4syncP5FATFS>
30009d28:	04c12083          	lw	ra,76(sp)
30009d2c:	04812403          	lw	s0,72(sp)
30009d30:	05010113          	addi	sp,sp,80
30009d34:	00008067          	ret

30009d38 <f_rename>:
30009d38:	f5010113          	addi	sp,sp,-176
30009d3c:	0a812423          	sw	s0,168(sp)
30009d40:	00a12623          	sw	a0,12(sp)
30009d44:	00058413          	mv	s0,a1
30009d48:	00100613          	li	a2,1
30009d4c:	03810593          	addi	a1,sp,56
30009d50:	00c10513          	addi	a0,sp,12
30009d54:	0a112623          	sw	ra,172(sp)
30009d58:	0a912223          	sw	s1,164(sp)
30009d5c:	0b212023          	sw	s2,160(sp)
30009d60:	09312e23          	sw	s3,156(sp)
30009d64:	09412c23          	sw	s4,152(sp)
30009d68:	09512a23          	sw	s5,148(sp)
30009d6c:	09612823          	sw	s6,144(sp)
30009d70:	09712623          	sw	s7,140(sp)
30009d74:	09812423          	sw	s8,136(sp)
30009d78:	ce1fa0ef          	jal	ra,30004a58 <_ZL11chk_mountedPPKcPP5FATFSh>
30009d7c:	02050a63          	beqz	a0,30009db0 <f_rename+0x78>
30009d80:	0ac12083          	lw	ra,172(sp)
30009d84:	0a812403          	lw	s0,168(sp)
30009d88:	0a412483          	lw	s1,164(sp)
30009d8c:	0a012903          	lw	s2,160(sp)
30009d90:	09c12983          	lw	s3,156(sp)
30009d94:	09812a03          	lw	s4,152(sp)
30009d98:	09412a83          	lw	s5,148(sp)
30009d9c:	09012b03          	lw	s6,144(sp)
30009da0:	08c12b83          	lw	s7,140(sp)
30009da4:	08812c03          	lw	s8,136(sp)
30009da8:	0b010113          	addi	sp,sp,176
30009dac:	00008067          	ret
30009db0:	03812783          	lw	a5,56(sp)
30009db4:	00c12583          	lw	a1,12(sp)
30009db8:	03810513          	addi	a0,sp,56
30009dbc:	04f12e23          	sw	a5,92(sp)
30009dc0:	01410793          	addi	a5,sp,20
30009dc4:	04f12823          	sw	a5,80(sp)
30009dc8:	300137b7          	lui	a5,0x30013
30009dcc:	0d478793          	addi	a5,a5,212 # 300130d4 <_ZL6LfnBuf>
30009dd0:	04f12a23          	sw	a5,84(sp)
30009dd4:	cb5fb0ef          	jal	ra,30005a88 <_ZL11follow_pathP3DIRPKc>
30009dd8:	fa0514e3          	bnez	a0,30009d80 <f_rename+0x48>
30009ddc:	04c12583          	lw	a1,76(sp)
30009de0:	1e058863          	beqz	a1,30009fd0 <f_rename+0x298>
30009de4:	00b58593          	addi	a1,a1,11
30009de8:	01500613          	li	a2,21
30009dec:	02010513          	addi	a0,sp,32
30009df0:	614010ef          	jal	ra,3000b404 <memcpy>
30009df4:	03812783          	lw	a5,56(sp)
30009df8:	00040593          	mv	a1,s0
30009dfc:	05c10513          	addi	a0,sp,92
30009e00:	04f12e23          	sw	a5,92(sp)
30009e04:	03c12783          	lw	a5,60(sp)
30009e08:	06f12023          	sw	a5,96(sp)
30009e0c:	04012783          	lw	a5,64(sp)
30009e10:	06f12223          	sw	a5,100(sp)
30009e14:	04412783          	lw	a5,68(sp)
30009e18:	06f12423          	sw	a5,104(sp)
30009e1c:	04812783          	lw	a5,72(sp)
30009e20:	06f12623          	sw	a5,108(sp)
30009e24:	04c12783          	lw	a5,76(sp)
30009e28:	06f12823          	sw	a5,112(sp)
30009e2c:	05012783          	lw	a5,80(sp)
30009e30:	06f12a23          	sw	a5,116(sp)
30009e34:	05412783          	lw	a5,84(sp)
30009e38:	06f12c23          	sw	a5,120(sp)
30009e3c:	05812783          	lw	a5,88(sp)
30009e40:	06f12e23          	sw	a5,124(sp)
30009e44:	c45fb0ef          	jal	ra,30005a88 <_ZL11follow_pathP3DIRPKc>
30009e48:	18050063          	beqz	a0,30009fc8 <f_rename+0x290>
30009e4c:	00400793          	li	a5,4
30009e50:	f2f518e3          	bne	a0,a5,30009d80 <f_rename+0x48>
30009e54:	05c10513          	addi	a0,sp,92
30009e58:	cc1fc0ef          	jal	ra,30006b18 <_ZL12dir_registerP3DIR>
30009e5c:	f20512e3          	bnez	a0,30009d80 <f_rename+0x48>
30009e60:	07012403          	lw	s0,112(sp)
30009e64:	01300613          	li	a2,19
30009e68:	02210593          	addi	a1,sp,34
30009e6c:	00d40513          	addi	a0,s0,13
30009e70:	594010ef          	jal	ra,3000b404 <memcpy>
30009e74:	02014783          	lbu	a5,32(sp)
30009e78:	00100713          	li	a4,1
30009e7c:	0207e793          	ori	a5,a5,32
30009e80:	00f405a3          	sb	a5,11(s0)
30009e84:	03812783          	lw	a5,56(sp)
30009e88:	00e78223          	sb	a4,4(a5)
30009e8c:	04012703          	lw	a4,64(sp)
30009e90:	06412783          	lw	a5,100(sp)
30009e94:	00f70863          	beq	a4,a5,30009ea4 <f_rename+0x16c>
30009e98:	00b44783          	lbu	a5,11(s0)
30009e9c:	0107f793          	andi	a5,a5,16
30009ea0:	14079063          	bnez	a5,30009fe0 <f_rename+0x2a8>
30009ea4:	05815583          	lhu	a1,88(sp)
30009ea8:	000107b7          	lui	a5,0x10
30009eac:	fff78793          	addi	a5,a5,-1 # ffff <stackPointer+0x92bf>
30009eb0:	03e15a03          	lhu	s4,62(sp)
30009eb4:	00f59463          	bne	a1,a5,30009ebc <f_rename+0x184>
30009eb8:	000a0593          	mv	a1,s4
30009ebc:	03810513          	addi	a0,sp,56
30009ec0:	91cfb0ef          	jal	ra,30004fdc <_ZL7dir_sdiP3DIRt>
30009ec4:	ea051ee3          	bnez	a0,30009d80 <f_rename+0x48>
30009ec8:	03812483          	lw	s1,56(sp)
30009ecc:	04812903          	lw	s2,72(sp)
30009ed0:	fe500b13          	li	s6,-27
30009ed4:	00100a93          	li	s5,1
30009ed8:	fff00b93          	li	s7,-1
30009edc:	02c4a403          	lw	s0,44(s1)
30009ee0:	00890863          	beq	s2,s0,30009ef0 <f_rename+0x1b8>
30009ee4:	0044c783          	lbu	a5,4(s1)
30009ee8:	06079863          	bnez	a5,30009f58 <f_rename+0x220>
30009eec:	18091a63          	bnez	s2,3000a080 <f_rename+0x348>
30009ef0:	04c12783          	lw	a5,76(sp)
30009ef4:	01678023          	sb	s6,0(a5)
30009ef8:	03812483          	lw	s1,56(sp)
30009efc:	01548223          	sb	s5,4(s1)
30009f00:	03e15783          	lhu	a5,62(sp)
30009f04:	2147f663          	bgeu	a5,s4,3000a110 <f_rename+0x3d8>
30009f08:	00178793          	addi	a5,a5,1
30009f0c:	01079413          	slli	s0,a5,0x10
30009f10:	01045413          	srli	s0,s0,0x10
30009f14:	0c040263          	beqz	s0,30009fd8 <f_rename+0x2a0>
30009f18:	04812903          	lw	s2,72(sp)
30009f1c:	0a090e63          	beqz	s2,30009fd8 <f_rename+0x2a0>
30009f20:	00f47993          	andi	s3,s0,15
30009f24:	00099e63          	bnez	s3,30009f40 <f_rename+0x208>
30009f28:	04412583          	lw	a1,68(sp)
30009f2c:	00190913          	addi	s2,s2,1
30009f30:	05212423          	sw	s2,72(sp)
30009f34:	16059a63          	bnez	a1,3000a0a8 <f_rename+0x370>
30009f38:	0084d783          	lhu	a5,8(s1)
30009f3c:	08f47e63          	bgeu	s0,a5,30009fd8 <f_rename+0x2a0>
30009f40:	03048793          	addi	a5,s1,48
30009f44:	00599993          	slli	s3,s3,0x5
30009f48:	013787b3          	add	a5,a5,s3
30009f4c:	02811f23          	sh	s0,62(sp)
30009f50:	04f12623          	sw	a5,76(sp)
30009f54:	f89ff06f          	j	30009edc <f_rename+0x1a4>
30009f58:	0014c503          	lbu	a0,1(s1)
30009f5c:	03048c13          	addi	s8,s1,48
30009f60:	00100693          	li	a3,1
30009f64:	00040613          	mv	a2,s0
30009f68:	000c0593          	mv	a1,s8
30009f6c:	c1df90ef          	jal	ra,30003b88 <disk_write>
30009f70:	12051863          	bnez	a0,3000a0a0 <f_rename+0x368>
30009f74:	0204a703          	lw	a4,32(s1)
30009f78:	01c4a783          	lw	a5,28(s1)
30009f7c:	00048223          	sb	zero,4(s1)
30009f80:	00f70733          	add	a4,a4,a5
30009f84:	f6e474e3          	bgeu	s0,a4,30009eec <f_rename+0x1b4>
30009f88:	0034c983          	lbu	s3,3(s1)
30009f8c:	00100713          	li	a4,1
30009f90:	01376663          	bltu	a4,s3,30009f9c <f_rename+0x264>
30009f94:	f59ff06f          	j	30009eec <f_rename+0x1b4>
30009f98:	01c4a783          	lw	a5,28(s1)
30009f9c:	0014c503          	lbu	a0,1(s1)
30009fa0:	00f40433          	add	s0,s0,a5
30009fa4:	00100693          	li	a3,1
30009fa8:	00040613          	mv	a2,s0
30009fac:	000c0593          	mv	a1,s8
30009fb0:	bd9f90ef          	jal	ra,30003b88 <disk_write>
30009fb4:	fff98993          	addi	s3,s3,-1
30009fb8:	0ff9f993          	andi	s3,s3,255
30009fbc:	00100793          	li	a5,1
30009fc0:	fcf99ce3          	bne	s3,a5,30009f98 <f_rename+0x260>
30009fc4:	f29ff06f          	j	30009eec <f_rename+0x1b4>
30009fc8:	00800513          	li	a0,8
30009fcc:	db5ff06f          	j	30009d80 <f_rename+0x48>
30009fd0:	00400513          	li	a0,4
30009fd4:	dadff06f          	j	30009d80 <f_rename+0x48>
30009fd8:	00200513          	li	a0,2
30009fdc:	da5ff06f          	j	30009d80 <f_rename+0x48>
30009fe0:	01544783          	lbu	a5,21(s0)
30009fe4:	01444683          	lbu	a3,20(s0)
30009fe8:	05c12503          	lw	a0,92(sp)
30009fec:	01b44703          	lbu	a4,27(s0)
30009ff0:	01a44603          	lbu	a2,26(s0)
30009ff4:	00879793          	slli	a5,a5,0x8
30009ff8:	00d7e7b3          	or	a5,a5,a3
30009ffc:	00871713          	slli	a4,a4,0x8
3000a000:	01852683          	lw	a3,24(a0)
3000a004:	00c76733          	or	a4,a4,a2
3000a008:	01079793          	slli	a5,a5,0x10
3000a00c:	00e7e7b3          	or	a5,a5,a4
3000a010:	ffe78793          	addi	a5,a5,-2
3000a014:	ffe68713          	addi	a4,a3,-2
3000a018:	fce7f0e3          	bgeu	a5,a4,30009fd8 <f_rename+0x2a0>
3000a01c:	00254583          	lbu	a1,2(a0)
3000a020:	02852703          	lw	a4,40(a0)
3000a024:	02f587b3          	mul	a5,a1,a5
3000a028:	00e785b3          	add	a1,a5,a4
3000a02c:	fa0586e3          	beqz	a1,30009fd8 <f_rename+0x2a0>
3000a030:	841fa0ef          	jal	ra,30004870 <_ZL11move_windowP5FATFSm>
3000a034:	d40516e3          	bnez	a0,30009d80 <f_rename+0x48>
3000a038:	05c12783          	lw	a5,92(sp)
3000a03c:	02e00713          	li	a4,46
3000a040:	0517c683          	lbu	a3,81(a5)
3000a044:	e6e690e3          	bne	a3,a4,30009ea4 <f_rename+0x16c>
3000a048:	0007c603          	lbu	a2,0(a5)
3000a04c:	00300693          	li	a3,3
3000a050:	06412703          	lw	a4,100(sp)
3000a054:	0cd60a63          	beq	a2,a3,3000a128 <f_rename+0x3f0>
3000a058:	01075693          	srli	a3,a4,0x10
3000a05c:	40875593          	srai	a1,a4,0x8
3000a060:	4086d613          	srai	a2,a3,0x8
3000a064:	06e78523          	sb	a4,106(a5)
3000a068:	00100713          	li	a4,1
3000a06c:	06b785a3          	sb	a1,107(a5)
3000a070:	06d78223          	sb	a3,100(a5)
3000a074:	06c782a3          	sb	a2,101(a5)
3000a078:	00e78223          	sb	a4,4(a5)
3000a07c:	e29ff06f          	j	30009ea4 <f_rename+0x16c>
3000a080:	0014c503          	lbu	a0,1(s1)
3000a084:	00100693          	li	a3,1
3000a088:	00090613          	mv	a2,s2
3000a08c:	03048593          	addi	a1,s1,48
3000a090:	9a9f90ef          	jal	ra,30003a38 <disk_read>
3000a094:	00051663          	bnez	a0,3000a0a0 <f_rename+0x368>
3000a098:	0324a623          	sw	s2,44(s1)
3000a09c:	e55ff06f          	j	30009ef0 <f_rename+0x1b8>
3000a0a0:	00100513          	li	a0,1
3000a0a4:	cddff06f          	j	30009d80 <f_rename+0x48>
3000a0a8:	0024c783          	lbu	a5,2(s1)
3000a0ac:	00445713          	srli	a4,s0,0x4
3000a0b0:	fff78793          	addi	a5,a5,-1
3000a0b4:	00e7f7b3          	and	a5,a5,a4
3000a0b8:	e80794e3          	bnez	a5,30009f40 <f_rename+0x208>
3000a0bc:	00100913          	li	s2,1
3000a0c0:	f0b97ce3          	bgeu	s2,a1,30009fd8 <f_rename+0x2a0>
3000a0c4:	0184a783          	lw	a5,24(s1)
3000a0c8:	f0f5f8e3          	bgeu	a1,a5,30009fd8 <f_rename+0x2a0>
3000a0cc:	00048513          	mv	a0,s1
3000a0d0:	d55fa0ef          	jal	ra,30004e24 <_Z7get_fatP5FATFSm.part.5>
3000a0d4:	f0a972e3          	bgeu	s2,a0,30009fd8 <f_rename+0x2a0>
3000a0d8:	fd7504e3          	beq	a0,s7,3000a0a0 <f_rename+0x368>
3000a0dc:	03812483          	lw	s1,56(sp)
3000a0e0:	0184a783          	lw	a5,24(s1)
3000a0e4:	eef57ae3          	bgeu	a0,a5,30009fd8 <f_rename+0x2a0>
3000a0e8:	04a12223          	sw	a0,68(sp)
3000a0ec:	ffe78793          	addi	a5,a5,-2
3000a0f0:	ffe50513          	addi	a0,a0,-2
3000a0f4:	02f57463          	bgeu	a0,a5,3000a11c <f_rename+0x3e4>
3000a0f8:	0024c903          	lbu	s2,2(s1)
3000a0fc:	0284a783          	lw	a5,40(s1)
3000a100:	02a90533          	mul	a0,s2,a0
3000a104:	00f50933          	add	s2,a0,a5
3000a108:	05212423          	sw	s2,72(sp)
3000a10c:	e35ff06f          	j	30009f40 <f_rename+0x208>
3000a110:	00048513          	mv	a0,s1
3000a114:	b40fb0ef          	jal	ra,30005454 <_ZL4syncP5FATFS>
3000a118:	c69ff06f          	j	30009d80 <f_rename+0x48>
3000a11c:	00000913          	li	s2,0
3000a120:	05212423          	sw	s2,72(sp)
3000a124:	e1dff06f          	j	30009f40 <f_rename+0x208>
3000a128:	0247a683          	lw	a3,36(a5)
3000a12c:	f2e696e3          	bne	a3,a4,3000a058 <f_rename+0x320>
3000a130:	00000713          	li	a4,0
3000a134:	f25ff06f          	j	3000a058 <f_rename+0x320>

3000a138 <f_mkfs>:
3000a138:	5c051463          	bnez	a0,3000a700 <f_mkfs+0x5c8>
3000a13c:	fa010113          	addi	sp,sp,-96
3000a140:	300137b7          	lui	a5,0x30013
3000a144:	04812c23          	sw	s0,88(sp)
3000a148:	3107a403          	lw	s0,784(a5) # 30013310 <_ZL5FatFs>
3000a14c:	04112e23          	sw	ra,92(sp)
3000a150:	04912a23          	sw	s1,84(sp)
3000a154:	05212823          	sw	s2,80(sp)
3000a158:	05312623          	sw	s3,76(sp)
3000a15c:	05412423          	sw	s4,72(sp)
3000a160:	05512223          	sw	s5,68(sp)
3000a164:	05612023          	sw	s6,64(sp)
3000a168:	03712e23          	sw	s7,60(sp)
3000a16c:	03812c23          	sw	s8,56(sp)
3000a170:	03912a23          	sw	s9,52(sp)
3000a174:	03a12823          	sw	s10,48(sp)
3000a178:	03b12623          	sw	s11,44(sp)
3000a17c:	58040663          	beqz	s0,3000a708 <f_mkfs+0x5d0>
3000a180:	00040023          	sb	zero,0(s0)
3000a184:	00060493          	mv	s1,a2
3000a188:	00058c93          	mv	s9,a1
3000a18c:	de4f90ef          	jal	ra,30003770 <disk_initialize>
3000a190:	00157713          	andi	a4,a0,1
3000a194:	00050d13          	mv	s10,a0
3000a198:	00300513          	li	a0,3
3000a19c:	52071463          	bnez	a4,3000a6c4 <f_mkfs+0x58c>
3000a1a0:	004d7d13          	andi	s10,s10,4
3000a1a4:	00a00513          	li	a0,10
3000a1a8:	500d1e63          	bnez	s10,3000a6c4 <f_mkfs+0x58c>
3000a1ac:	01c10613          	addi	a2,sp,28
3000a1b0:	00100593          	li	a1,1
3000a1b4:	00000513          	li	a0,0
3000a1b8:	c99f90ef          	jal	ra,30003e50 <disk_ioctl>
3000a1bc:	50051263          	bnez	a0,3000a6c0 <f_mkfs+0x588>
3000a1c0:	01c12783          	lw	a5,28(sp)
3000a1c4:	07f00713          	li	a4,127
3000a1c8:	4ef77c63          	bgeu	a4,a5,3000a6c0 <f_mkfs+0x588>
3000a1cc:	00000b93          	li	s7,0
3000a1d0:	000c9663          	bnez	s9,3000a1dc <f_mkfs+0xa4>
3000a1d4:	fc178793          	addi	a5,a5,-63
3000a1d8:	03f00b93          	li	s7,63
3000a1dc:	fff48713          	addi	a4,s1,-1
3000a1e0:	00f12e23          	sw	a5,28(sp)
3000a1e4:	00977733          	and	a4,a4,s1
3000a1e8:	00071463          	bnez	a4,3000a1f0 <f_mkfs+0xb8>
3000a1ec:	52049263          	bnez	s1,3000a710 <f_mkfs+0x5d8>
3000a1f0:	001f4737          	lui	a4,0x1f4
3000a1f4:	5ee7fa63          	bgeu	a5,a4,3000a7e8 <f_mkfs+0x6b0>
3000a1f8:	000fa737          	lui	a4,0xfa
3000a1fc:	00e7f0e3          	bgeu	a5,a4,3000a9fc <f_mkfs+0x8c4>
3000a200:	0007d737          	lui	a4,0x7d
3000a204:	00e7f0e3          	bgeu	a5,a4,3000aa04 <f_mkfs+0x8cc>
3000a208:	0003e737          	lui	a4,0x3e
3000a20c:	7ff70713          	addi	a4,a4,2047 # 3e7ff <stackPointer+0x37abf>
3000a210:	02f762e3          	bltu	a4,a5,3000aa34 <f_mkfs+0x8fc>
3000a214:	0001f737          	lui	a4,0x1f
3000a218:	3ff70713          	addi	a4,a4,1023 # 1f3ff <stackPointer+0x186bf>
3000a21c:	02f760e3          	bltu	a4,a5,3000aa3c <f_mkfs+0x904>
3000a220:	00010737          	lui	a4,0x10
3000a224:	9ff70713          	addi	a4,a4,-1537 # f9ff <stackPointer+0x8cbf>
3000a228:	00f76ee3          	bltu	a4,a5,3000aa44 <f_mkfs+0x90c>
3000a22c:	00008737          	lui	a4,0x8
3000a230:	cff70713          	addi	a4,a4,-769 # 7cff <stackPointer+0xfbf>
3000a234:	50f76063          	bltu	a4,a5,3000a734 <f_mkfs+0x5fc>
3000a238:	00004737          	lui	a4,0x4
3000a23c:	e7f70713          	addi	a4,a4,-385 # 3e7f <stackPointer-0x2ec1>
3000a240:	00f766e3          	bltu	a4,a5,3000aa4c <f_mkfs+0x914>
3000a244:	00002737          	lui	a4,0x2
3000a248:	f3f70713          	addi	a4,a4,-193 # 1f3f <stackPointer-0x4e01>
3000a24c:	00f764e3          	bltu	a4,a5,3000aa54 <f_mkfs+0x91c>
3000a250:	00001737          	lui	a4,0x1
3000a254:	f9f70713          	addi	a4,a4,-97 # f9f <stackPointer-0x5da1>
3000a258:	00f73733          	sltu	a4,a4,a5
3000a25c:	00174713          	xori	a4,a4,1
3000a260:	00970713          	addi	a4,a4,9
3000a264:	300106b7          	lui	a3,0x30010
3000a268:	50c68693          	addi	a3,a3,1292 # 3001050c <_ZL6LfnOfs>
3000a26c:	00171713          	slli	a4,a4,0x1
3000a270:	00e68733          	add	a4,a3,a4
3000a274:	09075703          	lhu	a4,144(a4)
3000a278:	1ff00693          	li	a3,511
3000a27c:	00975a93          	srli	s5,a4,0x9
3000a280:	56e6e663          	bltu	a3,a4,3000a7ec <f_mkfs+0x6b4>
3000a284:	00078913          	mv	s2,a5
3000a288:	00100a93          	li	s5,1
3000a28c:	00001737          	lui	a4,0x1
3000a290:	ff570713          	addi	a4,a4,-11 # ff5 <stackPointer-0x5d4b>
3000a294:	4b276463          	bltu	a4,s2,3000a73c <f_mkfs+0x604>
3000a298:	00191713          	slli	a4,s2,0x1
3000a29c:	01270933          	add	s2,a4,s2
3000a2a0:	00190913          	addi	s2,s2,1
3000a2a4:	00195913          	srli	s2,s2,0x1
3000a2a8:	00390913          	addi	s2,s2,3
3000a2ac:	00100b13          	li	s6,1
3000a2b0:	1ff90913          	addi	s2,s2,511
3000a2b4:	00995913          	srli	s2,s2,0x9
3000a2b8:	02090993          	addi	s3,s2,32
3000a2bc:	00100d93          	li	s11,1
3000a2c0:	02000c13          	li	s8,32
3000a2c4:	01bb84b3          	add	s1,s7,s11
3000a2c8:	01348a33          	add	s4,s1,s3
3000a2cc:	014a8733          	add	a4,s5,s4
3000a2d0:	4ce7e463          	bltu	a5,a4,3000a798 <f_mkfs+0x660>
3000a2d4:	01810613          	addi	a2,sp,24
3000a2d8:	00300593          	li	a1,3
3000a2dc:	00000513          	li	a0,0
3000a2e0:	b71f90ef          	jal	ra,30003e50 <disk_ioctl>
3000a2e4:	00000713          	li	a4,0
3000a2e8:	02051263          	bnez	a0,3000a30c <f_mkfs+0x1d4>
3000a2ec:	01812683          	lw	a3,24(sp)
3000a2f0:	00008637          	lui	a2,0x8
3000a2f4:	fff68793          	addi	a5,a3,-1
3000a2f8:	00c7fa63          	bgeu	a5,a2,3000a30c <f_mkfs+0x1d4>
3000a2fc:	00fa0733          	add	a4,s4,a5
3000a300:	40d006b3          	neg	a3,a3
3000a304:	00d77733          	and	a4,a4,a3
3000a308:	41470733          	sub	a4,a4,s4
3000a30c:	00e12c23          	sw	a4,24(sp)
3000a310:	00300693          	li	a3,3
3000a314:	01c12783          	lw	a5,28(sp)
3000a318:	46db0063          	beq	s6,a3,3000a778 <f_mkfs+0x640>
3000a31c:	01bc0a33          	add	s4,s8,s11
3000a320:	00e90933          	add	s2,s2,a4
3000a324:	41478a33          	sub	s4,a5,s4
3000a328:	412a0a33          	sub	s4,s4,s2
3000a32c:	00200713          	li	a4,2
3000a330:	035a5a33          	divu	s4,s4,s5
3000a334:	00eb1863          	bne	s6,a4,3000a344 <f_mkfs+0x20c>
3000a338:	00001737          	lui	a4,0x1
3000a33c:	ff570713          	addi	a4,a4,-11 # ff5 <stackPointer-0x5d4b>
3000a340:	45477c63          	bgeu	a4,s4,3000a798 <f_mkfs+0x660>
3000a344:	00f12623          	sw	a5,12(sp)
3000a348:	03040993          	addi	s3,s0,48
3000a34c:	440c9a63          	bnez	s9,3000a7a0 <f_mkfs+0x668>
3000a350:	20000613          	li	a2,512
3000a354:	00000593          	li	a1,0
3000a358:	00098513          	mv	a0,s3
3000a35c:	2d1000ef          	jal	ra,3000ae2c <memset>
3000a360:	00c12783          	lw	a5,12(sp)
3000a364:	00100693          	li	a3,1
3000a368:	f8000613          	li	a2,-128
3000a36c:	1ed407a3          	sb	a3,495(s0)
3000a370:	1ed40823          	sb	a3,496(s0)
3000a374:	00fb06b7          	lui	a3,0xfb0
3000a378:	00fb8733          	add	a4,s7,a5
3000a37c:	1ec40723          	sb	a2,494(s0)
3000a380:	1e0408a3          	sb	zero,497(s0)
3000a384:	3ff68693          	addi	a3,a3,1023 # fb03ff <stackPointer+0xfa96bf>
3000a388:	5ee6ee63          	bltu	a3,a4,3000a984 <f_mkfs+0x84c>
3000a38c:	000046b7          	lui	a3,0x4
3000a390:	ec168693          	addi	a3,a3,-319 # 3ec1 <stackPointer-0x2e7f>
3000a394:	02d75733          	divu	a4,a4,a3
3000a398:	00275693          	srli	a3,a4,0x2
3000a39c:	03f6e693          	ori	a3,a3,63
3000a3a0:	0ff77713          	andi	a4,a4,255
3000a3a4:	0ff6f693          	andi	a3,a3,255
3000a3a8:	1ee40aa3          	sb	a4,501(s0)
3000a3ac:	ffe00713          	li	a4,-2
3000a3b0:	1ee409a3          	sb	a4,499(s0)
3000a3b4:	1ed40a23          	sb	a3,500(s0)
3000a3b8:	00300713          	li	a4,3
3000a3bc:	5eeb0063          	beq	s6,a4,3000a99c <f_mkfs+0x864>
3000a3c0:	000106b7          	lui	a3,0x10
3000a3c4:	00600713          	li	a4,6
3000a3c8:	00d7f463          	bgeu	a5,a3,3000a3d0 <f_mkfs+0x298>
3000a3cc:	00400713          	li	a4,4
3000a3d0:	4087d613          	srai	a2,a5,0x8
3000a3d4:	0107d693          	srli	a3,a5,0x10
3000a3d8:	1ee40923          	sb	a4,498(s0)
3000a3dc:	1ef40d23          	sb	a5,506(s0)
3000a3e0:	0187d713          	srli	a4,a5,0x18
3000a3e4:	ffffb7b7          	lui	a5,0xffffb
3000a3e8:	03f00593          	li	a1,63
3000a3ec:	a5578793          	addi	a5,a5,-1451 # ffffaa55 <__bss_end__+0xcfefaa55>
3000a3f0:	1eb40b23          	sb	a1,502(s0)
3000a3f4:	1ec40da3          	sb	a2,507(s0)
3000a3f8:	1ed40e23          	sb	a3,508(s0)
3000a3fc:	1e040ba3          	sb	zero,503(s0)
3000a400:	1e040c23          	sb	zero,504(s0)
3000a404:	1e040ca3          	sb	zero,505(s0)
3000a408:	1ee40ea3          	sb	a4,509(s0)
3000a40c:	22f41723          	sh	a5,558(s0)
3000a410:	00100693          	li	a3,1
3000a414:	00000613          	li	a2,0
3000a418:	00098593          	mv	a1,s3
3000a41c:	00000513          	li	a0,0
3000a420:	f68f90ef          	jal	ra,30003b88 <disk_write>
3000a424:	0f800c93          	li	s9,248
3000a428:	28051c63          	bnez	a0,3000a6c0 <f_mkfs+0x588>
3000a42c:	20000613          	li	a2,512
3000a430:	00000593          	li	a1,0
3000a434:	00098513          	mv	a0,s3
3000a438:	1f5000ef          	jal	ra,3000ae2c <memset>
3000a43c:	3000f737          	lui	a4,0x3000f
3000a440:	db870713          	addi	a4,a4,-584 # 3000edb8 <__clzsi2+0xe4>
3000a444:	03440793          	addi	a5,s0,52
3000a448:	00f737b3          	sltu	a5,a4,a5
3000a44c:	3000f737          	lui	a4,0x3000f
3000a450:	dbc70713          	addi	a4,a4,-580 # 3000edbc <__clzsi2+0xe8>
3000a454:	00e9b733          	sltu	a4,s3,a4
3000a458:	0017c793          	xori	a5,a5,1
3000a45c:	00174713          	xori	a4,a4,1
3000a460:	00e7e7b3          	or	a5,a5,a4
3000a464:	54078063          	beqz	a5,3000a9a4 <f_mkfs+0x86c>
3000a468:	0039f793          	andi	a5,s3,3
3000a46c:	52079c63          	bnez	a5,3000a9a4 <f_mkfs+0x86c>
3000a470:	4d9107b7          	lui	a5,0x4d910
3000a474:	eeb78793          	addi	a5,a5,-277 # 4d90feeb <__bss_end__+0x1d80feeb>
3000a478:	02f42823          	sw	a5,48(s0)
3000a47c:	534f47b7          	lui	a5,0x534f4
3000a480:	45378793          	addi	a5,a5,1107 # 534f4453 <__bss_end__+0x233f4453>
3000a484:	02f42a23          	sw	a5,52(s0)
3000a488:	000037b7          	lui	a5,0x3
3000a48c:	e3578793          	addi	a5,a5,-459 # 2e35 <stackPointer-0x3f0b>
3000a490:	02f41c23          	sh	a5,56(s0)
3000a494:	03000793          	li	a5,48
3000a498:	02f40d23          	sb	a5,58(s0)
3000a49c:	408dd793          	srai	a5,s11,0x8
3000a4a0:	00200713          	li	a4,2
3000a4a4:	02f40fa3          	sb	a5,63(s0)
3000a4a8:	00100793          	li	a5,1
3000a4ac:	04f40023          	sb	a5,64(s0)
3000a4b0:	02040da3          	sb	zero,59(s0)
3000a4b4:	02e40e23          	sb	a4,60(s0)
3000a4b8:	03540ea3          	sb	s5,61(s0)
3000a4bc:	03b40f23          	sb	s11,62(s0)
3000a4c0:	00300793          	li	a5,3
3000a4c4:	00fb0463          	beq	s6,a5,3000a4cc <f_mkfs+0x394>
3000a4c8:	00200d13          	li	s10,2
3000a4cc:	01c12783          	lw	a5,28(sp)
3000a4d0:	040400a3          	sb	zero,65(s0)
3000a4d4:	05a40123          	sb	s10,66(s0)
3000a4d8:	4087d713          	srai	a4,a5,0x8
3000a4dc:	00010637          	lui	a2,0x10
3000a4e0:	0ff7f693          	andi	a3,a5,255
3000a4e4:	0ff77713          	andi	a4,a4,255
3000a4e8:	30c7f663          	bgeu	a5,a2,3000a7f4 <f_mkfs+0x6bc>
3000a4ec:	04d401a3          	sb	a3,67(s0)
3000a4f0:	04e40223          	sb	a4,68(s0)
3000a4f4:	03f00793          	li	a5,63
3000a4f8:	04f40423          	sb	a5,72(s0)
3000a4fc:	fff00793          	li	a5,-1
3000a500:	04f40523          	sb	a5,74(s0)
3000a504:	059402a3          	sb	s9,69(s0)
3000a508:	040404a3          	sb	zero,73(s0)
3000a50c:	040405a3          	sb	zero,75(s0)
3000a510:	05740623          	sb	s7,76(s0)
3000a514:	040406a3          	sb	zero,77(s0)
3000a518:	04040723          	sb	zero,78(s0)
3000a51c:	040407a3          	sb	zero,79(s0)
3000a520:	a24f90ef          	jal	ra,30003744 <get_fattime>
3000a524:	40855813          	srai	a6,a0,0x8
3000a528:	40895693          	srai	a3,s2,0x8
3000a52c:	00a12c23          	sw	a0,24(sp)
3000a530:	00300793          	li	a5,3
3000a534:	0ff87813          	andi	a6,a6,255
3000a538:	0ff97893          	andi	a7,s2,255
3000a53c:	0ff6f693          	andi	a3,a3,255
3000a540:	2cfb0863          	beq	s6,a5,3000a810 <f_mkfs+0x6d8>
3000a544:	3000f737          	lui	a4,0x3000f
3000a548:	3000f5b7          	lui	a1,0x3000f
3000a54c:	05b40613          	addi	a2,s0,91
3000a550:	05f40793          	addi	a5,s0,95
3000a554:	da470713          	addi	a4,a4,-604 # 3000eda4 <__clzsi2+0xd0>
3000a558:	da858593          	addi	a1,a1,-600 # 3000eda8 <__clzsi2+0xd4>
3000a55c:	00f737b3          	sltu	a5,a4,a5
3000a560:	00b635b3          	sltu	a1,a2,a1
3000a564:	04d403a3          	sb	a3,71(s0)
3000a568:	f8000693          	li	a3,-128
3000a56c:	01055e13          	srli	t3,a0,0x10
3000a570:	01855313          	srli	t1,a0,0x18
3000a574:	0017c793          	xori	a5,a5,1
3000a578:	0015c593          	xori	a1,a1,1
3000a57c:	04d40a23          	sb	a3,84(s0)
3000a580:	02900693          	li	a3,41
3000a584:	04a40ba3          	sb	a0,87(s0)
3000a588:	05040c23          	sb	a6,88(s0)
3000a58c:	05c40ca3          	sb	t3,89(s0)
3000a590:	04640d23          	sb	t1,90(s0)
3000a594:	05140323          	sb	a7,70(s0)
3000a598:	04d40b23          	sb	a3,86(s0)
3000a59c:	00b7e7b3          	or	a5,a5,a1
3000a5a0:	46078663          	beqz	a5,3000aa0c <f_mkfs+0x8d4>
3000a5a4:	00367793          	andi	a5,a2,3
3000a5a8:	46079263          	bnez	a5,3000aa0c <f_mkfs+0x8d4>
3000a5ac:	4e2057b7          	lui	a5,0x4e205
3000a5b0:	f4e78793          	addi	a5,a5,-178 # 4e204f4e <__bss_end__+0x1e104f4e>
3000a5b4:	04f42da3          	sw	a5,91(s0)
3000a5b8:	204557b7          	lui	a5,0x20455
3000a5bc:	d4178793          	addi	a5,a5,-703 # 20454d41 <stackPointer+0x2044e001>
3000a5c0:	04f42fa3          	sw	a5,95(s0)
3000a5c4:	462027b7          	lui	a5,0x46202
3000a5c8:	02078793          	addi	a5,a5,32 # 46202020 <__bss_end__+0x16102020>
3000a5cc:	06f421a3          	sw	a5,99(s0)
3000a5d0:	202057b7          	lui	a5,0x20205
3000a5d4:	44178793          	addi	a5,a5,1089 # 20205441 <stackPointer+0x201fe701>
3000a5d8:	06f423a3          	sw	a5,103(s0)
3000a5dc:	000027b7          	lui	a5,0x2
3000a5e0:	02078793          	addi	a5,a5,32 # 2020 <stackPointer-0x4d20>
3000a5e4:	06f415a3          	sh	a5,107(s0)
3000a5e8:	02000793          	li	a5,32
3000a5ec:	06f406a3          	sb	a5,109(s0)
3000a5f0:	05500793          	li	a5,85
3000a5f4:	22f40723          	sb	a5,558(s0)
3000a5f8:	faa00793          	li	a5,-86
3000a5fc:	22f407a3          	sb	a5,559(s0)
3000a600:	00100693          	li	a3,1
3000a604:	000b8613          	mv	a2,s7
3000a608:	00098593          	mv	a1,s3
3000a60c:	00000513          	li	a0,0
3000a610:	d78f90ef          	jal	ra,30003b88 <disk_write>
3000a614:	0a051663          	bnez	a0,3000a6c0 <f_mkfs+0x588>
3000a618:	20000613          	li	a2,512
3000a61c:	00000593          	li	a1,0
3000a620:	00098513          	mv	a0,s3
3000a624:	009000ef          	jal	ra,3000ae2c <memset>
3000a628:	00100793          	li	a5,1
3000a62c:	36fb0263          	beq	s6,a5,3000a990 <f_mkfs+0x858>
3000a630:	f0000793          	li	a5,-256
3000a634:	0197ecb3          	or	s9,a5,s9
3000a638:	018cd713          	srli	a4,s9,0x18
3000a63c:	fff00793          	li	a5,-1
3000a640:	01912c23          	sw	s9,24(sp)
3000a644:	03940823          	sb	s9,48(s0)
3000a648:	02f408a3          	sb	a5,49(s0)
3000a64c:	02f40923          	sb	a5,50(s0)
3000a650:	02e409a3          	sb	a4,51(s0)
3000a654:	00048613          	mv	a2,s1
3000a658:	00100693          	li	a3,1
3000a65c:	00098593          	mv	a1,s3
3000a660:	00000513          	li	a0,0
3000a664:	00148493          	addi	s1,s1,1
3000a668:	d20f90ef          	jal	ra,30003b88 <disk_write>
3000a66c:	04051a63          	bnez	a0,3000a6c0 <f_mkfs+0x588>
3000a670:	20000613          	li	a2,512
3000a674:	00000593          	li	a1,0
3000a678:	00098513          	mv	a0,s3
3000a67c:	7b0000ef          	jal	ra,3000ae2c <memset>
3000a680:	00100793          	li	a5,1
3000a684:	00f12c23          	sw	a5,24(sp)
3000a688:	0127ee63          	bltu	a5,s2,3000a6a4 <f_mkfs+0x56c>
3000a68c:	11c0006f          	j	3000a7a8 <f_mkfs+0x670>
3000a690:	01812783          	lw	a5,24(sp)
3000a694:	000c8493          	mv	s1,s9
3000a698:	00178793          	addi	a5,a5,1
3000a69c:	00f12c23          	sw	a5,24(sp)
3000a6a0:	1127f663          	bgeu	a5,s2,3000a7ac <f_mkfs+0x674>
3000a6a4:	00048613          	mv	a2,s1
3000a6a8:	00100693          	li	a3,1
3000a6ac:	00098593          	mv	a1,s3
3000a6b0:	00000513          	li	a0,0
3000a6b4:	00148c93          	addi	s9,s1,1
3000a6b8:	cd0f90ef          	jal	ra,30003b88 <disk_write>
3000a6bc:	fc050ae3          	beqz	a0,3000a690 <f_mkfs+0x558>
3000a6c0:	00100513          	li	a0,1
3000a6c4:	05c12083          	lw	ra,92(sp)
3000a6c8:	05812403          	lw	s0,88(sp)
3000a6cc:	05412483          	lw	s1,84(sp)
3000a6d0:	05012903          	lw	s2,80(sp)
3000a6d4:	04c12983          	lw	s3,76(sp)
3000a6d8:	04812a03          	lw	s4,72(sp)
3000a6dc:	04412a83          	lw	s5,68(sp)
3000a6e0:	04012b03          	lw	s6,64(sp)
3000a6e4:	03c12b83          	lw	s7,60(sp)
3000a6e8:	03812c03          	lw	s8,56(sp)
3000a6ec:	03412c83          	lw	s9,52(sp)
3000a6f0:	03012d03          	lw	s10,48(sp)
3000a6f4:	02c12d83          	lw	s11,44(sp)
3000a6f8:	06010113          	addi	sp,sp,96
3000a6fc:	00008067          	ret
3000a700:	00b00513          	li	a0,11
3000a704:	00008067          	ret
3000a708:	00c00513          	li	a0,12
3000a70c:	fb9ff06f          	j	3000a6c4 <f_mkfs+0x58c>
3000a710:	1ff00713          	li	a4,511
3000a714:	0094da93          	srli	s5,s1,0x9
3000a718:	b69776e3          	bgeu	a4,s1,3000a284 <f_mkfs+0x14c>
3000a71c:	00010737          	lui	a4,0x10
3000a720:	1ff70713          	addi	a4,a4,511 # 101ff <stackPointer+0x94bf>
3000a724:	0c977463          	bgeu	a4,s1,3000a7ec <f_mkfs+0x6b4>
3000a728:	0077d913          	srli	s2,a5,0x7
3000a72c:	08000a93          	li	s5,128
3000a730:	b5dff06f          	j	3000a28c <f_mkfs+0x154>
3000a734:	00600713          	li	a4,6
3000a738:	b2dff06f          	j	3000a264 <f_mkfs+0x12c>
3000a73c:	00010737          	lui	a4,0x10
3000a740:	ff570713          	addi	a4,a4,-11 # fff5 <stackPointer+0x92b5>
3000a744:	01276a63          	bltu	a4,s2,3000a758 <f_mkfs+0x620>
3000a748:	00290913          	addi	s2,s2,2
3000a74c:	00191913          	slli	s2,s2,0x1
3000a750:	00200b13          	li	s6,2
3000a754:	b5dff06f          	j	3000a2b0 <f_mkfs+0x178>
3000a758:	00291913          	slli	s2,s2,0x2
3000a75c:	20790913          	addi	s2,s2,519
3000a760:	00995913          	srli	s2,s2,0x9
3000a764:	00090993          	mv	s3,s2
3000a768:	00300b13          	li	s6,3
3000a76c:	02000d93          	li	s11,32
3000a770:	00000c13          	li	s8,0
3000a774:	b51ff06f          	j	3000a2c4 <f_mkfs+0x18c>
3000a778:	00ed8db3          	add	s11,s11,a4
3000a77c:	41378a33          	sub	s4,a5,s3
3000a780:	41ba0a33          	sub	s4,s4,s11
3000a784:	035a5a33          	divu	s4,s4,s5
3000a788:	000106b7          	lui	a3,0x10
3000a78c:	ff568693          	addi	a3,a3,-11 # fff5 <stackPointer+0x92b5>
3000a790:	00e484b3          	add	s1,s1,a4
3000a794:	bb46e8e3          	bltu	a3,s4,3000a344 <f_mkfs+0x20c>
3000a798:	00e00513          	li	a0,14
3000a79c:	f29ff06f          	j	3000a6c4 <f_mkfs+0x58c>
3000a7a0:	0f000c93          	li	s9,240
3000a7a4:	c89ff06f          	j	3000a42c <f_mkfs+0x2f4>
3000a7a8:	00048c93          	mv	s9,s1
3000a7ac:	00300793          	li	a5,3
3000a7b0:	00fb0463          	beq	s6,a5,3000a7b8 <f_mkfs+0x680>
3000a7b4:	000c0a93          	mv	s5,s8
3000a7b8:	019a8ab3          	add	s5,s5,s9
3000a7bc:	0080006f          	j	3000a7c4 <f_mkfs+0x68c>
3000a7c0:	2d9a8263          	beq	s5,s9,3000aa84 <f_mkfs+0x94c>
3000a7c4:	000c8613          	mv	a2,s9
3000a7c8:	00100693          	li	a3,1
3000a7cc:	00098593          	mv	a1,s3
3000a7d0:	00000513          	li	a0,0
3000a7d4:	001c8c93          	addi	s9,s9,1
3000a7d8:	bb0f90ef          	jal	ra,30003b88 <disk_write>
3000a7dc:	fe0502e3          	beqz	a0,3000a7c0 <f_mkfs+0x688>
3000a7e0:	00100513          	li	a0,1
3000a7e4:	ee1ff06f          	j	3000a6c4 <f_mkfs+0x58c>
3000a7e8:	04000a93          	li	s5,64
3000a7ec:	0357d933          	divu	s2,a5,s5
3000a7f0:	a9dff06f          	j	3000a28c <f_mkfs+0x154>
3000a7f4:	0107d613          	srli	a2,a5,0x10
3000a7f8:	0187d793          	srli	a5,a5,0x18
3000a7fc:	04d40823          	sb	a3,80(s0)
3000a800:	04e408a3          	sb	a4,81(s0)
3000a804:	04c40923          	sb	a2,82(s0)
3000a808:	04f409a3          	sb	a5,83(s0)
3000a80c:	ce9ff06f          	j	3000a4f4 <f_mkfs+0x3bc>
3000a810:	3000f7b7          	lui	a5,0x3000f
3000a814:	04d40aa3          	sb	a3,85(s0)
3000a818:	00200693          	li	a3,2
3000a81c:	d9078713          	addi	a4,a5,-624 # 3000ed90 <__clzsi2+0xbc>
3000a820:	04d40e23          	sb	a3,92(s0)
3000a824:	3000f7b7          	lui	a5,0x3000f
3000a828:	00100693          	li	a3,1
3000a82c:	07740593          	addi	a1,s0,119
3000a830:	07b40613          	addi	a2,s0,123
3000a834:	d9478793          	addi	a5,a5,-620 # 3000ed94 <__clzsi2+0xc0>
3000a838:	06d40023          	sb	a3,96(s0)
3000a83c:	00600693          	li	a3,6
3000a840:	00f5b7b3          	sltu	a5,a1,a5
3000a844:	00c73633          	sltu	a2,a4,a2
3000a848:	06d40123          	sb	a3,98(s0)
3000a84c:	f8000693          	li	a3,-128
3000a850:	01055f13          	srli	t5,a0,0x10
3000a854:	01855e93          	srli	t4,a0,0x18
3000a858:	01095e13          	srli	t3,s2,0x10
3000a85c:	01895313          	srli	t1,s2,0x18
3000a860:	0017c793          	xori	a5,a5,1
3000a864:	00164613          	xori	a2,a2,1
3000a868:	06d40823          	sb	a3,112(s0)
3000a86c:	02900693          	li	a3,41
3000a870:	06a409a3          	sb	a0,115(s0)
3000a874:	07040a23          	sb	a6,116(s0)
3000a878:	07e40aa3          	sb	t5,117(s0)
3000a87c:	07d40b23          	sb	t4,118(s0)
3000a880:	05140a23          	sb	a7,84(s0)
3000a884:	05c40b23          	sb	t3,86(s0)
3000a888:	04640ba3          	sb	t1,87(s0)
3000a88c:	04040ea3          	sb	zero,93(s0)
3000a890:	04040f23          	sb	zero,94(s0)
3000a894:	04040fa3          	sb	zero,95(s0)
3000a898:	060400a3          	sb	zero,97(s0)
3000a89c:	060401a3          	sb	zero,99(s0)
3000a8a0:	06d40923          	sb	a3,114(s0)
3000a8a4:	00c7e7b3          	or	a5,a5,a2
3000a8a8:	1a078a63          	beqz	a5,3000aa5c <f_mkfs+0x924>
3000a8ac:	0035f793          	andi	a5,a1,3
3000a8b0:	1a079663          	bnez	a5,3000aa5c <f_mkfs+0x924>
3000a8b4:	4e2057b7          	lui	a5,0x4e205
3000a8b8:	f4e78793          	addi	a5,a5,-178 # 4e204f4e <__bss_end__+0x1e104f4e>
3000a8bc:	06f42ba3          	sw	a5,119(s0)
3000a8c0:	204557b7          	lui	a5,0x20455
3000a8c4:	d4178793          	addi	a5,a5,-703 # 20454d41 <stackPointer+0x2044e001>
3000a8c8:	06f42da3          	sw	a5,123(s0)
3000a8cc:	462027b7          	lui	a5,0x46202
3000a8d0:	02078793          	addi	a5,a5,32 # 46202020 <__bss_end__+0x16102020>
3000a8d4:	06f42fa3          	sw	a5,127(s0)
3000a8d8:	323357b7          	lui	a5,0x32335
3000a8dc:	44178793          	addi	a5,a5,1089 # 32335441 <__bss_end__+0x2235441>
3000a8e0:	08f421a3          	sw	a5,131(s0)
3000a8e4:	000027b7          	lui	a5,0x2
3000a8e8:	02078793          	addi	a5,a5,32 # 2020 <stackPointer-0x4d20>
3000a8ec:	08f413a3          	sh	a5,135(s0)
3000a8f0:	02000793          	li	a5,32
3000a8f4:	08f404a3          	sb	a5,137(s0)
3000a8f8:	05500793          	li	a5,85
3000a8fc:	22f40723          	sb	a5,558(s0)
3000a900:	faa00793          	li	a5,-86
3000a904:	22f407a3          	sb	a5,559(s0)
3000a908:	00100693          	li	a3,1
3000a90c:	000b8613          	mv	a2,s7
3000a910:	00098593          	mv	a1,s3
3000a914:	00000513          	li	a0,0
3000a918:	a70f90ef          	jal	ra,30003b88 <disk_write>
3000a91c:	da0512e3          	bnez	a0,3000a6c0 <f_mkfs+0x588>
3000a920:	00100693          	li	a3,1
3000a924:	006b8613          	addi	a2,s7,6
3000a928:	00098593          	mv	a1,s3
3000a92c:	a5cf90ef          	jal	ra,30003b88 <disk_write>
3000a930:	20000613          	li	a2,512
3000a934:	00000593          	li	a1,0
3000a938:	00098513          	mv	a0,s3
3000a93c:	4f0000ef          	jal	ra,3000ae2c <memset>
3000a940:	fff00793          	li	a5,-1
3000a944:	f00cec93          	ori	s9,s9,-256
3000a948:	02f408a3          	sb	a5,49(s0)
3000a94c:	02f40923          	sb	a5,50(s0)
3000a950:	02f409a3          	sb	a5,51(s0)
3000a954:	02f40a23          	sb	a5,52(s0)
3000a958:	02f40aa3          	sb	a5,53(s0)
3000a95c:	02f40b23          	sb	a5,54(s0)
3000a960:	02f40ba3          	sb	a5,55(s0)
3000a964:	02f40c23          	sb	a5,56(s0)
3000a968:	02f40ca3          	sb	a5,57(s0)
3000a96c:	02f40d23          	sb	a5,58(s0)
3000a970:	00f00793          	li	a5,15
3000a974:	01912c23          	sw	s9,24(sp)
3000a978:	03940823          	sb	s9,48(s0)
3000a97c:	02f40da3          	sb	a5,59(s0)
3000a980:	cd5ff06f          	j	3000a654 <f_mkfs+0x51c>
3000a984:	0ff00693          	li	a3,255
3000a988:	0ff00713          	li	a4,255
3000a98c:	a1dff06f          	j	3000a3a8 <f_mkfs+0x270>
3000a990:	010007b7          	lui	a5,0x1000
3000a994:	f0078793          	addi	a5,a5,-256 # ffff00 <stackPointer+0xff91c0>
3000a998:	c9dff06f          	j	3000a634 <f_mkfs+0x4fc>
3000a99c:	00c00713          	li	a4,12
3000a9a0:	a31ff06f          	j	3000a3d0 <f_mkfs+0x298>
3000a9a4:	feb00713          	li	a4,-21
3000a9a8:	02e40823          	sb	a4,48(s0)
3000a9ac:	ffe00713          	li	a4,-2
3000a9b0:	05300793          	li	a5,83
3000a9b4:	02e408a3          	sb	a4,49(s0)
3000a9b8:	f9000713          	li	a4,-112
3000a9bc:	02e40923          	sb	a4,50(s0)
3000a9c0:	02f40a23          	sb	a5,52(s0)
3000a9c4:	04d00713          	li	a4,77
3000a9c8:	02f40ba3          	sb	a5,55(s0)
3000a9cc:	03500793          	li	a5,53
3000a9d0:	02e409a3          	sb	a4,51(s0)
3000a9d4:	02f40c23          	sb	a5,56(s0)
3000a9d8:	04400713          	li	a4,68
3000a9dc:	02e00793          	li	a5,46
3000a9e0:	02e40aa3          	sb	a4,53(s0)
3000a9e4:	02f40ca3          	sb	a5,57(s0)
3000a9e8:	04f00713          	li	a4,79
3000a9ec:	03000793          	li	a5,48
3000a9f0:	02e40b23          	sb	a4,54(s0)
3000a9f4:	02f40d23          	sb	a5,58(s0)
3000a9f8:	aa5ff06f          	j	3000a49c <f_mkfs+0x364>
3000a9fc:	00100713          	li	a4,1
3000aa00:	865ff06f          	j	3000a264 <f_mkfs+0x12c>
3000aa04:	00200713          	li	a4,2
3000aa08:	85dff06f          	j	3000a264 <f_mkfs+0x12c>
3000aa0c:	00060693          	mv	a3,a2
3000aa10:	3000f637          	lui	a2,0x3000f
3000aa14:	00070793          	mv	a5,a4
3000aa18:	db760613          	addi	a2,a2,-585 # 3000edb7 <__clzsi2+0xe3>
3000aa1c:	00178793          	addi	a5,a5,1
3000aa20:	fff7c703          	lbu	a4,-1(a5)
3000aa24:	00168693          	addi	a3,a3,1
3000aa28:	fee68fa3          	sb	a4,-1(a3)
3000aa2c:	fec798e3          	bne	a5,a2,3000aa1c <f_mkfs+0x8e4>
3000aa30:	bc1ff06f          	j	3000a5f0 <f_mkfs+0x4b8>
3000aa34:	00300713          	li	a4,3
3000aa38:	82dff06f          	j	3000a264 <f_mkfs+0x12c>
3000aa3c:	00400713          	li	a4,4
3000aa40:	825ff06f          	j	3000a264 <f_mkfs+0x12c>
3000aa44:	00500713          	li	a4,5
3000aa48:	81dff06f          	j	3000a264 <f_mkfs+0x12c>
3000aa4c:	00700713          	li	a4,7
3000aa50:	815ff06f          	j	3000a264 <f_mkfs+0x12c>
3000aa54:	00800713          	li	a4,8
3000aa58:	80dff06f          	j	3000a264 <f_mkfs+0x12c>
3000aa5c:	3000f637          	lui	a2,0x3000f
3000aa60:	00058693          	mv	a3,a1
3000aa64:	00070793          	mv	a5,a4
3000aa68:	da360613          	addi	a2,a2,-605 # 3000eda3 <__clzsi2+0xcf>
3000aa6c:	00178793          	addi	a5,a5,1
3000aa70:	fff7c703          	lbu	a4,-1(a5)
3000aa74:	00168693          	addi	a3,a3,1
3000aa78:	fee68fa3          	sb	a4,-1(a3)
3000aa7c:	fec798e3          	bne	a5,a2,3000aa6c <f_mkfs+0x934>
3000aa80:	e79ff06f          	j	3000a8f8 <f_mkfs+0x7c0>
3000aa84:	00300793          	li	a5,3
3000aa88:	00fb0e63          	beq	s6,a5,3000aaa4 <f_mkfs+0x96c>
3000aa8c:	00000613          	li	a2,0
3000aa90:	00000593          	li	a1,0
3000aa94:	00000513          	li	a0,0
3000aa98:	bb8f90ef          	jal	ra,30003e50 <disk_ioctl>
3000aa9c:	00a03533          	snez	a0,a0
3000aaa0:	c25ff06f          	j	3000a6c4 <f_mkfs+0x58c>
3000aaa4:	fffa0a13          	addi	s4,s4,-1
3000aaa8:	010a1793          	slli	a5,s4,0x10
3000aaac:	0107d793          	srli	a5,a5,0x10
3000aab0:	4087d793          	srai	a5,a5,0x8
3000aab4:	20f40ca3          	sb	a5,537(s0)
3000aab8:	00200793          	li	a5,2
3000aabc:	20f40e23          	sb	a5,540(s0)
3000aac0:	05500793          	li	a5,85
3000aac4:	05200313          	li	t1,82
3000aac8:	06100713          	li	a4,97
3000aacc:	04100813          	li	a6,65
3000aad0:	07200893          	li	a7,114
3000aad4:	010a5e93          	srli	t4,s4,0x10
3000aad8:	018a5e13          	srli	t3,s4,0x18
3000aadc:	22f40723          	sb	a5,558(s0)
3000aae0:	faa00793          	li	a5,-86
3000aae4:	001b8613          	addi	a2,s7,1
3000aae8:	00098593          	mv	a1,s3
3000aaec:	00100693          	li	a3,1
3000aaf0:	02640823          	sb	t1,48(s0)
3000aaf4:	026408a3          	sb	t1,49(s0)
3000aaf8:	02e40923          	sb	a4,50(s0)
3000aafc:	030409a3          	sb	a6,51(s0)
3000ab00:	21140a23          	sb	a7,532(s0)
3000ab04:	21140aa3          	sb	a7,533(s0)
3000ab08:	21040b23          	sb	a6,534(s0)
3000ab0c:	20e40ba3          	sb	a4,535(s0)
3000ab10:	21440c23          	sb	s4,536(s0)
3000ab14:	21d40d23          	sb	t4,538(s0)
3000ab18:	21c40da3          	sb	t3,539(s0)
3000ab1c:	20040ea3          	sb	zero,541(s0)
3000ab20:	20040f23          	sb	zero,542(s0)
3000ab24:	20040fa3          	sb	zero,543(s0)
3000ab28:	22f407a3          	sb	a5,559(s0)
3000ab2c:	85cf90ef          	jal	ra,30003b88 <disk_write>
3000ab30:	00100693          	li	a3,1
3000ab34:	007b8613          	addi	a2,s7,7
3000ab38:	00098593          	mv	a1,s3
3000ab3c:	00000513          	li	a0,0
3000ab40:	848f90ef          	jal	ra,30003b88 <disk_write>
3000ab44:	f49ff06f          	j	3000aa8c <f_mkfs+0x954>

3000ab48 <_Z11osAllocInitv>:
3000ab48:	300137b7          	lui	a5,0x30013
3000ab4c:	2d478793          	addi	a5,a5,724 # 300132d4 <osAllocMemoryNodes>
3000ab50:	0007a023          	sw	zero,0(a5)
3000ab54:	0007a223          	sw	zero,4(a5)
3000ab58:	0007a423          	sw	zero,8(a5)
3000ab5c:	0007a623          	sw	zero,12(a5)
3000ab60:	0007a823          	sw	zero,16(a5)
3000ab64:	0007aa23          	sw	zero,20(a5)
3000ab68:	0007ac23          	sw	zero,24(a5)
3000ab6c:	0007ae23          	sw	zero,28(a5)
3000ab70:	0207a023          	sw	zero,32(a5)
3000ab74:	0207a223          	sw	zero,36(a5)
3000ab78:	0207a423          	sw	zero,40(a5)
3000ab7c:	0207a623          	sw	zero,44(a5)
3000ab80:	00000513          	li	a0,0
3000ab84:	00008067          	ret

3000ab88 <_Z14osAllocAddNodemPvmm>:
3000ab88:	00100793          	li	a5,1
3000ab8c:	0aa7ee63          	bltu	a5,a0,3000ac48 <_Z14osAllocAddNodemPvmm+0xc0>
3000ab90:	00151813          	slli	a6,a0,0x1
3000ab94:	00a808b3          	add	a7,a6,a0
3000ab98:	300136b7          	lui	a3,0x30013
3000ab9c:	00865793          	srli	a5,a2,0x8
3000aba0:	2d468693          	addi	a3,a3,724 # 300132d4 <osAllocMemoryNodes>
3000aba4:	00389893          	slli	a7,a7,0x3
3000aba8:	011688b3          	add	a7,a3,a7
3000abac:	00f58333          	add	t1,a1,a5
3000abb0:	00f8a423          	sw	a5,8(a7)
3000abb4:	00b8a223          	sw	a1,4(a7)
3000abb8:	0ff37793          	andi	a5,t1,255
3000abbc:	41f35713          	srai	a4,t1,0x1f
3000abc0:	06079a63          	bnez	a5,3000ac34 <_Z14osAllocAddNodemPvmm+0xac>
3000abc4:	41f75793          	srai	a5,a4,0x1f
3000abc8:	0ff7f793          	andi	a5,a5,255
3000abcc:	006787b3          	add	a5,a5,t1
3000abd0:	f007f793          	andi	a5,a5,-256
3000abd4:	00c585b3          	add	a1,a1,a2
3000abd8:	40f585b3          	sub	a1,a1,a5
3000abdc:	41f5d713          	srai	a4,a1,0x1f
3000abe0:	0ff77713          	andi	a4,a4,255
3000abe4:	00b70733          	add	a4,a4,a1
3000abe8:	40875713          	srai	a4,a4,0x8
3000abec:	00a80833          	add	a6,a6,a0
3000abf0:	00381813          	slli	a6,a6,0x3
3000abf4:	00871613          	slli	a2,a4,0x8
3000abf8:	010686b3          	add	a3,a3,a6
3000abfc:	00c78633          	add	a2,a5,a2
3000ac00:	00f6a623          	sw	a5,12(a3)
3000ac04:	00e6aa23          	sw	a4,20(a3)
3000ac08:	00c6a823          	sw	a2,16(a3)
3000ac0c:	00000793          	li	a5,0
3000ac10:	00070e63          	beqz	a4,3000ac2c <_Z14osAllocAddNodemPvmm+0xa4>
3000ac14:	0046a703          	lw	a4,4(a3)
3000ac18:	00f70733          	add	a4,a4,a5
3000ac1c:	00070023          	sb	zero,0(a4)
3000ac20:	0146a703          	lw	a4,20(a3)
3000ac24:	00178793          	addi	a5,a5,1
3000ac28:	fee7e6e3          	bltu	a5,a4,3000ac14 <_Z14osAllocAddNodemPvmm+0x8c>
3000ac2c:	00000513          	li	a0,0
3000ac30:	00008067          	ret
3000ac34:	10030893          	addi	a7,t1,256
3000ac38:	0068b7b3          	sltu	a5,a7,t1
3000ac3c:	00e78733          	add	a4,a5,a4
3000ac40:	00088313          	mv	t1,a7
3000ac44:	f81ff06f          	j	3000abc4 <_Z14osAllocAddNodemPvmm+0x3c>
3000ac48:	00100513          	li	a0,1
3000ac4c:	00008067          	ret

3000ac50 <_Z7osAllocmm>:
3000ac50:	0025f593          	andi	a1,a1,2
3000ac54:	0c059063          	bnez	a1,3000ad14 <_Z7osAllocmm+0xc4>
3000ac58:	30013eb7          	lui	t4,0x30013
3000ac5c:	2d4e8e93          	addi	t4,t4,724 # 300132d4 <osAllocMemoryNodes>
3000ac60:	0ff57793          	andi	a5,a0,255
3000ac64:	00078463          	beqz	a5,3000ac6c <_Z7osAllocmm+0x1c>
3000ac68:	10050513          	addi	a0,a0,256
3000ac6c:	014ea803          	lw	a6,20(t4)
3000ac70:	00855513          	srli	a0,a0,0x8
3000ac74:	04080663          	beqz	a6,3000acc0 <_Z7osAllocmm+0x70>
3000ac78:	004ea583          	lw	a1,4(t4)
3000ac7c:	00000713          	li	a4,0
3000ac80:	fff00893          	li	a7,-1
3000ac84:	00e586b3          	add	a3,a1,a4
3000ac88:	fff00313          	li	t1,-1
3000ac8c:	0006c603          	lbu	a2,0(a3)
3000ac90:	00170793          	addi	a5,a4,1
3000ac94:	06688063          	beq	a7,t1,3000acf4 <_Z7osAllocmm+0xa4>
3000ac98:	02060863          	beqz	a2,3000acc8 <_Z7osAllocmm+0x78>
3000ac9c:	0307f263          	bgeu	a5,a6,3000acc0 <_Z7osAllocmm+0x70>
3000aca0:	00f58633          	add	a2,a1,a5
3000aca4:	00064883          	lbu	a7,0(a2)
3000aca8:	00060693          	mv	a3,a2
3000acac:	00178713          	addi	a4,a5,1
3000acb0:	04088663          	beqz	a7,3000acfc <_Z7osAllocmm+0xac>
3000acb4:	00070793          	mv	a5,a4
3000acb8:	00160613          	addi	a2,a2,1
3000acbc:	ff0764e3          	bltu	a4,a6,3000aca4 <_Z7osAllocmm+0x54>
3000acc0:	00000513          	li	a0,0
3000acc4:	00008067          	ret
3000acc8:	00078e13          	mv	t3,a5
3000accc:	00088613          	mv	a2,a7
3000acd0:	00070793          	mv	a5,a4
3000acd4:	000e0713          	mv	a4,t3
3000acd8:	40c70e33          	sub	t3,a4,a2
3000acdc:	04ae7263          	bgeu	t3,a0,3000ad20 <_Z7osAllocmm+0xd0>
3000ace0:	ff0770e3          	bgeu	a4,a6,3000acc0 <_Z7osAllocmm+0x70>
3000ace4:	00e586b3          	add	a3,a1,a4
3000ace8:	0006c603          	lbu	a2,0(a3)
3000acec:	00170793          	addi	a5,a4,1
3000acf0:	fa6894e3          	bne	a7,t1,3000ac98 <_Z7osAllocmm+0x48>
3000acf4:	00070793          	mv	a5,a4
3000acf8:	fa9ff06f          	j	3000aca0 <_Z7osAllocmm+0x50>
3000acfc:	00078893          	mv	a7,a5
3000ad00:	00078613          	mv	a2,a5
3000ad04:	fc679ae3          	bne	a5,t1,3000acd8 <_Z7osAllocmm+0x88>
3000ad08:	00070793          	mv	a5,a4
3000ad0c:	f907eae3          	bltu	a5,a6,3000aca0 <_Z7osAllocmm+0x50>
3000ad10:	fb1ff06f          	j	3000acc0 <_Z7osAllocmm+0x70>
3000ad14:	30013eb7          	lui	t4,0x30013
3000ad18:	2ece8e93          	addi	t4,t4,748 # 300132ec <osAllocMemoryNodes+0x18>
3000ad1c:	f45ff06f          	j	3000ac60 <_Z7osAllocmm+0x10>
3000ad20:	02f67c63          	bgeu	a2,a5,3000ad58 <_Z7osAllocmm+0x108>
3000ad24:	00c585b3          	add	a1,a1,a2
3000ad28:	f8100713          	li	a4,-127
3000ad2c:	00e58023          	sb	a4,0(a1)
3000ad30:	00160613          	addi	a2,a2,1
3000ad34:	f8100693          	li	a3,-127
3000ad38:	00f67c63          	bgeu	a2,a5,3000ad50 <_Z7osAllocmm+0x100>
3000ad3c:	004ea703          	lw	a4,4(t4)
3000ad40:	00c70733          	add	a4,a4,a2
3000ad44:	00d70023          	sb	a3,0(a4)
3000ad48:	00160613          	addi	a2,a2,1
3000ad4c:	fef618e3          	bne	a2,a5,3000ad3c <_Z7osAllocmm+0xec>
3000ad50:	004ea683          	lw	a3,4(t4)
3000ad54:	00f686b3          	add	a3,a3,a5
3000ad58:	f8000793          	li	a5,-128
3000ad5c:	00f68023          	sb	a5,0(a3)
3000ad60:	00cea503          	lw	a0,12(t4)
3000ad64:	00889893          	slli	a7,a7,0x8
3000ad68:	01150533          	add	a0,a0,a7
3000ad6c:	00008067          	ret

3000ad70 <_Z6osFreePv>:
3000ad70:	30013637          	lui	a2,0x30013
3000ad74:	2d460693          	addi	a3,a2,724 # 300132d4 <osAllocMemoryNodes>
3000ad78:	00c6a703          	lw	a4,12(a3)
3000ad7c:	00050793          	mv	a5,a0
3000ad80:	00e56663          	bltu	a0,a4,3000ad8c <_Z6osFreePv+0x1c>
3000ad84:	0106a583          	lw	a1,16(a3)
3000ad88:	00a5fe63          	bgeu	a1,a0,3000ada4 <_Z6osFreePv+0x34>
3000ad8c:	0246a703          	lw	a4,36(a3)
3000ad90:	00100513          	li	a0,1
3000ad94:	00e7e663          	bltu	a5,a4,3000ada0 <_Z6osFreePv+0x30>
3000ad98:	0286a603          	lw	a2,40(a3)
3000ad9c:	06f67a63          	bgeu	a2,a5,3000ae10 <_Z6osFreePv+0xa0>
3000ada0:	00008067          	ret
3000ada4:	2d460613          	addi	a2,a2,724
3000ada8:	40e78533          	sub	a0,a5,a4
3000adac:	41f55793          	srai	a5,a0,0x1f
3000adb0:	0ff7f793          	andi	a5,a5,255
3000adb4:	01462703          	lw	a4,20(a2)
3000adb8:	00a787b3          	add	a5,a5,a0
3000adbc:	4087d793          	srai	a5,a5,0x8
3000adc0:	00100513          	li	a0,1
3000adc4:	fce7fee3          	bgeu	a5,a4,3000ada0 <_Z6osFreePv+0x30>
3000adc8:	00462703          	lw	a4,4(a2)
3000adcc:	00f70733          	add	a4,a4,a5
3000add0:	00074683          	lbu	a3,0(a4)
3000add4:	04068263          	beqz	a3,3000ae18 <_Z6osFreePv+0xa8>
3000add8:	08000593          	li	a1,128
3000addc:	00b69e63          	bne	a3,a1,3000adf8 <_Z6osFreePv+0x88>
3000ade0:	0400006f          	j	3000ae20 <_Z6osFreePv+0xb0>
3000ade4:	00462703          	lw	a4,4(a2)
3000ade8:	00f70733          	add	a4,a4,a5
3000adec:	00074683          	lbu	a3,0(a4)
3000adf0:	02068463          	beqz	a3,3000ae18 <_Z6osFreePv+0xa8>
3000adf4:	02b68663          	beq	a3,a1,3000ae20 <_Z6osFreePv+0xb0>
3000adf8:	00070023          	sb	zero,0(a4)
3000adfc:	01462703          	lw	a4,20(a2)
3000ae00:	00178793          	addi	a5,a5,1
3000ae04:	fee7e0e3          	bltu	a5,a4,3000ade4 <_Z6osFreePv+0x74>
3000ae08:	00000513          	li	a0,0
3000ae0c:	00008067          	ret
3000ae10:	01868613          	addi	a2,a3,24
3000ae14:	f95ff06f          	j	3000ada8 <_Z6osFreePv+0x38>
3000ae18:	00200513          	li	a0,2
3000ae1c:	00008067          	ret
3000ae20:	00070023          	sb	zero,0(a4)
3000ae24:	00000513          	li	a0,0
3000ae28:	00008067          	ret

3000ae2c <memset>:
3000ae2c:	00f00313          	li	t1,15
3000ae30:	00050713          	mv	a4,a0
3000ae34:	02c37e63          	bgeu	t1,a2,3000ae70 <memset+0x44>
3000ae38:	00f77793          	andi	a5,a4,15
3000ae3c:	0a079063          	bnez	a5,3000aedc <memset+0xb0>
3000ae40:	08059263          	bnez	a1,3000aec4 <memset+0x98>
3000ae44:	ff067693          	andi	a3,a2,-16
3000ae48:	00f67613          	andi	a2,a2,15
3000ae4c:	00e686b3          	add	a3,a3,a4
3000ae50:	00b72023          	sw	a1,0(a4)
3000ae54:	00b72223          	sw	a1,4(a4)
3000ae58:	00b72423          	sw	a1,8(a4)
3000ae5c:	00b72623          	sw	a1,12(a4)
3000ae60:	01070713          	addi	a4,a4,16
3000ae64:	fed766e3          	bltu	a4,a3,3000ae50 <memset+0x24>
3000ae68:	00061463          	bnez	a2,3000ae70 <memset+0x44>
3000ae6c:	00008067          	ret
3000ae70:	40c306b3          	sub	a3,t1,a2
3000ae74:	00269693          	slli	a3,a3,0x2
3000ae78:	00000297          	auipc	t0,0x0
3000ae7c:	005686b3          	add	a3,a3,t0
3000ae80:	00c68067          	jr	12(a3)
3000ae84:	00b70723          	sb	a1,14(a4)
3000ae88:	00b706a3          	sb	a1,13(a4)
3000ae8c:	00b70623          	sb	a1,12(a4)
3000ae90:	00b705a3          	sb	a1,11(a4)
3000ae94:	00b70523          	sb	a1,10(a4)
3000ae98:	00b704a3          	sb	a1,9(a4)
3000ae9c:	00b70423          	sb	a1,8(a4)
3000aea0:	00b703a3          	sb	a1,7(a4)
3000aea4:	00b70323          	sb	a1,6(a4)
3000aea8:	00b702a3          	sb	a1,5(a4)
3000aeac:	00b70223          	sb	a1,4(a4)
3000aeb0:	00b701a3          	sb	a1,3(a4)
3000aeb4:	00b70123          	sb	a1,2(a4)
3000aeb8:	00b700a3          	sb	a1,1(a4)
3000aebc:	00b70023          	sb	a1,0(a4)
3000aec0:	00008067          	ret
3000aec4:	0ff5f593          	andi	a1,a1,255
3000aec8:	00859693          	slli	a3,a1,0x8
3000aecc:	00d5e5b3          	or	a1,a1,a3
3000aed0:	01059693          	slli	a3,a1,0x10
3000aed4:	00d5e5b3          	or	a1,a1,a3
3000aed8:	f6dff06f          	j	3000ae44 <memset+0x18>
3000aedc:	00279693          	slli	a3,a5,0x2
3000aee0:	00000297          	auipc	t0,0x0
3000aee4:	005686b3          	add	a3,a3,t0
3000aee8:	00008293          	mv	t0,ra
3000aeec:	fa0680e7          	jalr	-96(a3)
3000aef0:	00028093          	mv	ra,t0
3000aef4:	ff078793          	addi	a5,a5,-16
3000aef8:	40f70733          	sub	a4,a4,a5
3000aefc:	00f60633          	add	a2,a2,a5
3000af00:	f6c378e3          	bgeu	t1,a2,3000ae70 <memset+0x44>
3000af04:	f3dff06f          	j	3000ae40 <memset+0x14>

Disassembly of section .text.startup:

3000af08 <main>:
3000af08:	f6010113          	addi	sp,sp,-160
3000af0c:	08112e23          	sw	ra,156(sp)
3000af10:	07912a23          	sw	s9,116(sp)
3000af14:	07a12823          	sw	s10,112(sp)
3000af18:	07b12623          	sw	s11,108(sp)
3000af1c:	08812c23          	sw	s0,152(sp)
3000af20:	08912a23          	sw	s1,148(sp)
3000af24:	09212823          	sw	s2,144(sp)
3000af28:	09312623          	sw	s3,140(sp)
3000af2c:	09412423          	sw	s4,136(sp)
3000af30:	09512223          	sw	s5,132(sp)
3000af34:	09612023          	sw	s6,128(sp)
3000af38:	07712e23          	sw	s7,124(sp)
3000af3c:	07812c23          	sw	s8,120(sp)
3000af40:	900f50ef          	jal	ra,30000040 <_Z7bspInitv>
3000af44:	00400513          	li	a0,4
3000af48:	bccf50ef          	jal	ra,30000314 <_Z12setVideoModem>
3000af4c:	30013737          	lui	a4,0x30013
3000af50:	e6c70793          	addi	a5,a4,-404 # 30012e6c <con>
3000af54:	e6c70513          	addi	a0,a4,-404
3000af58:	00b00713          	li	a4,11
3000af5c:	00e78623          	sb	a4,12(a5)
3000af60:	830f60ef          	jal	ra,30000f90 <_Z5toClsP15_tgfTextOverlay>
3000af64:	3000f7b7          	lui	a5,0x3000f
3000af68:	dc47ad83          	lw	s11,-572(a5) # 3000edc4 <__clzsi2+0xf0>
3000af6c:	3000f7b7          	lui	a5,0x3000f
3000af70:	dc87a783          	lw	a5,-568(a5) # 3000edc8 <__clzsi2+0xf4>
3000af74:	00000c93          	li	s9,0
3000af78:	01b12a23          	sw	s11,20(sp)
3000af7c:	04f12623          	sw	a5,76(sp)
3000af80:	3000f7b7          	lui	a5,0x3000f
3000af84:	dcc7a783          	lw	a5,-564(a5) # 3000edcc <__clzsi2+0xf8>
3000af88:	01912823          	sw	s9,16(sp)
3000af8c:	05912e23          	sw	s9,92(sp)
3000af90:	00f12c23          	sw	a5,24(sp)
3000af94:	3000f7b7          	lui	a5,0x3000f
3000af98:	dd07a783          	lw	a5,-560(a5) # 3000edd0 <__clzsi2+0xfc>
3000af9c:	05912c23          	sw	s9,88(sp)
3000afa0:	000d8d13          	mv	s10,s11
3000afa4:	00f12e23          	sw	a5,28(sp)
3000afa8:	3000f7b7          	lui	a5,0x3000f
3000afac:	dd47a783          	lw	a5,-556(a5) # 3000edd4 <__clzsi2+0x100>
3000afb0:	02f12423          	sw	a5,40(sp)
3000afb4:	3000f7b7          	lui	a5,0x3000f
3000afb8:	dd87a783          	lw	a5,-552(a5) # 3000edd8 <__clzsi2+0x104>
3000afbc:	02f12623          	sw	a5,44(sp)
3000afc0:	3000f7b7          	lui	a5,0x3000f
3000afc4:	ddc7a783          	lw	a5,-548(a5) # 3000eddc <__clzsi2+0x108>
3000afc8:	02f12823          	sw	a5,48(sp)
3000afcc:	3000f7b7          	lui	a5,0x3000f
3000afd0:	dec7a803          	lw	a6,-532(a5) # 3000edec <__clzsi2+0x118>
3000afd4:	de87a783          	lw	a5,-536(a5)
3000afd8:	03012223          	sw	a6,36(sp)
3000afdc:	02f12023          	sw	a5,32(sp)
3000afe0:	3000f7b7          	lui	a5,0x3000f
3000afe4:	df47a803          	lw	a6,-524(a5) # 3000edf4 <__clzsi2+0x120>
3000afe8:	df07a783          	lw	a5,-528(a5)
3000afec:	05012a23          	sw	a6,84(sp)
3000aff0:	04f12823          	sw	a5,80(sp)
3000aff4:	300117b7          	lui	a5,0x30011
3000aff8:	2ec78793          	addi	a5,a5,748 # 300112ec <z>
3000affc:	02f12a23          	sw	a5,52(sp)
3000b000:	300137b7          	lui	a5,0x30013
3000b004:	00000613          	li	a2,0
3000b008:	00000593          	li	a1,0
3000b00c:	e6c78513          	addi	a0,a5,-404 # 30012e6c <con>
3000b010:	f49f50ef          	jal	ra,30000f58 <_Z14toSetCursorPosP15_tgfTextOverlaytt>
3000b014:	300117b7          	lui	a5,0x30011
3000b018:	6e000613          	li	a2,1760
3000b01c:	02000593          	li	a1,32
3000b020:	c0c78513          	addi	a0,a5,-1012 # 30010c0c <b>
3000b024:	e09ff0ef          	jal	ra,3000ae2c <memset>
3000b028:	300117b7          	lui	a5,0x30011
3000b02c:	00002637          	lui	a2,0x2
3000b030:	2ec78513          	addi	a0,a5,748 # 300112ec <z>
3000b034:	b8060613          	addi	a2,a2,-1152 # 1b80 <stackPointer-0x51c0>
3000b038:	00000593          	li	a1,0
3000b03c:	df1ff0ef          	jal	ra,3000ae2c <memset>
3000b040:	01000793          	li	a5,16
3000b044:	04f12423          	sw	a5,72(sp)
3000b048:	3000f7b7          	lui	a5,0x3000f
3000b04c:	dc47a783          	lw	a5,-572(a5) # 3000edc4 <__clzsi2+0xf0>
3000b050:	00000413          	li	s0,0
3000b054:	04012023          	sw	zero,64(sp)
3000b058:	02f12c23          	sw	a5,56(sp)
3000b05c:	3000f7b7          	lui	a5,0x3000f
3000b060:	d6c78793          	addi	a5,a5,-660 # 3000ed6c <__clzsi2+0x98>
3000b064:	04012223          	sw	zero,68(sp)
3000b068:	02f12e23          	sw	a5,60(sp)
3000b06c:	01412503          	lw	a0,20(sp)
3000b070:	00040593          	mv	a1,s0
3000b074:	00000993          	li	s3,0
3000b078:	7d9020ef          	jal	ra,3000e050 <__mulsf3>
3000b07c:	00050d93          	mv	s11,a0
3000b080:	01012503          	lw	a0,16(sp)
3000b084:	00040593          	mv	a1,s0
3000b088:	02000413          	li	s0,32
3000b08c:	7c5020ef          	jal	ra,3000e050 <__mulsf3>
3000b090:	00050c13          	mv	s8,a0
3000b094:	04c12583          	lw	a1,76(sp)
3000b098:	03812503          	lw	a0,56(sp)
3000b09c:	594020ef          	jal	ra,3000d630 <__addsf3>
3000b0a0:	3000f7b7          	lui	a5,0x3000f
3000b0a4:	00050a93          	mv	s5,a0
3000b0a8:	dc47aa03          	lw	s4,-572(a5) # 3000edc4 <__clzsi2+0xf0>
3000b0ac:	00012023          	sw	zero,0(sp)
3000b0b0:	00012223          	sw	zero,4(sp)
3000b0b4:	01c0006f          	j	3000b0d0 <main+0x1c8>
3000b0b8:	00048513          	mv	a0,s1
3000b0bc:	5d8000ef          	jal	ra,3000b694 <sinf>
3000b0c0:	00050993          	mv	s3,a0
3000b0c4:	00048513          	mv	a0,s1
3000b0c8:	508000ef          	jal	ra,3000b5d0 <cosf>
3000b0cc:	00050a13          	mv	s4,a0
3000b0d0:	000a8593          	mv	a1,s5
3000b0d4:	00098513          	mv	a0,s3
3000b0d8:	779020ef          	jal	ra,3000e050 <__mulsf3>
3000b0dc:	01012583          	lw	a1,16(sp)
3000b0e0:	00050913          	mv	s2,a0
3000b0e4:	76d020ef          	jal	ra,3000e050 <__mulsf3>
3000b0e8:	000d8593          	mv	a1,s11
3000b0ec:	544020ef          	jal	ra,3000d630 <__addsf3>
3000b0f0:	01812583          	lw	a1,24(sp)
3000b0f4:	53c020ef          	jal	ra,3000d630 <__addsf3>
3000b0f8:	3000f7b7          	lui	a5,0x3000f
3000b0fc:	00050593          	mv	a1,a0
3000b100:	dc47a503          	lw	a0,-572(a5) # 3000edc4 <__clzsi2+0xf0>
3000b104:	191020ef          	jal	ra,3000da94 <__divsf3>
3000b108:	01412583          	lw	a1,20(sp)
3000b10c:	00050493          	mv	s1,a0
3000b110:	00090513          	mv	a0,s2
3000b114:	73d020ef          	jal	ra,3000e050 <__mulsf3>
3000b118:	000c0593          	mv	a1,s8
3000b11c:	2b8030ef          	jal	ra,3000e3d4 <__subsf3>
3000b120:	00050913          	mv	s2,a0
3000b124:	000a8593          	mv	a1,s5
3000b128:	000a0513          	mv	a0,s4
3000b12c:	725020ef          	jal	ra,3000e050 <__mulsf3>
3000b130:	000c8593          	mv	a1,s9
3000b134:	00050b13          	mv	s6,a0
3000b138:	719020ef          	jal	ra,3000e050 <__mulsf3>
3000b13c:	00050b93          	mv	s7,a0
3000b140:	000d0593          	mv	a1,s10
3000b144:	00090513          	mv	a0,s2
3000b148:	709020ef          	jal	ra,3000e050 <__mulsf3>
3000b14c:	00050593          	mv	a1,a0
3000b150:	000b8513          	mv	a0,s7
3000b154:	4dc020ef          	jal	ra,3000d630 <__addsf3>
3000b158:	01c12583          	lw	a1,28(sp)
3000b15c:	00050b93          	mv	s7,a0
3000b160:	00048513          	mv	a0,s1
3000b164:	6ed020ef          	jal	ra,3000e050 <__mulsf3>
3000b168:	00050593          	mv	a1,a0
3000b16c:	000b8513          	mv	a0,s7
3000b170:	6e1020ef          	jal	ra,3000e050 <__mulsf3>
3000b174:	02812583          	lw	a1,40(sp)
3000b178:	4b8020ef          	jal	ra,3000d630 <__addsf3>
3000b17c:	6dc030ef          	jal	ra,3000e858 <__fixsfsi>
3000b180:	fff50713          	addi	a4,a0,-1
3000b184:	00a12623          	sw	a0,12(sp)
3000b188:	01400793          	li	a5,20
3000b18c:	14e7e463          	bltu	a5,a4,3000b2d4 <main+0x3cc>
3000b190:	000d0593          	mv	a1,s10
3000b194:	000b0513          	mv	a0,s6
3000b198:	6b9020ef          	jal	ra,3000e050 <__mulsf3>
3000b19c:	00050b13          	mv	s6,a0
3000b1a0:	000c8593          	mv	a1,s9
3000b1a4:	00090513          	mv	a0,s2
3000b1a8:	6a9020ef          	jal	ra,3000e050 <__mulsf3>
3000b1ac:	00050593          	mv	a1,a0
3000b1b0:	000b0513          	mv	a0,s6
3000b1b4:	220030ef          	jal	ra,3000e3d4 <__subsf3>
3000b1b8:	02c12583          	lw	a1,44(sp)
3000b1bc:	00050913          	mv	s2,a0
3000b1c0:	00048513          	mv	a0,s1
3000b1c4:	68d020ef          	jal	ra,3000e050 <__mulsf3>
3000b1c8:	00050593          	mv	a1,a0
3000b1cc:	00090513          	mv	a0,s2
3000b1d0:	681020ef          	jal	ra,3000e050 <__mulsf3>
3000b1d4:	03012583          	lw	a1,48(sp)
3000b1d8:	458020ef          	jal	ra,3000d630 <__addsf3>
3000b1dc:	67c030ef          	jal	ra,3000e858 <__fixsfsi>
3000b1e0:	fff50713          	addi	a4,a0,-1
3000b1e4:	04e00793          	li	a5,78
3000b1e8:	0ee7e663          	bltu	a5,a4,3000b2d4 <main+0x3cc>
3000b1ec:	00c12783          	lw	a5,12(sp)
3000b1f0:	00048593          	mv	a1,s1
3000b1f4:	00279913          	slli	s2,a5,0x2
3000b1f8:	00f90933          	add	s2,s2,a5
3000b1fc:	00491913          	slli	s2,s2,0x4
3000b200:	00a90933          	add	s2,s2,a0
3000b204:	300117b7          	lui	a5,0x30011
3000b208:	00291b13          	slli	s6,s2,0x2
3000b20c:	2ec78793          	addi	a5,a5,748 # 300112ec <z>
3000b210:	01678b33          	add	s6,a5,s6
3000b214:	000b2503          	lw	a0,0(s6)
3000b218:	571020ef          	jal	ra,3000df88 <__lesf2>
3000b21c:	0a055c63          	bgez	a0,3000b2d4 <main+0x3cc>
3000b220:	03812b83          	lw	s7,56(sp)
3000b224:	00098593          	mv	a1,s3
3000b228:	000b8513          	mv	a0,s7
3000b22c:	625020ef          	jal	ra,3000e050 <__mulsf3>
3000b230:	01412583          	lw	a1,20(sp)
3000b234:	009b2023          	sw	s1,0(s6)
3000b238:	00050993          	mv	s3,a0
3000b23c:	615020ef          	jal	ra,3000e050 <__mulsf3>
3000b240:	00050593          	mv	a1,a0
3000b244:	000c0513          	mv	a0,s8
3000b248:	18c030ef          	jal	ra,3000e3d4 <__subsf3>
3000b24c:	000d0593          	mv	a1,s10
3000b250:	601020ef          	jal	ra,3000e050 <__mulsf3>
3000b254:	01012583          	lw	a1,16(sp)
3000b258:	00050493          	mv	s1,a0
3000b25c:	00098513          	mv	a0,s3
3000b260:	5f1020ef          	jal	ra,3000e050 <__mulsf3>
3000b264:	00050593          	mv	a1,a0
3000b268:	00048513          	mv	a0,s1
3000b26c:	168030ef          	jal	ra,3000e3d4 <__subsf3>
3000b270:	000d8593          	mv	a1,s11
3000b274:	160030ef          	jal	ra,3000e3d4 <__subsf3>
3000b278:	00050493          	mv	s1,a0
3000b27c:	000a0593          	mv	a1,s4
3000b280:	000b8513          	mv	a0,s7
3000b284:	5cd020ef          	jal	ra,3000e050 <__mulsf3>
3000b288:	000c8593          	mv	a1,s9
3000b28c:	5c5020ef          	jal	ra,3000e050 <__mulsf3>
3000b290:	00050593          	mv	a1,a0
3000b294:	00048513          	mv	a0,s1
3000b298:	13c030ef          	jal	ra,3000e3d4 <__subsf3>
3000b29c:	3000f7b7          	lui	a5,0x3000f
3000b2a0:	de07a583          	lw	a1,-544(a5) # 3000ede0 <__clzsi2+0x10c>
3000b2a4:	5ad020ef          	jal	ra,3000e050 <__mulsf3>
3000b2a8:	5b0030ef          	jal	ra,3000e858 <__fixsfsi>
3000b2ac:	fff54793          	not	a5,a0
3000b2b0:	41f7d793          	srai	a5,a5,0x1f
3000b2b4:	00f57533          	and	a0,a0,a5
3000b2b8:	03c12783          	lw	a5,60(sp)
3000b2bc:	30011737          	lui	a4,0x30011
3000b2c0:	c0c70713          	addi	a4,a4,-1012 # 30010c0c <b>
3000b2c4:	00f50533          	add	a0,a0,a5
3000b2c8:	00054783          	lbu	a5,0(a0)
3000b2cc:	01270933          	add	s2,a4,s2
3000b2d0:	00f90023          	sb	a5,0(s2)
3000b2d4:	02012603          	lw	a2,32(sp)
3000b2d8:	02412683          	lw	a3,36(sp)
3000b2dc:	00012503          	lw	a0,0(sp)
3000b2e0:	00412583          	lw	a1,4(sp)
3000b2e4:	fff40413          	addi	s0,s0,-1
3000b2e8:	2c5010ef          	jal	ra,3000cdac <__adddf3>
3000b2ec:	7f4030ef          	jal	ra,3000eae0 <__truncdfsf2>
3000b2f0:	00050493          	mv	s1,a0
3000b2f4:	6ec030ef          	jal	ra,3000e9e0 <__extendsfdf2>
3000b2f8:	00a12023          	sw	a0,0(sp)
3000b2fc:	00b12223          	sw	a1,4(sp)
3000b300:	da041ce3          	bnez	s0,3000b0b8 <main+0x1b0>
3000b304:	05012603          	lw	a2,80(sp)
3000b308:	05412683          	lw	a3,84(sp)
3000b30c:	04012503          	lw	a0,64(sp)
3000b310:	04412583          	lw	a1,68(sp)
3000b314:	299010ef          	jal	ra,3000cdac <__adddf3>
3000b318:	7c8030ef          	jal	ra,3000eae0 <__truncdfsf2>
3000b31c:	04812783          	lw	a5,72(sp)
3000b320:	00050413          	mv	s0,a0
3000b324:	fff78793          	addi	a5,a5,-1
3000b328:	00078493          	mv	s1,a5
3000b32c:	04f12423          	sw	a5,72(sp)
3000b330:	6b0030ef          	jal	ra,3000e9e0 <__extendsfdf2>
3000b334:	04a12023          	sw	a0,64(sp)
3000b338:	04b12223          	sw	a1,68(sp)
3000b33c:	02048063          	beqz	s1,3000b35c <main+0x454>
3000b340:	00040513          	mv	a0,s0
3000b344:	28c000ef          	jal	ra,3000b5d0 <cosf>
3000b348:	02a12c23          	sw	a0,56(sp)
3000b34c:	00040513          	mv	a0,s0
3000b350:	344000ef          	jal	ra,3000b694 <sinf>
3000b354:	00050413          	mv	s0,a0
3000b358:	d15ff06f          	j	3000b06c <main+0x164>
3000b35c:	300117b7          	lui	a5,0x30011
3000b360:	c0c78413          	addi	s0,a5,-1012 # 30010c0c <b>
3000b364:	00044603          	lbu	a2,0(s0)
3000b368:	3000f7b7          	lui	a5,0x3000f
3000b36c:	d6878593          	addi	a1,a5,-664 # 3000ed68 <__clzsi2+0x94>
3000b370:	300137b7          	lui	a5,0x30013
3000b374:	e6c78513          	addi	a0,a5,-404 # 30012e6c <con>
3000b378:	d79f50ef          	jal	ra,300010f0 <_Z8toPrintFP15_tgfTextOverlayPcz>
3000b37c:	03412783          	lw	a5,52(sp)
3000b380:	00140413          	addi	s0,s0,1
3000b384:	fe8790e3          	bne	a5,s0,3000b364 <main+0x45c>
3000b388:	05812503          	lw	a0,88(sp)
3000b38c:	654030ef          	jal	ra,3000e9e0 <__extendsfdf2>
3000b390:	3000f7b7          	lui	a5,0x3000f
3000b394:	df87a603          	lw	a2,-520(a5) # 3000edf8 <__clzsi2+0x124>
3000b398:	dfc7a683          	lw	a3,-516(a5)
3000b39c:	211010ef          	jal	ra,3000cdac <__adddf3>
3000b3a0:	740030ef          	jal	ra,3000eae0 <__truncdfsf2>
3000b3a4:	00050493          	mv	s1,a0
3000b3a8:	04a12c23          	sw	a0,88(sp)
3000b3ac:	05c12503          	lw	a0,92(sp)
3000b3b0:	630030ef          	jal	ra,3000e9e0 <__extendsfdf2>
3000b3b4:	3000f7b7          	lui	a5,0x3000f
3000b3b8:	e007a603          	lw	a2,-512(a5) # 3000ee00 <__clzsi2+0x12c>
3000b3bc:	e047a683          	lw	a3,-508(a5)
3000b3c0:	1ed010ef          	jal	ra,3000cdac <__adddf3>
3000b3c4:	71c030ef          	jal	ra,3000eae0 <__truncdfsf2>
3000b3c8:	00050413          	mv	s0,a0
3000b3cc:	04a12e23          	sw	a0,92(sp)
3000b3d0:	00048513          	mv	a0,s1
3000b3d4:	2c0000ef          	jal	ra,3000b694 <sinf>
3000b3d8:	00a12823          	sw	a0,16(sp)
3000b3dc:	00048513          	mv	a0,s1
3000b3e0:	1f0000ef          	jal	ra,3000b5d0 <cosf>
3000b3e4:	00a12a23          	sw	a0,20(sp)
3000b3e8:	00040513          	mv	a0,s0
3000b3ec:	1e4000ef          	jal	ra,3000b5d0 <cosf>
3000b3f0:	00050d13          	mv	s10,a0
3000b3f4:	00040513          	mv	a0,s0
3000b3f8:	29c000ef          	jal	ra,3000b694 <sinf>
3000b3fc:	00050c93          	mv	s9,a0
3000b400:	c01ff06f          	j	3000b000 <main+0xf8>

Disassembly of section .text.memcpy:

3000b404 <memcpy>:
3000b404:	00a5c7b3          	xor	a5,a1,a0
3000b408:	0037f793          	andi	a5,a5,3
3000b40c:	00c508b3          	add	a7,a0,a2
3000b410:	06079263          	bnez	a5,3000b474 <memcpy+0x70>
3000b414:	00300793          	li	a5,3
3000b418:	04c7fe63          	bgeu	a5,a2,3000b474 <memcpy+0x70>
3000b41c:	00357793          	andi	a5,a0,3
3000b420:	00050713          	mv	a4,a0
3000b424:	06079863          	bnez	a5,3000b494 <memcpy+0x90>
3000b428:	ffc8f613          	andi	a2,a7,-4
3000b42c:	fe060793          	addi	a5,a2,-32
3000b430:	08f76c63          	bltu	a4,a5,3000b4c8 <memcpy+0xc4>
3000b434:	02c77c63          	bgeu	a4,a2,3000b46c <memcpy+0x68>
3000b438:	00058693          	mv	a3,a1
3000b43c:	00070793          	mv	a5,a4
3000b440:	0006a803          	lw	a6,0(a3)
3000b444:	00478793          	addi	a5,a5,4
3000b448:	00468693          	addi	a3,a3,4
3000b44c:	ff07ae23          	sw	a6,-4(a5)
3000b450:	fec7e8e3          	bltu	a5,a2,3000b440 <memcpy+0x3c>
3000b454:	fff60793          	addi	a5,a2,-1
3000b458:	40e787b3          	sub	a5,a5,a4
3000b45c:	ffc7f793          	andi	a5,a5,-4
3000b460:	00478793          	addi	a5,a5,4
3000b464:	00f70733          	add	a4,a4,a5
3000b468:	00f585b3          	add	a1,a1,a5
3000b46c:	01176863          	bltu	a4,a7,3000b47c <memcpy+0x78>
3000b470:	00008067          	ret
3000b474:	00050713          	mv	a4,a0
3000b478:	ff157ce3          	bgeu	a0,a7,3000b470 <memcpy+0x6c>
3000b47c:	0005c783          	lbu	a5,0(a1)
3000b480:	00170713          	addi	a4,a4,1
3000b484:	00158593          	addi	a1,a1,1
3000b488:	fef70fa3          	sb	a5,-1(a4)
3000b48c:	ff1768e3          	bltu	a4,a7,3000b47c <memcpy+0x78>
3000b490:	00008067          	ret
3000b494:	0005c683          	lbu	a3,0(a1)
3000b498:	00170713          	addi	a4,a4,1
3000b49c:	00377793          	andi	a5,a4,3
3000b4a0:	fed70fa3          	sb	a3,-1(a4)
3000b4a4:	00158593          	addi	a1,a1,1
3000b4a8:	f80780e3          	beqz	a5,3000b428 <memcpy+0x24>
3000b4ac:	0005c683          	lbu	a3,0(a1)
3000b4b0:	00170713          	addi	a4,a4,1
3000b4b4:	00377793          	andi	a5,a4,3
3000b4b8:	fed70fa3          	sb	a3,-1(a4)
3000b4bc:	00158593          	addi	a1,a1,1
3000b4c0:	fc079ae3          	bnez	a5,3000b494 <memcpy+0x90>
3000b4c4:	f65ff06f          	j	3000b428 <memcpy+0x24>
3000b4c8:	0005a683          	lw	a3,0(a1)
3000b4cc:	0045a283          	lw	t0,4(a1)
3000b4d0:	0085af83          	lw	t6,8(a1)
3000b4d4:	00c5af03          	lw	t5,12(a1)
3000b4d8:	0105ae83          	lw	t4,16(a1)
3000b4dc:	0145ae03          	lw	t3,20(a1)
3000b4e0:	0185a303          	lw	t1,24(a1)
3000b4e4:	01c5a803          	lw	a6,28(a1)
3000b4e8:	02458593          	addi	a1,a1,36
3000b4ec:	00d72023          	sw	a3,0(a4)
3000b4f0:	ffc5a683          	lw	a3,-4(a1)
3000b4f4:	00572223          	sw	t0,4(a4)
3000b4f8:	01f72423          	sw	t6,8(a4)
3000b4fc:	01e72623          	sw	t5,12(a4)
3000b500:	01d72823          	sw	t4,16(a4)
3000b504:	01c72a23          	sw	t3,20(a4)
3000b508:	00672c23          	sw	t1,24(a4)
3000b50c:	01072e23          	sw	a6,28(a4)
3000b510:	02470713          	addi	a4,a4,36
3000b514:	fed72e23          	sw	a3,-4(a4)
3000b518:	faf768e3          	bltu	a4,a5,3000b4c8 <memcpy+0xc4>
3000b51c:	f19ff06f          	j	3000b434 <memcpy+0x30>

Disassembly of section .text.strcpy:

3000b520 <strcpy>:
3000b520:	00b567b3          	or	a5,a0,a1
3000b524:	0037f793          	andi	a5,a5,3
3000b528:	08079263          	bnez	a5,3000b5ac <strcpy+0x8c>
3000b52c:	0005a703          	lw	a4,0(a1)
3000b530:	7f7f86b7          	lui	a3,0x7f7f8
3000b534:	f7f68693          	addi	a3,a3,-129 # 7f7f7f7f <__bss_end__+0x4f6f7f7f>
3000b538:	00d777b3          	and	a5,a4,a3
3000b53c:	00d787b3          	add	a5,a5,a3
3000b540:	00e7e7b3          	or	a5,a5,a4
3000b544:	00d7e7b3          	or	a5,a5,a3
3000b548:	fff00613          	li	a2,-1
3000b54c:	06c79e63          	bne	a5,a2,3000b5c8 <strcpy+0xa8>
3000b550:	00050613          	mv	a2,a0
3000b554:	fff00813          	li	a6,-1
3000b558:	00460613          	addi	a2,a2,4
3000b55c:	00458593          	addi	a1,a1,4
3000b560:	fee62e23          	sw	a4,-4(a2)
3000b564:	0005a703          	lw	a4,0(a1)
3000b568:	00d777b3          	and	a5,a4,a3
3000b56c:	00d787b3          	add	a5,a5,a3
3000b570:	00e7e7b3          	or	a5,a5,a4
3000b574:	00d7e7b3          	or	a5,a5,a3
3000b578:	ff0780e3          	beq	a5,a6,3000b558 <strcpy+0x38>
3000b57c:	0005c783          	lbu	a5,0(a1)
3000b580:	0015c703          	lbu	a4,1(a1)
3000b584:	0025c683          	lbu	a3,2(a1)
3000b588:	00f60023          	sb	a5,0(a2)
3000b58c:	00078a63          	beqz	a5,3000b5a0 <strcpy+0x80>
3000b590:	00e600a3          	sb	a4,1(a2)
3000b594:	00070663          	beqz	a4,3000b5a0 <strcpy+0x80>
3000b598:	00d60123          	sb	a3,2(a2)
3000b59c:	00069463          	bnez	a3,3000b5a4 <strcpy+0x84>
3000b5a0:	00008067          	ret
3000b5a4:	000601a3          	sb	zero,3(a2)
3000b5a8:	00008067          	ret
3000b5ac:	00050793          	mv	a5,a0
3000b5b0:	0005c703          	lbu	a4,0(a1)
3000b5b4:	00178793          	addi	a5,a5,1
3000b5b8:	00158593          	addi	a1,a1,1
3000b5bc:	fee78fa3          	sb	a4,-1(a5)
3000b5c0:	fe0718e3          	bnez	a4,3000b5b0 <strcpy+0x90>
3000b5c4:	00008067          	ret
3000b5c8:	00050613          	mv	a2,a0
3000b5cc:	fb1ff06f          	j	3000b57c <strcpy+0x5c>

Disassembly of section .text.cosf:

3000b5d0 <cosf>:
3000b5d0:	fe010113          	addi	sp,sp,-32
3000b5d4:	00812c23          	sw	s0,24(sp)
3000b5d8:	80000437          	lui	s0,0x80000
3000b5dc:	fff44793          	not	a5,s0
3000b5e0:	3f491737          	lui	a4,0x3f491
3000b5e4:	00112e23          	sw	ra,28(sp)
3000b5e8:	00a7f7b3          	and	a5,a5,a0
3000b5ec:	fd870713          	addi	a4,a4,-40 # 3f490fd8 <__bss_end__+0xf390fd8>
3000b5f0:	04f75c63          	bge	a4,a5,3000b648 <cosf+0x78>
3000b5f4:	7f800737          	lui	a4,0x7f800
3000b5f8:	00e7ce63          	blt	a5,a4,3000b614 <cosf+0x44>
3000b5fc:	00050593          	mv	a1,a0
3000b600:	5d5020ef          	jal	ra,3000e3d4 <__subsf3>
3000b604:	01c12083          	lw	ra,28(sp)
3000b608:	01812403          	lw	s0,24(sp)
3000b60c:	02010113          	addi	sp,sp,32
3000b610:	00008067          	ret
3000b614:	00810593          	addi	a1,sp,8
3000b618:	144000ef          	jal	ra,3000b75c <__ieee754_rem_pio2f>
3000b61c:	00357513          	andi	a0,a0,3
3000b620:	00100793          	li	a5,1
3000b624:	02f50e63          	beq	a0,a5,3000b660 <cosf+0x90>
3000b628:	00200793          	li	a5,2
3000b62c:	00c12583          	lw	a1,12(sp)
3000b630:	04f50a63          	beq	a0,a5,3000b684 <cosf+0xb4>
3000b634:	04050263          	beqz	a0,3000b678 <cosf+0xa8>
3000b638:	00812503          	lw	a0,8(sp)
3000b63c:	00100613          	li	a2,1
3000b640:	348010ef          	jal	ra,3000c988 <__kernel_sinf>
3000b644:	fc1ff06f          	j	3000b604 <cosf+0x34>
3000b648:	00000593          	li	a1,0
3000b64c:	5a8000ef          	jal	ra,3000bbf4 <__kernel_cosf>
3000b650:	01c12083          	lw	ra,28(sp)
3000b654:	01812403          	lw	s0,24(sp)
3000b658:	02010113          	addi	sp,sp,32
3000b65c:	00008067          	ret
3000b660:	00c12583          	lw	a1,12(sp)
3000b664:	00812503          	lw	a0,8(sp)
3000b668:	00100613          	li	a2,1
3000b66c:	31c010ef          	jal	ra,3000c988 <__kernel_sinf>
3000b670:	00a44533          	xor	a0,s0,a0
3000b674:	f91ff06f          	j	3000b604 <cosf+0x34>
3000b678:	00812503          	lw	a0,8(sp)
3000b67c:	578000ef          	jal	ra,3000bbf4 <__kernel_cosf>
3000b680:	f85ff06f          	j	3000b604 <cosf+0x34>
3000b684:	00812503          	lw	a0,8(sp)
3000b688:	56c000ef          	jal	ra,3000bbf4 <__kernel_cosf>
3000b68c:	00a44533          	xor	a0,s0,a0
3000b690:	f75ff06f          	j	3000b604 <cosf+0x34>

Disassembly of section .text.sinf:

3000b694 <sinf>:
3000b694:	fe010113          	addi	sp,sp,-32
3000b698:	00812c23          	sw	s0,24(sp)
3000b69c:	80000437          	lui	s0,0x80000
3000b6a0:	fff44793          	not	a5,s0
3000b6a4:	3f491737          	lui	a4,0x3f491
3000b6a8:	00112e23          	sw	ra,28(sp)
3000b6ac:	00a7f7b3          	and	a5,a5,a0
3000b6b0:	fd870713          	addi	a4,a4,-40 # 3f490fd8 <__bss_end__+0xf390fd8>
3000b6b4:	04f75c63          	bge	a4,a5,3000b70c <sinf+0x78>
3000b6b8:	7f800737          	lui	a4,0x7f800
3000b6bc:	00e7ce63          	blt	a5,a4,3000b6d8 <sinf+0x44>
3000b6c0:	00050593          	mv	a1,a0
3000b6c4:	511020ef          	jal	ra,3000e3d4 <__subsf3>
3000b6c8:	01c12083          	lw	ra,28(sp)
3000b6cc:	01812403          	lw	s0,24(sp)
3000b6d0:	02010113          	addi	sp,sp,32
3000b6d4:	00008067          	ret
3000b6d8:	00810593          	addi	a1,sp,8
3000b6dc:	080000ef          	jal	ra,3000b75c <__ieee754_rem_pio2f>
3000b6e0:	00357513          	andi	a0,a0,3
3000b6e4:	00100793          	li	a5,1
3000b6e8:	04f50063          	beq	a0,a5,3000b728 <sinf+0x94>
3000b6ec:	00200793          	li	a5,2
3000b6f0:	00c12583          	lw	a1,12(sp)
3000b6f4:	04f50a63          	beq	a0,a5,3000b748 <sinf+0xb4>
3000b6f8:	04050063          	beqz	a0,3000b738 <sinf+0xa4>
3000b6fc:	00812503          	lw	a0,8(sp)
3000b700:	4f4000ef          	jal	ra,3000bbf4 <__kernel_cosf>
3000b704:	00a44533          	xor	a0,s0,a0
3000b708:	fc1ff06f          	j	3000b6c8 <sinf+0x34>
3000b70c:	00000613          	li	a2,0
3000b710:	00000593          	li	a1,0
3000b714:	274010ef          	jal	ra,3000c988 <__kernel_sinf>
3000b718:	01c12083          	lw	ra,28(sp)
3000b71c:	01812403          	lw	s0,24(sp)
3000b720:	02010113          	addi	sp,sp,32
3000b724:	00008067          	ret
3000b728:	00c12583          	lw	a1,12(sp)
3000b72c:	00812503          	lw	a0,8(sp)
3000b730:	4c4000ef          	jal	ra,3000bbf4 <__kernel_cosf>
3000b734:	f95ff06f          	j	3000b6c8 <sinf+0x34>
3000b738:	00812503          	lw	a0,8(sp)
3000b73c:	00100613          	li	a2,1
3000b740:	248010ef          	jal	ra,3000c988 <__kernel_sinf>
3000b744:	f85ff06f          	j	3000b6c8 <sinf+0x34>
3000b748:	00812503          	lw	a0,8(sp)
3000b74c:	00100613          	li	a2,1
3000b750:	238010ef          	jal	ra,3000c988 <__kernel_sinf>
3000b754:	00a44533          	xor	a0,s0,a0
3000b758:	f71ff06f          	j	3000b6c8 <sinf+0x34>

Disassembly of section .text.__ieee754_rem_pio2f:

3000b75c <__ieee754_rem_pio2f>:
3000b75c:	fc010113          	addi	sp,sp,-64
3000b760:	02812c23          	sw	s0,56(sp)
3000b764:	3f491737          	lui	a4,0x3f491
3000b768:	00151413          	slli	s0,a0,0x1
3000b76c:	02112e23          	sw	ra,60(sp)
3000b770:	02912a23          	sw	s1,52(sp)
3000b774:	03212823          	sw	s2,48(sp)
3000b778:	03312623          	sw	s3,44(sp)
3000b77c:	03412423          	sw	s4,40(sp)
3000b780:	03512223          	sw	s5,36(sp)
3000b784:	03612023          	sw	s6,32(sp)
3000b788:	01712e23          	sw	s7,28(sp)
3000b78c:	01812c23          	sw	s8,24(sp)
3000b790:	00145413          	srli	s0,s0,0x1
3000b794:	fd870713          	addi	a4,a4,-40 # 3f490fd8 <__bss_end__+0xf390fd8>
3000b798:	18875863          	bge	a4,s0,3000b928 <__ieee754_rem_pio2f+0x1cc>
3000b79c:	4016d737          	lui	a4,0x4016d
3000b7a0:	be370713          	addi	a4,a4,-1053 # 4016cbe3 <__bss_end__+0x1006cbe3>
3000b7a4:	00050993          	mv	s3,a0
3000b7a8:	00058493          	mv	s1,a1
3000b7ac:	08874863          	blt	a4,s0,3000b83c <__ieee754_rem_pio2f+0xe0>
3000b7b0:	00005797          	auipc	a5,0x5
3000b7b4:	e0478793          	addi	a5,a5,-508 # 300105b4 <_ZZ6f_mkfsE3cst+0x18>
3000b7b8:	ff047413          	andi	s0,s0,-16
3000b7bc:	0007a583          	lw	a1,0(a5)
3000b7c0:	3ca05263          	blez	a0,3000bb84 <__ieee754_rem_pio2f+0x428>
3000b7c4:	411020ef          	jal	ra,3000e3d4 <__subsf3>
3000b7c8:	3fc917b7          	lui	a5,0x3fc91
3000b7cc:	fd078793          	addi	a5,a5,-48 # 3fc90fd0 <__bss_end__+0xfb90fd0>
3000b7d0:	00050913          	mv	s2,a0
3000b7d4:	18f40063          	beq	s0,a5,3000b954 <__ieee754_rem_pio2f+0x1f8>
3000b7d8:	00005417          	auipc	s0,0x5
3000b7dc:	de040413          	addi	s0,s0,-544 # 300105b8 <_ZZ6f_mkfsE3cst+0x1c>
3000b7e0:	00042583          	lw	a1,0(s0)
3000b7e4:	00100b93          	li	s7,1
3000b7e8:	3ed020ef          	jal	ra,3000e3d4 <__subsf3>
3000b7ec:	00050593          	mv	a1,a0
3000b7f0:	00a4a023          	sw	a0,0(s1)
3000b7f4:	00090513          	mv	a0,s2
3000b7f8:	3dd020ef          	jal	ra,3000e3d4 <__subsf3>
3000b7fc:	00042583          	lw	a1,0(s0)
3000b800:	3d5020ef          	jal	ra,3000e3d4 <__subsf3>
3000b804:	00a4a223          	sw	a0,4(s1)
3000b808:	03c12083          	lw	ra,60(sp)
3000b80c:	03812403          	lw	s0,56(sp)
3000b810:	000b8513          	mv	a0,s7
3000b814:	03412483          	lw	s1,52(sp)
3000b818:	03012903          	lw	s2,48(sp)
3000b81c:	02c12983          	lw	s3,44(sp)
3000b820:	02812a03          	lw	s4,40(sp)
3000b824:	02412a83          	lw	s5,36(sp)
3000b828:	02012b03          	lw	s6,32(sp)
3000b82c:	01c12b83          	lw	s7,28(sp)
3000b830:	01812c03          	lw	s8,24(sp)
3000b834:	04010113          	addi	sp,sp,64
3000b838:	00008067          	ret
3000b83c:	43491737          	lui	a4,0x43491
3000b840:	f8070713          	addi	a4,a4,-128 # 43490f80 <__bss_end__+0x13390f80>
3000b844:	12875c63          	bge	a4,s0,3000b97c <__ieee754_rem_pio2f+0x220>
3000b848:	7f800737          	lui	a4,0x7f800
3000b84c:	0ee45863          	bge	s0,a4,3000b93c <__ieee754_rem_pio2f+0x1e0>
3000b850:	41745913          	srai	s2,s0,0x17
3000b854:	f7a90913          	addi	s2,s2,-134
3000b858:	01791793          	slli	a5,s2,0x17
3000b85c:	40f40433          	sub	s0,s0,a5
3000b860:	00040513          	mv	a0,s0
3000b864:	7f5020ef          	jal	ra,3000e858 <__fixsfsi>
3000b868:	064030ef          	jal	ra,3000e8cc <__floatsisf>
3000b86c:	00050793          	mv	a5,a0
3000b870:	00050593          	mv	a1,a0
3000b874:	00040513          	mv	a0,s0
3000b878:	00f12223          	sw	a5,4(sp)
3000b87c:	00005a17          	auipc	s4,0x5
3000b880:	d58a0a13          	addi	s4,s4,-680 # 300105d4 <_ZZ6f_mkfsE3cst+0x38>
3000b884:	351020ef          	jal	ra,3000e3d4 <__subsf3>
3000b888:	000a2583          	lw	a1,0(s4)
3000b88c:	7c4020ef          	jal	ra,3000e050 <__mulsf3>
3000b890:	00050a93          	mv	s5,a0
3000b894:	7c5020ef          	jal	ra,3000e858 <__fixsfsi>
3000b898:	034030ef          	jal	ra,3000e8cc <__floatsisf>
3000b89c:	00050593          	mv	a1,a0
3000b8a0:	00050413          	mv	s0,a0
3000b8a4:	000a8513          	mv	a0,s5
3000b8a8:	00812423          	sw	s0,8(sp)
3000b8ac:	329020ef          	jal	ra,3000e3d4 <__subsf3>
3000b8b0:	000a2583          	lw	a1,0(s4)
3000b8b4:	79c020ef          	jal	ra,3000e050 <__mulsf3>
3000b8b8:	00000593          	li	a1,0
3000b8bc:	00a12623          	sw	a0,12(sp)
3000b8c0:	594020ef          	jal	ra,3000de54 <__eqsf2>
3000b8c4:	00300693          	li	a3,3
3000b8c8:	00051c63          	bnez	a0,3000b8e0 <__ieee754_rem_pio2f+0x184>
3000b8cc:	00000593          	li	a1,0
3000b8d0:	00040513          	mv	a0,s0
3000b8d4:	580020ef          	jal	ra,3000de54 <__eqsf2>
3000b8d8:	00a036b3          	snez	a3,a0
3000b8dc:	00168693          	addi	a3,a3,1
3000b8e0:	00005797          	auipc	a5,0x5
3000b8e4:	d7878793          	addi	a5,a5,-648 # 30010658 <two_over_pi>
3000b8e8:	00200713          	li	a4,2
3000b8ec:	00090613          	mv	a2,s2
3000b8f0:	00048593          	mv	a1,s1
3000b8f4:	00410513          	addi	a0,sp,4
3000b8f8:	5b8000ef          	jal	ra,3000beb0 <__kernel_rem_pio2f>
3000b8fc:	00050b93          	mv	s7,a0
3000b900:	f009d4e3          	bgez	s3,3000b808 <__ieee754_rem_pio2f+0xac>
3000b904:	0004a703          	lw	a4,0(s1)
3000b908:	0044a783          	lw	a5,4(s1)
3000b90c:	800006b7          	lui	a3,0x80000
3000b910:	00d74733          	xor	a4,a4,a3
3000b914:	00d7c7b3          	xor	a5,a5,a3
3000b918:	00e4a023          	sw	a4,0(s1)
3000b91c:	00f4a223          	sw	a5,4(s1)
3000b920:	40a00bb3          	neg	s7,a0
3000b924:	ee5ff06f          	j	3000b808 <__ieee754_rem_pio2f+0xac>
3000b928:	00000793          	li	a5,0
3000b92c:	00a5a023          	sw	a0,0(a1)
3000b930:	00f5a223          	sw	a5,4(a1)
3000b934:	00000b93          	li	s7,0
3000b938:	ed1ff06f          	j	3000b808 <__ieee754_rem_pio2f+0xac>
3000b93c:	00050593          	mv	a1,a0
3000b940:	295020ef          	jal	ra,3000e3d4 <__subsf3>
3000b944:	00a4a223          	sw	a0,4(s1)
3000b948:	00a4a023          	sw	a0,0(s1)
3000b94c:	00000b93          	li	s7,0
3000b950:	eb9ff06f          	j	3000b808 <__ieee754_rem_pio2f+0xac>
3000b954:	00005797          	auipc	a5,0x5
3000b958:	c6878793          	addi	a5,a5,-920 # 300105bc <_ZZ6f_mkfsE3cst+0x20>
3000b95c:	0007a583          	lw	a1,0(a5)
3000b960:	00005417          	auipc	s0,0x5
3000b964:	c6040413          	addi	s0,s0,-928 # 300105c0 <_ZZ6f_mkfsE3cst+0x24>
3000b968:	00100b93          	li	s7,1
3000b96c:	269020ef          	jal	ra,3000e3d4 <__subsf3>
3000b970:	00050913          	mv	s2,a0
3000b974:	00042583          	lw	a1,0(s0)
3000b978:	e71ff06f          	j	3000b7e8 <__ieee754_rem_pio2f+0x8c>
3000b97c:	1b8010ef          	jal	ra,3000cb34 <fabsf>
3000b980:	00005797          	auipc	a5,0x5
3000b984:	c4478793          	addi	a5,a5,-956 # 300105c4 <_ZZ6f_mkfsE3cst+0x28>
3000b988:	0007a583          	lw	a1,0(a5)
3000b98c:	00050913          	mv	s2,a0
3000b990:	6c0020ef          	jal	ra,3000e050 <__mulsf3>
3000b994:	00005797          	auipc	a5,0x5
3000b998:	c3478793          	addi	a5,a5,-972 # 300105c8 <_ZZ6f_mkfsE3cst+0x2c>
3000b99c:	0007a583          	lw	a1,0(a5)
3000b9a0:	491010ef          	jal	ra,3000d630 <__addsf3>
3000b9a4:	6b5020ef          	jal	ra,3000e858 <__fixsfsi>
3000b9a8:	00050b93          	mv	s7,a0
3000b9ac:	721020ef          	jal	ra,3000e8cc <__floatsisf>
3000b9b0:	00005797          	auipc	a5,0x5
3000b9b4:	c0478793          	addi	a5,a5,-1020 # 300105b4 <_ZZ6f_mkfsE3cst+0x18>
3000b9b8:	0007a583          	lw	a1,0(a5)
3000b9bc:	00050a93          	mv	s5,a0
3000b9c0:	690020ef          	jal	ra,3000e050 <__mulsf3>
3000b9c4:	00050593          	mv	a1,a0
3000b9c8:	00090513          	mv	a0,s2
3000b9cc:	209020ef          	jal	ra,3000e3d4 <__subsf3>
3000b9d0:	00005797          	auipc	a5,0x5
3000b9d4:	be878793          	addi	a5,a5,-1048 # 300105b8 <_ZZ6f_mkfsE3cst+0x1c>
3000b9d8:	0007a583          	lw	a1,0(a5)
3000b9dc:	00050b13          	mv	s6,a0
3000b9e0:	000a8513          	mv	a0,s5
3000b9e4:	66c020ef          	jal	ra,3000e050 <__mulsf3>
3000b9e8:	01f00793          	li	a5,31
3000b9ec:	00050a13          	mv	s4,a0
3000b9f0:	00050593          	mv	a1,a0
3000b9f4:	000b0513          	mv	a0,s6
3000b9f8:	0777c463          	blt	a5,s7,3000ba60 <__ieee754_rem_pio2f+0x304>
3000b9fc:	1d9020ef          	jal	ra,3000e3d4 <__subsf3>
3000ba00:	fffb8793          	addi	a5,s7,-1
3000ba04:	00279713          	slli	a4,a5,0x2
3000ba08:	00005797          	auipc	a5,0x5
3000ba0c:	bd078793          	addi	a5,a5,-1072 # 300105d8 <npio2_hw>
3000ba10:	00e787b3          	add	a5,a5,a4
3000ba14:	0007a783          	lw	a5,0(a5)
3000ba18:	f0047713          	andi	a4,s0,-256
3000ba1c:	00050913          	mv	s2,a0
3000ba20:	04f70463          	beq	a4,a5,3000ba68 <__ieee754_rem_pio2f+0x30c>
3000ba24:	0124a023          	sw	s2,0(s1)
3000ba28:	00090593          	mv	a1,s2
3000ba2c:	000b0513          	mv	a0,s6
3000ba30:	1a5020ef          	jal	ra,3000e3d4 <__subsf3>
3000ba34:	000a0593          	mv	a1,s4
3000ba38:	19d020ef          	jal	ra,3000e3d4 <__subsf3>
3000ba3c:	00a4a223          	sw	a0,4(s1)
3000ba40:	dc09d4e3          	bgez	s3,3000b808 <__ieee754_rem_pio2f+0xac>
3000ba44:	800007b7          	lui	a5,0x80000
3000ba48:	0127c933          	xor	s2,a5,s2
3000ba4c:	00a7c533          	xor	a0,a5,a0
3000ba50:	0124a023          	sw	s2,0(s1)
3000ba54:	00a4a223          	sw	a0,4(s1)
3000ba58:	41700bb3          	neg	s7,s7
3000ba5c:	dadff06f          	j	3000b808 <__ieee754_rem_pio2f+0xac>
3000ba60:	175020ef          	jal	ra,3000e3d4 <__subsf3>
3000ba64:	00050913          	mv	s2,a0
3000ba68:	01795793          	srli	a5,s2,0x17
3000ba6c:	41745413          	srai	s0,s0,0x17
3000ba70:	0ff7f793          	andi	a5,a5,255
3000ba74:	40f407b3          	sub	a5,s0,a5
3000ba78:	00800713          	li	a4,8
3000ba7c:	faf754e3          	bge	a4,a5,3000ba24 <__ieee754_rem_pio2f+0x2c8>
3000ba80:	00005797          	auipc	a5,0x5
3000ba84:	b3c78793          	addi	a5,a5,-1220 # 300105bc <_ZZ6f_mkfsE3cst+0x20>
3000ba88:	0007a583          	lw	a1,0(a5)
3000ba8c:	000a8513          	mv	a0,s5
3000ba90:	5c0020ef          	jal	ra,3000e050 <__mulsf3>
3000ba94:	00050913          	mv	s2,a0
3000ba98:	00050593          	mv	a1,a0
3000ba9c:	000b0513          	mv	a0,s6
3000baa0:	135020ef          	jal	ra,3000e3d4 <__subsf3>
3000baa4:	00050593          	mv	a1,a0
3000baa8:	00050c13          	mv	s8,a0
3000baac:	000b0513          	mv	a0,s6
3000bab0:	125020ef          	jal	ra,3000e3d4 <__subsf3>
3000bab4:	00090593          	mv	a1,s2
3000bab8:	11d020ef          	jal	ra,3000e3d4 <__subsf3>
3000babc:	00005797          	auipc	a5,0x5
3000bac0:	b0478793          	addi	a5,a5,-1276 # 300105c0 <_ZZ6f_mkfsE3cst+0x24>
3000bac4:	0007a583          	lw	a1,0(a5)
3000bac8:	00050913          	mv	s2,a0
3000bacc:	000a8513          	mv	a0,s5
3000bad0:	580020ef          	jal	ra,3000e050 <__mulsf3>
3000bad4:	00090593          	mv	a1,s2
3000bad8:	0fd020ef          	jal	ra,3000e3d4 <__subsf3>
3000badc:	00050593          	mv	a1,a0
3000bae0:	00050a13          	mv	s4,a0
3000bae4:	000c0513          	mv	a0,s8
3000bae8:	0ed020ef          	jal	ra,3000e3d4 <__subsf3>
3000baec:	01755793          	srli	a5,a0,0x17
3000baf0:	0ff7f793          	andi	a5,a5,255
3000baf4:	40f40433          	sub	s0,s0,a5
3000baf8:	01900793          	li	a5,25
3000bafc:	00050913          	mv	s2,a0
3000bb00:	0087c863          	blt	a5,s0,3000bb10 <__ieee754_rem_pio2f+0x3b4>
3000bb04:	00a4a023          	sw	a0,0(s1)
3000bb08:	000c0b13          	mv	s6,s8
3000bb0c:	f1dff06f          	j	3000ba28 <__ieee754_rem_pio2f+0x2cc>
3000bb10:	00005797          	auipc	a5,0x5
3000bb14:	abc78793          	addi	a5,a5,-1348 # 300105cc <_ZZ6f_mkfsE3cst+0x30>
3000bb18:	0007a583          	lw	a1,0(a5)
3000bb1c:	000a8513          	mv	a0,s5
3000bb20:	530020ef          	jal	ra,3000e050 <__mulsf3>
3000bb24:	00050413          	mv	s0,a0
3000bb28:	00050593          	mv	a1,a0
3000bb2c:	000c0513          	mv	a0,s8
3000bb30:	0a5020ef          	jal	ra,3000e3d4 <__subsf3>
3000bb34:	00050593          	mv	a1,a0
3000bb38:	00050b13          	mv	s6,a0
3000bb3c:	000c0513          	mv	a0,s8
3000bb40:	095020ef          	jal	ra,3000e3d4 <__subsf3>
3000bb44:	00040593          	mv	a1,s0
3000bb48:	08d020ef          	jal	ra,3000e3d4 <__subsf3>
3000bb4c:	00005797          	auipc	a5,0x5
3000bb50:	a8478793          	addi	a5,a5,-1404 # 300105d0 <_ZZ6f_mkfsE3cst+0x34>
3000bb54:	0007a583          	lw	a1,0(a5)
3000bb58:	00050413          	mv	s0,a0
3000bb5c:	000a8513          	mv	a0,s5
3000bb60:	4f0020ef          	jal	ra,3000e050 <__mulsf3>
3000bb64:	00040593          	mv	a1,s0
3000bb68:	06d020ef          	jal	ra,3000e3d4 <__subsf3>
3000bb6c:	00050593          	mv	a1,a0
3000bb70:	00050a13          	mv	s4,a0
3000bb74:	000b0513          	mv	a0,s6
3000bb78:	05d020ef          	jal	ra,3000e3d4 <__subsf3>
3000bb7c:	00050913          	mv	s2,a0
3000bb80:	ea5ff06f          	j	3000ba24 <__ieee754_rem_pio2f+0x2c8>
3000bb84:	2ad010ef          	jal	ra,3000d630 <__addsf3>
3000bb88:	3fc917b7          	lui	a5,0x3fc91
3000bb8c:	fd078793          	addi	a5,a5,-48 # 3fc90fd0 <__bss_end__+0xfb90fd0>
3000bb90:	00050913          	mv	s2,a0
3000bb94:	02f40c63          	beq	s0,a5,3000bbcc <__ieee754_rem_pio2f+0x470>
3000bb98:	00005417          	auipc	s0,0x5
3000bb9c:	a2040413          	addi	s0,s0,-1504 # 300105b8 <_ZZ6f_mkfsE3cst+0x1c>
3000bba0:	00042583          	lw	a1,0(s0)
3000bba4:	fff00b93          	li	s7,-1
3000bba8:	289010ef          	jal	ra,3000d630 <__addsf3>
3000bbac:	00050593          	mv	a1,a0
3000bbb0:	00a4a023          	sw	a0,0(s1)
3000bbb4:	00090513          	mv	a0,s2
3000bbb8:	01d020ef          	jal	ra,3000e3d4 <__subsf3>
3000bbbc:	00042583          	lw	a1,0(s0)
3000bbc0:	271010ef          	jal	ra,3000d630 <__addsf3>
3000bbc4:	00a4a223          	sw	a0,4(s1)
3000bbc8:	c41ff06f          	j	3000b808 <__ieee754_rem_pio2f+0xac>
3000bbcc:	00005797          	auipc	a5,0x5
3000bbd0:	9f078793          	addi	a5,a5,-1552 # 300105bc <_ZZ6f_mkfsE3cst+0x20>
3000bbd4:	0007a583          	lw	a1,0(a5)
3000bbd8:	00005417          	auipc	s0,0x5
3000bbdc:	9e840413          	addi	s0,s0,-1560 # 300105c0 <_ZZ6f_mkfsE3cst+0x24>
3000bbe0:	fff00b93          	li	s7,-1
3000bbe4:	24d010ef          	jal	ra,3000d630 <__addsf3>
3000bbe8:	00050913          	mv	s2,a0
3000bbec:	00042583          	lw	a1,0(s0)
3000bbf0:	fb9ff06f          	j	3000bba8 <__ieee754_rem_pio2f+0x44c>

Disassembly of section .text.__kernel_cosf:

3000bbf4 <__kernel_cosf>:
3000bbf4:	fe010113          	addi	sp,sp,-32
3000bbf8:	00912a23          	sw	s1,20(sp)
3000bbfc:	00151493          	slli	s1,a0,0x1
3000bc00:	01212823          	sw	s2,16(sp)
3000bc04:	01312623          	sw	s3,12(sp)
3000bc08:	00112e23          	sw	ra,28(sp)
3000bc0c:	00812c23          	sw	s0,24(sp)
3000bc10:	01412423          	sw	s4,8(sp)
3000bc14:	01512223          	sw	s5,4(sp)
3000bc18:	0014d493          	srli	s1,s1,0x1
3000bc1c:	320007b7          	lui	a5,0x32000
3000bc20:	00050913          	mv	s2,a0
3000bc24:	00058993          	mv	s3,a1
3000bc28:	10f4d663          	bge	s1,a5,3000bd34 <__kernel_cosf+0x140>
3000bc2c:	42d020ef          	jal	ra,3000e858 <__fixsfsi>
3000bc30:	26050863          	beqz	a0,3000bea0 <__kernel_cosf+0x2ac>
3000bc34:	00090593          	mv	a1,s2
3000bc38:	00090513          	mv	a0,s2
3000bc3c:	414020ef          	jal	ra,3000e050 <__mulsf3>
3000bc40:	00005797          	auipc	a5,0x5
3000bc44:	d3c78793          	addi	a5,a5,-708 # 3001097c <two_over_pi+0x324>
3000bc48:	0007a583          	lw	a1,0(a5)
3000bc4c:	00050413          	mv	s0,a0
3000bc50:	400020ef          	jal	ra,3000e050 <__mulsf3>
3000bc54:	00005797          	auipc	a5,0x5
3000bc58:	d2c78793          	addi	a5,a5,-724 # 30010980 <two_over_pi+0x328>
3000bc5c:	0007a583          	lw	a1,0(a5)
3000bc60:	1d1010ef          	jal	ra,3000d630 <__addsf3>
3000bc64:	00040593          	mv	a1,s0
3000bc68:	3e8020ef          	jal	ra,3000e050 <__mulsf3>
3000bc6c:	00005797          	auipc	a5,0x5
3000bc70:	d1878793          	addi	a5,a5,-744 # 30010984 <two_over_pi+0x32c>
3000bc74:	0007a583          	lw	a1,0(a5)
3000bc78:	75c020ef          	jal	ra,3000e3d4 <__subsf3>
3000bc7c:	00040593          	mv	a1,s0
3000bc80:	3d0020ef          	jal	ra,3000e050 <__mulsf3>
3000bc84:	00005797          	auipc	a5,0x5
3000bc88:	d0478793          	addi	a5,a5,-764 # 30010988 <two_over_pi+0x330>
3000bc8c:	0007a583          	lw	a1,0(a5)
3000bc90:	1a1010ef          	jal	ra,3000d630 <__addsf3>
3000bc94:	00040593          	mv	a1,s0
3000bc98:	3b8020ef          	jal	ra,3000e050 <__mulsf3>
3000bc9c:	00005797          	auipc	a5,0x5
3000bca0:	cf078793          	addi	a5,a5,-784 # 3001098c <two_over_pi+0x334>
3000bca4:	0007a583          	lw	a1,0(a5)
3000bca8:	72c020ef          	jal	ra,3000e3d4 <__subsf3>
3000bcac:	00040593          	mv	a1,s0
3000bcb0:	3a0020ef          	jal	ra,3000e050 <__mulsf3>
3000bcb4:	00005797          	auipc	a5,0x5
3000bcb8:	cdc78793          	addi	a5,a5,-804 # 30010990 <two_over_pi+0x338>
3000bcbc:	0007a583          	lw	a1,0(a5)
3000bcc0:	171010ef          	jal	ra,3000d630 <__addsf3>
3000bcc4:	00040593          	mv	a1,s0
3000bcc8:	388020ef          	jal	ra,3000e050 <__mulsf3>
3000bccc:	00050a13          	mv	s4,a0
3000bcd0:	00005797          	auipc	a5,0x5
3000bcd4:	cc478793          	addi	a5,a5,-828 # 30010994 <two_over_pi+0x33c>
3000bcd8:	0007a583          	lw	a1,0(a5)
3000bcdc:	00040513          	mv	a0,s0
3000bce0:	370020ef          	jal	ra,3000e050 <__mulsf3>
3000bce4:	00050493          	mv	s1,a0
3000bce8:	000a0593          	mv	a1,s4
3000bcec:	00040513          	mv	a0,s0
3000bcf0:	360020ef          	jal	ra,3000e050 <__mulsf3>
3000bcf4:	00050413          	mv	s0,a0
3000bcf8:	00098593          	mv	a1,s3
3000bcfc:	00090513          	mv	a0,s2
3000bd00:	350020ef          	jal	ra,3000e050 <__mulsf3>
3000bd04:	00050593          	mv	a1,a0
3000bd08:	00040513          	mv	a0,s0
3000bd0c:	6c8020ef          	jal	ra,3000e3d4 <__subsf3>
3000bd10:	00050593          	mv	a1,a0
3000bd14:	00048513          	mv	a0,s1
3000bd18:	6bc020ef          	jal	ra,3000e3d4 <__subsf3>
3000bd1c:	00005797          	auipc	a5,0x5
3000bd20:	c5c78793          	addi	a5,a5,-932 # 30010978 <two_over_pi+0x320>
3000bd24:	00050593          	mv	a1,a0
3000bd28:	0007a503          	lw	a0,0(a5)
3000bd2c:	6a8020ef          	jal	ra,3000e3d4 <__subsf3>
3000bd30:	1300006f          	j	3000be60 <__kernel_cosf+0x26c>
3000bd34:	00050593          	mv	a1,a0
3000bd38:	318020ef          	jal	ra,3000e050 <__mulsf3>
3000bd3c:	00005797          	auipc	a5,0x5
3000bd40:	c4078793          	addi	a5,a5,-960 # 3001097c <two_over_pi+0x324>
3000bd44:	0007a583          	lw	a1,0(a5)
3000bd48:	00050413          	mv	s0,a0
3000bd4c:	304020ef          	jal	ra,3000e050 <__mulsf3>
3000bd50:	00005797          	auipc	a5,0x5
3000bd54:	c3078793          	addi	a5,a5,-976 # 30010980 <two_over_pi+0x328>
3000bd58:	0007a583          	lw	a1,0(a5)
3000bd5c:	0d5010ef          	jal	ra,3000d630 <__addsf3>
3000bd60:	00040593          	mv	a1,s0
3000bd64:	2ec020ef          	jal	ra,3000e050 <__mulsf3>
3000bd68:	00005797          	auipc	a5,0x5
3000bd6c:	c1c78793          	addi	a5,a5,-996 # 30010984 <two_over_pi+0x32c>
3000bd70:	0007a583          	lw	a1,0(a5)
3000bd74:	660020ef          	jal	ra,3000e3d4 <__subsf3>
3000bd78:	00040593          	mv	a1,s0
3000bd7c:	2d4020ef          	jal	ra,3000e050 <__mulsf3>
3000bd80:	00005797          	auipc	a5,0x5
3000bd84:	c0878793          	addi	a5,a5,-1016 # 30010988 <two_over_pi+0x330>
3000bd88:	0007a583          	lw	a1,0(a5)
3000bd8c:	0a5010ef          	jal	ra,3000d630 <__addsf3>
3000bd90:	00040593          	mv	a1,s0
3000bd94:	2bc020ef          	jal	ra,3000e050 <__mulsf3>
3000bd98:	00005797          	auipc	a5,0x5
3000bd9c:	bf478793          	addi	a5,a5,-1036 # 3001098c <two_over_pi+0x334>
3000bda0:	0007a583          	lw	a1,0(a5)
3000bda4:	630020ef          	jal	ra,3000e3d4 <__subsf3>
3000bda8:	00040593          	mv	a1,s0
3000bdac:	2a4020ef          	jal	ra,3000e050 <__mulsf3>
3000bdb0:	00005797          	auipc	a5,0x5
3000bdb4:	be078793          	addi	a5,a5,-1056 # 30010990 <two_over_pi+0x338>
3000bdb8:	0007a583          	lw	a1,0(a5)
3000bdbc:	075010ef          	jal	ra,3000d630 <__addsf3>
3000bdc0:	00040593          	mv	a1,s0
3000bdc4:	28c020ef          	jal	ra,3000e050 <__mulsf3>
3000bdc8:	3e99a7b7          	lui	a5,0x3e99a
3000bdcc:	99978793          	addi	a5,a5,-1639 # 3e999999 <__bss_end__+0xe899999>
3000bdd0:	00050a13          	mv	s4,a0
3000bdd4:	ee97dee3          	bge	a5,s1,3000bcd0 <__kernel_cosf+0xdc>
3000bdd8:	3f4807b7          	lui	a5,0x3f480
3000bddc:	0a97c463          	blt	a5,s1,3000be84 <__kernel_cosf+0x290>
3000bde0:	00005797          	auipc	a5,0x5
3000bde4:	b9878793          	addi	a5,a5,-1128 # 30010978 <two_over_pi+0x320>
3000bde8:	0007a503          	lw	a0,0(a5)
3000bdec:	ff0007b7          	lui	a5,0xff000
3000bdf0:	00f484b3          	add	s1,s1,a5
3000bdf4:	00048593          	mv	a1,s1
3000bdf8:	5dc020ef          	jal	ra,3000e3d4 <__subsf3>
3000bdfc:	00050a93          	mv	s5,a0
3000be00:	00005797          	auipc	a5,0x5
3000be04:	b9478793          	addi	a5,a5,-1132 # 30010994 <two_over_pi+0x33c>
3000be08:	0007a583          	lw	a1,0(a5)
3000be0c:	00040513          	mv	a0,s0
3000be10:	240020ef          	jal	ra,3000e050 <__mulsf3>
3000be14:	00048593          	mv	a1,s1
3000be18:	5bc020ef          	jal	ra,3000e3d4 <__subsf3>
3000be1c:	00050493          	mv	s1,a0
3000be20:	000a0593          	mv	a1,s4
3000be24:	00040513          	mv	a0,s0
3000be28:	228020ef          	jal	ra,3000e050 <__mulsf3>
3000be2c:	00050413          	mv	s0,a0
3000be30:	00098593          	mv	a1,s3
3000be34:	00090513          	mv	a0,s2
3000be38:	218020ef          	jal	ra,3000e050 <__mulsf3>
3000be3c:	00050593          	mv	a1,a0
3000be40:	00040513          	mv	a0,s0
3000be44:	590020ef          	jal	ra,3000e3d4 <__subsf3>
3000be48:	00050593          	mv	a1,a0
3000be4c:	00048513          	mv	a0,s1
3000be50:	584020ef          	jal	ra,3000e3d4 <__subsf3>
3000be54:	00050593          	mv	a1,a0
3000be58:	000a8513          	mv	a0,s5
3000be5c:	578020ef          	jal	ra,3000e3d4 <__subsf3>
3000be60:	01c12083          	lw	ra,28(sp)
3000be64:	01812403          	lw	s0,24(sp)
3000be68:	01412483          	lw	s1,20(sp)
3000be6c:	01012903          	lw	s2,16(sp)
3000be70:	00c12983          	lw	s3,12(sp)
3000be74:	00812a03          	lw	s4,8(sp)
3000be78:	00412a83          	lw	s5,4(sp)
3000be7c:	02010113          	addi	sp,sp,32
3000be80:	00008067          	ret
3000be84:	00005797          	auipc	a5,0x5
3000be88:	aec78793          	addi	a5,a5,-1300 # 30010970 <two_over_pi+0x318>
3000be8c:	0007aa83          	lw	s5,0(a5)
3000be90:	00005797          	auipc	a5,0x5
3000be94:	ae478793          	addi	a5,a5,-1308 # 30010974 <two_over_pi+0x31c>
3000be98:	0007a483          	lw	s1,0(a5)
3000be9c:	f65ff06f          	j	3000be00 <__kernel_cosf+0x20c>
3000bea0:	00005797          	auipc	a5,0x5
3000bea4:	ad878793          	addi	a5,a5,-1320 # 30010978 <two_over_pi+0x320>
3000bea8:	0007a503          	lw	a0,0(a5)
3000beac:	fb5ff06f          	j	3000be60 <__kernel_cosf+0x26c>

Disassembly of section .text.__kernel_rem_pio2f:

3000beb0 <__kernel_rem_pio2f>:
3000beb0:	e4010113          	addi	sp,sp,-448
3000beb4:	00271813          	slli	a6,a4,0x2
3000beb8:	02e12a23          	sw	a4,52(sp)
3000bebc:	00005717          	auipc	a4,0x5
3000bec0:	b2470713          	addi	a4,a4,-1244 # 300109e0 <init_jk>
3000bec4:	1b312623          	sw	s3,428(sp)
3000bec8:	1b612023          	sw	s6,416(sp)
3000becc:	00068993          	mv	s3,a3
3000bed0:	19712e23          	sw	s7,412(sp)
3000bed4:	01070733          	add	a4,a4,a6
3000bed8:	1a112e23          	sw	ra,444(sp)
3000bedc:	1a812c23          	sw	s0,440(sp)
3000bee0:	1a912a23          	sw	s1,436(sp)
3000bee4:	1b212823          	sw	s2,432(sp)
3000bee8:	1b412423          	sw	s4,424(sp)
3000beec:	1b512223          	sw	s5,420(sp)
3000bef0:	19812c23          	sw	s8,408(sp)
3000bef4:	19912a23          	sw	s9,404(sp)
3000bef8:	19a12823          	sw	s10,400(sp)
3000befc:	19b12623          	sw	s11,396(sp)
3000bf00:	02c12e23          	sw	a2,60(sp)
3000bf04:	ffc00693          	li	a3,-4
3000bf08:	00a12e23          	sw	a0,28(sp)
3000bf0c:	02b12823          	sw	a1,48(sp)
3000bf10:	02f12023          	sw	a5,32(sp)
3000bf14:	00072b03          	lw	s6,0(a4)
3000bf18:	fff98b93          	addi	s7,s3,-1
3000bf1c:	16d648e3          	blt	a2,a3,3000c88c <__kernel_rem_pio2f+0x9dc>
3000bf20:	ffd60713          	addi	a4,a2,-3
3000bf24:	41f75793          	srai	a5,a4,0x1f
3000bf28:	0077f793          	andi	a5,a5,7
3000bf2c:	00e787b3          	add	a5,a5,a4
3000bf30:	4037d793          	srai	a5,a5,0x3
3000bf34:	00f12c23          	sw	a5,24(sp)
3000bf38:	00178793          	addi	a5,a5,1
3000bf3c:	00379793          	slli	a5,a5,0x3
3000bf40:	02f12c23          	sw	a5,56(sp)
3000bf44:	01812703          	lw	a4,24(sp)
3000bf48:	03812683          	lw	a3,56(sp)
3000bf4c:	017b07b3          	add	a5,s6,s7
3000bf50:	41770433          	sub	s0,a4,s7
3000bf54:	03c12703          	lw	a4,60(sp)
3000bf58:	00178913          	addi	s2,a5,1
3000bf5c:	09010493          	addi	s1,sp,144
3000bf60:	40d70733          	sub	a4,a4,a3
3000bf64:	00e12623          	sw	a4,12(sp)
3000bf68:	00890933          	add	s2,s2,s0
3000bf6c:	0207c863          	bltz	a5,3000bf9c <__kernel_rem_pio2f+0xec>
3000bf70:	02012a03          	lw	s4,32(sp)
3000bf74:	00241793          	slli	a5,s0,0x2
3000bf78:	00fa07b3          	add	a5,s4,a5
3000bf7c:	00000513          	li	a0,0
3000bf80:	00044663          	bltz	s0,3000bf8c <__kernel_rem_pio2f+0xdc>
3000bf84:	0007a503          	lw	a0,0(a5)
3000bf88:	145020ef          	jal	ra,3000e8cc <__floatsisf>
3000bf8c:	00a4a023          	sw	a0,0(s1)
3000bf90:	00140413          	addi	s0,s0,1
3000bf94:	00448493          	addi	s1,s1,4
3000bf98:	fd241ee3          	bne	s0,s2,3000bf74 <__kernel_rem_pio2f+0xc4>
3000bf9c:	002b1c13          	slli	s8,s6,0x2
3000bfa0:	060b4a63          	bltz	s6,3000c014 <__kernel_rem_pio2f+0x164>
3000bfa4:	01c12d83          	lw	s11,28(sp)
3000bfa8:	002b9913          	slli	s2,s7,0x2
3000bfac:	09010793          	addi	a5,sp,144
3000bfb0:	00490413          	addi	s0,s2,4
3000bfb4:	002b1c13          	slli	s8,s6,0x2
3000bfb8:	01278933          	add	s2,a5,s2
3000bfbc:	13410793          	addi	a5,sp,308
3000bfc0:	13010493          	addi	s1,sp,304
3000bfc4:	01878a33          	add	s4,a5,s8
3000bfc8:	01b40433          	add	s0,s0,s11
3000bfcc:	00090c93          	mv	s9,s2
3000bfd0:	000d8a93          	mv	s5,s11
3000bfd4:	00000d13          	li	s10,0
3000bfd8:	020bc663          	bltz	s7,3000c004 <__kernel_rem_pio2f+0x154>
3000bfdc:	000ca583          	lw	a1,0(s9)
3000bfe0:	000aa503          	lw	a0,0(s5)
3000bfe4:	004a8a93          	addi	s5,s5,4
3000bfe8:	ffcc8c93          	addi	s9,s9,-4
3000bfec:	064020ef          	jal	ra,3000e050 <__mulsf3>
3000bff0:	00050593          	mv	a1,a0
3000bff4:	000d0513          	mv	a0,s10
3000bff8:	638010ef          	jal	ra,3000d630 <__addsf3>
3000bffc:	00050d13          	mv	s10,a0
3000c000:	fc8a9ee3          	bne	s5,s0,3000bfdc <__kernel_rem_pio2f+0x12c>
3000c004:	01a4a023          	sw	s10,0(s1)
3000c008:	00448493          	addi	s1,s1,4
3000c00c:	00490913          	addi	s2,s2,4
3000c010:	fb449ee3          	bne	s1,s4,3000bfcc <__kernel_rem_pio2f+0x11c>
3000c014:	03c10693          	addi	a3,sp,60
3000c018:	ff8c0713          	addi	a4,s8,-8
3000c01c:	01868c33          	add	s8,a3,s8
3000c020:	04010693          	addi	a3,sp,64
3000c024:	00e68733          	add	a4,a3,a4
3000c028:	02e12423          	sw	a4,40(sp)
3000c02c:	01c12703          	lw	a4,28(sp)
3000c030:	00299413          	slli	s0,s3,0x2
3000c034:	00c12683          	lw	a3,12(sp)
3000c038:	00870433          	add	s0,a4,s0
3000c03c:	40000737          	lui	a4,0x40000
3000c040:	fff70713          	addi	a4,a4,-1 # 3fffffff <__bss_end__+0xfefffff>
3000c044:	00e12423          	sw	a4,8(sp)
3000c048:	00800713          	li	a4,8
3000c04c:	40d70733          	sub	a4,a4,a3
3000c050:	fffb0793          	addi	a5,s6,-1
3000c054:	00279793          	slli	a5,a5,0x2
3000c058:	02e12623          	sw	a4,44(sp)
3000c05c:	18010713          	addi	a4,sp,384
3000c060:	00f707b3          	add	a5,a4,a5
3000c064:	000b0493          	mv	s1,s6
3000c068:	13010a93          	addi	s5,sp,304
3000c06c:	02f12223          	sw	a5,36(sp)
3000c070:	01612a23          	sw	s6,20(sp)
3000c074:	00249d13          	slli	s10,s1,0x2
3000c078:	18010793          	addi	a5,sp,384
3000c07c:	01a787b3          	add	a5,a5,s10
3000c080:	fb07ad83          	lw	s11,-80(a5)
3000c084:	08905463          	blez	s1,3000c10c <__kernel_rem_pio2f+0x25c>
3000c088:	00812783          	lw	a5,8(sp)
3000c08c:	00005717          	auipc	a4,0x5
3000c090:	93c70713          	addi	a4,a4,-1732 # 300109c8 <PIo2+0x30>
3000c094:	00072b03          	lw	s6,0(a4)
3000c098:	00f48933          	add	s2,s1,a5
3000c09c:	00291913          	slli	s2,s2,0x2
3000c0a0:	00005717          	auipc	a4,0x5
3000c0a4:	92c70713          	addi	a4,a4,-1748 # 300109cc <PIo2+0x34>
3000c0a8:	012a8933          	add	s2,s5,s2
3000c0ac:	04010993          	addi	s3,sp,64
3000c0b0:	00072a03          	lw	s4,0(a4)
3000c0b4:	0080006f          	j	3000c0bc <__kernel_rem_pio2f+0x20c>
3000c0b8:	00078913          	mv	s2,a5
3000c0bc:	000b0593          	mv	a1,s6
3000c0c0:	000d8513          	mv	a0,s11
3000c0c4:	78d010ef          	jal	ra,3000e050 <__mulsf3>
3000c0c8:	790020ef          	jal	ra,3000e858 <__fixsfsi>
3000c0cc:	001020ef          	jal	ra,3000e8cc <__floatsisf>
3000c0d0:	000a0593          	mv	a1,s4
3000c0d4:	00050c93          	mv	s9,a0
3000c0d8:	779010ef          	jal	ra,3000e050 <__mulsf3>
3000c0dc:	00050593          	mv	a1,a0
3000c0e0:	000d8513          	mv	a0,s11
3000c0e4:	2f0020ef          	jal	ra,3000e3d4 <__subsf3>
3000c0e8:	770020ef          	jal	ra,3000e858 <__fixsfsi>
3000c0ec:	00092583          	lw	a1,0(s2)
3000c0f0:	00a9a023          	sw	a0,0(s3)
3000c0f4:	000c8513          	mv	a0,s9
3000c0f8:	538010ef          	jal	ra,3000d630 <__addsf3>
3000c0fc:	00050d93          	mv	s11,a0
3000c100:	ffc90793          	addi	a5,s2,-4
3000c104:	00498993          	addi	s3,s3,4
3000c108:	fb2a98e3          	bne	s5,s2,3000c0b8 <__kernel_rem_pio2f+0x208>
3000c10c:	00c12b03          	lw	s6,12(sp)
3000c110:	000d8513          	mv	a0,s11
3000c114:	000b0593          	mv	a1,s6
3000c118:	339000ef          	jal	ra,3000cc50 <scalbnf>
3000c11c:	00005797          	auipc	a5,0x5
3000c120:	8b478793          	addi	a5,a5,-1868 # 300109d0 <PIo2+0x38>
3000c124:	0007a583          	lw	a1,0(a5)
3000c128:	00050913          	mv	s2,a0
3000c12c:	725010ef          	jal	ra,3000e050 <__mulsf3>
3000c130:	211000ef          	jal	ra,3000cb40 <floorf>
3000c134:	00005797          	auipc	a5,0x5
3000c138:	8a078793          	addi	a5,a5,-1888 # 300109d4 <PIo2+0x3c>
3000c13c:	0007a583          	lw	a1,0(a5)
3000c140:	711010ef          	jal	ra,3000e050 <__mulsf3>
3000c144:	00050593          	mv	a1,a0
3000c148:	00090513          	mv	a0,s2
3000c14c:	288020ef          	jal	ra,3000e3d4 <__subsf3>
3000c150:	00050913          	mv	s2,a0
3000c154:	704020ef          	jal	ra,3000e858 <__fixsfsi>
3000c158:	00050993          	mv	s3,a0
3000c15c:	770020ef          	jal	ra,3000e8cc <__floatsisf>
3000c160:	00050593          	mv	a1,a0
3000c164:	00090513          	mv	a0,s2
3000c168:	26c020ef          	jal	ra,3000e3d4 <__subsf3>
3000c16c:	00050a13          	mv	s4,a0
3000c170:	17605e63          	blez	s6,3000c2ec <__kernel_rem_pio2f+0x43c>
3000c174:	fff48793          	addi	a5,s1,-1
3000c178:	18010713          	addi	a4,sp,384
3000c17c:	00279793          	slli	a5,a5,0x2
3000c180:	00f707b3          	add	a5,a4,a5
3000c184:	ec07a903          	lw	s2,-320(a5)
3000c188:	02c12603          	lw	a2,44(sp)
3000c18c:	00700713          	li	a4,7
3000c190:	41670733          	sub	a4,a4,s6
3000c194:	40c956b3          	sra	a3,s2,a2
3000c198:	00c69633          	sll	a2,a3,a2
3000c19c:	40c90933          	sub	s2,s2,a2
3000c1a0:	ed27a023          	sw	s2,-320(a5)
3000c1a4:	40e95933          	sra	s2,s2,a4
3000c1a8:	00d989b3          	add	s3,s3,a3
3000c1ac:	17204263          	bgtz	s2,3000c310 <__kernel_rem_pio2f+0x460>
3000c1b0:	00000593          	li	a1,0
3000c1b4:	000a0513          	mv	a0,s4
3000c1b8:	49d010ef          	jal	ra,3000de54 <__eqsf2>
3000c1bc:	20051c63          	bnez	a0,3000c3d4 <__kernel_rem_pio2f+0x524>
3000c1c0:	01412783          	lw	a5,20(sp)
3000c1c4:	fff48a13          	addi	s4,s1,-1
3000c1c8:	02fa4863          	blt	s4,a5,3000c1f8 <__kernel_rem_pio2f+0x348>
3000c1cc:	00812783          	lw	a5,8(sp)
3000c1d0:	04010713          	addi	a4,sp,64
3000c1d4:	00f487b3          	add	a5,s1,a5
3000c1d8:	00279793          	slli	a5,a5,0x2
3000c1dc:	00f707b3          	add	a5,a4,a5
3000c1e0:	00000713          	li	a4,0
3000c1e4:	0007a683          	lw	a3,0(a5)
3000c1e8:	ffc78793          	addi	a5,a5,-4
3000c1ec:	00d76733          	or	a4,a4,a3
3000c1f0:	ff879ae3          	bne	a5,s8,3000c1e4 <__kernel_rem_pio2f+0x334>
3000c1f4:	3a071c63          	bnez	a4,3000c5ac <__kernel_rem_pio2f+0x6fc>
3000c1f8:	02412783          	lw	a5,36(sp)
3000c1fc:	ec07a783          	lw	a5,-320(a5)
3000c200:	38079e63          	bnez	a5,3000c59c <__kernel_rem_pio2f+0x6ec>
3000c204:	02812783          	lw	a5,40(sp)
3000c208:	00100713          	li	a4,1
3000c20c:	ffc78793          	addi	a5,a5,-4
3000c210:	0047a683          	lw	a3,4(a5)
3000c214:	00170713          	addi	a4,a4,1
3000c218:	fe068ae3          	beqz	a3,3000c20c <__kernel_rem_pio2f+0x35c>
3000c21c:	00148793          	addi	a5,s1,1
3000c220:	00078b13          	mv	s6,a5
3000c224:	00e484b3          	add	s1,s1,a4
3000c228:	01812703          	lw	a4,24(sp)
3000c22c:	00fb8933          	add	s2,s7,a5
3000c230:	01c12d83          	lw	s11,28(sp)
3000c234:	00f70a33          	add	s4,a4,a5
3000c238:	00812703          	lw	a4,8(sp)
3000c23c:	00279793          	slli	a5,a5,0x2
3000c240:	002a1a13          	slli	s4,s4,0x2
3000c244:	00e90933          	add	s2,s2,a4
3000c248:	02012703          	lw	a4,32(sp)
3000c24c:	00291913          	slli	s2,s2,0x2
3000c250:	00fa89b3          	add	s3,s5,a5
3000c254:	09010793          	addi	a5,sp,144
3000c258:	01470a33          	add	s4,a4,s4
3000c25c:	01278933          	add	s2,a5,s2
3000c260:	01812823          	sw	s8,16(sp)
3000c264:	000a2503          	lw	a0,0(s4)
3000c268:	664020ef          	jal	ra,3000e8cc <__floatsisf>
3000c26c:	00a92223          	sw	a0,4(s2)
3000c270:	040bce63          	bltz	s7,3000c2cc <__kernel_rem_pio2f+0x41c>
3000c274:	00090d13          	mv	s10,s2
3000c278:	000d8c93          	mv	s9,s11
3000c27c:	00000c13          	li	s8,0
3000c280:	00c0006f          	j	3000c28c <__kernel_rem_pio2f+0x3dc>
3000c284:	000d2503          	lw	a0,0(s10)
3000c288:	ffcd0d13          	addi	s10,s10,-4
3000c28c:	000ca583          	lw	a1,0(s9)
3000c290:	004c8c93          	addi	s9,s9,4
3000c294:	5bd010ef          	jal	ra,3000e050 <__mulsf3>
3000c298:	00050593          	mv	a1,a0
3000c29c:	000c0513          	mv	a0,s8
3000c2a0:	390010ef          	jal	ra,3000d630 <__addsf3>
3000c2a4:	00050c13          	mv	s8,a0
3000c2a8:	fc8c9ee3          	bne	s9,s0,3000c284 <__kernel_rem_pio2f+0x3d4>
3000c2ac:	0189a023          	sw	s8,0(s3)
3000c2b0:	001b0b13          	addi	s6,s6,1
3000c2b4:	004a0a13          	addi	s4,s4,4
3000c2b8:	00498993          	addi	s3,s3,4
3000c2bc:	00490913          	addi	s2,s2,4
3000c2c0:	fb64d2e3          	bge	s1,s6,3000c264 <__kernel_rem_pio2f+0x3b4>
3000c2c4:	01012c03          	lw	s8,16(sp)
3000c2c8:	dadff06f          	j	3000c074 <__kernel_rem_pio2f+0x1c4>
3000c2cc:	00000c13          	li	s8,0
3000c2d0:	0189a023          	sw	s8,0(s3)
3000c2d4:	001b0b13          	addi	s6,s6,1
3000c2d8:	004a0a13          	addi	s4,s4,4
3000c2dc:	00498993          	addi	s3,s3,4
3000c2e0:	00490913          	addi	s2,s2,4
3000c2e4:	f964d0e3          	bge	s1,s6,3000c264 <__kernel_rem_pio2f+0x3b4>
3000c2e8:	fddff06f          	j	3000c2c4 <__kernel_rem_pio2f+0x414>
3000c2ec:	00c12783          	lw	a5,12(sp)
3000c2f0:	26079663          	bnez	a5,3000c55c <__kernel_rem_pio2f+0x6ac>
3000c2f4:	fff48793          	addi	a5,s1,-1
3000c2f8:	00279793          	slli	a5,a5,0x2
3000c2fc:	18010713          	addi	a4,sp,384
3000c300:	00f707b3          	add	a5,a4,a5
3000c304:	ec07a903          	lw	s2,-320(a5)
3000c308:	40895913          	srai	s2,s2,0x8
3000c30c:	eb2052e3          	blez	s2,3000c1b0 <__kernel_rem_pio2f+0x300>
3000c310:	00198993          	addi	s3,s3,1
3000c314:	58905463          	blez	s1,3000c89c <__kernel_rem_pio2f+0x9ec>
3000c318:	04012b03          	lw	s6,64(sp)
3000c31c:	00100793          	li	a5,1
3000c320:	1c0b1e63          	bnez	s6,3000c4fc <__kernel_rem_pio2f+0x64c>
3000c324:	02f48263          	beq	s1,a5,3000c348 <__kernel_rem_pio2f+0x498>
3000c328:	04410693          	addi	a3,sp,68
3000c32c:	00100713          	li	a4,1
3000c330:	0006ab03          	lw	s6,0(a3) # 80000000 <__bss_end__+0x4ff00000>
3000c334:	00170793          	addi	a5,a4,1
3000c338:	00468693          	addi	a3,a3,4
3000c33c:	1c0b1263          	bnez	s6,3000c500 <__kernel_rem_pio2f+0x650>
3000c340:	00078713          	mv	a4,a5
3000c344:	fef496e3          	bne	s1,a5,3000c330 <__kernel_rem_pio2f+0x480>
3000c348:	00c12703          	lw	a4,12(sp)
3000c34c:	02e05863          	blez	a4,3000c37c <__kernel_rem_pio2f+0x4cc>
3000c350:	00100793          	li	a5,1
3000c354:	50f70c63          	beq	a4,a5,3000c86c <__kernel_rem_pio2f+0x9bc>
3000c358:	00200793          	li	a5,2
3000c35c:	02f71063          	bne	a4,a5,3000c37c <__kernel_rem_pio2f+0x4cc>
3000c360:	fff48793          	addi	a5,s1,-1
3000c364:	18010713          	addi	a4,sp,384
3000c368:	00279793          	slli	a5,a5,0x2
3000c36c:	00f707b3          	add	a5,a4,a5
3000c370:	ec07a703          	lw	a4,-320(a5)
3000c374:	03f77713          	andi	a4,a4,63
3000c378:	ece7a023          	sw	a4,-320(a5)
3000c37c:	00200793          	li	a5,2
3000c380:	e2f918e3          	bne	s2,a5,3000c1b0 <__kernel_rem_pio2f+0x300>
3000c384:	00004797          	auipc	a5,0x4
3000c388:	65878793          	addi	a5,a5,1624 # 300109dc <PIo2+0x44>
3000c38c:	0007a503          	lw	a0,0(a5)
3000c390:	000a0593          	mv	a1,s4
3000c394:	040020ef          	jal	ra,3000e3d4 <__subsf3>
3000c398:	00050a13          	mv	s4,a0
3000c39c:	e00b0ae3          	beqz	s6,3000c1b0 <__kernel_rem_pio2f+0x300>
3000c3a0:	00004797          	auipc	a5,0x4
3000c3a4:	63c78793          	addi	a5,a5,1596 # 300109dc <PIo2+0x44>
3000c3a8:	0007a503          	lw	a0,0(a5)
3000c3ac:	00c12583          	lw	a1,12(sp)
3000c3b0:	0a1000ef          	jal	ra,3000cc50 <scalbnf>
3000c3b4:	00050593          	mv	a1,a0
3000c3b8:	000a0513          	mv	a0,s4
3000c3bc:	018020ef          	jal	ra,3000e3d4 <__subsf3>
3000c3c0:	00050a13          	mv	s4,a0
3000c3c4:	00000593          	li	a1,0
3000c3c8:	000a0513          	mv	a0,s4
3000c3cc:	289010ef          	jal	ra,3000de54 <__eqsf2>
3000c3d0:	de0508e3          	beqz	a0,3000c1c0 <__kernel_rem_pio2f+0x310>
3000c3d4:	03812783          	lw	a5,56(sp)
3000c3d8:	03c12703          	lw	a4,60(sp)
3000c3dc:	000a0513          	mv	a0,s4
3000c3e0:	01412b03          	lw	s6,20(sp)
3000c3e4:	40e785b3          	sub	a1,a5,a4
3000c3e8:	069000ef          	jal	ra,3000cc50 <scalbnf>
3000c3ec:	00004797          	auipc	a5,0x4
3000c3f0:	5e078793          	addi	a5,a5,1504 # 300109cc <PIo2+0x34>
3000c3f4:	0007a403          	lw	s0,0(a5)
3000c3f8:	00050a13          	mv	s4,a0
3000c3fc:	00040593          	mv	a1,s0
3000c400:	2cd010ef          	jal	ra,3000decc <__gesf2>
3000c404:	50054e63          	bltz	a0,3000c920 <__kernel_rem_pio2f+0xa70>
3000c408:	00004797          	auipc	a5,0x4
3000c40c:	5c078793          	addi	a5,a5,1472 # 300109c8 <PIo2+0x30>
3000c410:	0007a583          	lw	a1,0(a5)
3000c414:	000a0513          	mv	a0,s4
3000c418:	18010793          	addi	a5,sp,384
3000c41c:	01a78bb3          	add	s7,a5,s10
3000c420:	431010ef          	jal	ra,3000e050 <__mulsf3>
3000c424:	434020ef          	jal	ra,3000e858 <__fixsfsi>
3000c428:	4a4020ef          	jal	ra,3000e8cc <__floatsisf>
3000c42c:	00040593          	mv	a1,s0
3000c430:	00050a93          	mv	s5,a0
3000c434:	41d010ef          	jal	ra,3000e050 <__mulsf3>
3000c438:	00050593          	mv	a1,a0
3000c43c:	000a0513          	mv	a0,s4
3000c440:	795010ef          	jal	ra,3000e3d4 <__subsf3>
3000c444:	414020ef          	jal	ra,3000e858 <__fixsfsi>
3000c448:	00148a13          	addi	s4,s1,1
3000c44c:	18010793          	addi	a5,sp,384
3000c450:	ecaba023          	sw	a0,-320(s7)
3000c454:	002a1413          	slli	s0,s4,0x2
3000c458:	000a8513          	mv	a0,s5
3000c45c:	00878433          	add	s0,a5,s0
3000c460:	3f8020ef          	jal	ra,3000e858 <__fixsfsi>
3000c464:	00c12783          	lw	a5,12(sp)
3000c468:	eca42023          	sw	a0,-320(s0)
3000c46c:	00878793          	addi	a5,a5,8
3000c470:	00f12623          	sw	a5,12(sp)
3000c474:	00004797          	auipc	a5,0x4
3000c478:	56878793          	addi	a5,a5,1384 # 300109dc <PIo2+0x44>
3000c47c:	0007a503          	lw	a0,0(a5)
3000c480:	00c12583          	lw	a1,12(sp)
3000c484:	7cc000ef          	jal	ra,3000cc50 <scalbnf>
3000c488:	00050a93          	mv	s5,a0
3000c48c:	180a5463          	bgez	s4,3000c614 <__kernel_rem_pio2f+0x764>
3000c490:	03412703          	lw	a4,52(sp)
3000c494:	00200793          	li	a5,2
3000c498:	2ce7c263          	blt	a5,a4,3000c75c <__kernel_rem_pio2f+0x8ac>
3000c49c:	4ce04e63          	bgtz	a4,3000c978 <__kernel_rem_pio2f+0xac8>
3000c4a0:	00000513          	li	a0,0
3000c4a4:	00071c63          	bnez	a4,3000c4bc <__kernel_rem_pio2f+0x60c>
3000c4a8:	00090663          	beqz	s2,3000c4b4 <__kernel_rem_pio2f+0x604>
3000c4ac:	800007b7          	lui	a5,0x80000
3000c4b0:	00a7c533          	xor	a0,a5,a0
3000c4b4:	03012783          	lw	a5,48(sp)
3000c4b8:	00a7a023          	sw	a0,0(a5) # 80000000 <__bss_end__+0x4ff00000>
3000c4bc:	1bc12083          	lw	ra,444(sp)
3000c4c0:	1b812403          	lw	s0,440(sp)
3000c4c4:	0079f513          	andi	a0,s3,7
3000c4c8:	1b412483          	lw	s1,436(sp)
3000c4cc:	1b012903          	lw	s2,432(sp)
3000c4d0:	1ac12983          	lw	s3,428(sp)
3000c4d4:	1a812a03          	lw	s4,424(sp)
3000c4d8:	1a412a83          	lw	s5,420(sp)
3000c4dc:	1a012b03          	lw	s6,416(sp)
3000c4e0:	19c12b83          	lw	s7,412(sp)
3000c4e4:	19812c03          	lw	s8,408(sp)
3000c4e8:	19412c83          	lw	s9,404(sp)
3000c4ec:	19012d03          	lw	s10,400(sp)
3000c4f0:	18c12d83          	lw	s11,396(sp)
3000c4f4:	1c010113          	addi	sp,sp,448
3000c4f8:	00008067          	ret
3000c4fc:	00000713          	li	a4,0
3000c500:	18010693          	addi	a3,sp,384
3000c504:	00271713          	slli	a4,a4,0x2
3000c508:	00e68733          	add	a4,a3,a4
3000c50c:	10000693          	li	a3,256
3000c510:	41668b33          	sub	s6,a3,s6
3000c514:	ed672023          	sw	s6,-320(a4)
3000c518:	0297de63          	bge	a5,s1,3000c554 <__kernel_rem_pio2f+0x6a4>
3000c51c:	00279793          	slli	a5,a5,0x2
3000c520:	18010713          	addi	a4,sp,384
3000c524:	04010693          	addi	a3,sp,64
3000c528:	00f70733          	add	a4,a4,a5
3000c52c:	01a68633          	add	a2,a3,s10
3000c530:	00f687b3          	add	a5,a3,a5
3000c534:	ec072703          	lw	a4,-320(a4)
3000c538:	0ff00693          	li	a3,255
3000c53c:	0080006f          	j	3000c544 <__kernel_rem_pio2f+0x694>
3000c540:	0007a703          	lw	a4,0(a5)
3000c544:	40e68733          	sub	a4,a3,a4
3000c548:	00e7a023          	sw	a4,0(a5)
3000c54c:	00478793          	addi	a5,a5,4
3000c550:	fec798e3          	bne	a5,a2,3000c540 <__kernel_rem_pio2f+0x690>
3000c554:	00100b13          	li	s6,1
3000c558:	df1ff06f          	j	3000c348 <__kernel_rem_pio2f+0x498>
3000c55c:	00004797          	auipc	a5,0x4
3000c560:	47c78793          	addi	a5,a5,1148 # 300109d8 <PIo2+0x40>
3000c564:	0007a583          	lw	a1,0(a5)
3000c568:	00000913          	li	s2,0
3000c56c:	161010ef          	jal	ra,3000decc <__gesf2>
3000c570:	c40540e3          	bltz	a0,3000c1b0 <__kernel_rem_pio2f+0x300>
3000c574:	00198993          	addi	s3,s3,1
3000c578:	00200913          	li	s2,2
3000c57c:	d8904ee3          	bgtz	s1,3000c318 <__kernel_rem_pio2f+0x468>
3000c580:	00004797          	auipc	a5,0x4
3000c584:	45c78793          	addi	a5,a5,1116 # 300109dc <PIo2+0x44>
3000c588:	0007a503          	lw	a0,0(a5)
3000c58c:	000a0593          	mv	a1,s4
3000c590:	645010ef          	jal	ra,3000e3d4 <__subsf3>
3000c594:	00050a13          	mv	s4,a0
3000c598:	c19ff06f          	j	3000c1b0 <__kernel_rem_pio2f+0x300>
3000c59c:	00148793          	addi	a5,s1,1
3000c5a0:	00078b13          	mv	s6,a5
3000c5a4:	00078493          	mv	s1,a5
3000c5a8:	c81ff06f          	j	3000c228 <__kernel_rem_pio2f+0x378>
3000c5ac:	18010713          	addi	a4,sp,384
3000c5b0:	002a1793          	slli	a5,s4,0x2
3000c5b4:	00f707b3          	add	a5,a4,a5
3000c5b8:	00c12703          	lw	a4,12(sp)
3000c5bc:	ec07a783          	lw	a5,-320(a5)
3000c5c0:	01412b03          	lw	s6,20(sp)
3000c5c4:	ff870713          	addi	a4,a4,-8
3000c5c8:	00e12623          	sw	a4,12(sp)
3000c5cc:	02079663          	bnez	a5,3000c5f8 <__kernel_rem_pio2f+0x748>
3000c5d0:	00249793          	slli	a5,s1,0x2
3000c5d4:	ff878793          	addi	a5,a5,-8
3000c5d8:	04010693          	addi	a3,sp,64
3000c5dc:	00f687b3          	add	a5,a3,a5
3000c5e0:	ffc78793          	addi	a5,a5,-4
3000c5e4:	0047a683          	lw	a3,4(a5)
3000c5e8:	fffa0a13          	addi	s4,s4,-1
3000c5ec:	ff870713          	addi	a4,a4,-8
3000c5f0:	fe0688e3          	beqz	a3,3000c5e0 <__kernel_rem_pio2f+0x730>
3000c5f4:	00e12623          	sw	a4,12(sp)
3000c5f8:	00004797          	auipc	a5,0x4
3000c5fc:	3e478793          	addi	a5,a5,996 # 300109dc <PIo2+0x44>
3000c600:	0007a503          	lw	a0,0(a5)
3000c604:	00c12583          	lw	a1,12(sp)
3000c608:	648000ef          	jal	ra,3000cc50 <scalbnf>
3000c60c:	00050a93          	mv	s5,a0
3000c610:	e80a40e3          	bltz	s4,3000c490 <__kernel_rem_pio2f+0x5e0>
3000c614:	002a1713          	slli	a4,s4,0x2
3000c618:	13010793          	addi	a5,sp,304
3000c61c:	00e784b3          	add	s1,a5,a4
3000c620:	04010693          	addi	a3,sp,64
3000c624:	00004797          	auipc	a5,0x4
3000c628:	3a478793          	addi	a5,a5,932 # 300109c8 <PIo2+0x30>
3000c62c:	00e12423          	sw	a4,8(sp)
3000c630:	00e68d33          	add	s10,a3,a4
3000c634:	00048413          	mv	s0,s1
3000c638:	0007ac83          	lw	s9,0(a5)
3000c63c:	0080006f          	j	3000c644 <__kernel_rem_pio2f+0x794>
3000c640:	00078d13          	mv	s10,a5
3000c644:	000d2503          	lw	a0,0(s10)
3000c648:	ffc40413          	addi	s0,s0,-4
3000c64c:	280020ef          	jal	ra,3000e8cc <__floatsisf>
3000c650:	000a8593          	mv	a1,s5
3000c654:	1fd010ef          	jal	ra,3000e050 <__mulsf3>
3000c658:	00a42223          	sw	a0,4(s0)
3000c65c:	000c8593          	mv	a1,s9
3000c660:	000a8513          	mv	a0,s5
3000c664:	1ed010ef          	jal	ra,3000e050 <__mulsf3>
3000c668:	04010713          	addi	a4,sp,64
3000c66c:	00050a93          	mv	s5,a0
3000c670:	ffcd0793          	addi	a5,s10,-4
3000c674:	fda716e3          	bne	a4,s10,3000c640 <__kernel_rem_pio2f+0x790>
3000c678:	0e010c93          	addi	s9,sp,224
3000c67c:	000c8a93          	mv	s5,s9
3000c680:	00000413          	li	s0,0
3000c684:	060b4c63          	bltz	s6,3000c6fc <__kernel_rem_pio2f+0x84c>
3000c688:	00004797          	auipc	a5,0x4
3000c68c:	33c78793          	addi	a5,a5,828 # 300109c4 <PIo2+0x2c>
3000c690:	00004d17          	auipc	s10,0x4
3000c694:	30cd0d13          	addi	s10,s10,780 # 3001099c <PIo2+0x4>
3000c698:	00048c13          	mv	s8,s1
3000c69c:	0007a503          	lw	a0,0(a5)
3000c6a0:	00000d93          	li	s11,0
3000c6a4:	00000b93          	li	s7,0
3000c6a8:	0140006f          	j	3000c6bc <__kernel_rem_pio2f+0x80c>
3000c6ac:	004c0c13          	addi	s8,s8,4
3000c6b0:	03744663          	blt	s0,s7,3000c6dc <__kernel_rem_pio2f+0x82c>
3000c6b4:	000d2503          	lw	a0,0(s10)
3000c6b8:	004d0d13          	addi	s10,s10,4
3000c6bc:	000c2583          	lw	a1,0(s8)
3000c6c0:	001b8b93          	addi	s7,s7,1
3000c6c4:	18d010ef          	jal	ra,3000e050 <__mulsf3>
3000c6c8:	00050593          	mv	a1,a0
3000c6cc:	000d8513          	mv	a0,s11
3000c6d0:	761000ef          	jal	ra,3000d630 <__addsf3>
3000c6d4:	00050d93          	mv	s11,a0
3000c6d8:	fd7b5ae3          	bge	s6,s7,3000c6ac <__kernel_rem_pio2f+0x7fc>
3000c6dc:	01baa023          	sw	s11,0(s5)
3000c6e0:	13010713          	addi	a4,sp,304
3000c6e4:	00140413          	addi	s0,s0,1
3000c6e8:	004a8a93          	addi	s5,s5,4
3000c6ec:	ffc48793          	addi	a5,s1,-4
3000c6f0:	02970463          	beq	a4,s1,3000c718 <__kernel_rem_pio2f+0x868>
3000c6f4:	00078493          	mv	s1,a5
3000c6f8:	f80b58e3          	bgez	s6,3000c688 <__kernel_rem_pio2f+0x7d8>
3000c6fc:	00000d93          	li	s11,0
3000c700:	01baa023          	sw	s11,0(s5)
3000c704:	13010713          	addi	a4,sp,304
3000c708:	00140413          	addi	s0,s0,1
3000c70c:	004a8a93          	addi	s5,s5,4
3000c710:	ffc48793          	addi	a5,s1,-4
3000c714:	fe9710e3          	bne	a4,s1,3000c6f4 <__kernel_rem_pio2f+0x844>
3000c718:	03412703          	lw	a4,52(sp)
3000c71c:	00200793          	li	a5,2
3000c720:	02e7ce63          	blt	a5,a4,3000c75c <__kernel_rem_pio2f+0x8ac>
3000c724:	00070793          	mv	a5,a4
3000c728:	16e04e63          	bgtz	a4,3000c8a4 <__kernel_rem_pio2f+0x9f4>
3000c72c:	00812703          	lw	a4,8(sp)
3000c730:	00000513          	li	a0,0
3000c734:	00ec8bb3          	add	s7,s9,a4
3000c738:	00078663          	beqz	a5,3000c744 <__kernel_rem_pio2f+0x894>
3000c73c:	d81ff06f          	j	3000c4bc <__kernel_rem_pio2f+0x60c>
3000c740:	00078b93          	mv	s7,a5
3000c744:	000ba583          	lw	a1,0(s7)
3000c748:	6e9000ef          	jal	ra,3000d630 <__addsf3>
3000c74c:	ffcb8793          	addi	a5,s7,-4
3000c750:	ff7c98e3          	bne	s9,s7,3000c740 <__kernel_rem_pio2f+0x890>
3000c754:	d60900e3          	beqz	s2,3000c4b4 <__kernel_rem_pio2f+0x604>
3000c758:	d55ff06f          	j	3000c4ac <__kernel_rem_pio2f+0x5fc>
3000c75c:	03412703          	lw	a4,52(sp)
3000c760:	00300793          	li	a5,3
3000c764:	d4f71ce3          	bne	a4,a5,3000c4bc <__kernel_rem_pio2f+0x60c>
3000c768:	21405c63          	blez	s4,3000c980 <__kernel_rem_pio2f+0xad0>
3000c76c:	002a1a93          	slli	s5,s4,0x2
3000c770:	18010793          	addi	a5,sp,384
3000c774:	015787b3          	add	a5,a5,s5
3000c778:	0e010c93          	addi	s9,sp,224
3000c77c:	ffca8413          	addi	s0,s5,-4
3000c780:	f607ab03          	lw	s6,-160(a5)
3000c784:	008c8433          	add	s0,s9,s0
3000c788:	0080006f          	j	3000c790 <__kernel_rem_pio2f+0x8e0>
3000c78c:	00078413          	mv	s0,a5
3000c790:	00042b83          	lw	s7,0(s0)
3000c794:	000b0593          	mv	a1,s6
3000c798:	000b8513          	mv	a0,s7
3000c79c:	695000ef          	jal	ra,3000d630 <__addsf3>
3000c7a0:	00050493          	mv	s1,a0
3000c7a4:	00050593          	mv	a1,a0
3000c7a8:	000b8513          	mv	a0,s7
3000c7ac:	429010ef          	jal	ra,3000e3d4 <__subsf3>
3000c7b0:	000b0593          	mv	a1,s6
3000c7b4:	67d000ef          	jal	ra,3000d630 <__addsf3>
3000c7b8:	00a42223          	sw	a0,4(s0)
3000c7bc:	00942023          	sw	s1,0(s0)
3000c7c0:	ffc40793          	addi	a5,s0,-4
3000c7c4:	00048b13          	mv	s6,s1
3000c7c8:	fc8c92e3          	bne	s9,s0,3000c78c <__kernel_rem_pio2f+0x8dc>
3000c7cc:	00100793          	li	a5,1
3000c7d0:	1b47d863          	bge	a5,s4,3000c980 <__kernel_rem_pio2f+0xad0>
3000c7d4:	002a1413          	slli	s0,s4,0x2
3000c7d8:	18010793          	addi	a5,sp,384
3000c7dc:	01578ab3          	add	s5,a5,s5
3000c7e0:	ffc40413          	addi	s0,s0,-4
3000c7e4:	f60aaa83          	lw	s5,-160(s5)
3000c7e8:	008c84b3          	add	s1,s9,s0
3000c7ec:	0080006f          	j	3000c7f4 <__kernel_rem_pio2f+0x944>
3000c7f0:	00078493          	mv	s1,a5
3000c7f4:	0004ab03          	lw	s6,0(s1)
3000c7f8:	000a8593          	mv	a1,s5
3000c7fc:	000b0513          	mv	a0,s6
3000c800:	631000ef          	jal	ra,3000d630 <__addsf3>
3000c804:	00050a13          	mv	s4,a0
3000c808:	00050593          	mv	a1,a0
3000c80c:	000b0513          	mv	a0,s6
3000c810:	3c5010ef          	jal	ra,3000e3d4 <__subsf3>
3000c814:	000a8593          	mv	a1,s5
3000c818:	619000ef          	jal	ra,3000d630 <__addsf3>
3000c81c:	00a4a223          	sw	a0,4(s1)
3000c820:	0144a023          	sw	s4,0(s1)
3000c824:	ffc48793          	addi	a5,s1,-4
3000c828:	000a0a93          	mv	s5,s4
3000c82c:	fcfc92e3          	bne	s9,a5,3000c7f0 <__kernel_rem_pio2f+0x940>
3000c830:	00440413          	addi	s0,s0,4
3000c834:	008c8cb3          	add	s9,s9,s0
3000c838:	00000513          	li	a0,0
3000c83c:	000ca583          	lw	a1,0(s9)
3000c840:	ffcc8c93          	addi	s9,s9,-4
3000c844:	5ed000ef          	jal	ra,3000d630 <__addsf3>
3000c848:	ff949ae3          	bne	s1,s9,3000c83c <__kernel_rem_pio2f+0x98c>
3000c84c:	0e012683          	lw	a3,224(sp)
3000c850:	0e412703          	lw	a4,228(sp)
3000c854:	0e091463          	bnez	s2,3000c93c <__kernel_rem_pio2f+0xa8c>
3000c858:	03012783          	lw	a5,48(sp)
3000c85c:	00d7a023          	sw	a3,0(a5)
3000c860:	00e7a223          	sw	a4,4(a5)
3000c864:	00a7a423          	sw	a0,8(a5)
3000c868:	c55ff06f          	j	3000c4bc <__kernel_rem_pio2f+0x60c>
3000c86c:	fff48793          	addi	a5,s1,-1
3000c870:	18010713          	addi	a4,sp,384
3000c874:	00279793          	slli	a5,a5,0x2
3000c878:	00f707b3          	add	a5,a4,a5
3000c87c:	ec07a703          	lw	a4,-320(a5)
3000c880:	07f77713          	andi	a4,a4,127
3000c884:	ece7a023          	sw	a4,-320(a5)
3000c888:	af5ff06f          	j	3000c37c <__kernel_rem_pio2f+0x4cc>
3000c88c:	00800793          	li	a5,8
3000c890:	02f12c23          	sw	a5,56(sp)
3000c894:	00012c23          	sw	zero,24(sp)
3000c898:	eacff06f          	j	3000bf44 <__kernel_rem_pio2f+0x94>
3000c89c:	00000b13          	li	s6,0
3000c8a0:	aa9ff06f          	j	3000c348 <__kernel_rem_pio2f+0x498>
3000c8a4:	00812783          	lw	a5,8(sp)
3000c8a8:	00000413          	li	s0,0
3000c8ac:	00040513          	mv	a0,s0
3000c8b0:	00fc8bb3          	add	s7,s9,a5
3000c8b4:	0080006f          	j	3000c8bc <__kernel_rem_pio2f+0xa0c>
3000c8b8:	00078b93          	mv	s7,a5
3000c8bc:	000ba583          	lw	a1,0(s7)
3000c8c0:	571000ef          	jal	ra,3000d630 <__addsf3>
3000c8c4:	ffcb8793          	addi	a5,s7,-4
3000c8c8:	ff7c98e3          	bne	s9,s7,3000c8b8 <__kernel_rem_pio2f+0xa08>
3000c8cc:	00050413          	mv	s0,a0
3000c8d0:	0e012503          	lw	a0,224(sp)
3000c8d4:	00040593          	mv	a1,s0
3000c8d8:	2fd010ef          	jal	ra,3000e3d4 <__subsf3>
3000c8dc:	08091263          	bnez	s2,3000c960 <__kernel_rem_pio2f+0xab0>
3000c8e0:	03012783          	lw	a5,48(sp)
3000c8e4:	0087a023          	sw	s0,0(a5)
3000c8e8:	03405663          	blez	s4,3000c914 <__kernel_rem_pio2f+0xa64>
3000c8ec:	0e410493          	addi	s1,sp,228
3000c8f0:	00100413          	li	s0,1
3000c8f4:	0004a583          	lw	a1,0(s1)
3000c8f8:	00140413          	addi	s0,s0,1
3000c8fc:	00448493          	addi	s1,s1,4
3000c900:	531000ef          	jal	ra,3000d630 <__addsf3>
3000c904:	fe8a58e3          	bge	s4,s0,3000c8f4 <__kernel_rem_pio2f+0xa44>
3000c908:	00090663          	beqz	s2,3000c914 <__kernel_rem_pio2f+0xa64>
3000c90c:	800007b7          	lui	a5,0x80000
3000c910:	00a7c533          	xor	a0,a5,a0
3000c914:	03012783          	lw	a5,48(sp)
3000c918:	00a7a223          	sw	a0,4(a5) # 80000004 <__bss_end__+0x4ff00004>
3000c91c:	ba1ff06f          	j	3000c4bc <__kernel_rem_pio2f+0x60c>
3000c920:	000a0513          	mv	a0,s4
3000c924:	18010793          	addi	a5,sp,384
3000c928:	01a78433          	add	s0,a5,s10
3000c92c:	72d010ef          	jal	ra,3000e858 <__fixsfsi>
3000c930:	eca42023          	sw	a0,-320(s0)
3000c934:	00048a13          	mv	s4,s1
3000c938:	cc1ff06f          	j	3000c5f8 <__kernel_rem_pio2f+0x748>
3000c93c:	03012603          	lw	a2,48(sp)
3000c940:	800007b7          	lui	a5,0x80000
3000c944:	00d7c6b3          	xor	a3,a5,a3
3000c948:	00e7c733          	xor	a4,a5,a4
3000c94c:	00a7c7b3          	xor	a5,a5,a0
3000c950:	00d62023          	sw	a3,0(a2)
3000c954:	00e62223          	sw	a4,4(a2)
3000c958:	00f62423          	sw	a5,8(a2)
3000c95c:	b61ff06f          	j	3000c4bc <__kernel_rem_pio2f+0x60c>
3000c960:	800007b7          	lui	a5,0x80000
3000c964:	0087c433          	xor	s0,a5,s0
3000c968:	03012783          	lw	a5,48(sp)
3000c96c:	0087a023          	sw	s0,0(a5) # 80000000 <__bss_end__+0x4ff00000>
3000c970:	f7404ee3          	bgtz	s4,3000c8ec <__kernel_rem_pio2f+0xa3c>
3000c974:	f99ff06f          	j	3000c90c <__kernel_rem_pio2f+0xa5c>
3000c978:	00000413          	li	s0,0
3000c97c:	f55ff06f          	j	3000c8d0 <__kernel_rem_pio2f+0xa20>
3000c980:	00000513          	li	a0,0
3000c984:	ec9ff06f          	j	3000c84c <__kernel_rem_pio2f+0x99c>

Disassembly of section .text.__kernel_sinf:

3000c988 <__kernel_sinf>:
3000c988:	fe010113          	addi	sp,sp,-32
3000c98c:	00151793          	slli	a5,a0,0x1
3000c990:	00812c23          	sw	s0,24(sp)
3000c994:	01312623          	sw	s3,12(sp)
3000c998:	01412423          	sw	s4,8(sp)
3000c99c:	00112e23          	sw	ra,28(sp)
3000c9a0:	00912a23          	sw	s1,20(sp)
3000c9a4:	01212823          	sw	s2,16(sp)
3000c9a8:	01512223          	sw	s5,4(sp)
3000c9ac:	0017d793          	srli	a5,a5,0x1
3000c9b0:	32000737          	lui	a4,0x32000
3000c9b4:	00050413          	mv	s0,a0
3000c9b8:	00058993          	mv	s3,a1
3000c9bc:	00060a13          	mv	s4,a2
3000c9c0:	00e7d863          	bge	a5,a4,3000c9d0 <__kernel_sinf+0x48>
3000c9c4:	695010ef          	jal	ra,3000e858 <__fixsfsi>
3000c9c8:	00040793          	mv	a5,s0
3000c9cc:	0c050463          	beqz	a0,3000ca94 <__kernel_sinf+0x10c>
3000c9d0:	00040593          	mv	a1,s0
3000c9d4:	00040513          	mv	a0,s0
3000c9d8:	678010ef          	jal	ra,3000e050 <__mulsf3>
3000c9dc:	00050493          	mv	s1,a0
3000c9e0:	00050593          	mv	a1,a0
3000c9e4:	00040513          	mv	a0,s0
3000c9e8:	668010ef          	jal	ra,3000e050 <__mulsf3>
3000c9ec:	00004797          	auipc	a5,0x4
3000c9f0:	00078793          	mv	a5,a5
3000c9f4:	0007a583          	lw	a1,0(a5) # 300109ec <init_jk+0xc>
3000c9f8:	00050913          	mv	s2,a0
3000c9fc:	00048513          	mv	a0,s1
3000ca00:	650010ef          	jal	ra,3000e050 <__mulsf3>
3000ca04:	00004797          	auipc	a5,0x4
3000ca08:	fec78793          	addi	a5,a5,-20 # 300109f0 <init_jk+0x10>
3000ca0c:	0007a583          	lw	a1,0(a5)
3000ca10:	1c5010ef          	jal	ra,3000e3d4 <__subsf3>
3000ca14:	00048593          	mv	a1,s1
3000ca18:	638010ef          	jal	ra,3000e050 <__mulsf3>
3000ca1c:	00004797          	auipc	a5,0x4
3000ca20:	fd878793          	addi	a5,a5,-40 # 300109f4 <init_jk+0x14>
3000ca24:	0007a583          	lw	a1,0(a5)
3000ca28:	409000ef          	jal	ra,3000d630 <__addsf3>
3000ca2c:	00048593          	mv	a1,s1
3000ca30:	620010ef          	jal	ra,3000e050 <__mulsf3>
3000ca34:	00004797          	auipc	a5,0x4
3000ca38:	fc478793          	addi	a5,a5,-60 # 300109f8 <init_jk+0x18>
3000ca3c:	0007a583          	lw	a1,0(a5)
3000ca40:	195010ef          	jal	ra,3000e3d4 <__subsf3>
3000ca44:	00048593          	mv	a1,s1
3000ca48:	608010ef          	jal	ra,3000e050 <__mulsf3>
3000ca4c:	00004797          	auipc	a5,0x4
3000ca50:	fb078793          	addi	a5,a5,-80 # 300109fc <init_jk+0x1c>
3000ca54:	0007a583          	lw	a1,0(a5)
3000ca58:	3d9000ef          	jal	ra,3000d630 <__addsf3>
3000ca5c:	00050a93          	mv	s5,a0
3000ca60:	040a1e63          	bnez	s4,3000cabc <__kernel_sinf+0x134>
3000ca64:	00050593          	mv	a1,a0
3000ca68:	00048513          	mv	a0,s1
3000ca6c:	5e4010ef          	jal	ra,3000e050 <__mulsf3>
3000ca70:	00004797          	auipc	a5,0x4
3000ca74:	f9078793          	addi	a5,a5,-112 # 30010a00 <init_jk+0x20>
3000ca78:	0007a583          	lw	a1,0(a5)
3000ca7c:	159010ef          	jal	ra,3000e3d4 <__subsf3>
3000ca80:	00090593          	mv	a1,s2
3000ca84:	5cc010ef          	jal	ra,3000e050 <__mulsf3>
3000ca88:	00040593          	mv	a1,s0
3000ca8c:	3a5000ef          	jal	ra,3000d630 <__addsf3>
3000ca90:	00050793          	mv	a5,a0
3000ca94:	01c12083          	lw	ra,28(sp)
3000ca98:	01812403          	lw	s0,24(sp)
3000ca9c:	01412483          	lw	s1,20(sp)
3000caa0:	01012903          	lw	s2,16(sp)
3000caa4:	00c12983          	lw	s3,12(sp)
3000caa8:	00812a03          	lw	s4,8(sp)
3000caac:	00412a83          	lw	s5,4(sp)
3000cab0:	00078513          	mv	a0,a5
3000cab4:	02010113          	addi	sp,sp,32
3000cab8:	00008067          	ret
3000cabc:	00004797          	auipc	a5,0x4
3000cac0:	f4878793          	addi	a5,a5,-184 # 30010a04 <init_jk+0x24>
3000cac4:	0007a583          	lw	a1,0(a5)
3000cac8:	00098513          	mv	a0,s3
3000cacc:	584010ef          	jal	ra,3000e050 <__mulsf3>
3000cad0:	00050a13          	mv	s4,a0
3000cad4:	000a8593          	mv	a1,s5
3000cad8:	00090513          	mv	a0,s2
3000cadc:	574010ef          	jal	ra,3000e050 <__mulsf3>
3000cae0:	00050593          	mv	a1,a0
3000cae4:	000a0513          	mv	a0,s4
3000cae8:	0ed010ef          	jal	ra,3000e3d4 <__subsf3>
3000caec:	00048593          	mv	a1,s1
3000caf0:	560010ef          	jal	ra,3000e050 <__mulsf3>
3000caf4:	00098593          	mv	a1,s3
3000caf8:	0dd010ef          	jal	ra,3000e3d4 <__subsf3>
3000cafc:	00004797          	auipc	a5,0x4
3000cb00:	f0478793          	addi	a5,a5,-252 # 30010a00 <init_jk+0x20>
3000cb04:	0007a583          	lw	a1,0(a5)
3000cb08:	00050493          	mv	s1,a0
3000cb0c:	00090513          	mv	a0,s2
3000cb10:	540010ef          	jal	ra,3000e050 <__mulsf3>
3000cb14:	00050593          	mv	a1,a0
3000cb18:	00048513          	mv	a0,s1
3000cb1c:	315000ef          	jal	ra,3000d630 <__addsf3>
3000cb20:	00050593          	mv	a1,a0
3000cb24:	00040513          	mv	a0,s0
3000cb28:	0ad010ef          	jal	ra,3000e3d4 <__subsf3>
3000cb2c:	00050793          	mv	a5,a0
3000cb30:	f65ff06f          	j	3000ca94 <__kernel_sinf+0x10c>

Disassembly of section .text.fabsf:

3000cb34 <fabsf>:
3000cb34:	00151513          	slli	a0,a0,0x1
3000cb38:	00155513          	srli	a0,a0,0x1
3000cb3c:	00008067          	ret

Disassembly of section .text.floorf:

3000cb40 <floorf>:
3000cb40:	fe010113          	addi	sp,sp,-32
3000cb44:	00912a23          	sw	s1,20(sp)
3000cb48:	00151493          	slli	s1,a0,0x1
3000cb4c:	0014d493          	srli	s1,s1,0x1
3000cb50:	00812c23          	sw	s0,24(sp)
3000cb54:	0174d413          	srli	s0,s1,0x17
3000cb58:	01212823          	sw	s2,16(sp)
3000cb5c:	00112e23          	sw	ra,28(sp)
3000cb60:	01312623          	sw	s3,12(sp)
3000cb64:	01412423          	sw	s4,8(sp)
3000cb68:	01512223          	sw	s5,4(sp)
3000cb6c:	f8140413          	addi	s0,s0,-127
3000cb70:	01600793          	li	a5,22
3000cb74:	00050913          	mv	s2,a0
3000cb78:	0a87ce63          	blt	a5,s0,3000cc34 <floorf+0xf4>
3000cb7c:	00050a13          	mv	s4,a0
3000cb80:	06044a63          	bltz	s0,3000cbf4 <floorf+0xb4>
3000cb84:	00800ab7          	lui	s5,0x800
3000cb88:	fffa8493          	addi	s1,s5,-1 # 7fffff <stackPointer+0x7f92bf>
3000cb8c:	4084d4b3          	sra	s1,s1,s0
3000cb90:	00a4f7b3          	and	a5,s1,a0
3000cb94:	00050993          	mv	s3,a0
3000cb98:	02078a63          	beqz	a5,3000cbcc <floorf+0x8c>
3000cb9c:	00004797          	auipc	a5,0x4
3000cba0:	e7078793          	addi	a5,a5,-400 # 30010a0c <init_jk+0x2c>
3000cba4:	0007a583          	lw	a1,0(a5)
3000cba8:	289000ef          	jal	ra,3000d630 <__addsf3>
3000cbac:	00000593          	li	a1,0
3000cbb0:	31c010ef          	jal	ra,3000decc <__gesf2>
3000cbb4:	00a05c63          	blez	a0,3000cbcc <floorf+0x8c>
3000cbb8:	00095663          	bgez	s2,3000cbc4 <floorf+0x84>
3000cbbc:	408ad433          	sra	s0,s5,s0
3000cbc0:	01240a33          	add	s4,s0,s2
3000cbc4:	fff4c993          	not	s3,s1
3000cbc8:	0149f9b3          	and	s3,s3,s4
3000cbcc:	01c12083          	lw	ra,28(sp)
3000cbd0:	01812403          	lw	s0,24(sp)
3000cbd4:	00098513          	mv	a0,s3
3000cbd8:	01412483          	lw	s1,20(sp)
3000cbdc:	01012903          	lw	s2,16(sp)
3000cbe0:	00c12983          	lw	s3,12(sp)
3000cbe4:	00812a03          	lw	s4,8(sp)
3000cbe8:	00412a83          	lw	s5,4(sp)
3000cbec:	02010113          	addi	sp,sp,32
3000cbf0:	00008067          	ret
3000cbf4:	00004797          	auipc	a5,0x4
3000cbf8:	e1878793          	addi	a5,a5,-488 # 30010a0c <init_jk+0x2c>
3000cbfc:	0007a583          	lw	a1,0(a5)
3000cc00:	00090993          	mv	s3,s2
3000cc04:	22d000ef          	jal	ra,3000d630 <__addsf3>
3000cc08:	00000593          	li	a1,0
3000cc0c:	2c0010ef          	jal	ra,3000decc <__gesf2>
3000cc10:	faa05ee3          	blez	a0,3000cbcc <floorf+0x8c>
3000cc14:	00000993          	li	s3,0
3000cc18:	fa095ae3          	bgez	s2,3000cbcc <floorf+0x8c>
3000cc1c:	00090993          	mv	s3,s2
3000cc20:	fa0486e3          	beqz	s1,3000cbcc <floorf+0x8c>
3000cc24:	00004797          	auipc	a5,0x4
3000cc28:	de478793          	addi	a5,a5,-540 # 30010a08 <init_jk+0x28>
3000cc2c:	0007a983          	lw	s3,0(a5)
3000cc30:	f9dff06f          	j	3000cbcc <floorf+0x8c>
3000cc34:	7f8007b7          	lui	a5,0x7f800
3000cc38:	00050993          	mv	s3,a0
3000cc3c:	f8f4e8e3          	bltu	s1,a5,3000cbcc <floorf+0x8c>
3000cc40:	00050593          	mv	a1,a0
3000cc44:	1ed000ef          	jal	ra,3000d630 <__addsf3>
3000cc48:	00050993          	mv	s3,a0
3000cc4c:	f81ff06f          	j	3000cbcc <floorf+0x8c>

Disassembly of section .text.scalbnf:

3000cc50 <scalbnf>:
3000cc50:	00151793          	slli	a5,a0,0x1
3000cc54:	0017d793          	srli	a5,a5,0x1
3000cc58:	00050713          	mv	a4,a0
3000cc5c:	06078663          	beqz	a5,3000ccc8 <scalbnf+0x78>
3000cc60:	ff010113          	addi	sp,sp,-16
3000cc64:	00112623          	sw	ra,12(sp)
3000cc68:	00812423          	sw	s0,8(sp)
3000cc6c:	7f800637          	lui	a2,0x7f800
3000cc70:	04c7f063          	bgeu	a5,a2,3000ccb0 <scalbnf+0x60>
3000cc74:	00c576b3          	and	a3,a0,a2
3000cc78:	00058413          	mv	s0,a1
3000cc7c:	04069863          	bnez	a3,3000cccc <scalbnf+0x7c>
3000cc80:	00004797          	auipc	a5,0x4
3000cc84:	d9078793          	addi	a5,a5,-624 # 30010a10 <init_jk+0x30>
3000cc88:	0007a583          	lw	a1,0(a5)
3000cc8c:	3c4010ef          	jal	ra,3000e050 <__mulsf3>
3000cc90:	ffff47b7          	lui	a5,0xffff4
3000cc94:	cb078793          	addi	a5,a5,-848 # ffff3cb0 <__bss_end__+0xcfef3cb0>
3000cc98:	00050713          	mv	a4,a0
3000cc9c:	0af44663          	blt	s0,a5,3000cd48 <scalbnf+0xf8>
3000cca0:	41755793          	srai	a5,a0,0x17
3000cca4:	0ff7f793          	andi	a5,a5,255
3000cca8:	fe778793          	addi	a5,a5,-25
3000ccac:	0240006f          	j	3000ccd0 <scalbnf+0x80>
3000ccb0:	00050593          	mv	a1,a0
3000ccb4:	17d000ef          	jal	ra,3000d630 <__addsf3>
3000ccb8:	00c12083          	lw	ra,12(sp)
3000ccbc:	00812403          	lw	s0,8(sp)
3000ccc0:	01010113          	addi	sp,sp,16
3000ccc4:	00008067          	ret
3000ccc8:	00008067          	ret
3000cccc:	0177d793          	srli	a5,a5,0x17
3000ccd0:	008787b3          	add	a5,a5,s0
3000ccd4:	0fe00693          	li	a3,254
3000ccd8:	00f6ce63          	blt	a3,a5,3000ccf4 <scalbnf+0xa4>
3000ccdc:	04f04463          	bgtz	a5,3000cd24 <scalbnf+0xd4>
3000cce0:	fea00693          	li	a3,-22
3000cce4:	06d7dc63          	bge	a5,a3,3000cd5c <scalbnf+0x10c>
3000cce8:	0000c7b7          	lui	a5,0xc
3000ccec:	35078793          	addi	a5,a5,848 # c350 <stackPointer+0x5610>
3000ccf0:	0887dc63          	bge	a5,s0,3000cd88 <scalbnf+0x138>
3000ccf4:	00004797          	auipc	a5,0x4
3000ccf8:	d2478793          	addi	a5,a5,-732 # 30010a18 <init_jk+0x38>
3000ccfc:	0007a403          	lw	s0,0(a5)
3000cd00:	00070593          	mv	a1,a4
3000cd04:	00040513          	mv	a0,s0
3000cd08:	08c000ef          	jal	ra,3000cd94 <copysignf>
3000cd0c:	00040593          	mv	a1,s0
3000cd10:	340010ef          	jal	ra,3000e050 <__mulsf3>
3000cd14:	00c12083          	lw	ra,12(sp)
3000cd18:	00812403          	lw	s0,8(sp)
3000cd1c:	01010113          	addi	sp,sp,16
3000cd20:	00008067          	ret
3000cd24:	00c12083          	lw	ra,12(sp)
3000cd28:	00812403          	lw	s0,8(sp)
3000cd2c:	80800737          	lui	a4,0x80800
3000cd30:	fff70713          	addi	a4,a4,-1 # 807fffff <__bss_end__+0x506fffff>
3000cd34:	00e57533          	and	a0,a0,a4
3000cd38:	01779793          	slli	a5,a5,0x17
3000cd3c:	00f56533          	or	a0,a0,a5
3000cd40:	01010113          	addi	sp,sp,16
3000cd44:	00008067          	ret
3000cd48:	00004797          	auipc	a5,0x4
3000cd4c:	ccc78793          	addi	a5,a5,-820 # 30010a14 <init_jk+0x34>
3000cd50:	0007a583          	lw	a1,0(a5)
3000cd54:	2fc010ef          	jal	ra,3000e050 <__mulsf3>
3000cd58:	f61ff06f          	j	3000ccb8 <scalbnf+0x68>
3000cd5c:	00004717          	auipc	a4,0x4
3000cd60:	cc070713          	addi	a4,a4,-832 # 30010a1c <init_jk+0x3c>
3000cd64:	00072583          	lw	a1,0(a4)
3000cd68:	80800737          	lui	a4,0x80800
3000cd6c:	fff70713          	addi	a4,a4,-1 # 807fffff <__bss_end__+0x506fffff>
3000cd70:	01978793          	addi	a5,a5,25
3000cd74:	01779793          	slli	a5,a5,0x17
3000cd78:	00e57533          	and	a0,a0,a4
3000cd7c:	00a7e533          	or	a0,a5,a0
3000cd80:	2d0010ef          	jal	ra,3000e050 <__mulsf3>
3000cd84:	f35ff06f          	j	3000ccb8 <scalbnf+0x68>
3000cd88:	00004797          	auipc	a5,0x4
3000cd8c:	c8c78793          	addi	a5,a5,-884 # 30010a14 <init_jk+0x34>
3000cd90:	f6dff06f          	j	3000ccfc <scalbnf+0xac>

Disassembly of section .text.copysignf:

3000cd94 <copysignf>:
3000cd94:	800007b7          	lui	a5,0x80000
3000cd98:	fff7c713          	not	a4,a5
3000cd9c:	00e57533          	and	a0,a0,a4
3000cda0:	00b7f5b3          	and	a1,a5,a1
3000cda4:	00b56533          	or	a0,a0,a1
3000cda8:	00008067          	ret

Disassembly of section .text.__adddf3:

3000cdac <__adddf3>:
3000cdac:	00100837          	lui	a6,0x100
3000cdb0:	fe010113          	addi	sp,sp,-32
3000cdb4:	fff80813          	addi	a6,a6,-1 # fffff <stackPointer+0xf92bf>
3000cdb8:	00b87733          	and	a4,a6,a1
3000cdbc:	00912a23          	sw	s1,20(sp)
3000cdc0:	00d87833          	and	a6,a6,a3
3000cdc4:	0145d493          	srli	s1,a1,0x14
3000cdc8:	0146d313          	srli	t1,a3,0x14
3000cdcc:	00371e13          	slli	t3,a4,0x3
3000cdd0:	01312623          	sw	s3,12(sp)
3000cdd4:	01d55713          	srli	a4,a0,0x1d
3000cdd8:	00381813          	slli	a6,a6,0x3
3000cddc:	01d65793          	srli	a5,a2,0x1d
3000cde0:	7ff4f493          	andi	s1,s1,2047
3000cde4:	7ff37313          	andi	t1,t1,2047
3000cde8:	00112e23          	sw	ra,28(sp)
3000cdec:	00812c23          	sw	s0,24(sp)
3000cdf0:	01212823          	sw	s2,16(sp)
3000cdf4:	01f5d993          	srli	s3,a1,0x1f
3000cdf8:	01f6de93          	srli	t4,a3,0x1f
3000cdfc:	01c76733          	or	a4,a4,t3
3000ce00:	00351f13          	slli	t5,a0,0x3
3000ce04:	0107e833          	or	a6,a5,a6
3000ce08:	00361f93          	slli	t6,a2,0x3
3000ce0c:	40648e33          	sub	t3,s1,t1
3000ce10:	1dd98463          	beq	s3,t4,3000cfd8 <__adddf3+0x22c>
3000ce14:	17c05863          	blez	t3,3000cf84 <__adddf3+0x1d8>
3000ce18:	20030a63          	beqz	t1,3000d02c <__adddf3+0x280>
3000ce1c:	008006b7          	lui	a3,0x800
3000ce20:	7ff00793          	li	a5,2047
3000ce24:	00d86833          	or	a6,a6,a3
3000ce28:	40f48e63          	beq	s1,a5,3000d244 <__adddf3+0x498>
3000ce2c:	03800793          	li	a5,56
3000ce30:	3dc7ca63          	blt	a5,t3,3000d204 <__adddf3+0x458>
3000ce34:	01f00793          	li	a5,31
3000ce38:	55c7c663          	blt	a5,t3,3000d384 <__adddf3+0x5d8>
3000ce3c:	02000513          	li	a0,32
3000ce40:	41c50533          	sub	a0,a0,t3
3000ce44:	01cfd7b3          	srl	a5,t6,t3
3000ce48:	00a816b3          	sll	a3,a6,a0
3000ce4c:	00af9933          	sll	s2,t6,a0
3000ce50:	00f6e6b3          	or	a3,a3,a5
3000ce54:	01203933          	snez	s2,s2
3000ce58:	01c857b3          	srl	a5,a6,t3
3000ce5c:	0126e933          	or	s2,a3,s2
3000ce60:	40f70733          	sub	a4,a4,a5
3000ce64:	412f0933          	sub	s2,t5,s2
3000ce68:	012f37b3          	sltu	a5,t5,s2
3000ce6c:	40f70633          	sub	a2,a4,a5
3000ce70:	00861793          	slli	a5,a2,0x8
3000ce74:	2a07d263          	bgez	a5,3000d118 <__adddf3+0x36c>
3000ce78:	00800737          	lui	a4,0x800
3000ce7c:	fff70713          	addi	a4,a4,-1 # 7fffff <stackPointer+0x7f92bf>
3000ce80:	00e67433          	and	s0,a2,a4
3000ce84:	34040e63          	beqz	s0,3000d1e0 <__adddf3+0x434>
3000ce88:	00040513          	mv	a0,s0
3000ce8c:	649010ef          	jal	ra,3000ecd4 <__clzsi2>
3000ce90:	ff850713          	addi	a4,a0,-8
3000ce94:	02000793          	li	a5,32
3000ce98:	40e787b3          	sub	a5,a5,a4
3000ce9c:	00f957b3          	srl	a5,s2,a5
3000cea0:	00e41633          	sll	a2,s0,a4
3000cea4:	00c7e7b3          	or	a5,a5,a2
3000cea8:	00e91933          	sll	s2,s2,a4
3000ceac:	30974c63          	blt	a4,s1,3000d1c4 <__adddf3+0x418>
3000ceb0:	40970533          	sub	a0,a4,s1
3000ceb4:	00150613          	addi	a2,a0,1
3000ceb8:	01f00713          	li	a4,31
3000cebc:	44c74663          	blt	a4,a2,3000d308 <__adddf3+0x55c>
3000cec0:	02000713          	li	a4,32
3000cec4:	40c70733          	sub	a4,a4,a2
3000cec8:	00c956b3          	srl	a3,s2,a2
3000cecc:	00e91933          	sll	s2,s2,a4
3000ced0:	00e79733          	sll	a4,a5,a4
3000ced4:	00d76733          	or	a4,a4,a3
3000ced8:	01203933          	snez	s2,s2
3000cedc:	01276933          	or	s2,a4,s2
3000cee0:	00c7d633          	srl	a2,a5,a2
3000cee4:	00000493          	li	s1,0
3000cee8:	00797793          	andi	a5,s2,7
3000ceec:	02078063          	beqz	a5,3000cf0c <__adddf3+0x160>
3000cef0:	00f97713          	andi	a4,s2,15
3000cef4:	00400793          	li	a5,4
3000cef8:	00f70a63          	beq	a4,a5,3000cf0c <__adddf3+0x160>
3000cefc:	00490713          	addi	a4,s2,4
3000cf00:	01273933          	sltu	s2,a4,s2
3000cf04:	01260633          	add	a2,a2,s2
3000cf08:	00070913          	mv	s2,a4
3000cf0c:	00861793          	slli	a5,a2,0x8
3000cf10:	2007d863          	bgez	a5,3000d120 <__adddf3+0x374>
3000cf14:	00148513          	addi	a0,s1,1
3000cf18:	7ff00793          	li	a5,2047
3000cf1c:	00098593          	mv	a1,s3
3000cf20:	24f50c63          	beq	a0,a5,3000d178 <__adddf3+0x3cc>
3000cf24:	ff8007b7          	lui	a5,0xff800
3000cf28:	fff78793          	addi	a5,a5,-1 # ff7fffff <__bss_end__+0xcf6fffff>
3000cf2c:	00f677b3          	and	a5,a2,a5
3000cf30:	01d79893          	slli	a7,a5,0x1d
3000cf34:	00395913          	srli	s2,s2,0x3
3000cf38:	00979793          	slli	a5,a5,0x9
3000cf3c:	0128e8b3          	or	a7,a7,s2
3000cf40:	00c7d793          	srli	a5,a5,0xc
3000cf44:	7ff57513          	andi	a0,a0,2047
3000cf48:	00c79693          	slli	a3,a5,0xc
3000cf4c:	01451513          	slli	a0,a0,0x14
3000cf50:	01c12083          	lw	ra,28(sp)
3000cf54:	01812403          	lw	s0,24(sp)
3000cf58:	00c6d693          	srli	a3,a3,0xc
3000cf5c:	01f59593          	slli	a1,a1,0x1f
3000cf60:	00a6e6b3          	or	a3,a3,a0
3000cf64:	00b6e6b3          	or	a3,a3,a1
3000cf68:	01412483          	lw	s1,20(sp)
3000cf6c:	01012903          	lw	s2,16(sp)
3000cf70:	00c12983          	lw	s3,12(sp)
3000cf74:	00088513          	mv	a0,a7
3000cf78:	00068593          	mv	a1,a3
3000cf7c:	02010113          	addi	sp,sp,32
3000cf80:	00008067          	ret
3000cf84:	0c0e1463          	bnez	t3,3000d04c <__adddf3+0x2a0>
3000cf88:	00148313          	addi	t1,s1,1
3000cf8c:	7fe37313          	andi	t1,t1,2046
3000cf90:	28031063          	bnez	t1,3000d210 <__adddf3+0x464>
3000cf94:	01e767b3          	or	a5,a4,t5
3000cf98:	01f868b3          	or	a7,a6,t6
3000cf9c:	1e049663          	bnez	s1,3000d188 <__adddf3+0x3dc>
3000cfa0:	4c078063          	beqz	a5,3000d460 <__adddf3+0x6b4>
3000cfa4:	50088863          	beqz	a7,3000d4b4 <__adddf3+0x708>
3000cfa8:	41ff0933          	sub	s2,t5,t6
3000cfac:	410707b3          	sub	a5,a4,a6
3000cfb0:	012f3633          	sltu	a2,t5,s2
3000cfb4:	40c78633          	sub	a2,a5,a2
3000cfb8:	00861793          	slli	a5,a2,0x8
3000cfbc:	5a07d463          	bgez	a5,3000d564 <__adddf3+0x7b8>
3000cfc0:	41ef8933          	sub	s2,t6,t5
3000cfc4:	40e807b3          	sub	a5,a6,a4
3000cfc8:	012fb633          	sltu	a2,t6,s2
3000cfcc:	40c78633          	sub	a2,a5,a2
3000cfd0:	000e8993          	mv	s3,t4
3000cfd4:	f15ff06f          	j	3000cee8 <__adddf3+0x13c>
3000cfd8:	0fc05a63          	blez	t3,3000d0cc <__adddf3+0x320>
3000cfdc:	0c030863          	beqz	t1,3000d0ac <__adddf3+0x300>
3000cfe0:	008006b7          	lui	a3,0x800
3000cfe4:	7ff00793          	li	a5,2047
3000cfe8:	00d86833          	or	a6,a6,a3
3000cfec:	44f48e63          	beq	s1,a5,3000d448 <__adddf3+0x69c>
3000cff0:	03800793          	li	a5,56
3000cff4:	15c7cc63          	blt	a5,t3,3000d14c <__adddf3+0x3a0>
3000cff8:	01f00793          	li	a5,31
3000cffc:	3fc7da63          	bge	a5,t3,3000d3f0 <__adddf3+0x644>
3000d000:	fe0e0913          	addi	s2,t3,-32
3000d004:	02000793          	li	a5,32
3000d008:	012856b3          	srl	a3,a6,s2
3000d00c:	00fe0a63          	beq	t3,a5,3000d020 <__adddf3+0x274>
3000d010:	04000913          	li	s2,64
3000d014:	41c90933          	sub	s2,s2,t3
3000d018:	01281933          	sll	s2,a6,s2
3000d01c:	012fefb3          	or	t6,t6,s2
3000d020:	01f03933          	snez	s2,t6
3000d024:	00d96933          	or	s2,s2,a3
3000d028:	12c0006f          	j	3000d154 <__adddf3+0x3a8>
3000d02c:	01f867b3          	or	a5,a6,t6
3000d030:	22078663          	beqz	a5,3000d25c <__adddf3+0x4b0>
3000d034:	fffe0793          	addi	a5,t3,-1
3000d038:	44078463          	beqz	a5,3000d480 <__adddf3+0x6d4>
3000d03c:	7ff00693          	li	a3,2047
3000d040:	20de0263          	beq	t3,a3,3000d244 <__adddf3+0x498>
3000d044:	00078e13          	mv	t3,a5
3000d048:	de5ff06f          	j	3000ce2c <__adddf3+0x80>
3000d04c:	409305b3          	sub	a1,t1,s1
3000d050:	28049663          	bnez	s1,3000d2dc <__adddf3+0x530>
3000d054:	01e767b3          	or	a5,a4,t5
3000d058:	3c078263          	beqz	a5,3000d41c <__adddf3+0x670>
3000d05c:	fff58793          	addi	a5,a1,-1
3000d060:	50078c63          	beqz	a5,3000d578 <__adddf3+0x7cc>
3000d064:	7ff00693          	li	a3,2047
3000d068:	28d58263          	beq	a1,a3,3000d2ec <__adddf3+0x540>
3000d06c:	00078593          	mv	a1,a5
3000d070:	03800793          	li	a5,56
3000d074:	32b7ce63          	blt	a5,a1,3000d3b0 <__adddf3+0x604>
3000d078:	01f00793          	li	a5,31
3000d07c:	4ab7c263          	blt	a5,a1,3000d520 <__adddf3+0x774>
3000d080:	02000793          	li	a5,32
3000d084:	40b787b3          	sub	a5,a5,a1
3000d088:	00f71933          	sll	s2,a4,a5
3000d08c:	00bf56b3          	srl	a3,t5,a1
3000d090:	00ff17b3          	sll	a5,t5,a5
3000d094:	00d96933          	or	s2,s2,a3
3000d098:	00f037b3          	snez	a5,a5
3000d09c:	00b75733          	srl	a4,a4,a1
3000d0a0:	00f96933          	or	s2,s2,a5
3000d0a4:	40e80833          	sub	a6,a6,a4
3000d0a8:	3100006f          	j	3000d3b8 <__adddf3+0x60c>
3000d0ac:	01f867b3          	or	a5,a6,t6
3000d0b0:	3e078463          	beqz	a5,3000d498 <__adddf3+0x6ec>
3000d0b4:	fffe0793          	addi	a5,t3,-1
3000d0b8:	28078263          	beqz	a5,3000d33c <__adddf3+0x590>
3000d0bc:	7ff00693          	li	a3,2047
3000d0c0:	38de0463          	beq	t3,a3,3000d448 <__adddf3+0x69c>
3000d0c4:	00078e13          	mv	t3,a5
3000d0c8:	f29ff06f          	j	3000cff0 <__adddf3+0x244>
3000d0cc:	1a0e1663          	bnez	t3,3000d278 <__adddf3+0x4cc>
3000d0d0:	00148693          	addi	a3,s1,1
3000d0d4:	7fe6f793          	andi	a5,a3,2046
3000d0d8:	3e079a63          	bnez	a5,3000d4cc <__adddf3+0x720>
3000d0dc:	01e767b3          	or	a5,a4,t5
3000d0e0:	34049e63          	bnez	s1,3000d43c <__adddf3+0x690>
3000d0e4:	4a078863          	beqz	a5,3000d594 <__adddf3+0x7e8>
3000d0e8:	01f867b3          	or	a5,a6,t6
3000d0ec:	3c078463          	beqz	a5,3000d4b4 <__adddf3+0x708>
3000d0f0:	01ff0933          	add	s2,t5,t6
3000d0f4:	010707b3          	add	a5,a4,a6
3000d0f8:	01e93f33          	sltu	t5,s2,t5
3000d0fc:	01e78633          	add	a2,a5,t5
3000d100:	00861793          	slli	a5,a2,0x8
3000d104:	0007da63          	bgez	a5,3000d118 <__adddf3+0x36c>
3000d108:	ff8007b7          	lui	a5,0xff800
3000d10c:	fff78793          	addi	a5,a5,-1 # ff7fffff <__bss_end__+0xcf6fffff>
3000d110:	00f67633          	and	a2,a2,a5
3000d114:	00100493          	li	s1,1
3000d118:	00797793          	andi	a5,s2,7
3000d11c:	dc079ae3          	bnez	a5,3000cef0 <__adddf3+0x144>
3000d120:	01d61793          	slli	a5,a2,0x1d
3000d124:	00395893          	srli	a7,s2,0x3
3000d128:	00f8e8b3          	or	a7,a7,a5
3000d12c:	00365793          	srli	a5,a2,0x3
3000d130:	7ff00713          	li	a4,2047
3000d134:	06e48a63          	beq	s1,a4,3000d1a8 <__adddf3+0x3fc>
3000d138:	00c79793          	slli	a5,a5,0xc
3000d13c:	00c7d793          	srli	a5,a5,0xc
3000d140:	7ff4f513          	andi	a0,s1,2047
3000d144:	00098593          	mv	a1,s3
3000d148:	e01ff06f          	j	3000cf48 <__adddf3+0x19c>
3000d14c:	01f86933          	or	s2,a6,t6
3000d150:	01203933          	snez	s2,s2
3000d154:	01e90933          	add	s2,s2,t5
3000d158:	01e937b3          	sltu	a5,s2,t5
3000d15c:	00e78633          	add	a2,a5,a4
3000d160:	00861793          	slli	a5,a2,0x8
3000d164:	fa07dae3          	bgez	a5,3000d118 <__adddf3+0x36c>
3000d168:	00148493          	addi	s1,s1,1
3000d16c:	7ff00793          	li	a5,2047
3000d170:	1ef49663          	bne	s1,a5,3000d35c <__adddf3+0x5b0>
3000d174:	00098593          	mv	a1,s3
3000d178:	7ff00513          	li	a0,2047
3000d17c:	00000793          	li	a5,0
3000d180:	00000893          	li	a7,0
3000d184:	dc5ff06f          	j	3000cf48 <__adddf3+0x19c>
3000d188:	0a079c63          	bnez	a5,3000d240 <__adddf3+0x494>
3000d18c:	46088463          	beqz	a7,3000d5f4 <__adddf3+0x848>
3000d190:	00361693          	slli	a3,a2,0x3
3000d194:	01d81793          	slli	a5,a6,0x1d
3000d198:	0036d693          	srli	a3,a3,0x3
3000d19c:	00d7e8b3          	or	a7,a5,a3
3000d1a0:	000e8993          	mv	s3,t4
3000d1a4:	00385793          	srli	a5,a6,0x3
3000d1a8:	00f8e7b3          	or	a5,a7,a5
3000d1ac:	fc0784e3          	beqz	a5,3000d174 <__adddf3+0x3c8>
3000d1b0:	00000593          	li	a1,0
3000d1b4:	7ff00513          	li	a0,2047
3000d1b8:	000807b7          	lui	a5,0x80
3000d1bc:	00000893          	li	a7,0
3000d1c0:	d89ff06f          	j	3000cf48 <__adddf3+0x19c>
3000d1c4:	ff800637          	lui	a2,0xff800
3000d1c8:	fff60613          	addi	a2,a2,-1 # ff7fffff <__bss_end__+0xcf6fffff>
3000d1cc:	00c7f633          	and	a2,a5,a2
3000d1d0:	00797793          	andi	a5,s2,7
3000d1d4:	40e484b3          	sub	s1,s1,a4
3000d1d8:	d0079ce3          	bnez	a5,3000cef0 <__adddf3+0x144>
3000d1dc:	f45ff06f          	j	3000d120 <__adddf3+0x374>
3000d1e0:	00090513          	mv	a0,s2
3000d1e4:	2f1010ef          	jal	ra,3000ecd4 <__clzsi2>
3000d1e8:	01850713          	addi	a4,a0,24
3000d1ec:	01f00793          	li	a5,31
3000d1f0:	cae7d2e3          	bge	a5,a4,3000ce94 <__adddf3+0xe8>
3000d1f4:	ff850613          	addi	a2,a0,-8
3000d1f8:	00c917b3          	sll	a5,s2,a2
3000d1fc:	00000913          	li	s2,0
3000d200:	cadff06f          	j	3000ceac <__adddf3+0x100>
3000d204:	01f86933          	or	s2,a6,t6
3000d208:	01203933          	snez	s2,s2
3000d20c:	c59ff06f          	j	3000ce64 <__adddf3+0xb8>
3000d210:	41ff0933          	sub	s2,t5,t6
3000d214:	41070633          	sub	a2,a4,a6
3000d218:	012f3433          	sltu	s0,t5,s2
3000d21c:	40860433          	sub	s0,a2,s0
3000d220:	00841793          	slli	a5,s0,0x8
3000d224:	2c07cc63          	bltz	a5,3000d4fc <__adddf3+0x750>
3000d228:	008968b3          	or	a7,s2,s0
3000d22c:	c4089ce3          	bnez	a7,3000ce84 <__adddf3+0xd8>
3000d230:	00000793          	li	a5,0
3000d234:	00000993          	li	s3,0
3000d238:	00000493          	li	s1,0
3000d23c:	efdff06f          	j	3000d138 <__adddf3+0x38c>
3000d240:	f60898e3          	bnez	a7,3000d1b0 <__adddf3+0x404>
3000d244:	00351513          	slli	a0,a0,0x3
3000d248:	01d71793          	slli	a5,a4,0x1d
3000d24c:	00355513          	srli	a0,a0,0x3
3000d250:	00a7e8b3          	or	a7,a5,a0
3000d254:	00375793          	srli	a5,a4,0x3
3000d258:	f51ff06f          	j	3000d1a8 <__adddf3+0x3fc>
3000d25c:	00351513          	slli	a0,a0,0x3
3000d260:	01d71793          	slli	a5,a4,0x1d
3000d264:	00355513          	srli	a0,a0,0x3
3000d268:	00a7e8b3          	or	a7,a5,a0
3000d26c:	000e0493          	mv	s1,t3
3000d270:	00375793          	srli	a5,a4,0x3
3000d274:	ebdff06f          	j	3000d130 <__adddf3+0x384>
3000d278:	40930533          	sub	a0,t1,s1
3000d27c:	14048a63          	beqz	s1,3000d3d0 <__adddf3+0x624>
3000d280:	008006b7          	lui	a3,0x800
3000d284:	7ff00793          	li	a5,2047
3000d288:	00d76733          	or	a4,a4,a3
3000d28c:	38f30663          	beq	t1,a5,3000d618 <__adddf3+0x86c>
3000d290:	03800793          	li	a5,56
3000d294:	28a7c063          	blt	a5,a0,3000d514 <__adddf3+0x768>
3000d298:	01f00793          	li	a5,31
3000d29c:	32a7c663          	blt	a5,a0,3000d5c8 <__adddf3+0x81c>
3000d2a0:	02000793          	li	a5,32
3000d2a4:	40a787b3          	sub	a5,a5,a0
3000d2a8:	00f71933          	sll	s2,a4,a5
3000d2ac:	00af56b3          	srl	a3,t5,a0
3000d2b0:	00ff17b3          	sll	a5,t5,a5
3000d2b4:	00d96933          	or	s2,s2,a3
3000d2b8:	00f037b3          	snez	a5,a5
3000d2bc:	00a75733          	srl	a4,a4,a0
3000d2c0:	00f96933          	or	s2,s2,a5
3000d2c4:	00e80833          	add	a6,a6,a4
3000d2c8:	01f90933          	add	s2,s2,t6
3000d2cc:	01f937b3          	sltu	a5,s2,t6
3000d2d0:	01078633          	add	a2,a5,a6
3000d2d4:	00030493          	mv	s1,t1
3000d2d8:	e89ff06f          	j	3000d160 <__adddf3+0x3b4>
3000d2dc:	008006b7          	lui	a3,0x800
3000d2e0:	7ff00793          	li	a5,2047
3000d2e4:	00d76733          	or	a4,a4,a3
3000d2e8:	d8f314e3          	bne	t1,a5,3000d070 <__adddf3+0x2c4>
3000d2ec:	00361793          	slli	a5,a2,0x3
3000d2f0:	0037d793          	srli	a5,a5,0x3
3000d2f4:	01d81893          	slli	a7,a6,0x1d
3000d2f8:	0117e8b3          	or	a7,a5,a7
3000d2fc:	000e8993          	mv	s3,t4
3000d300:	00385793          	srli	a5,a6,0x3
3000d304:	ea5ff06f          	j	3000d1a8 <__adddf3+0x3fc>
3000d308:	fe150713          	addi	a4,a0,-31
3000d30c:	02000693          	li	a3,32
3000d310:	00e7d733          	srl	a4,a5,a4
3000d314:	00d60a63          	beq	a2,a3,3000d328 <__adddf3+0x57c>
3000d318:	04000693          	li	a3,64
3000d31c:	40c68633          	sub	a2,a3,a2
3000d320:	00c79633          	sll	a2,a5,a2
3000d324:	00c96933          	or	s2,s2,a2
3000d328:	01203933          	snez	s2,s2
3000d32c:	00e96933          	or	s2,s2,a4
3000d330:	00000613          	li	a2,0
3000d334:	00000493          	li	s1,0
3000d338:	de1ff06f          	j	3000d118 <__adddf3+0x36c>
3000d33c:	01ff0933          	add	s2,t5,t6
3000d340:	010707b3          	add	a5,a4,a6
3000d344:	01e93633          	sltu	a2,s2,t5
3000d348:	00c78633          	add	a2,a5,a2
3000d34c:	00861793          	slli	a5,a2,0x8
3000d350:	00100493          	li	s1,1
3000d354:	dc07d2e3          	bgez	a5,3000d118 <__adddf3+0x36c>
3000d358:	00200493          	li	s1,2
3000d35c:	ff8007b7          	lui	a5,0xff800
3000d360:	fff78793          	addi	a5,a5,-1 # ff7fffff <__bss_end__+0xcf6fffff>
3000d364:	00f677b3          	and	a5,a2,a5
3000d368:	00195713          	srli	a4,s2,0x1
3000d36c:	00197913          	andi	s2,s2,1
3000d370:	01276933          	or	s2,a4,s2
3000d374:	01f79893          	slli	a7,a5,0x1f
3000d378:	0128e933          	or	s2,a7,s2
3000d37c:	0017d613          	srli	a2,a5,0x1
3000d380:	b69ff06f          	j	3000cee8 <__adddf3+0x13c>
3000d384:	fe0e0913          	addi	s2,t3,-32
3000d388:	02000793          	li	a5,32
3000d38c:	012856b3          	srl	a3,a6,s2
3000d390:	00fe0a63          	beq	t3,a5,3000d3a4 <__adddf3+0x5f8>
3000d394:	04000913          	li	s2,64
3000d398:	41c90933          	sub	s2,s2,t3
3000d39c:	01281933          	sll	s2,a6,s2
3000d3a0:	012fefb3          	or	t6,t6,s2
3000d3a4:	01f03933          	snez	s2,t6
3000d3a8:	00d96933          	or	s2,s2,a3
3000d3ac:	ab9ff06f          	j	3000ce64 <__adddf3+0xb8>
3000d3b0:	01e76933          	or	s2,a4,t5
3000d3b4:	01203933          	snez	s2,s2
3000d3b8:	412f8933          	sub	s2,t6,s2
3000d3bc:	012fb7b3          	sltu	a5,t6,s2
3000d3c0:	40f80633          	sub	a2,a6,a5
3000d3c4:	00030493          	mv	s1,t1
3000d3c8:	000e8993          	mv	s3,t4
3000d3cc:	aa5ff06f          	j	3000ce70 <__adddf3+0xc4>
3000d3d0:	01e767b3          	or	a5,a4,t5
3000d3d4:	1c078c63          	beqz	a5,3000d5ac <__adddf3+0x800>
3000d3d8:	fff50793          	addi	a5,a0,-1
3000d3dc:	22078463          	beqz	a5,3000d604 <__adddf3+0x858>
3000d3e0:	7ff00693          	li	a3,2047
3000d3e4:	16d50463          	beq	a0,a3,3000d54c <__adddf3+0x7a0>
3000d3e8:	00078513          	mv	a0,a5
3000d3ec:	ea5ff06f          	j	3000d290 <__adddf3+0x4e4>
3000d3f0:	02000793          	li	a5,32
3000d3f4:	41c787b3          	sub	a5,a5,t3
3000d3f8:	00f816b3          	sll	a3,a6,a5
3000d3fc:	00ff9933          	sll	s2,t6,a5
3000d400:	01cfd633          	srl	a2,t6,t3
3000d404:	00c6e6b3          	or	a3,a3,a2
3000d408:	01203933          	snez	s2,s2
3000d40c:	01c857b3          	srl	a5,a6,t3
3000d410:	0126e933          	or	s2,a3,s2
3000d414:	00f70733          	add	a4,a4,a5
3000d418:	d3dff06f          	j	3000d154 <__adddf3+0x3a8>
3000d41c:	00361793          	slli	a5,a2,0x3
3000d420:	0037d793          	srli	a5,a5,0x3
3000d424:	01d81893          	slli	a7,a6,0x1d
3000d428:	0117e8b3          	or	a7,a5,a7
3000d42c:	00058493          	mv	s1,a1
3000d430:	00385793          	srli	a5,a6,0x3
3000d434:	000e8993          	mv	s3,t4
3000d438:	cf9ff06f          	j	3000d130 <__adddf3+0x384>
3000d43c:	10078863          	beqz	a5,3000d54c <__adddf3+0x7a0>
3000d440:	01f86933          	or	s2,a6,t6
3000d444:	d60916e3          	bnez	s2,3000d1b0 <__adddf3+0x404>
3000d448:	00351513          	slli	a0,a0,0x3
3000d44c:	01d71793          	slli	a5,a4,0x1d
3000d450:	00355513          	srli	a0,a0,0x3
3000d454:	00f568b3          	or	a7,a0,a5
3000d458:	00375793          	srli	a5,a4,0x3
3000d45c:	d4dff06f          	j	3000d1a8 <__adddf3+0x3fc>
3000d460:	10088663          	beqz	a7,3000d56c <__adddf3+0x7c0>
3000d464:	00361693          	slli	a3,a2,0x3
3000d468:	01d81793          	slli	a5,a6,0x1d
3000d46c:	0036d693          	srli	a3,a3,0x3
3000d470:	00d7e8b3          	or	a7,a5,a3
3000d474:	000e8993          	mv	s3,t4
3000d478:	00385793          	srli	a5,a6,0x3
3000d47c:	cbdff06f          	j	3000d138 <__adddf3+0x38c>
3000d480:	41ff0933          	sub	s2,t5,t6
3000d484:	410707b3          	sub	a5,a4,a6
3000d488:	012f3f33          	sltu	t5,t5,s2
3000d48c:	41e78633          	sub	a2,a5,t5
3000d490:	00100493          	li	s1,1
3000d494:	9ddff06f          	j	3000ce70 <__adddf3+0xc4>
3000d498:	00351513          	slli	a0,a0,0x3
3000d49c:	01d71793          	slli	a5,a4,0x1d
3000d4a0:	00355513          	srli	a0,a0,0x3
3000d4a4:	00f568b3          	or	a7,a0,a5
3000d4a8:	000e0493          	mv	s1,t3
3000d4ac:	00375793          	srli	a5,a4,0x3
3000d4b0:	c81ff06f          	j	3000d130 <__adddf3+0x384>
3000d4b4:	00351513          	slli	a0,a0,0x3
3000d4b8:	01d71793          	slli	a5,a4,0x1d
3000d4bc:	00355513          	srli	a0,a0,0x3
3000d4c0:	00a7e8b3          	or	a7,a5,a0
3000d4c4:	00375793          	srli	a5,a4,0x3
3000d4c8:	c71ff06f          	j	3000d138 <__adddf3+0x38c>
3000d4cc:	7ff00793          	li	a5,2047
3000d4d0:	caf682e3          	beq	a3,a5,3000d174 <__adddf3+0x3c8>
3000d4d4:	01ff0933          	add	s2,t5,t6
3000d4d8:	01e93633          	sltu	a2,s2,t5
3000d4dc:	010707b3          	add	a5,a4,a6
3000d4e0:	00c787b3          	add	a5,a5,a2
3000d4e4:	01f79893          	slli	a7,a5,0x1f
3000d4e8:	00195913          	srli	s2,s2,0x1
3000d4ec:	0128e933          	or	s2,a7,s2
3000d4f0:	0017d613          	srli	a2,a5,0x1
3000d4f4:	00068493          	mv	s1,a3
3000d4f8:	c21ff06f          	j	3000d118 <__adddf3+0x36c>
3000d4fc:	41ef8933          	sub	s2,t6,t5
3000d500:	40e80733          	sub	a4,a6,a4
3000d504:	012fb633          	sltu	a2,t6,s2
3000d508:	40c70433          	sub	s0,a4,a2
3000d50c:	000e8993          	mv	s3,t4
3000d510:	975ff06f          	j	3000ce84 <__adddf3+0xd8>
3000d514:	01e76933          	or	s2,a4,t5
3000d518:	01203933          	snez	s2,s2
3000d51c:	dadff06f          	j	3000d2c8 <__adddf3+0x51c>
3000d520:	fe058793          	addi	a5,a1,-32
3000d524:	02000693          	li	a3,32
3000d528:	00f757b3          	srl	a5,a4,a5
3000d52c:	00d58a63          	beq	a1,a3,3000d540 <__adddf3+0x794>
3000d530:	04000693          	li	a3,64
3000d534:	40b685b3          	sub	a1,a3,a1
3000d538:	00b71733          	sll	a4,a4,a1
3000d53c:	00ef6f33          	or	t5,t5,a4
3000d540:	01e03933          	snez	s2,t5
3000d544:	00f96933          	or	s2,s2,a5
3000d548:	e71ff06f          	j	3000d3b8 <__adddf3+0x60c>
3000d54c:	00361793          	slli	a5,a2,0x3
3000d550:	0037d793          	srli	a5,a5,0x3
3000d554:	01d81893          	slli	a7,a6,0x1d
3000d558:	0117e8b3          	or	a7,a5,a7
3000d55c:	00385793          	srli	a5,a6,0x3
3000d560:	c49ff06f          	j	3000d1a8 <__adddf3+0x3fc>
3000d564:	00c968b3          	or	a7,s2,a2
3000d568:	ba0898e3          	bnez	a7,3000d118 <__adddf3+0x36c>
3000d56c:	00000793          	li	a5,0
3000d570:	00000993          	li	s3,0
3000d574:	bc5ff06f          	j	3000d138 <__adddf3+0x38c>
3000d578:	41ef8933          	sub	s2,t6,t5
3000d57c:	40e807b3          	sub	a5,a6,a4
3000d580:	012fb633          	sltu	a2,t6,s2
3000d584:	40c78633          	sub	a2,a5,a2
3000d588:	000e8993          	mv	s3,t4
3000d58c:	00100493          	li	s1,1
3000d590:	8e1ff06f          	j	3000ce70 <__adddf3+0xc4>
3000d594:	00361693          	slli	a3,a2,0x3
3000d598:	01d81793          	slli	a5,a6,0x1d
3000d59c:	0036d693          	srli	a3,a3,0x3
3000d5a0:	00d7e8b3          	or	a7,a5,a3
3000d5a4:	00385793          	srli	a5,a6,0x3
3000d5a8:	b91ff06f          	j	3000d138 <__adddf3+0x38c>
3000d5ac:	00361693          	slli	a3,a2,0x3
3000d5b0:	01d81793          	slli	a5,a6,0x1d
3000d5b4:	0036d693          	srli	a3,a3,0x3
3000d5b8:	00d7e8b3          	or	a7,a5,a3
3000d5bc:	00050493          	mv	s1,a0
3000d5c0:	00385793          	srli	a5,a6,0x3
3000d5c4:	b6dff06f          	j	3000d130 <__adddf3+0x384>
3000d5c8:	fe050793          	addi	a5,a0,-32
3000d5cc:	02000693          	li	a3,32
3000d5d0:	00f757b3          	srl	a5,a4,a5
3000d5d4:	00d50a63          	beq	a0,a3,3000d5e8 <__adddf3+0x83c>
3000d5d8:	04000693          	li	a3,64
3000d5dc:	40a68533          	sub	a0,a3,a0
3000d5e0:	00a71733          	sll	a4,a4,a0
3000d5e4:	00ef6f33          	or	t5,t5,a4
3000d5e8:	01e03933          	snez	s2,t5
3000d5ec:	00f96933          	or	s2,s2,a5
3000d5f0:	cd9ff06f          	j	3000d2c8 <__adddf3+0x51c>
3000d5f4:	00000593          	li	a1,0
3000d5f8:	7ff00513          	li	a0,2047
3000d5fc:	000807b7          	lui	a5,0x80
3000d600:	949ff06f          	j	3000cf48 <__adddf3+0x19c>
3000d604:	01ff0933          	add	s2,t5,t6
3000d608:	010707b3          	add	a5,a4,a6
3000d60c:	01f93633          	sltu	a2,s2,t6
3000d610:	00c78633          	add	a2,a5,a2
3000d614:	d39ff06f          	j	3000d34c <__adddf3+0x5a0>
3000d618:	00361693          	slli	a3,a2,0x3
3000d61c:	01d81793          	slli	a5,a6,0x1d
3000d620:	0036d693          	srli	a3,a3,0x3
3000d624:	00d7e8b3          	or	a7,a5,a3
3000d628:	00385793          	srli	a5,a6,0x3
3000d62c:	b7dff06f          	j	3000d1a8 <__adddf3+0x3fc>

Disassembly of section .text.__addsf3:

3000d630 <__addsf3>:
3000d630:	ff010113          	addi	sp,sp,-16
3000d634:	00800737          	lui	a4,0x800
3000d638:	fff70713          	addi	a4,a4,-1 # 7fffff <stackPointer+0x7f92bf>
3000d63c:	0175d813          	srli	a6,a1,0x17
3000d640:	00912223          	sw	s1,4(sp)
3000d644:	01755493          	srli	s1,a0,0x17
3000d648:	00a77333          	and	t1,a4,a0
3000d64c:	0ff4f493          	andi	s1,s1,255
3000d650:	00b776b3          	and	a3,a4,a1
3000d654:	01212023          	sw	s2,0(sp)
3000d658:	0ff87813          	andi	a6,a6,255
3000d65c:	01f55913          	srli	s2,a0,0x1f
3000d660:	00112623          	sw	ra,12(sp)
3000d664:	00812423          	sw	s0,8(sp)
3000d668:	01f5d593          	srli	a1,a1,0x1f
3000d66c:	00030793          	mv	a5,t1
3000d670:	00048513          	mv	a0,s1
3000d674:	00090613          	mv	a2,s2
3000d678:	00331e13          	slli	t3,t1,0x3
3000d67c:	00369e93          	slli	t4,a3,0x3
3000d680:	410488b3          	sub	a7,s1,a6
3000d684:	12b90663          	beq	s2,a1,3000d7b0 <__addsf3+0x180>
3000d688:	0f105a63          	blez	a7,3000d77c <__addsf3+0x14c>
3000d68c:	18080863          	beqz	a6,3000d81c <__addsf3+0x1ec>
3000d690:	0ff00793          	li	a5,255
3000d694:	1af48063          	beq	s1,a5,3000d834 <__addsf3+0x204>
3000d698:	040007b7          	lui	a5,0x4000
3000d69c:	00feeeb3          	or	t4,t4,a5
3000d6a0:	01b00793          	li	a5,27
3000d6a4:	3117ce63          	blt	a5,a7,3000d9c0 <__addsf3+0x390>
3000d6a8:	02000793          	li	a5,32
3000d6ac:	411787b3          	sub	a5,a5,a7
3000d6b0:	00fe97b3          	sll	a5,t4,a5
3000d6b4:	011ed8b3          	srl	a7,t4,a7
3000d6b8:	00f037b3          	snez	a5,a5
3000d6bc:	00f8e7b3          	or	a5,a7,a5
3000d6c0:	40fe07b3          	sub	a5,t3,a5
3000d6c4:	00579713          	slli	a4,a5,0x5
3000d6c8:	20075063          	bgez	a4,3000d8c8 <__addsf3+0x298>
3000d6cc:	04000437          	lui	s0,0x4000
3000d6d0:	fff40413          	addi	s0,s0,-1 # 3ffffff <stackPointer+0x3ff92bf>
3000d6d4:	0087f433          	and	s0,a5,s0
3000d6d8:	00040513          	mv	a0,s0
3000d6dc:	5f8010ef          	jal	ra,3000ecd4 <__clzsi2>
3000d6e0:	ffb50513          	addi	a0,a0,-5
3000d6e4:	00a417b3          	sll	a5,s0,a0
3000d6e8:	20954c63          	blt	a0,s1,3000d900 <__addsf3+0x2d0>
3000d6ec:	40950533          	sub	a0,a0,s1
3000d6f0:	00150413          	addi	s0,a0,1
3000d6f4:	02000713          	li	a4,32
3000d6f8:	40870733          	sub	a4,a4,s0
3000d6fc:	00e79733          	sll	a4,a5,a4
3000d700:	00e03733          	snez	a4,a4
3000d704:	0087d7b3          	srl	a5,a5,s0
3000d708:	00e7e7b3          	or	a5,a5,a4
3000d70c:	00000493          	li	s1,0
3000d710:	0077f713          	andi	a4,a5,7
3000d714:	00070a63          	beqz	a4,3000d728 <__addsf3+0xf8>
3000d718:	00f7f713          	andi	a4,a5,15
3000d71c:	00400693          	li	a3,4
3000d720:	00d70463          	beq	a4,a3,3000d728 <__addsf3+0xf8>
3000d724:	00478793          	addi	a5,a5,4 # 4000004 <stackPointer+0x3ff92c4>
3000d728:	00579713          	slli	a4,a5,0x5
3000d72c:	1a075263          	bgez	a4,3000d8d0 <__addsf3+0x2a0>
3000d730:	00148493          	addi	s1,s1,1
3000d734:	0ff00713          	li	a4,255
3000d738:	00090613          	mv	a2,s2
3000d73c:	1ae48c63          	beq	s1,a4,3000d8f4 <__addsf3+0x2c4>
3000d740:	00679793          	slli	a5,a5,0x6
3000d744:	0097d793          	srli	a5,a5,0x9
3000d748:	0ff4f513          	andi	a0,s1,255
3000d74c:	00c12083          	lw	ra,12(sp)
3000d750:	00812403          	lw	s0,8(sp)
3000d754:	00979793          	slli	a5,a5,0x9
3000d758:	01751493          	slli	s1,a0,0x17
3000d75c:	0097d513          	srli	a0,a5,0x9
3000d760:	00956533          	or	a0,a0,s1
3000d764:	01f61613          	slli	a2,a2,0x1f
3000d768:	00412483          	lw	s1,4(sp)
3000d76c:	00012903          	lw	s2,0(sp)
3000d770:	00c56533          	or	a0,a0,a2
3000d774:	01010113          	addi	sp,sp,16
3000d778:	00008067          	ret
3000d77c:	0c089663          	bnez	a7,3000d848 <__addsf3+0x218>
3000d780:	00148713          	addi	a4,s1,1
3000d784:	0fe77713          	andi	a4,a4,254
3000d788:	18071a63          	bnez	a4,3000d91c <__addsf3+0x2ec>
3000d78c:	2a049663          	bnez	s1,3000da38 <__addsf3+0x408>
3000d790:	260e0c63          	beqz	t3,3000da08 <__addsf3+0x3d8>
3000d794:	fa0e8ce3          	beqz	t4,3000d74c <__addsf3+0x11c>
3000d798:	41de07b3          	sub	a5,t3,t4
3000d79c:	00579713          	slli	a4,a5,0x5
3000d7a0:	2a075c63          	bgez	a4,3000da58 <__addsf3+0x428>
3000d7a4:	41ce87b3          	sub	a5,t4,t3
3000d7a8:	00058913          	mv	s2,a1
3000d7ac:	f65ff06f          	j	3000d710 <__addsf3+0xe0>
3000d7b0:	0d105e63          	blez	a7,3000d88c <__addsf3+0x25c>
3000d7b4:	0a080e63          	beqz	a6,3000d870 <__addsf3+0x240>
3000d7b8:	0ff00793          	li	a5,255
3000d7bc:	06f48c63          	beq	s1,a5,3000d834 <__addsf3+0x204>
3000d7c0:	040007b7          	lui	a5,0x4000
3000d7c4:	00feeeb3          	or	t4,t4,a5
3000d7c8:	01b00793          	li	a5,27
3000d7cc:	2717ce63          	blt	a5,a7,3000da48 <__addsf3+0x418>
3000d7d0:	02000793          	li	a5,32
3000d7d4:	411787b3          	sub	a5,a5,a7
3000d7d8:	00fe97b3          	sll	a5,t4,a5
3000d7dc:	011ed8b3          	srl	a7,t4,a7
3000d7e0:	00f037b3          	snez	a5,a5
3000d7e4:	00f8e7b3          	or	a5,a7,a5
3000d7e8:	01c787b3          	add	a5,a5,t3
3000d7ec:	00579713          	slli	a4,a5,0x5
3000d7f0:	0c075c63          	bgez	a4,3000d8c8 <__addsf3+0x298>
3000d7f4:	00148493          	addi	s1,s1,1
3000d7f8:	0ff00713          	li	a4,255
3000d7fc:	0ee48c63          	beq	s1,a4,3000d8f4 <__addsf3+0x2c4>
3000d800:	7e0006b7          	lui	a3,0x7e000
3000d804:	0017d713          	srli	a4,a5,0x1
3000d808:	fff68693          	addi	a3,a3,-1 # 7dffffff <__bss_end__+0x4defffff>
3000d80c:	0017f793          	andi	a5,a5,1
3000d810:	00d77733          	and	a4,a4,a3
3000d814:	00f767b3          	or	a5,a4,a5
3000d818:	ef9ff06f          	j	3000d710 <__addsf3+0xe0>
3000d81c:	0a0e8c63          	beqz	t4,3000d8d4 <__addsf3+0x2a4>
3000d820:	fff88893          	addi	a7,a7,-1
3000d824:	41de07b3          	sub	a5,t3,t4
3000d828:	e8088ee3          	beqz	a7,3000d6c4 <__addsf3+0x94>
3000d82c:	0ff00793          	li	a5,255
3000d830:	e6f498e3          	bne	s1,a5,3000d6a0 <__addsf3+0x70>
3000d834:	0a030e63          	beqz	t1,3000d8f0 <__addsf3+0x2c0>
3000d838:	00000613          	li	a2,0
3000d83c:	0ff00513          	li	a0,255
3000d840:	004007b7          	lui	a5,0x400
3000d844:	f09ff06f          	j	3000d74c <__addsf3+0x11c>
3000d848:	40980733          	sub	a4,a6,s1
3000d84c:	12049a63          	bnez	s1,3000d980 <__addsf3+0x350>
3000d850:	180e0e63          	beqz	t3,3000d9ec <__addsf3+0x3bc>
3000d854:	fff70713          	addi	a4,a4,-1
3000d858:	20070863          	beqz	a4,3000da68 <__addsf3+0x438>
3000d85c:	0ff00793          	li	a5,255
3000d860:	12f81863          	bne	a6,a5,3000d990 <__addsf3+0x360>
3000d864:	00058913          	mv	s2,a1
3000d868:	00068313          	mv	t1,a3
3000d86c:	fc9ff06f          	j	3000d834 <__addsf3+0x204>
3000d870:	060e8263          	beqz	t4,3000d8d4 <__addsf3+0x2a4>
3000d874:	fff88893          	addi	a7,a7,-1
3000d878:	01de07b3          	add	a5,t3,t4
3000d87c:	f60888e3          	beqz	a7,3000d7ec <__addsf3+0x1bc>
3000d880:	0ff00793          	li	a5,255
3000d884:	f4f492e3          	bne	s1,a5,3000d7c8 <__addsf3+0x198>
3000d888:	fadff06f          	j	3000d834 <__addsf3+0x204>
3000d88c:	0a089863          	bnez	a7,3000d93c <__addsf3+0x30c>
3000d890:	00148493          	addi	s1,s1,1
3000d894:	0fe4f713          	andi	a4,s1,254
3000d898:	18071063          	bnez	a4,3000da18 <__addsf3+0x3e8>
3000d89c:	16051063          	bnez	a0,3000d9fc <__addsf3+0x3cc>
3000d8a0:	1c0e0c63          	beqz	t3,3000da78 <__addsf3+0x448>
3000d8a4:	ea0e84e3          	beqz	t4,3000d74c <__addsf3+0x11c>
3000d8a8:	01de07b3          	add	a5,t3,t4
3000d8ac:	00579713          	slli	a4,a5,0x5
3000d8b0:	00000493          	li	s1,0
3000d8b4:	00075a63          	bgez	a4,3000d8c8 <__addsf3+0x298>
3000d8b8:	fc000737          	lui	a4,0xfc000
3000d8bc:	fff70713          	addi	a4,a4,-1 # fbffffff <__bss_end__+0xcbefffff>
3000d8c0:	00e7f7b3          	and	a5,a5,a4
3000d8c4:	00100493          	li	s1,1
3000d8c8:	0077f713          	andi	a4,a5,7
3000d8cc:	e40716e3          	bnez	a4,3000d718 <__addsf3+0xe8>
3000d8d0:	0037d313          	srli	t1,a5,0x3
3000d8d4:	0ff00793          	li	a5,255
3000d8d8:	f4f48ee3          	beq	s1,a5,3000d834 <__addsf3+0x204>
3000d8dc:	00931793          	slli	a5,t1,0x9
3000d8e0:	0097d793          	srli	a5,a5,0x9
3000d8e4:	0ff4f513          	andi	a0,s1,255
3000d8e8:	00090613          	mv	a2,s2
3000d8ec:	e61ff06f          	j	3000d74c <__addsf3+0x11c>
3000d8f0:	00090613          	mv	a2,s2
3000d8f4:	0ff00513          	li	a0,255
3000d8f8:	00000793          	li	a5,0
3000d8fc:	e51ff06f          	j	3000d74c <__addsf3+0x11c>
3000d900:	fc000737          	lui	a4,0xfc000
3000d904:	fff70713          	addi	a4,a4,-1 # fbffffff <__bss_end__+0xcbefffff>
3000d908:	00e7f7b3          	and	a5,a5,a4
3000d90c:	0077f713          	andi	a4,a5,7
3000d910:	40a484b3          	sub	s1,s1,a0
3000d914:	e00712e3          	bnez	a4,3000d718 <__addsf3+0xe8>
3000d918:	fb9ff06f          	j	3000d8d0 <__addsf3+0x2a0>
3000d91c:	41de0433          	sub	s0,t3,t4
3000d920:	00541793          	slli	a5,s0,0x5
3000d924:	1007c463          	bltz	a5,3000da2c <__addsf3+0x3fc>
3000d928:	da0418e3          	bnez	s0,3000d6d8 <__addsf3+0xa8>
3000d92c:	00000613          	li	a2,0
3000d930:	00000513          	li	a0,0
3000d934:	00000793          	li	a5,0
3000d938:	e15ff06f          	j	3000d74c <__addsf3+0x11c>
3000d93c:	40980733          	sub	a4,a6,s1
3000d940:	08048463          	beqz	s1,3000d9c8 <__addsf3+0x398>
3000d944:	0ff00793          	li	a5,255
3000d948:	f2f800e3          	beq	a6,a5,3000d868 <__addsf3+0x238>
3000d94c:	040007b7          	lui	a5,0x4000
3000d950:	00fe6e33          	or	t3,t3,a5
3000d954:	01b00793          	li	a5,27
3000d958:	12e7ca63          	blt	a5,a4,3000da8c <__addsf3+0x45c>
3000d95c:	02000793          	li	a5,32
3000d960:	40e787b3          	sub	a5,a5,a4
3000d964:	00fe17b3          	sll	a5,t3,a5
3000d968:	00ee5733          	srl	a4,t3,a4
3000d96c:	00f037b3          	snez	a5,a5
3000d970:	00f767b3          	or	a5,a4,a5
3000d974:	01d787b3          	add	a5,a5,t4
3000d978:	00080493          	mv	s1,a6
3000d97c:	e71ff06f          	j	3000d7ec <__addsf3+0x1bc>
3000d980:	0ff00793          	li	a5,255
3000d984:	eef800e3          	beq	a6,a5,3000d864 <__addsf3+0x234>
3000d988:	040007b7          	lui	a5,0x4000
3000d98c:	00fe6e33          	or	t3,t3,a5
3000d990:	01b00793          	li	a5,27
3000d994:	0ae7ce63          	blt	a5,a4,3000da50 <__addsf3+0x420>
3000d998:	02000693          	li	a3,32
3000d99c:	40e686b3          	sub	a3,a3,a4
3000d9a0:	00de16b3          	sll	a3,t3,a3
3000d9a4:	00ee57b3          	srl	a5,t3,a4
3000d9a8:	00d03733          	snez	a4,a3
3000d9ac:	00e7e7b3          	or	a5,a5,a4
3000d9b0:	40fe87b3          	sub	a5,t4,a5
3000d9b4:	00080493          	mv	s1,a6
3000d9b8:	00058913          	mv	s2,a1
3000d9bc:	d09ff06f          	j	3000d6c4 <__addsf3+0x94>
3000d9c0:	00100793          	li	a5,1
3000d9c4:	cfdff06f          	j	3000d6c0 <__addsf3+0x90>
3000d9c8:	0a0e0c63          	beqz	t3,3000da80 <__addsf3+0x450>
3000d9cc:	fff70713          	addi	a4,a4,-1
3000d9d0:	01de07b3          	add	a5,t3,t4
3000d9d4:	00080493          	mv	s1,a6
3000d9d8:	e0070ae3          	beqz	a4,3000d7ec <__addsf3+0x1bc>
3000d9dc:	0ff00793          	li	a5,255
3000d9e0:	f6f81ae3          	bne	a6,a5,3000d954 <__addsf3+0x324>
3000d9e4:	00068313          	mv	t1,a3
3000d9e8:	e4dff06f          	j	3000d834 <__addsf3+0x204>
3000d9ec:	00068313          	mv	t1,a3
3000d9f0:	00080493          	mv	s1,a6
3000d9f4:	00058913          	mv	s2,a1
3000d9f8:	eddff06f          	j	3000d8d4 <__addsf3+0x2a4>
3000d9fc:	e60e06e3          	beqz	t3,3000d868 <__addsf3+0x238>
3000da00:	e20e8ae3          	beqz	t4,3000d834 <__addsf3+0x204>
3000da04:	e35ff06f          	j	3000d838 <__addsf3+0x208>
3000da08:	040e8a63          	beqz	t4,3000da5c <__addsf3+0x42c>
3000da0c:	00058613          	mv	a2,a1
3000da10:	00068793          	mv	a5,a3
3000da14:	d39ff06f          	j	3000d74c <__addsf3+0x11c>
3000da18:	0ff00793          	li	a5,255
3000da1c:	ecf48ce3          	beq	s1,a5,3000d8f4 <__addsf3+0x2c4>
3000da20:	01de07b3          	add	a5,t3,t4
3000da24:	0017d793          	srli	a5,a5,0x1
3000da28:	ea1ff06f          	j	3000d8c8 <__addsf3+0x298>
3000da2c:	41ce8433          	sub	s0,t4,t3
3000da30:	00058913          	mv	s2,a1
3000da34:	ca5ff06f          	j	3000d6d8 <__addsf3+0xa8>
3000da38:	fc0e14e3          	bnez	t3,3000da00 <__addsf3+0x3d0>
3000da3c:	de0e8ee3          	beqz	t4,3000d838 <__addsf3+0x208>
3000da40:	00058913          	mv	s2,a1
3000da44:	e25ff06f          	j	3000d868 <__addsf3+0x238>
3000da48:	00100793          	li	a5,1
3000da4c:	d9dff06f          	j	3000d7e8 <__addsf3+0x1b8>
3000da50:	00100793          	li	a5,1
3000da54:	f5dff06f          	j	3000d9b0 <__addsf3+0x380>
3000da58:	e60798e3          	bnez	a5,3000d8c8 <__addsf3+0x298>
3000da5c:	00000613          	li	a2,0
3000da60:	00000793          	li	a5,0
3000da64:	ce9ff06f          	j	3000d74c <__addsf3+0x11c>
3000da68:	41ce87b3          	sub	a5,t4,t3
3000da6c:	00080493          	mv	s1,a6
3000da70:	00058913          	mv	s2,a1
3000da74:	c51ff06f          	j	3000d6c4 <__addsf3+0x94>
3000da78:	00068793          	mv	a5,a3
3000da7c:	cd1ff06f          	j	3000d74c <__addsf3+0x11c>
3000da80:	00068313          	mv	t1,a3
3000da84:	00080493          	mv	s1,a6
3000da88:	e4dff06f          	j	3000d8d4 <__addsf3+0x2a4>
3000da8c:	00100793          	li	a5,1
3000da90:	ee5ff06f          	j	3000d974 <__addsf3+0x344>

Disassembly of section .text.__divsf3:

3000da94 <__divsf3>:
3000da94:	fc010113          	addi	sp,sp,-64
3000da98:	01755793          	srli	a5,a0,0x17
3000da9c:	03212823          	sw	s2,48(sp)
3000daa0:	03512223          	sw	s5,36(sp)
3000daa4:	01712e23          	sw	s7,28(sp)
3000daa8:	00951a93          	slli	s5,a0,0x9
3000daac:	01f55913          	srli	s2,a0,0x1f
3000dab0:	02112e23          	sw	ra,60(sp)
3000dab4:	02812c23          	sw	s0,56(sp)
3000dab8:	02912a23          	sw	s1,52(sp)
3000dabc:	03312623          	sw	s3,44(sp)
3000dac0:	03412423          	sw	s4,40(sp)
3000dac4:	03612023          	sw	s6,32(sp)
3000dac8:	0ff7f793          	andi	a5,a5,255
3000dacc:	009ada93          	srli	s5,s5,0x9
3000dad0:	00090b93          	mv	s7,s2
3000dad4:	18078863          	beqz	a5,3000dc64 <__divsf3+0x1d0>
3000dad8:	0ff00713          	li	a4,255
3000dadc:	18e78e63          	beq	a5,a4,3000dc78 <__divsf3+0x1e4>
3000dae0:	003a9a93          	slli	s5,s5,0x3
3000dae4:	04000737          	lui	a4,0x4000
3000dae8:	00eaeab3          	or	s5,s5,a4
3000daec:	f8178a13          	addi	s4,a5,-127 # 3ffff81 <stackPointer+0x3ff9241>
3000daf0:	00000413          	li	s0,0
3000daf4:	00000b13          	li	s6,0
3000daf8:	0175d793          	srli	a5,a1,0x17
3000dafc:	00959493          	slli	s1,a1,0x9
3000db00:	0ff7f793          	andi	a5,a5,255
3000db04:	0094d493          	srli	s1,s1,0x9
3000db08:	01f5d993          	srli	s3,a1,0x1f
3000db0c:	14078663          	beqz	a5,3000dc58 <__divsf3+0x1c4>
3000db10:	0ff00713          	li	a4,255
3000db14:	04e78063          	beq	a5,a4,3000db54 <__divsf3+0xc0>
3000db18:	00349493          	slli	s1,s1,0x3
3000db1c:	f8178793          	addi	a5,a5,-127
3000db20:	04000737          	lui	a4,0x4000
3000db24:	00e4e4b3          	or	s1,s1,a4
3000db28:	40fa0a33          	sub	s4,s4,a5
3000db2c:	00000693          	li	a3,0
3000db30:	0086e433          	or	s0,a3,s0
3000db34:	00003717          	auipc	a4,0x3
3000db38:	eec70713          	addi	a4,a4,-276 # 30010a20 <init_jk+0x40>
3000db3c:	00241413          	slli	s0,s0,0x2
3000db40:	00e40433          	add	s0,s0,a4
3000db44:	00042783          	lw	a5,0(s0)
3000db48:	01394933          	xor	s2,s2,s3
3000db4c:	00e787b3          	add	a5,a5,a4
3000db50:	00078067          	jr	a5
3000db54:	f01a0a13          	addi	s4,s4,-255
3000db58:	12049a63          	bnez	s1,3000dc8c <__divsf3+0x1f8>
3000db5c:	00200693          	li	a3,2
3000db60:	0086e433          	or	s0,a3,s0
3000db64:	00003717          	auipc	a4,0x3
3000db68:	efc70713          	addi	a4,a4,-260 # 30010a60 <init_jk+0x80>
3000db6c:	00241413          	slli	s0,s0,0x2
3000db70:	00e40433          	add	s0,s0,a4
3000db74:	00042783          	lw	a5,0(s0)
3000db78:	01394933          	xor	s2,s2,s3
3000db7c:	00e787b3          	add	a5,a5,a4
3000db80:	00078067          	jr	a5
3000db84:	00000913          	li	s2,0
3000db88:	0ff00713          	li	a4,255
3000db8c:	004007b7          	lui	a5,0x400
3000db90:	00979513          	slli	a0,a5,0x9
3000db94:	03c12083          	lw	ra,60(sp)
3000db98:	03812403          	lw	s0,56(sp)
3000db9c:	01771793          	slli	a5,a4,0x17
3000dba0:	00955513          	srli	a0,a0,0x9
3000dba4:	01f91913          	slli	s2,s2,0x1f
3000dba8:	00f56533          	or	a0,a0,a5
3000dbac:	01256533          	or	a0,a0,s2
3000dbb0:	03412483          	lw	s1,52(sp)
3000dbb4:	03012903          	lw	s2,48(sp)
3000dbb8:	02c12983          	lw	s3,44(sp)
3000dbbc:	02812a03          	lw	s4,40(sp)
3000dbc0:	02412a83          	lw	s5,36(sp)
3000dbc4:	02012b03          	lw	s6,32(sp)
3000dbc8:	01c12b83          	lw	s7,28(sp)
3000dbcc:	04010113          	addi	sp,sp,64
3000dbd0:	00008067          	ret
3000dbd4:	0ff00713          	li	a4,255
3000dbd8:	00000793          	li	a5,0
3000dbdc:	fb5ff06f          	j	3000db90 <__divsf3+0xfc>
3000dbe0:	00048a93          	mv	s5,s1
3000dbe4:	00098b93          	mv	s7,s3
3000dbe8:	00068b13          	mv	s6,a3
3000dbec:	00200793          	li	a5,2
3000dbf0:	24fb0a63          	beq	s6,a5,3000de44 <__divsf3+0x3b0>
3000dbf4:	00300793          	li	a5,3
3000dbf8:	f8fb06e3          	beq	s6,a5,3000db84 <__divsf3+0xf0>
3000dbfc:	00100793          	li	a5,1
3000dc00:	0efb0863          	beq	s6,a5,3000dcf0 <__divsf3+0x25c>
3000dc04:	07fa0713          	addi	a4,s4,127
3000dc08:	001bf913          	andi	s2,s7,1
3000dc0c:	18e05a63          	blez	a4,3000dda0 <__divsf3+0x30c>
3000dc10:	007af793          	andi	a5,s5,7
3000dc14:	00078a63          	beqz	a5,3000dc28 <__divsf3+0x194>
3000dc18:	00faf793          	andi	a5,s5,15
3000dc1c:	00400693          	li	a3,4
3000dc20:	00d78463          	beq	a5,a3,3000dc28 <__divsf3+0x194>
3000dc24:	004a8a93          	addi	s5,s5,4
3000dc28:	004a9793          	slli	a5,s5,0x4
3000dc2c:	0007da63          	bgez	a5,3000dc40 <__divsf3+0x1ac>
3000dc30:	f80007b7          	lui	a5,0xf8000
3000dc34:	fff78793          	addi	a5,a5,-1 # f7ffffff <__bss_end__+0xc7efffff>
3000dc38:	00fafab3          	and	s5,s5,a5
3000dc3c:	080a0713          	addi	a4,s4,128
3000dc40:	0fe00793          	li	a5,254
3000dc44:	f8e7c8e3          	blt	a5,a4,3000dbd4 <__divsf3+0x140>
3000dc48:	006a9793          	slli	a5,s5,0x6
3000dc4c:	0097d793          	srli	a5,a5,0x9
3000dc50:	0ff77713          	andi	a4,a4,255
3000dc54:	f3dff06f          	j	3000db90 <__divsf3+0xfc>
3000dc58:	06049c63          	bnez	s1,3000dcd0 <__divsf3+0x23c>
3000dc5c:	00100693          	li	a3,1
3000dc60:	f01ff06f          	j	3000db60 <__divsf3+0xcc>
3000dc64:	040a9063          	bnez	s5,3000dca4 <__divsf3+0x210>
3000dc68:	00400413          	li	s0,4
3000dc6c:	00000a13          	li	s4,0
3000dc70:	00100b13          	li	s6,1
3000dc74:	e85ff06f          	j	3000daf8 <__divsf3+0x64>
3000dc78:	000a9e63          	bnez	s5,3000dc94 <__divsf3+0x200>
3000dc7c:	00800413          	li	s0,8
3000dc80:	0ff00a13          	li	s4,255
3000dc84:	00200b13          	li	s6,2
3000dc88:	e71ff06f          	j	3000daf8 <__divsf3+0x64>
3000dc8c:	00300693          	li	a3,3
3000dc90:	ea1ff06f          	j	3000db30 <__divsf3+0x9c>
3000dc94:	00c00413          	li	s0,12
3000dc98:	0ff00a13          	li	s4,255
3000dc9c:	00300b13          	li	s6,3
3000dca0:	e59ff06f          	j	3000daf8 <__divsf3+0x64>
3000dca4:	000a8513          	mv	a0,s5
3000dca8:	00b12623          	sw	a1,12(sp)
3000dcac:	028010ef          	jal	ra,3000ecd4 <__clzsi2>
3000dcb0:	ffb50793          	addi	a5,a0,-5
3000dcb4:	00fa9ab3          	sll	s5,s5,a5
3000dcb8:	f8a00793          	li	a5,-118
3000dcbc:	40a78a33          	sub	s4,a5,a0
3000dcc0:	00000413          	li	s0,0
3000dcc4:	00000b13          	li	s6,0
3000dcc8:	00c12583          	lw	a1,12(sp)
3000dccc:	e2dff06f          	j	3000daf8 <__divsf3+0x64>
3000dcd0:	00048513          	mv	a0,s1
3000dcd4:	000010ef          	jal	ra,3000ecd4 <__clzsi2>
3000dcd8:	ffb50713          	addi	a4,a0,-5
3000dcdc:	00aa07b3          	add	a5,s4,a0
3000dce0:	00e494b3          	sll	s1,s1,a4
3000dce4:	07678a13          	addi	s4,a5,118
3000dce8:	00000693          	li	a3,0
3000dcec:	e45ff06f          	j	3000db30 <__divsf3+0x9c>
3000dcf0:	001bf913          	andi	s2,s7,1
3000dcf4:	00000713          	li	a4,0
3000dcf8:	00000793          	li	a5,0
3000dcfc:	e95ff06f          	j	3000db90 <__divsf3+0xfc>
3000dd00:	00010637          	lui	a2,0x10
3000dd04:	00549513          	slli	a0,s1,0x5
3000dd08:	fff60613          	addi	a2,a2,-1 # ffff <stackPointer+0x92bf>
3000dd0c:	01055793          	srli	a5,a0,0x10
3000dd10:	00c57633          	and	a2,a0,a2
3000dd14:	0e9af663          	bgeu	s5,s1,3000de00 <__divsf3+0x36c>
3000dd18:	02fad5b3          	divu	a1,s5,a5
3000dd1c:	fffa0a13          	addi	s4,s4,-1
3000dd20:	000a8693          	mv	a3,s5
3000dd24:	00000713          	li	a4,0
3000dd28:	02c58833          	mul	a6,a1,a2
3000dd2c:	02f6f6b3          	remu	a3,a3,a5
3000dd30:	01069693          	slli	a3,a3,0x10
3000dd34:	00e6e733          	or	a4,a3,a4
3000dd38:	01077e63          	bgeu	a4,a6,3000dd54 <__divsf3+0x2c0>
3000dd3c:	00a70733          	add	a4,a4,a0
3000dd40:	fff58693          	addi	a3,a1,-1
3000dd44:	0ea76663          	bltu	a4,a0,3000de30 <__divsf3+0x39c>
3000dd48:	0f077463          	bgeu	a4,a6,3000de30 <__divsf3+0x39c>
3000dd4c:	ffe58593          	addi	a1,a1,-2
3000dd50:	00a70733          	add	a4,a4,a0
3000dd54:	41070733          	sub	a4,a4,a6
3000dd58:	02f756b3          	divu	a3,a4,a5
3000dd5c:	02f77733          	remu	a4,a4,a5
3000dd60:	02c68ab3          	mul	s5,a3,a2
3000dd64:	01071793          	slli	a5,a4,0x10
3000dd68:	0157fe63          	bgeu	a5,s5,3000dd84 <__divsf3+0x2f0>
3000dd6c:	00a787b3          	add	a5,a5,a0
3000dd70:	fff68713          	addi	a4,a3,-1
3000dd74:	0aa7ea63          	bltu	a5,a0,3000de28 <__divsf3+0x394>
3000dd78:	0b57f863          	bgeu	a5,s5,3000de28 <__divsf3+0x394>
3000dd7c:	ffe68693          	addi	a3,a3,-2
3000dd80:	00a787b3          	add	a5,a5,a0
3000dd84:	01059593          	slli	a1,a1,0x10
3000dd88:	41578ab3          	sub	s5,a5,s5
3000dd8c:	00d5e5b3          	or	a1,a1,a3
3000dd90:	01503ab3          	snez	s5,s5
3000dd94:	0155eab3          	or	s5,a1,s5
3000dd98:	00090b93          	mv	s7,s2
3000dd9c:	e69ff06f          	j	3000dc04 <__divsf3+0x170>
3000dda0:	00100693          	li	a3,1
3000dda4:	40e686b3          	sub	a3,a3,a4
3000dda8:	00070a63          	beqz	a4,3000ddbc <__divsf3+0x328>
3000ddac:	01b00613          	li	a2,27
3000ddb0:	00000713          	li	a4,0
3000ddb4:	00000793          	li	a5,0
3000ddb8:	dcd64ce3          	blt	a2,a3,3000db90 <__divsf3+0xfc>
3000ddbc:	09ea0a13          	addi	s4,s4,158
3000ddc0:	014a9a33          	sll	s4,s5,s4
3000ddc4:	00dad7b3          	srl	a5,s5,a3
3000ddc8:	01403ab3          	snez	s5,s4
3000ddcc:	0157e7b3          	or	a5,a5,s5
3000ddd0:	0077f713          	andi	a4,a5,7
3000ddd4:	00070a63          	beqz	a4,3000dde8 <__divsf3+0x354>
3000ddd8:	00f7f713          	andi	a4,a5,15
3000dddc:	00400693          	li	a3,4
3000dde0:	00d70463          	beq	a4,a3,3000dde8 <__divsf3+0x354>
3000dde4:	00478793          	addi	a5,a5,4
3000dde8:	00579713          	slli	a4,a5,0x5
3000ddec:	04074663          	bltz	a4,3000de38 <__divsf3+0x3a4>
3000ddf0:	00679793          	slli	a5,a5,0x6
3000ddf4:	0097d793          	srli	a5,a5,0x9
3000ddf8:	00000713          	li	a4,0
3000ddfc:	d95ff06f          	j	3000db90 <__divsf3+0xfc>
3000de00:	001ad693          	srli	a3,s5,0x1
3000de04:	02f6d5b3          	divu	a1,a3,a5
3000de08:	01fa9713          	slli	a4,s5,0x1f
3000de0c:	01075713          	srli	a4,a4,0x10
3000de10:	02c58833          	mul	a6,a1,a2
3000de14:	f19ff06f          	j	3000dd2c <__divsf3+0x298>
3000de18:	00098b93          	mv	s7,s3
3000de1c:	00068b13          	mv	s6,a3
3000de20:	00000a93          	li	s5,0
3000de24:	dc9ff06f          	j	3000dbec <__divsf3+0x158>
3000de28:	00070693          	mv	a3,a4
3000de2c:	f59ff06f          	j	3000dd84 <__divsf3+0x2f0>
3000de30:	00068593          	mv	a1,a3
3000de34:	f21ff06f          	j	3000dd54 <__divsf3+0x2c0>
3000de38:	00100713          	li	a4,1
3000de3c:	00000793          	li	a5,0
3000de40:	d51ff06f          	j	3000db90 <__divsf3+0xfc>
3000de44:	001bf913          	andi	s2,s7,1
3000de48:	0ff00713          	li	a4,255
3000de4c:	00000793          	li	a5,0
3000de50:	d41ff06f          	j	3000db90 <__divsf3+0xfc>

Disassembly of section .text.__eqsf2:

3000de54 <__eqsf2>:
3000de54:	01755693          	srli	a3,a0,0x17
3000de58:	008007b7          	lui	a5,0x800
3000de5c:	fff78793          	addi	a5,a5,-1 # 7fffff <stackPointer+0x7f92bf>
3000de60:	0175d613          	srli	a2,a1,0x17
3000de64:	0ff6f693          	andi	a3,a3,255
3000de68:	0ff00813          	li	a6,255
3000de6c:	00a7f8b3          	and	a7,a5,a0
3000de70:	01f55713          	srli	a4,a0,0x1f
3000de74:	00b7f7b3          	and	a5,a5,a1
3000de78:	0ff67613          	andi	a2,a2,255
3000de7c:	01f5d593          	srli	a1,a1,0x1f
3000de80:	03068a63          	beq	a3,a6,3000deb4 <__eqsf2+0x60>
3000de84:	0ff00513          	li	a0,255
3000de88:	02a60c63          	beq	a2,a0,3000dec0 <__eqsf2+0x6c>
3000de8c:	00100513          	li	a0,1
3000de90:	00c68463          	beq	a3,a2,3000de98 <__eqsf2+0x44>
3000de94:	00008067          	ret
3000de98:	fef89ee3          	bne	a7,a5,3000de94 <__eqsf2+0x40>
3000de9c:	00000513          	li	a0,0
3000dea0:	feb70ae3          	beq	a4,a1,3000de94 <__eqsf2+0x40>
3000dea4:	00100513          	li	a0,1
3000dea8:	fe0696e3          	bnez	a3,3000de94 <__eqsf2+0x40>
3000deac:	01103533          	snez	a0,a7
3000deb0:	00008067          	ret
3000deb4:	00100513          	li	a0,1
3000deb8:	fc0886e3          	beqz	a7,3000de84 <__eqsf2+0x30>
3000debc:	00008067          	ret
3000dec0:	00100513          	li	a0,1
3000dec4:	fc0784e3          	beqz	a5,3000de8c <__eqsf2+0x38>
3000dec8:	00008067          	ret

Disassembly of section .text.__gesf2:

3000decc <__gesf2>:
3000decc:	01755693          	srli	a3,a0,0x17
3000ded0:	008007b7          	lui	a5,0x800
3000ded4:	fff78793          	addi	a5,a5,-1 # 7fffff <stackPointer+0x7f92bf>
3000ded8:	0175d613          	srli	a2,a1,0x17
3000dedc:	0ff6f693          	andi	a3,a3,255
3000dee0:	0ff00813          	li	a6,255
3000dee4:	00a7f8b3          	and	a7,a5,a0
3000dee8:	01f55713          	srli	a4,a0,0x1f
3000deec:	00b7f7b3          	and	a5,a5,a1
3000def0:	0ff67613          	andi	a2,a2,255
3000def4:	01f5d593          	srli	a1,a1,0x1f
3000def8:	03068a63          	beq	a3,a6,3000df2c <__gesf2+0x60>
3000defc:	03060263          	beq	a2,a6,3000df20 <__gesf2+0x54>
3000df00:	02069a63          	bnez	a3,3000df34 <__gesf2+0x68>
3000df04:	00061463          	bnez	a2,3000df0c <__gesf2+0x40>
3000df08:	06078263          	beqz	a5,3000df6c <__gesf2+0xa0>
3000df0c:	04088a63          	beqz	a7,3000df60 <__gesf2+0x94>
3000df10:	06b70863          	beq	a4,a1,3000df80 <__gesf2+0xb4>
3000df14:	00100513          	li	a0,1
3000df18:	04071063          	bnez	a4,3000df58 <__gesf2+0x8c>
3000df1c:	00008067          	ret
3000df20:	fe0780e3          	beqz	a5,3000df00 <__gesf2+0x34>
3000df24:	ffe00513          	li	a0,-2
3000df28:	00008067          	ret
3000df2c:	fe089ce3          	bnez	a7,3000df24 <__gesf2+0x58>
3000df30:	04d60463          	beq	a2,a3,3000df78 <__gesf2+0xac>
3000df34:	00061463          	bnez	a2,3000df3c <__gesf2+0x70>
3000df38:	fc078ee3          	beqz	a5,3000df14 <__gesf2+0x48>
3000df3c:	fcb71ce3          	bne	a4,a1,3000df14 <__gesf2+0x48>
3000df40:	fcd64ae3          	blt	a2,a3,3000df14 <__gesf2+0x48>
3000df44:	00c6c863          	blt	a3,a2,3000df54 <__gesf2+0x88>
3000df48:	fd17e6e3          	bltu	a5,a7,3000df14 <__gesf2+0x48>
3000df4c:	00000513          	li	a0,0
3000df50:	fcf8f6e3          	bgeu	a7,a5,3000df1c <__gesf2+0x50>
3000df54:	00071863          	bnez	a4,3000df64 <__gesf2+0x98>
3000df58:	fff00513          	li	a0,-1
3000df5c:	00008067          	ret
3000df60:	fe058ce3          	beqz	a1,3000df58 <__gesf2+0x8c>
3000df64:	00100513          	li	a0,1
3000df68:	00008067          	ret
3000df6c:	00000513          	li	a0,0
3000df70:	fa0892e3          	bnez	a7,3000df14 <__gesf2+0x48>
3000df74:	00008067          	ret
3000df78:	fc0782e3          	beqz	a5,3000df3c <__gesf2+0x70>
3000df7c:	fa9ff06f          	j	3000df24 <__gesf2+0x58>
3000df80:	00000693          	li	a3,0
3000df84:	fc1ff06f          	j	3000df44 <__gesf2+0x78>

Disassembly of section .text.__lesf2:

3000df88 <__lesf2>:
3000df88:	01755693          	srli	a3,a0,0x17
3000df8c:	008007b7          	lui	a5,0x800
3000df90:	fff78793          	addi	a5,a5,-1 # 7fffff <stackPointer+0x7f92bf>
3000df94:	0175d613          	srli	a2,a1,0x17
3000df98:	0ff6f693          	andi	a3,a3,255
3000df9c:	0ff00813          	li	a6,255
3000dfa0:	00a7f8b3          	and	a7,a5,a0
3000dfa4:	01f55713          	srli	a4,a0,0x1f
3000dfa8:	00b7f7b3          	and	a5,a5,a1
3000dfac:	0ff67613          	andi	a2,a2,255
3000dfb0:	01f5d593          	srli	a1,a1,0x1f
3000dfb4:	05068463          	beq	a3,a6,3000dffc <__lesf2+0x74>
3000dfb8:	01060e63          	beq	a2,a6,3000dfd4 <__lesf2+0x4c>
3000dfbc:	04069663          	bnez	a3,3000e008 <__lesf2+0x80>
3000dfc0:	02061263          	bnez	a2,3000dfe4 <__lesf2+0x5c>
3000dfc4:	02079063          	bnez	a5,3000dfe4 <__lesf2+0x5c>
3000dfc8:	00000513          	li	a0,0
3000dfcc:	02089063          	bnez	a7,3000dfec <__lesf2+0x64>
3000dfd0:	00008067          	ret
3000dfd4:	00200513          	li	a0,2
3000dfd8:	fe079ce3          	bnez	a5,3000dfd0 <__lesf2+0x48>
3000dfdc:	fe0682e3          	beqz	a3,3000dfc0 <__lesf2+0x38>
3000dfe0:	0280006f          	j	3000e008 <__lesf2+0x80>
3000dfe4:	04088663          	beqz	a7,3000e030 <__lesf2+0xa8>
3000dfe8:	06b70063          	beq	a4,a1,3000e048 <__lesf2+0xc0>
3000dfec:	00100513          	li	a0,1
3000dff0:	fe0700e3          	beqz	a4,3000dfd0 <__lesf2+0x48>
3000dff4:	fff00513          	li	a0,-1
3000dff8:	00008067          	ret
3000dffc:	00200513          	li	a0,2
3000e000:	04089263          	bnez	a7,3000e044 <__lesf2+0xbc>
3000e004:	02d60c63          	beq	a2,a3,3000e03c <__lesf2+0xb4>
3000e008:	00061463          	bnez	a2,3000e010 <__lesf2+0x88>
3000e00c:	fe0780e3          	beqz	a5,3000dfec <__lesf2+0x64>
3000e010:	fcb71ee3          	bne	a4,a1,3000dfec <__lesf2+0x64>
3000e014:	fcd64ce3          	blt	a2,a3,3000dfec <__lesf2+0x64>
3000e018:	00c6c863          	blt	a3,a2,3000e028 <__lesf2+0xa0>
3000e01c:	fd17e8e3          	bltu	a5,a7,3000dfec <__lesf2+0x64>
3000e020:	00000513          	li	a0,0
3000e024:	faf8f6e3          	bgeu	a7,a5,3000dfd0 <__lesf2+0x48>
3000e028:	00071663          	bnez	a4,3000e034 <__lesf2+0xac>
3000e02c:	fc9ff06f          	j	3000dff4 <__lesf2+0x6c>
3000e030:	fc0582e3          	beqz	a1,3000dff4 <__lesf2+0x6c>
3000e034:	00100513          	li	a0,1
3000e038:	00008067          	ret
3000e03c:	fc078ae3          	beqz	a5,3000e010 <__lesf2+0x88>
3000e040:	00008067          	ret
3000e044:	00008067          	ret
3000e048:	00000693          	li	a3,0
3000e04c:	fcdff06f          	j	3000e018 <__lesf2+0x90>

Disassembly of section .text.__mulsf3:

3000e050 <__mulsf3>:
3000e050:	fd010113          	addi	sp,sp,-48
3000e054:	02812423          	sw	s0,40(sp)
3000e058:	01755413          	srli	s0,a0,0x17
3000e05c:	01312e23          	sw	s3,28(sp)
3000e060:	01412c23          	sw	s4,24(sp)
3000e064:	00951993          	slli	s3,a0,0x9
3000e068:	02112623          	sw	ra,44(sp)
3000e06c:	02912223          	sw	s1,36(sp)
3000e070:	03212023          	sw	s2,32(sp)
3000e074:	01512a23          	sw	s5,20(sp)
3000e078:	01612823          	sw	s6,16(sp)
3000e07c:	0ff47413          	andi	s0,s0,255
3000e080:	0099d993          	srli	s3,s3,0x9
3000e084:	01f55a13          	srli	s4,a0,0x1f
3000e088:	12040063          	beqz	s0,3000e1a8 <__mulsf3+0x158>
3000e08c:	0ff00793          	li	a5,255
3000e090:	14f40863          	beq	s0,a5,3000e1e0 <__mulsf3+0x190>
3000e094:	00399793          	slli	a5,s3,0x3
3000e098:	04000737          	lui	a4,0x4000
3000e09c:	00e7e9b3          	or	s3,a5,a4
3000e0a0:	f8140413          	addi	s0,s0,-127
3000e0a4:	00000493          	li	s1,0
3000e0a8:	00000b13          	li	s6,0
3000e0ac:	0175d713          	srli	a4,a1,0x17
3000e0b0:	00959a93          	slli	s5,a1,0x9
3000e0b4:	0ff77713          	andi	a4,a4,255
3000e0b8:	009ada93          	srli	s5,s5,0x9
3000e0bc:	01f5d913          	srli	s2,a1,0x1f
3000e0c0:	10070863          	beqz	a4,3000e1d0 <__mulsf3+0x180>
3000e0c4:	0ff00793          	li	a5,255
3000e0c8:	04f70663          	beq	a4,a5,3000e114 <__mulsf3+0xc4>
3000e0cc:	003a9a93          	slli	s5,s5,0x3
3000e0d0:	f8170713          	addi	a4,a4,-127 # 3ffff81 <stackPointer+0x3ff9241>
3000e0d4:	040007b7          	lui	a5,0x4000
3000e0d8:	00faeab3          	or	s5,s5,a5
3000e0dc:	00e40433          	add	s0,s0,a4
3000e0e0:	00000613          	li	a2,0
3000e0e4:	012a4533          	xor	a0,s4,s2
3000e0e8:	00f00793          	li	a5,15
3000e0ec:	00050693          	mv	a3,a0
3000e0f0:	00140593          	addi	a1,s0,1
3000e0f4:	1897e263          	bltu	a5,s1,3000e278 <__mulsf3+0x228>
3000e0f8:	00003717          	auipc	a4,0x3
3000e0fc:	9a870713          	addi	a4,a4,-1624 # 30010aa0 <init_jk+0xc0>
3000e100:	00249493          	slli	s1,s1,0x2
3000e104:	00e484b3          	add	s1,s1,a4
3000e108:	0004a783          	lw	a5,0(s1)
3000e10c:	00e787b3          	add	a5,a5,a4
3000e110:	00078067          	jr	a5 # 4000000 <stackPointer+0x3ff92c0>
3000e114:	0ff40413          	addi	s0,s0,255
3000e118:	120a9c63          	bnez	s5,3000e250 <__mulsf3+0x200>
3000e11c:	0024e493          	ori	s1,s1,2
3000e120:	00200613          	li	a2,2
3000e124:	fc1ff06f          	j	3000e0e4 <__mulsf3+0x94>
3000e128:	00000513          	li	a0,0
3000e12c:	0ff00713          	li	a4,255
3000e130:	004007b7          	lui	a5,0x400
3000e134:	02c12083          	lw	ra,44(sp)
3000e138:	02812403          	lw	s0,40(sp)
3000e13c:	00979793          	slli	a5,a5,0x9
3000e140:	01771713          	slli	a4,a4,0x17
3000e144:	0097d793          	srli	a5,a5,0x9
3000e148:	01f51513          	slli	a0,a0,0x1f
3000e14c:	00e7e7b3          	or	a5,a5,a4
3000e150:	02412483          	lw	s1,36(sp)
3000e154:	02012903          	lw	s2,32(sp)
3000e158:	01c12983          	lw	s3,28(sp)
3000e15c:	01812a03          	lw	s4,24(sp)
3000e160:	01412a83          	lw	s5,20(sp)
3000e164:	01012b03          	lw	s6,16(sp)
3000e168:	00a7e533          	or	a0,a5,a0
3000e16c:	03010113          	addi	sp,sp,48
3000e170:	00008067          	ret
3000e174:	00090693          	mv	a3,s2
3000e178:	000a8993          	mv	s3,s5
3000e17c:	00060b13          	mv	s6,a2
3000e180:	00200793          	li	a5,2
3000e184:	0efb0263          	beq	s6,a5,3000e268 <__mulsf3+0x218>
3000e188:	00300793          	li	a5,3
3000e18c:	f8fb0ee3          	beq	s6,a5,3000e128 <__mulsf3+0xd8>
3000e190:	00100793          	li	a5,1
3000e194:	00068513          	mv	a0,a3
3000e198:	22fb1463          	bne	s6,a5,3000e3c0 <__mulsf3+0x370>
3000e19c:	00000713          	li	a4,0
3000e1a0:	00000793          	li	a5,0
3000e1a4:	f91ff06f          	j	3000e134 <__mulsf3+0xe4>
3000e1a8:	06099e63          	bnez	s3,3000e224 <__mulsf3+0x1d4>
3000e1ac:	0175d713          	srli	a4,a1,0x17
3000e1b0:	00959a93          	slli	s5,a1,0x9
3000e1b4:	0ff77713          	andi	a4,a4,255
3000e1b8:	00400493          	li	s1,4
3000e1bc:	00000413          	li	s0,0
3000e1c0:	00100b13          	li	s6,1
3000e1c4:	009ada93          	srli	s5,s5,0x9
3000e1c8:	01f5d913          	srli	s2,a1,0x1f
3000e1cc:	ee071ce3          	bnez	a4,3000e0c4 <__mulsf3+0x74>
3000e1d0:	020a9263          	bnez	s5,3000e1f4 <__mulsf3+0x1a4>
3000e1d4:	0014e493          	ori	s1,s1,1
3000e1d8:	00100613          	li	a2,1
3000e1dc:	f09ff06f          	j	3000e0e4 <__mulsf3+0x94>
3000e1e0:	02099a63          	bnez	s3,3000e214 <__mulsf3+0x1c4>
3000e1e4:	00800493          	li	s1,8
3000e1e8:	0ff00413          	li	s0,255
3000e1ec:	00200b13          	li	s6,2
3000e1f0:	ebdff06f          	j	3000e0ac <__mulsf3+0x5c>
3000e1f4:	000a8513          	mv	a0,s5
3000e1f8:	2dd000ef          	jal	ra,3000ecd4 <__clzsi2>
3000e1fc:	ffb50793          	addi	a5,a0,-5
3000e200:	40a40433          	sub	s0,s0,a0
3000e204:	00fa9ab3          	sll	s5,s5,a5
3000e208:	f8a40413          	addi	s0,s0,-118
3000e20c:	00000613          	li	a2,0
3000e210:	ed5ff06f          	j	3000e0e4 <__mulsf3+0x94>
3000e214:	00c00493          	li	s1,12
3000e218:	0ff00413          	li	s0,255
3000e21c:	00300b13          	li	s6,3
3000e220:	e8dff06f          	j	3000e0ac <__mulsf3+0x5c>
3000e224:	00098513          	mv	a0,s3
3000e228:	00b12623          	sw	a1,12(sp)
3000e22c:	2a9000ef          	jal	ra,3000ecd4 <__clzsi2>
3000e230:	ffb50793          	addi	a5,a0,-5
3000e234:	f8a00413          	li	s0,-118
3000e238:	00f999b3          	sll	s3,s3,a5
3000e23c:	40a40433          	sub	s0,s0,a0
3000e240:	00000493          	li	s1,0
3000e244:	00000b13          	li	s6,0
3000e248:	00c12583          	lw	a1,12(sp)
3000e24c:	e61ff06f          	j	3000e0ac <__mulsf3+0x5c>
3000e250:	0034e493          	ori	s1,s1,3
3000e254:	00300613          	li	a2,3
3000e258:	e8dff06f          	j	3000e0e4 <__mulsf3+0x94>
3000e25c:	00200793          	li	a5,2
3000e260:	000a0693          	mv	a3,s4
3000e264:	f2fb12e3          	bne	s6,a5,3000e188 <__mulsf3+0x138>
3000e268:	00068513          	mv	a0,a3
3000e26c:	0ff00713          	li	a4,255
3000e270:	00000793          	li	a5,0
3000e274:	ec1ff06f          	j	3000e134 <__mulsf3+0xe4>
3000e278:	00010337          	lui	t1,0x10
3000e27c:	fff30693          	addi	a3,t1,-1 # ffff <stackPointer+0x92bf>
3000e280:	0109d613          	srli	a2,s3,0x10
3000e284:	010ad893          	srli	a7,s5,0x10
3000e288:	00d9f7b3          	and	a5,s3,a3
3000e28c:	00dafab3          	and	s5,s5,a3
3000e290:	03578833          	mul	a6,a5,s5
3000e294:	02f889b3          	mul	s3,a7,a5
3000e298:	01085713          	srli	a4,a6,0x10
3000e29c:	03560ab3          	mul	s5,a2,s5
3000e2a0:	015989b3          	add	s3,s3,s5
3000e2a4:	01370733          	add	a4,a4,s3
3000e2a8:	03160633          	mul	a2,a2,a7
3000e2ac:	01577463          	bgeu	a4,s5,3000e2b4 <__mulsf3+0x264>
3000e2b0:	00660633          	add	a2,a2,t1
3000e2b4:	000107b7          	lui	a5,0x10
3000e2b8:	fff78793          	addi	a5,a5,-1 # ffff <stackPointer+0x92bf>
3000e2bc:	00f776b3          	and	a3,a4,a5
3000e2c0:	00f87833          	and	a6,a6,a5
3000e2c4:	01069693          	slli	a3,a3,0x10
3000e2c8:	010686b3          	add	a3,a3,a6
3000e2cc:	00669993          	slli	s3,a3,0x6
3000e2d0:	01075793          	srli	a5,a4,0x10
3000e2d4:	013039b3          	snez	s3,s3
3000e2d8:	01a6d693          	srli	a3,a3,0x1a
3000e2dc:	00c787b3          	add	a5,a5,a2
3000e2e0:	00679793          	slli	a5,a5,0x6
3000e2e4:	00d9e6b3          	or	a3,s3,a3
3000e2e8:	00d7e9b3          	or	s3,a5,a3
3000e2ec:	00499793          	slli	a5,s3,0x4
3000e2f0:	0007da63          	bgez	a5,3000e304 <__mulsf3+0x2b4>
3000e2f4:	0019d713          	srli	a4,s3,0x1
3000e2f8:	0019f793          	andi	a5,s3,1
3000e2fc:	00f769b3          	or	s3,a4,a5
3000e300:	00058413          	mv	s0,a1
3000e304:	07f40713          	addi	a4,s0,127
3000e308:	04e05663          	blez	a4,3000e354 <__mulsf3+0x304>
3000e30c:	0079f793          	andi	a5,s3,7
3000e310:	00078a63          	beqz	a5,3000e324 <__mulsf3+0x2d4>
3000e314:	00f9f793          	andi	a5,s3,15
3000e318:	00400693          	li	a3,4
3000e31c:	00d78463          	beq	a5,a3,3000e324 <__mulsf3+0x2d4>
3000e320:	00498993          	addi	s3,s3,4
3000e324:	00499793          	slli	a5,s3,0x4
3000e328:	0007da63          	bgez	a5,3000e33c <__mulsf3+0x2ec>
3000e32c:	f80007b7          	lui	a5,0xf8000
3000e330:	fff78793          	addi	a5,a5,-1 # f7ffffff <__bss_end__+0xc7efffff>
3000e334:	00f9f9b3          	and	s3,s3,a5
3000e338:	08040713          	addi	a4,s0,128
3000e33c:	0fe00793          	li	a5,254
3000e340:	06e7ca63          	blt	a5,a4,3000e3b4 <__mulsf3+0x364>
3000e344:	00699793          	slli	a5,s3,0x6
3000e348:	0097d793          	srli	a5,a5,0x9
3000e34c:	0ff77713          	andi	a4,a4,255
3000e350:	de5ff06f          	j	3000e134 <__mulsf3+0xe4>
3000e354:	00100793          	li	a5,1
3000e358:	40e786b3          	sub	a3,a5,a4
3000e35c:	00070a63          	beqz	a4,3000e370 <__mulsf3+0x320>
3000e360:	01b00613          	li	a2,27
3000e364:	00000713          	li	a4,0
3000e368:	00000793          	li	a5,0
3000e36c:	dcd644e3          	blt	a2,a3,3000e134 <__mulsf3+0xe4>
3000e370:	09e40713          	addi	a4,s0,158
3000e374:	00e99733          	sll	a4,s3,a4
3000e378:	00e03733          	snez	a4,a4
3000e37c:	00d9d7b3          	srl	a5,s3,a3
3000e380:	00e7e7b3          	or	a5,a5,a4
3000e384:	0077f713          	andi	a4,a5,7
3000e388:	00070a63          	beqz	a4,3000e39c <__mulsf3+0x34c>
3000e38c:	00f7f713          	andi	a4,a5,15
3000e390:	00400693          	li	a3,4
3000e394:	00d70463          	beq	a4,a3,3000e39c <__mulsf3+0x34c>
3000e398:	00478793          	addi	a5,a5,4
3000e39c:	00579713          	slli	a4,a5,0x5
3000e3a0:	02074463          	bltz	a4,3000e3c8 <__mulsf3+0x378>
3000e3a4:	00679793          	slli	a5,a5,0x6
3000e3a8:	0097d793          	srli	a5,a5,0x9
3000e3ac:	00000713          	li	a4,0
3000e3b0:	d85ff06f          	j	3000e134 <__mulsf3+0xe4>
3000e3b4:	0ff00713          	li	a4,255
3000e3b8:	00000793          	li	a5,0
3000e3bc:	d79ff06f          	j	3000e134 <__mulsf3+0xe4>
3000e3c0:	00058413          	mv	s0,a1
3000e3c4:	f41ff06f          	j	3000e304 <__mulsf3+0x2b4>
3000e3c8:	00100713          	li	a4,1
3000e3cc:	00000793          	li	a5,0
3000e3d0:	d65ff06f          	j	3000e134 <__mulsf3+0xe4>

Disassembly of section .text.__subsf3:

3000e3d4 <__subsf3>:
3000e3d4:	00800737          	lui	a4,0x800
3000e3d8:	ff010113          	addi	sp,sp,-16
3000e3dc:	fff70713          	addi	a4,a4,-1 # 7fffff <stackPointer+0x7f92bf>
3000e3e0:	01755693          	srli	a3,a0,0x17
3000e3e4:	0175d813          	srli	a6,a1,0x17
3000e3e8:	00a777b3          	and	a5,a4,a0
3000e3ec:	0ff6f693          	andi	a3,a3,255
3000e3f0:	01f55e93          	srli	t4,a0,0x1f
3000e3f4:	00b77633          	and	a2,a4,a1
3000e3f8:	00912223          	sw	s1,4(sp)
3000e3fc:	01212023          	sw	s2,0(sp)
3000e400:	0ff87813          	andi	a6,a6,255
3000e404:	00112623          	sw	ra,12(sp)
3000e408:	00812423          	sw	s0,8(sp)
3000e40c:	0ff00313          	li	t1,255
3000e410:	00078e13          	mv	t3,a5
3000e414:	00068913          	mv	s2,a3
3000e418:	000e8493          	mv	s1,t4
3000e41c:	00379f13          	slli	t5,a5,0x3
3000e420:	01f5d593          	srli	a1,a1,0x1f
3000e424:	00361513          	slli	a0,a2,0x3
3000e428:	410688b3          	sub	a7,a3,a6
3000e42c:	14680063          	beq	a6,t1,3000e56c <__subsf3+0x198>
3000e430:	0015c593          	xori	a1,a1,1
3000e434:	14be8c63          	beq	t4,a1,3000e58c <__subsf3+0x1b8>
3000e438:	0f105e63          	blez	a7,3000e534 <__subsf3+0x160>
3000e43c:	12081e63          	bnez	a6,3000e578 <__subsf3+0x1a4>
3000e440:	24050a63          	beqz	a0,3000e694 <__subsf3+0x2c0>
3000e444:	fff88893          	addi	a7,a7,-1
3000e448:	40af07b3          	sub	a5,t5,a0
3000e44c:	02088863          	beqz	a7,3000e47c <__subsf3+0xa8>
3000e450:	0ff00793          	li	a5,255
3000e454:	1cf68463          	beq	a3,a5,3000e61c <__subsf3+0x248>
3000e458:	01b00793          	li	a5,27
3000e45c:	3317c263          	blt	a5,a7,3000e780 <__subsf3+0x3ac>
3000e460:	02000713          	li	a4,32
3000e464:	41170733          	sub	a4,a4,a7
3000e468:	00e51733          	sll	a4,a0,a4
3000e46c:	011557b3          	srl	a5,a0,a7
3000e470:	00e03733          	snez	a4,a4
3000e474:	00e7e7b3          	or	a5,a5,a4
3000e478:	40ff07b3          	sub	a5,t5,a5
3000e47c:	00579713          	slli	a4,a5,0x5
3000e480:	20075463          	bgez	a4,3000e688 <__subsf3+0x2b4>
3000e484:	04000437          	lui	s0,0x4000
3000e488:	fff40413          	addi	s0,s0,-1 # 3ffffff <stackPointer+0x3ff92bf>
3000e48c:	0087f433          	and	s0,a5,s0
3000e490:	00040513          	mv	a0,s0
3000e494:	041000ef          	jal	ra,3000ecd4 <__clzsi2>
3000e498:	ffb50513          	addi	a0,a0,-5
3000e49c:	00a417b3          	sll	a5,s0,a0
3000e4a0:	23254063          	blt	a0,s2,3000e6c0 <__subsf3+0x2ec>
3000e4a4:	41250533          	sub	a0,a0,s2
3000e4a8:	00150413          	addi	s0,a0,1
3000e4ac:	02000713          	li	a4,32
3000e4b0:	40870733          	sub	a4,a4,s0
3000e4b4:	00e79733          	sll	a4,a5,a4
3000e4b8:	00e03733          	snez	a4,a4
3000e4bc:	0087d7b3          	srl	a5,a5,s0
3000e4c0:	00e7e7b3          	or	a5,a5,a4
3000e4c4:	00000913          	li	s2,0
3000e4c8:	0077f713          	andi	a4,a5,7
3000e4cc:	00070a63          	beqz	a4,3000e4e0 <__subsf3+0x10c>
3000e4d0:	00f7f713          	andi	a4,a5,15
3000e4d4:	00400693          	li	a3,4
3000e4d8:	00d70463          	beq	a4,a3,3000e4e0 <__subsf3+0x10c>
3000e4dc:	00478793          	addi	a5,a5,4
3000e4e0:	00579713          	slli	a4,a5,0x5
3000e4e4:	1a075663          	bgez	a4,3000e690 <__subsf3+0x2bc>
3000e4e8:	00190693          	addi	a3,s2,1
3000e4ec:	0ff00713          	li	a4,255
3000e4f0:	0014fe93          	andi	t4,s1,1
3000e4f4:	1ce68063          	beq	a3,a4,3000e6b4 <__subsf3+0x2e0>
3000e4f8:	00679793          	slli	a5,a5,0x6
3000e4fc:	0097d793          	srli	a5,a5,0x9
3000e500:	0ff6f693          	andi	a3,a3,255
3000e504:	00979793          	slli	a5,a5,0x9
3000e508:	00c12083          	lw	ra,12(sp)
3000e50c:	00812403          	lw	s0,8(sp)
3000e510:	0097d513          	srli	a0,a5,0x9
3000e514:	01769693          	slli	a3,a3,0x17
3000e518:	01fe9793          	slli	a5,t4,0x1f
3000e51c:	00d56533          	or	a0,a0,a3
3000e520:	00412483          	lw	s1,4(sp)
3000e524:	00012903          	lw	s2,0(sp)
3000e528:	00f56533          	or	a0,a0,a5
3000e52c:	01010113          	addi	sp,sp,16
3000e530:	00008067          	ret
3000e534:	0c089263          	bnez	a7,3000e5f8 <__subsf3+0x224>
3000e538:	00168713          	addi	a4,a3,1
3000e53c:	0fe77713          	andi	a4,a4,254
3000e540:	18071e63          	bnez	a4,3000e6dc <__subsf3+0x308>
3000e544:	2a069a63          	bnez	a3,3000e7f8 <__subsf3+0x424>
3000e548:	280f0063          	beqz	t5,3000e7c8 <__subsf3+0x3f4>
3000e54c:	fa050ce3          	beqz	a0,3000e504 <__subsf3+0x130>
3000e550:	40af07b3          	sub	a5,t5,a0
3000e554:	00579713          	slli	a4,a5,0x5
3000e558:	2c075063          	bgez	a4,3000e818 <__subsf3+0x444>
3000e55c:	41e507b3          	sub	a5,a0,t5
3000e560:	00000913          	li	s2,0
3000e564:	00058493          	mv	s1,a1
3000e568:	f61ff06f          	j	3000e4c8 <__subsf3+0xf4>
3000e56c:	ec0502e3          	beqz	a0,3000e430 <__subsf3+0x5c>
3000e570:	0cbe8e63          	beq	t4,a1,3000e64c <__subsf3+0x278>
3000e574:	fd1050e3          	blez	a7,3000e534 <__subsf3+0x160>
3000e578:	0ff00793          	li	a5,255
3000e57c:	0af68063          	beq	a3,a5,3000e61c <__subsf3+0x248>
3000e580:	040007b7          	lui	a5,0x4000
3000e584:	00f56533          	or	a0,a0,a5
3000e588:	ed1ff06f          	j	3000e458 <__subsf3+0x84>
3000e58c:	0d105063          	blez	a7,3000e64c <__subsf3+0x278>
3000e590:	0a080063          	beqz	a6,3000e630 <__subsf3+0x25c>
3000e594:	0ff00793          	li	a5,255
3000e598:	08f68263          	beq	a3,a5,3000e61c <__subsf3+0x248>
3000e59c:	040007b7          	lui	a5,0x4000
3000e5a0:	00f56533          	or	a0,a0,a5
3000e5a4:	01b00793          	li	a5,27
3000e5a8:	2717c063          	blt	a5,a7,3000e808 <__subsf3+0x434>
3000e5ac:	02000713          	li	a4,32
3000e5b0:	41170733          	sub	a4,a4,a7
3000e5b4:	00e51733          	sll	a4,a0,a4
3000e5b8:	011557b3          	srl	a5,a0,a7
3000e5bc:	00e03733          	snez	a4,a4
3000e5c0:	00e7e7b3          	or	a5,a5,a4
3000e5c4:	01e787b3          	add	a5,a5,t5
3000e5c8:	00579713          	slli	a4,a5,0x5
3000e5cc:	0a075e63          	bgez	a4,3000e688 <__subsf3+0x2b4>
3000e5d0:	00190913          	addi	s2,s2,1
3000e5d4:	0ff00713          	li	a4,255
3000e5d8:	0ce90e63          	beq	s2,a4,3000e6b4 <__subsf3+0x2e0>
3000e5dc:	7e0006b7          	lui	a3,0x7e000
3000e5e0:	0017d713          	srli	a4,a5,0x1
3000e5e4:	fff68693          	addi	a3,a3,-1 # 7dffffff <__bss_end__+0x4defffff>
3000e5e8:	0017f793          	andi	a5,a5,1
3000e5ec:	00d77733          	and	a4,a4,a3
3000e5f0:	00f767b3          	or	a5,a4,a5
3000e5f4:	ed5ff06f          	j	3000e4c8 <__subsf3+0xf4>
3000e5f8:	40d80733          	sub	a4,a6,a3
3000e5fc:	14069263          	bnez	a3,3000e740 <__subsf3+0x36c>
3000e600:	1a0f0663          	beqz	t5,3000e7ac <__subsf3+0x3d8>
3000e604:	fff70713          	addi	a4,a4,-1
3000e608:	22070263          	beqz	a4,3000e82c <__subsf3+0x458>
3000e60c:	0ff00793          	li	a5,255
3000e610:	14f81063          	bne	a6,a5,3000e750 <__subsf3+0x37c>
3000e614:	00058493          	mv	s1,a1
3000e618:	00060e13          	mv	t3,a2
3000e61c:	080e0a63          	beqz	t3,3000e6b0 <__subsf3+0x2dc>
3000e620:	00000e93          	li	t4,0
3000e624:	0ff00693          	li	a3,255
3000e628:	004007b7          	lui	a5,0x400
3000e62c:	ed9ff06f          	j	3000e504 <__subsf3+0x130>
3000e630:	06050263          	beqz	a0,3000e694 <__subsf3+0x2c0>
3000e634:	fff88893          	addi	a7,a7,-1
3000e638:	00af07b3          	add	a5,t5,a0
3000e63c:	f80886e3          	beqz	a7,3000e5c8 <__subsf3+0x1f4>
3000e640:	0ff00793          	li	a5,255
3000e644:	f6f690e3          	bne	a3,a5,3000e5a4 <__subsf3+0x1d0>
3000e648:	fd5ff06f          	j	3000e61c <__subsf3+0x248>
3000e64c:	0a089863          	bnez	a7,3000e6fc <__subsf3+0x328>
3000e650:	00168913          	addi	s2,a3,1
3000e654:	0fe97713          	andi	a4,s2,254
3000e658:	18071063          	bnez	a4,3000e7d8 <__subsf3+0x404>
3000e65c:	16069063          	bnez	a3,3000e7bc <__subsf3+0x3e8>
3000e660:	1c0f0e63          	beqz	t5,3000e83c <__subsf3+0x468>
3000e664:	ea0500e3          	beqz	a0,3000e504 <__subsf3+0x130>
3000e668:	00af07b3          	add	a5,t5,a0
3000e66c:	00579713          	slli	a4,a5,0x5
3000e670:	00000913          	li	s2,0
3000e674:	00075a63          	bgez	a4,3000e688 <__subsf3+0x2b4>
3000e678:	fc000737          	lui	a4,0xfc000
3000e67c:	fff70713          	addi	a4,a4,-1 # fbffffff <__bss_end__+0xcbefffff>
3000e680:	00e7f7b3          	and	a5,a5,a4
3000e684:	00100913          	li	s2,1
3000e688:	0077f713          	andi	a4,a5,7
3000e68c:	e40712e3          	bnez	a4,3000e4d0 <__subsf3+0xfc>
3000e690:	0037de13          	srli	t3,a5,0x3
3000e694:	0ff00793          	li	a5,255
3000e698:	f8f902e3          	beq	s2,a5,3000e61c <__subsf3+0x248>
3000e69c:	009e1793          	slli	a5,t3,0x9
3000e6a0:	0097d793          	srli	a5,a5,0x9
3000e6a4:	0ff97693          	andi	a3,s2,255
3000e6a8:	0014fe93          	andi	t4,s1,1
3000e6ac:	e59ff06f          	j	3000e504 <__subsf3+0x130>
3000e6b0:	0014fe93          	andi	t4,s1,1
3000e6b4:	0ff00693          	li	a3,255
3000e6b8:	00000793          	li	a5,0
3000e6bc:	e49ff06f          	j	3000e504 <__subsf3+0x130>
3000e6c0:	fc000737          	lui	a4,0xfc000
3000e6c4:	fff70713          	addi	a4,a4,-1 # fbffffff <__bss_end__+0xcbefffff>
3000e6c8:	00e7f7b3          	and	a5,a5,a4
3000e6cc:	0077f713          	andi	a4,a5,7
3000e6d0:	40a90933          	sub	s2,s2,a0
3000e6d4:	de071ee3          	bnez	a4,3000e4d0 <__subsf3+0xfc>
3000e6d8:	fb9ff06f          	j	3000e690 <__subsf3+0x2bc>
3000e6dc:	40af0433          	sub	s0,t5,a0
3000e6e0:	00541793          	slli	a5,s0,0x5
3000e6e4:	1007c463          	bltz	a5,3000e7ec <__subsf3+0x418>
3000e6e8:	da0414e3          	bnez	s0,3000e490 <__subsf3+0xbc>
3000e6ec:	00000e93          	li	t4,0
3000e6f0:	00000693          	li	a3,0
3000e6f4:	00000793          	li	a5,0
3000e6f8:	e0dff06f          	j	3000e504 <__subsf3+0x130>
3000e6fc:	40d80733          	sub	a4,a6,a3
3000e700:	08068463          	beqz	a3,3000e788 <__subsf3+0x3b4>
3000e704:	0ff00793          	li	a5,255
3000e708:	f0f808e3          	beq	a6,a5,3000e618 <__subsf3+0x244>
3000e70c:	040007b7          	lui	a5,0x4000
3000e710:	00ff6f33          	or	t5,t5,a5
3000e714:	01b00793          	li	a5,27
3000e718:	12e7cc63          	blt	a5,a4,3000e850 <__subsf3+0x47c>
3000e71c:	02000793          	li	a5,32
3000e720:	40e787b3          	sub	a5,a5,a4
3000e724:	00ff17b3          	sll	a5,t5,a5
3000e728:	00ef5733          	srl	a4,t5,a4
3000e72c:	00f037b3          	snez	a5,a5
3000e730:	00f76733          	or	a4,a4,a5
3000e734:	00a707b3          	add	a5,a4,a0
3000e738:	00080913          	mv	s2,a6
3000e73c:	e8dff06f          	j	3000e5c8 <__subsf3+0x1f4>
3000e740:	0ff00793          	li	a5,255
3000e744:	ecf808e3          	beq	a6,a5,3000e614 <__subsf3+0x240>
3000e748:	040007b7          	lui	a5,0x4000
3000e74c:	00ff6f33          	or	t5,t5,a5
3000e750:	01b00793          	li	a5,27
3000e754:	0ae7ce63          	blt	a5,a4,3000e810 <__subsf3+0x43c>
3000e758:	02000793          	li	a5,32
3000e75c:	40e787b3          	sub	a5,a5,a4
3000e760:	00ff17b3          	sll	a5,t5,a5
3000e764:	00ef5733          	srl	a4,t5,a4
3000e768:	00f037b3          	snez	a5,a5
3000e76c:	00f767b3          	or	a5,a4,a5
3000e770:	40f507b3          	sub	a5,a0,a5
3000e774:	00080913          	mv	s2,a6
3000e778:	00058493          	mv	s1,a1
3000e77c:	d01ff06f          	j	3000e47c <__subsf3+0xa8>
3000e780:	00100793          	li	a5,1
3000e784:	cf5ff06f          	j	3000e478 <__subsf3+0xa4>
3000e788:	0a0f0e63          	beqz	t5,3000e844 <__subsf3+0x470>
3000e78c:	fff70713          	addi	a4,a4,-1
3000e790:	00af07b3          	add	a5,t5,a0
3000e794:	00080913          	mv	s2,a6
3000e798:	e20708e3          	beqz	a4,3000e5c8 <__subsf3+0x1f4>
3000e79c:	0ff00793          	li	a5,255
3000e7a0:	f6f81ae3          	bne	a6,a5,3000e714 <__subsf3+0x340>
3000e7a4:	00060e13          	mv	t3,a2
3000e7a8:	e75ff06f          	j	3000e61c <__subsf3+0x248>
3000e7ac:	00060e13          	mv	t3,a2
3000e7b0:	00080913          	mv	s2,a6
3000e7b4:	00058493          	mv	s1,a1
3000e7b8:	eddff06f          	j	3000e694 <__subsf3+0x2c0>
3000e7bc:	e40f0ee3          	beqz	t5,3000e618 <__subsf3+0x244>
3000e7c0:	e4050ee3          	beqz	a0,3000e61c <__subsf3+0x248>
3000e7c4:	e5dff06f          	j	3000e620 <__subsf3+0x24c>
3000e7c8:	04050c63          	beqz	a0,3000e820 <__subsf3+0x44c>
3000e7cc:	00058e93          	mv	t4,a1
3000e7d0:	00060793          	mv	a5,a2
3000e7d4:	d31ff06f          	j	3000e504 <__subsf3+0x130>
3000e7d8:	0ff00793          	li	a5,255
3000e7dc:	ecf90ce3          	beq	s2,a5,3000e6b4 <__subsf3+0x2e0>
3000e7e0:	00af07b3          	add	a5,t5,a0
3000e7e4:	0017d793          	srli	a5,a5,0x1
3000e7e8:	ea1ff06f          	j	3000e688 <__subsf3+0x2b4>
3000e7ec:	41e50433          	sub	s0,a0,t5
3000e7f0:	00058493          	mv	s1,a1
3000e7f4:	c9dff06f          	j	3000e490 <__subsf3+0xbc>
3000e7f8:	fc0f14e3          	bnez	t5,3000e7c0 <__subsf3+0x3ec>
3000e7fc:	e20502e3          	beqz	a0,3000e620 <__subsf3+0x24c>
3000e800:	00058493          	mv	s1,a1
3000e804:	e15ff06f          	j	3000e618 <__subsf3+0x244>
3000e808:	00100793          	li	a5,1
3000e80c:	db9ff06f          	j	3000e5c4 <__subsf3+0x1f0>
3000e810:	00100793          	li	a5,1
3000e814:	f5dff06f          	j	3000e770 <__subsf3+0x39c>
3000e818:	00000913          	li	s2,0
3000e81c:	e60796e3          	bnez	a5,3000e688 <__subsf3+0x2b4>
3000e820:	00000e93          	li	t4,0
3000e824:	00000793          	li	a5,0
3000e828:	cddff06f          	j	3000e504 <__subsf3+0x130>
3000e82c:	41e507b3          	sub	a5,a0,t5
3000e830:	00080913          	mv	s2,a6
3000e834:	00058493          	mv	s1,a1
3000e838:	c45ff06f          	j	3000e47c <__subsf3+0xa8>
3000e83c:	00060793          	mv	a5,a2
3000e840:	cc5ff06f          	j	3000e504 <__subsf3+0x130>
3000e844:	00060e13          	mv	t3,a2
3000e848:	00080913          	mv	s2,a6
3000e84c:	e49ff06f          	j	3000e694 <__subsf3+0x2c0>
3000e850:	00100713          	li	a4,1
3000e854:	ee1ff06f          	j	3000e734 <__subsf3+0x360>

Disassembly of section .text.__fixsfsi:

3000e858 <__fixsfsi>:
3000e858:	00800637          	lui	a2,0x800
3000e85c:	01755713          	srli	a4,a0,0x17
3000e860:	fff60793          	addi	a5,a2,-1 # 7fffff <stackPointer+0x7f92bf>
3000e864:	0ff77713          	andi	a4,a4,255
3000e868:	07e00593          	li	a1,126
3000e86c:	00a7f6b3          	and	a3,a5,a0
3000e870:	01f55793          	srli	a5,a0,0x1f
3000e874:	00e5fe63          	bgeu	a1,a4,3000e890 <__fixsfsi+0x38>
3000e878:	09d00593          	li	a1,157
3000e87c:	00e5fe63          	bgeu	a1,a4,3000e898 <__fixsfsi+0x40>
3000e880:	80000537          	lui	a0,0x80000
3000e884:	fff54513          	not	a0,a0
3000e888:	00a78533          	add	a0,a5,a0
3000e88c:	00008067          	ret
3000e890:	00000513          	li	a0,0
3000e894:	00008067          	ret
3000e898:	09500593          	li	a1,149
3000e89c:	00c6e6b3          	or	a3,a3,a2
3000e8a0:	02e5c063          	blt	a1,a4,3000e8c0 <__fixsfsi+0x68>
3000e8a4:	09600613          	li	a2,150
3000e8a8:	40e60733          	sub	a4,a2,a4
3000e8ac:	00e6d733          	srl	a4,a3,a4
3000e8b0:	40e00533          	neg	a0,a4
3000e8b4:	fe0790e3          	bnez	a5,3000e894 <__fixsfsi+0x3c>
3000e8b8:	00070513          	mv	a0,a4
3000e8bc:	00008067          	ret
3000e8c0:	f6a70713          	addi	a4,a4,-150
3000e8c4:	00e69733          	sll	a4,a3,a4
3000e8c8:	fe9ff06f          	j	3000e8b0 <__fixsfsi+0x58>

Disassembly of section .text.__floatsisf:

3000e8cc <__floatsisf>:
3000e8cc:	ff010113          	addi	sp,sp,-16
3000e8d0:	00112623          	sw	ra,12(sp)
3000e8d4:	00812423          	sw	s0,8(sp)
3000e8d8:	00912223          	sw	s1,4(sp)
3000e8dc:	04050863          	beqz	a0,3000e92c <__floatsisf+0x60>
3000e8e0:	41f55793          	srai	a5,a0,0x1f
3000e8e4:	00a7c433          	xor	s0,a5,a0
3000e8e8:	40f40433          	sub	s0,s0,a5
3000e8ec:	00050493          	mv	s1,a0
3000e8f0:	00040513          	mv	a0,s0
3000e8f4:	3e0000ef          	jal	ra,3000ecd4 <__clzsi2>
3000e8f8:	09e00793          	li	a5,158
3000e8fc:	40a78733          	sub	a4,a5,a0
3000e900:	09600793          	li	a5,150
3000e904:	01f4d493          	srli	s1,s1,0x1f
3000e908:	04e7ce63          	blt	a5,a4,3000e964 <__floatsisf+0x98>
3000e90c:	00800693          	li	a3,8
3000e910:	0ff77793          	andi	a5,a4,255
3000e914:	00a6d663          	bge	a3,a0,3000e920 <__floatsisf+0x54>
3000e918:	ff850513          	addi	a0,a0,-8 # 7ffffff8 <__bss_end__+0x4feffff8>
3000e91c:	00a41433          	sll	s0,s0,a0
3000e920:	00941413          	slli	s0,s0,0x9
3000e924:	00945413          	srli	s0,s0,0x9
3000e928:	0100006f          	j	3000e938 <__floatsisf+0x6c>
3000e92c:	00000493          	li	s1,0
3000e930:	00000793          	li	a5,0
3000e934:	00000413          	li	s0,0
3000e938:	00941413          	slli	s0,s0,0x9
3000e93c:	00945513          	srli	a0,s0,0x9
3000e940:	00c12083          	lw	ra,12(sp)
3000e944:	00812403          	lw	s0,8(sp)
3000e948:	01779793          	slli	a5,a5,0x17
3000e94c:	01f49493          	slli	s1,s1,0x1f
3000e950:	00f56533          	or	a0,a0,a5
3000e954:	00956533          	or	a0,a0,s1
3000e958:	00412483          	lw	s1,4(sp)
3000e95c:	01010113          	addi	sp,sp,16
3000e960:	00008067          	ret
3000e964:	09900793          	li	a5,153
3000e968:	02e7d063          	bge	a5,a4,3000e988 <__floatsisf+0xbc>
3000e96c:	01b50793          	addi	a5,a0,27
3000e970:	00500693          	li	a3,5
3000e974:	00f417b3          	sll	a5,s0,a5
3000e978:	40a686b3          	sub	a3,a3,a0
3000e97c:	00d45433          	srl	s0,s0,a3
3000e980:	00f037b3          	snez	a5,a5
3000e984:	00f46433          	or	s0,s0,a5
3000e988:	00500793          	li	a5,5
3000e98c:	00a7d663          	bge	a5,a0,3000e998 <__floatsisf+0xcc>
3000e990:	ffb50793          	addi	a5,a0,-5
3000e994:	00f41433          	sll	s0,s0,a5
3000e998:	fc0006b7          	lui	a3,0xfc000
3000e99c:	fff68693          	addi	a3,a3,-1 # fbffffff <__bss_end__+0xcbefffff>
3000e9a0:	00747793          	andi	a5,s0,7
3000e9a4:	00d47633          	and	a2,s0,a3
3000e9a8:	02078463          	beqz	a5,3000e9d0 <__floatsisf+0x104>
3000e9ac:	00f47793          	andi	a5,s0,15
3000e9b0:	00400593          	li	a1,4
3000e9b4:	00b78e63          	beq	a5,a1,3000e9d0 <__floatsisf+0x104>
3000e9b8:	00460613          	addi	a2,a2,4
3000e9bc:	00561793          	slli	a5,a2,0x5
3000e9c0:	0007d863          	bgez	a5,3000e9d0 <__floatsisf+0x104>
3000e9c4:	09f00793          	li	a5,159
3000e9c8:	00d67633          	and	a2,a2,a3
3000e9cc:	40a78733          	sub	a4,a5,a0
3000e9d0:	00661413          	slli	s0,a2,0x6
3000e9d4:	00945413          	srli	s0,s0,0x9
3000e9d8:	0ff77793          	andi	a5,a4,255
3000e9dc:	f5dff06f          	j	3000e938 <__floatsisf+0x6c>

Disassembly of section .text.__extendsfdf2:

3000e9e0 <__extendsfdf2>:
3000e9e0:	01755713          	srli	a4,a0,0x17
3000e9e4:	0ff77713          	andi	a4,a4,255
3000e9e8:	ff010113          	addi	sp,sp,-16
3000e9ec:	00170793          	addi	a5,a4,1
3000e9f0:	00812423          	sw	s0,8(sp)
3000e9f4:	00912223          	sw	s1,4(sp)
3000e9f8:	00951413          	slli	s0,a0,0x9
3000e9fc:	00112623          	sw	ra,12(sp)
3000ea00:	0fe7f793          	andi	a5,a5,254
3000ea04:	00945413          	srli	s0,s0,0x9
3000ea08:	01f55493          	srli	s1,a0,0x1f
3000ea0c:	04078263          	beqz	a5,3000ea50 <__extendsfdf2+0x70>
3000ea10:	00345793          	srli	a5,s0,0x3
3000ea14:	38070713          	addi	a4,a4,896
3000ea18:	01d41413          	slli	s0,s0,0x1d
3000ea1c:	00c79793          	slli	a5,a5,0xc
3000ea20:	01471713          	slli	a4,a4,0x14
3000ea24:	00c7d793          	srli	a5,a5,0xc
3000ea28:	01f49513          	slli	a0,s1,0x1f
3000ea2c:	00e7e7b3          	or	a5,a5,a4
3000ea30:	00a7e7b3          	or	a5,a5,a0
3000ea34:	00c12083          	lw	ra,12(sp)
3000ea38:	00040513          	mv	a0,s0
3000ea3c:	00812403          	lw	s0,8(sp)
3000ea40:	00412483          	lw	s1,4(sp)
3000ea44:	00078593          	mv	a1,a5
3000ea48:	01010113          	addi	sp,sp,16
3000ea4c:	00008067          	ret
3000ea50:	04071263          	bnez	a4,3000ea94 <__extendsfdf2+0xb4>
3000ea54:	06040863          	beqz	s0,3000eac4 <__extendsfdf2+0xe4>
3000ea58:	00040513          	mv	a0,s0
3000ea5c:	278000ef          	jal	ra,3000ecd4 <__clzsi2>
3000ea60:	00a00793          	li	a5,10
3000ea64:	06a7c663          	blt	a5,a0,3000ead0 <__extendsfdf2+0xf0>
3000ea68:	00b00713          	li	a4,11
3000ea6c:	40a70733          	sub	a4,a4,a0
3000ea70:	01550793          	addi	a5,a0,21
3000ea74:	00e45733          	srl	a4,s0,a4
3000ea78:	00f41433          	sll	s0,s0,a5
3000ea7c:	00c71793          	slli	a5,a4,0xc
3000ea80:	38900713          	li	a4,905
3000ea84:	40a70733          	sub	a4,a4,a0
3000ea88:	00c7d793          	srli	a5,a5,0xc
3000ea8c:	7ff77713          	andi	a4,a4,2047
3000ea90:	f8dff06f          	j	3000ea1c <__extendsfdf2+0x3c>
3000ea94:	02040263          	beqz	s0,3000eab8 <__extendsfdf2+0xd8>
3000ea98:	00345713          	srli	a4,s0,0x3
3000ea9c:	000807b7          	lui	a5,0x80
3000eaa0:	00f767b3          	or	a5,a4,a5
3000eaa4:	00c79793          	slli	a5,a5,0xc
3000eaa8:	01d41413          	slli	s0,s0,0x1d
3000eaac:	00c7d793          	srli	a5,a5,0xc
3000eab0:	7ff00713          	li	a4,2047
3000eab4:	f69ff06f          	j	3000ea1c <__extendsfdf2+0x3c>
3000eab8:	7ff00713          	li	a4,2047
3000eabc:	00000793          	li	a5,0
3000eac0:	f5dff06f          	j	3000ea1c <__extendsfdf2+0x3c>
3000eac4:	00000713          	li	a4,0
3000eac8:	00000793          	li	a5,0
3000eacc:	f51ff06f          	j	3000ea1c <__extendsfdf2+0x3c>
3000ead0:	ff550713          	addi	a4,a0,-11
3000ead4:	00e41733          	sll	a4,s0,a4
3000ead8:	00000413          	li	s0,0
3000eadc:	fa1ff06f          	j	3000ea7c <__extendsfdf2+0x9c>

Disassembly of section .text.__truncdfsf2:

3000eae0 <__truncdfsf2>:
3000eae0:	0145d693          	srli	a3,a1,0x14
3000eae4:	00c59793          	slli	a5,a1,0xc
3000eae8:	7ff6f693          	andi	a3,a3,2047
3000eaec:	00c7d793          	srli	a5,a5,0xc
3000eaf0:	00168613          	addi	a2,a3,1
3000eaf4:	00379793          	slli	a5,a5,0x3
3000eaf8:	01d55713          	srli	a4,a0,0x1d
3000eafc:	7fe67613          	andi	a2,a2,2046
3000eb00:	01f5d593          	srli	a1,a1,0x1f
3000eb04:	00f76733          	or	a4,a4,a5
3000eb08:	00351893          	slli	a7,a0,0x3
3000eb0c:	0a060463          	beqz	a2,3000ebb4 <__truncdfsf2+0xd4>
3000eb10:	c8068813          	addi	a6,a3,-896
3000eb14:	0fe00793          	li	a5,254
3000eb18:	0307d463          	bge	a5,a6,3000eb40 <__truncdfsf2+0x60>
3000eb1c:	00000793          	li	a5,0
3000eb20:	00979513          	slli	a0,a5,0x9
3000eb24:	0ff00693          	li	a3,255
3000eb28:	01769693          	slli	a3,a3,0x17
3000eb2c:	00955513          	srli	a0,a0,0x9
3000eb30:	01f59593          	slli	a1,a1,0x1f
3000eb34:	00d56533          	or	a0,a0,a3
3000eb38:	00b56533          	or	a0,a0,a1
3000eb3c:	00008067          	ret
3000eb40:	0f005e63          	blez	a6,3000ec3c <__truncdfsf2+0x15c>
3000eb44:	00651793          	slli	a5,a0,0x6
3000eb48:	00371713          	slli	a4,a4,0x3
3000eb4c:	00f037b3          	snez	a5,a5
3000eb50:	00e7e7b3          	or	a5,a5,a4
3000eb54:	01d8d893          	srli	a7,a7,0x1d
3000eb58:	0117e7b3          	or	a5,a5,a7
3000eb5c:	0077f713          	andi	a4,a5,7
3000eb60:	16070663          	beqz	a4,3000eccc <__truncdfsf2+0x1ec>
3000eb64:	00f7f713          	andi	a4,a5,15
3000eb68:	00400693          	li	a3,4
3000eb6c:	00d70463          	beq	a4,a3,3000eb74 <__truncdfsf2+0x94>
3000eb70:	00478793          	addi	a5,a5,4 # 80004 <stackPointer+0x792c4>
3000eb74:	04000737          	lui	a4,0x4000
3000eb78:	00e7f733          	and	a4,a5,a4
3000eb7c:	14070863          	beqz	a4,3000eccc <__truncdfsf2+0x1ec>
3000eb80:	00180713          	addi	a4,a6,1
3000eb84:	0ff00613          	li	a2,255
3000eb88:	0ff77693          	andi	a3,a4,255
3000eb8c:	f8c708e3          	beq	a4,a2,3000eb1c <__truncdfsf2+0x3c>
3000eb90:	00679793          	slli	a5,a5,0x6
3000eb94:	0097d793          	srli	a5,a5,0x9
3000eb98:	00979513          	slli	a0,a5,0x9
3000eb9c:	01769693          	slli	a3,a3,0x17
3000eba0:	00955513          	srli	a0,a0,0x9
3000eba4:	01f59593          	slli	a1,a1,0x1f
3000eba8:	00d56533          	or	a0,a0,a3
3000ebac:	00b56533          	or	a0,a0,a1
3000ebb0:	00008067          	ret
3000ebb4:	011767b3          	or	a5,a4,a7
3000ebb8:	02069a63          	bnez	a3,3000ebec <__truncdfsf2+0x10c>
3000ebbc:	04078e63          	beqz	a5,3000ec18 <__truncdfsf2+0x138>
3000ebc0:	00500793          	li	a5,5
3000ebc4:	00679793          	slli	a5,a5,0x6
3000ebc8:	0097d793          	srli	a5,a5,0x9
3000ebcc:	00979513          	slli	a0,a5,0x9
3000ebd0:	0ff6f693          	andi	a3,a3,255
3000ebd4:	01769693          	slli	a3,a3,0x17
3000ebd8:	00955513          	srli	a0,a0,0x9
3000ebdc:	01f59593          	slli	a1,a1,0x1f
3000ebe0:	00d56533          	or	a0,a0,a3
3000ebe4:	00b56533          	or	a0,a0,a1
3000ebe8:	00008067          	ret
3000ebec:	f20788e3          	beqz	a5,3000eb1c <__truncdfsf2+0x3c>
3000ebf0:	004007b7          	lui	a5,0x400
3000ebf4:	00979513          	slli	a0,a5,0x9
3000ebf8:	0ff00693          	li	a3,255
3000ebfc:	01769693          	slli	a3,a3,0x17
3000ec00:	00000593          	li	a1,0
3000ec04:	00955513          	srli	a0,a0,0x9
3000ec08:	01f59593          	slli	a1,a1,0x1f
3000ec0c:	00d56533          	or	a0,a0,a3
3000ec10:	00b56533          	or	a0,a0,a1
3000ec14:	00008067          	ret
3000ec18:	00000793          	li	a5,0
3000ec1c:	00979513          	slli	a0,a5,0x9
3000ec20:	00000693          	li	a3,0
3000ec24:	01769693          	slli	a3,a3,0x17
3000ec28:	00955513          	srli	a0,a0,0x9
3000ec2c:	01f59593          	slli	a1,a1,0x1f
3000ec30:	00d56533          	or	a0,a0,a3
3000ec34:	00b56533          	or	a0,a0,a1
3000ec38:	00008067          	ret
3000ec3c:	fe900793          	li	a5,-23
3000ec40:	06f84263          	blt	a6,a5,3000eca4 <__truncdfsf2+0x1c4>
3000ec44:	01e00793          	li	a5,30
3000ec48:	00800637          	lui	a2,0x800
3000ec4c:	410787b3          	sub	a5,a5,a6
3000ec50:	01f00513          	li	a0,31
3000ec54:	00c76633          	or	a2,a4,a2
3000ec58:	04f55a63          	bge	a0,a5,3000ecac <__truncdfsf2+0x1cc>
3000ec5c:	ffe00713          	li	a4,-2
3000ec60:	41070733          	sub	a4,a4,a6
3000ec64:	02000513          	li	a0,32
3000ec68:	00e65733          	srl	a4,a2,a4
3000ec6c:	00a78863          	beq	a5,a0,3000ec7c <__truncdfsf2+0x19c>
3000ec70:	ca268693          	addi	a3,a3,-862
3000ec74:	00d616b3          	sll	a3,a2,a3
3000ec78:	00d8e8b3          	or	a7,a7,a3
3000ec7c:	011037b3          	snez	a5,a7
3000ec80:	00e7e7b3          	or	a5,a5,a4
3000ec84:	0077f713          	andi	a4,a5,7
3000ec88:	00000813          	li	a6,0
3000ec8c:	ec071ce3          	bnez	a4,3000eb64 <__truncdfsf2+0x84>
3000ec90:	00579713          	slli	a4,a5,0x5
3000ec94:	00100693          	li	a3,1
3000ec98:	ee074ce3          	bltz	a4,3000eb90 <__truncdfsf2+0xb0>
3000ec9c:	00000693          	li	a3,0
3000eca0:	f25ff06f          	j	3000ebc4 <__truncdfsf2+0xe4>
3000eca4:	00000693          	li	a3,0
3000eca8:	f19ff06f          	j	3000ebc0 <__truncdfsf2+0xe0>
3000ecac:	c8268693          	addi	a3,a3,-894
3000ecb0:	00d89733          	sll	a4,a7,a3
3000ecb4:	00e03733          	snez	a4,a4
3000ecb8:	00d616b3          	sll	a3,a2,a3
3000ecbc:	00f8d8b3          	srl	a7,a7,a5
3000ecc0:	00d767b3          	or	a5,a4,a3
3000ecc4:	00f8e7b3          	or	a5,a7,a5
3000ecc8:	fbdff06f          	j	3000ec84 <__truncdfsf2+0x1a4>
3000eccc:	00080693          	mv	a3,a6
3000ecd0:	ef5ff06f          	j	3000ebc4 <__truncdfsf2+0xe4>

Disassembly of section .text.__clzsi2:

3000ecd4 <__clzsi2>:
3000ecd4:	000107b7          	lui	a5,0x10
3000ecd8:	04f57463          	bgeu	a0,a5,3000ed20 <__clzsi2+0x4c>
3000ecdc:	0ff00793          	li	a5,255
3000ece0:	02000713          	li	a4,32
3000ece4:	00a7ee63          	bltu	a5,a0,3000ed00 <__clzsi2+0x2c>
3000ece8:	00002797          	auipc	a5,0x2
3000ecec:	df878793          	addi	a5,a5,-520 # 30010ae0 <__clz_tab>
3000ecf0:	00a787b3          	add	a5,a5,a0
3000ecf4:	0007c503          	lbu	a0,0(a5)
3000ecf8:	40a70533          	sub	a0,a4,a0
3000ecfc:	00008067          	ret
3000ed00:	00855513          	srli	a0,a0,0x8
3000ed04:	00002797          	auipc	a5,0x2
3000ed08:	ddc78793          	addi	a5,a5,-548 # 30010ae0 <__clz_tab>
3000ed0c:	00a787b3          	add	a5,a5,a0
3000ed10:	0007c503          	lbu	a0,0(a5)
3000ed14:	01800713          	li	a4,24
3000ed18:	40a70533          	sub	a0,a4,a0
3000ed1c:	00008067          	ret
3000ed20:	010007b7          	lui	a5,0x1000
3000ed24:	02f56263          	bltu	a0,a5,3000ed48 <__clzsi2+0x74>
3000ed28:	01855513          	srli	a0,a0,0x18
3000ed2c:	00002797          	auipc	a5,0x2
3000ed30:	db478793          	addi	a5,a5,-588 # 30010ae0 <__clz_tab>
3000ed34:	00a787b3          	add	a5,a5,a0
3000ed38:	0007c503          	lbu	a0,0(a5)
3000ed3c:	00800713          	li	a4,8
3000ed40:	40a70533          	sub	a0,a4,a0
3000ed44:	00008067          	ret
3000ed48:	01055513          	srli	a0,a0,0x10
3000ed4c:	00002797          	auipc	a5,0x2
3000ed50:	d9478793          	addi	a5,a5,-620 # 30010ae0 <__clz_tab>
3000ed54:	00a787b3          	add	a5,a5,a0
3000ed58:	0007c503          	lbu	a0,0(a5)
3000ed5c:	01000713          	li	a4,16
3000ed60:	40a70533          	sub	a0,a4,a0
3000ed64:	00008067          	ret
