
asteroids.elf:     file format elf32-littleriscv


Disassembly of section .text:

30000000 <__text_start>:
30000000:	0100006f          	j	30000010 <start>
30000004:	00000013          	nop
30000008:	00000013          	nop
3000000c:	00000013          	nop

30000010 <start>:
30000010:	00007137          	lui	sp,0x7
30000014:	d4010113          	addi	sp,sp,-704 # 6d40 <stackPointer>
30000018:	ff010113          	addi	sp,sp,-16
3000001c:	00012023          	sw	zero,0(sp)
30000020:	00012223          	sw	zero,4(sp)
30000024:	00012423          	sw	zero,8(sp)
30000028:	00012623          	sw	zero,12(sp)
3000002c:	04c0c0ef          	jal	ra,3000c078 <__data_rom_start>
30000030:	0000006f          	j	30000030 <start+0x20>
	...

30000040 <_Z8animLedsi>:
30000040:	01f55793          	srli	a5,a0,0x1f
30000044:	00f50533          	add	a0,a0,a5
30000048:	00157513          	andi	a0,a0,1
3000004c:	40f50533          	sub	a0,a0,a5
30000050:	02050a63          	beqz	a0,30000084 <_Z8animLedsi+0x44>
30000054:	00100793          	li	a5,1
30000058:	02f51263          	bne	a0,a5,3000007c <_Z8animLedsi+0x3c>
3000005c:	3000f7b7          	lui	a5,0x3000f
30000060:	1f47a783          	lw	a5,500(a5) # 3000f1f4 <bsp>
30000064:	0147a703          	lw	a4,20(a5)
30000068:	0f076713          	ori	a4,a4,240
3000006c:	00e7aa23          	sw	a4,20(a5)
30000070:	0147a703          	lw	a4,20(a5)
30000074:	08074713          	xori	a4,a4,128
30000078:	00e7aa23          	sw	a4,20(a5)
3000007c:	00000513          	li	a0,0
30000080:	00008067          	ret
30000084:	3000f7b7          	lui	a5,0x3000f
30000088:	1f47a783          	lw	a5,500(a5) # 3000f1f4 <bsp>
3000008c:	00000513          	li	a0,0
30000090:	0147a703          	lw	a4,20(a5)
30000094:	0f076713          	ori	a4,a4,240
30000098:	00e7aa23          	sw	a4,20(a5)
3000009c:	0147a703          	lw	a4,20(a5)
300000a0:	04074713          	xori	a4,a4,64
300000a4:	00e7aa23          	sw	a4,20(a5)
300000a8:	00008067          	ret

300000ac <_Z4initv>:
300000ac:	fe010113          	addi	sp,sp,-32
300000b0:	00112e23          	sw	ra,28(sp)
300000b4:	00812c23          	sw	s0,24(sp)
300000b8:	00912a23          	sw	s1,20(sp)
300000bc:	01212823          	sw	s2,16(sp)
300000c0:	01312623          	sw	s3,12(sp)
300000c4:	001000ef          	jal	ra,300008c4 <_Z7bspInitv>
300000c8:	00200513          	li	a0,2
300000cc:	2cd000ef          	jal	ra,30000b98 <_Z12setVideoModem>
300000d0:	3000f937          	lui	s2,0x3000f
300000d4:	020004b7          	lui	s1,0x2000
300000d8:	1fc90413          	addi	s0,s2,508 # 3000f1fc <screen1>
300000dc:	14048493          	addi	s1,s1,320 # 2000140 <stackPointer+0x1ff9400>
300000e0:	0f000993          	li	s3,240
300000e4:	00100593          	li	a1,1
300000e8:	0003c537          	lui	a0,0x3c
300000ec:	00942023          	sw	s1,0(s0)
300000f0:	01342223          	sw	s3,4(s0)
300000f4:	00041423          	sh	zero,8(s0)
300000f8:	499080ef          	jal	ra,30008d90 <_Z7osAllocmm>
300000fc:	00a42623          	sw	a0,12(s0)
30000100:	12050c63          	beqz	a0,30000238 <_Z4initv+0x18c>
30000104:	00100593          	li	a1,1
30000108:	0003c537          	lui	a0,0x3c
3000010c:	00942823          	sw	s1,16(s0)
30000110:	01342a23          	sw	s3,20(s0)
30000114:	00041c23          	sh	zero,24(s0)
30000118:	479080ef          	jal	ra,30008d90 <_Z7osAllocmm>
3000011c:	00a42e23          	sw	a0,28(s0)
30000120:	0a050263          	beqz	a0,300001c4 <_Z4initv+0x118>
30000124:	1fc90513          	addi	a0,s2,508
30000128:	288090ef          	jal	ra,300093b0 <_Z15gfDisplayBitmapP10_tgfBitmap>
3000012c:	00445703          	lhu	a4,4(s0)
30000130:	00045683          	lhu	a3,0(s0)
30000134:	00000793          	li	a5,0
30000138:	fff70713          	addi	a4,a4,-1
3000013c:	fff68693          	addi	a3,a3,-1
30000140:	01071713          	slli	a4,a4,0x10
30000144:	01069693          	slli	a3,a3,0x10
30000148:	41075713          	srai	a4,a4,0x10
3000014c:	4106d693          	srai	a3,a3,0x10
30000150:	00000613          	li	a2,0
30000154:	00000593          	li	a1,0
30000158:	1fc90513          	addi	a0,s2,508
3000015c:	5a40a0ef          	jal	ra,3000a700 <_Z10gfFillRectP10_tgfBitmapsssst>
30000160:	01445703          	lhu	a4,20(s0)
30000164:	01045683          	lhu	a3,16(s0)
30000168:	00000793          	li	a5,0
3000016c:	fff70713          	addi	a4,a4,-1
30000170:	fff68693          	addi	a3,a3,-1
30000174:	01071713          	slli	a4,a4,0x10
30000178:	01069693          	slli	a3,a3,0x10
3000017c:	41075713          	srai	a4,a4,0x10
30000180:	4106d693          	srai	a3,a3,0x10
30000184:	00000613          	li	a2,0
30000188:	00000593          	li	a1,0
3000018c:	01040513          	addi	a0,s0,16
30000190:	5700a0ef          	jal	ra,3000a700 <_Z10gfFillRectP10_tgfBitmapsssst>
30000194:	3000f4b7          	lui	s1,0x3000f
30000198:	33c48793          	addi	a5,s1,828 # 3000f33c <con>
3000019c:	f8f00713          	li	a4,-113
300001a0:	00e78623          	sb	a4,12(a5)
300001a4:	074010ef          	jal	ra,30001218 <_Z14osUIEventsInitv>
300001a8:	5c5080ef          	jal	ra,30008f6c <_Z7osFInitv>
300001ac:	02050863          	beqz	a0,300001dc <_Z4initv+0x130>
300001b0:	3000d5b7          	lui	a1,0x3000d
300001b4:	5b458593          	addi	a1,a1,1460 # 3000d5b4 <__clzsi2+0xc4>
300001b8:	33c48513          	addi	a0,s1,828
300001bc:	4380b0ef          	jal	ra,3000b5f4 <_Z7toPrintP15_tgfTextOverlayPc>
300001c0:	0000006f          	j	300001c0 <_Z4initv+0x114>
300001c4:	3000d5b7          	lui	a1,0x3000d
300001c8:	3000f537          	lui	a0,0x3000f
300001cc:	59c58593          	addi	a1,a1,1436 # 3000d59c <__clzsi2+0xac>
300001d0:	33c50513          	addi	a0,a0,828 # 3000f33c <con>
300001d4:	4200b0ef          	jal	ra,3000b5f4 <_Z7toPrintP15_tgfTextOverlayPc>
300001d8:	0000006f          	j	300001d8 <_Z4initv+0x12c>
300001dc:	3000d5b7          	lui	a1,0x3000d
300001e0:	5c458593          	addi	a1,a1,1476 # 3000d5c4 <__clzsi2+0xd4>
300001e4:	02040513          	addi	a0,s0,32
300001e8:	1ec090ef          	jal	ra,300093d4 <_Z14gfLoadBitmapFSP10_tgfBitmapPc>
300001ec:	02645783          	lhu	a5,38(s0)
300001f0:	3000d5b7          	lui	a1,0x3000d
300001f4:	03040513          	addi	a0,s0,48
300001f8:	0017e793          	ori	a5,a5,1
300001fc:	5dc58593          	addi	a1,a1,1500 # 3000d5dc <__clzsi2+0xec>
30000200:	02f41323          	sh	a5,38(s0)
30000204:	02041423          	sh	zero,40(s0)
30000208:	1cc090ef          	jal	ra,300093d4 <_Z14gfLoadBitmapFSP10_tgfBitmapPc>
3000020c:	04645783          	lhu	a5,70(s0)
30000210:	04041423          	sh	zero,72(s0)
30000214:	01c12083          	lw	ra,28(sp)
30000218:	0017e793          	ori	a5,a5,1
3000021c:	04f41323          	sh	a5,70(s0)
30000220:	01812403          	lw	s0,24(sp)
30000224:	01412483          	lw	s1,20(sp)
30000228:	01012903          	lw	s2,16(sp)
3000022c:	00c12983          	lw	s3,12(sp)
30000230:	02010113          	addi	sp,sp,32
30000234:	00008067          	ret
30000238:	3000d5b7          	lui	a1,0x3000d
3000023c:	3000f537          	lui	a0,0x3000f
30000240:	58458593          	addi	a1,a1,1412 # 3000d584 <__clzsi2+0x94>
30000244:	33c50513          	addi	a0,a0,828 # 3000f33c <con>
30000248:	3ac0b0ef          	jal	ra,3000b5f4 <_Z7toPrintP15_tgfTextOverlayPc>
3000024c:	0000006f          	j	3000024c <_Z4initv+0x1a0>

30000250 <_Z4animP10_tgfBitmap>:
30000250:	ff010113          	addi	sp,sp,-16
30000254:	00812423          	sw	s0,8(sp)
30000258:	3000f437          	lui	s0,0x3000f
3000025c:	1fc40413          	addi	s0,s0,508 # 3000f1fc <screen1>
30000260:	00000693          	li	a3,0
30000264:	00000613          	li	a2,0
30000268:	03040593          	addi	a1,s0,48
3000026c:	00912223          	sw	s1,4(sp)
30000270:	00112623          	sw	ra,12(sp)
30000274:	00050493          	mv	s1,a0
30000278:	368090ef          	jal	ra,300095e0 <_Z12gfBlitBitmapP10_tgfBitmapS0_ss>
3000027c:	05445783          	lhu	a5,84(s0)
30000280:	06079263          	bnez	a5,300002e4 <_Z4animP10_tgfBitmap+0x94>
30000284:	06c45783          	lhu	a5,108(s0)
30000288:	08079063          	bnez	a5,30000308 <_Z4animP10_tgfBitmap+0xb8>
3000028c:	08445783          	lhu	a5,132(s0)
30000290:	08079e63          	bnez	a5,3000032c <_Z4animP10_tgfBitmap+0xdc>
30000294:	09c45783          	lhu	a5,156(s0)
30000298:	0a079c63          	bnez	a5,30000350 <_Z4animP10_tgfBitmap+0x100>
3000029c:	0b445783          	lhu	a5,180(s0)
300002a0:	0c079a63          	bnez	a5,30000374 <_Z4animP10_tgfBitmap+0x124>
300002a4:	0cc45783          	lhu	a5,204(s0)
300002a8:	0e079863          	bnez	a5,30000398 <_Z4animP10_tgfBitmap+0x148>
300002ac:	0e445783          	lhu	a5,228(s0)
300002b0:	10079663          	bnez	a5,300003bc <_Z4animP10_tgfBitmap+0x16c>
300002b4:	0fc45783          	lhu	a5,252(s0)
300002b8:	12079463          	bnez	a5,300003e0 <_Z4animP10_tgfBitmap+0x190>
300002bc:	11445783          	lhu	a5,276(s0)
300002c0:	14079263          	bnez	a5,30000404 <_Z4animP10_tgfBitmap+0x1b4>
300002c4:	12c45783          	lhu	a5,300(s0)
300002c8:	16079063          	bnez	a5,30000428 <_Z4animP10_tgfBitmap+0x1d8>
300002cc:	00c12083          	lw	ra,12(sp)
300002d0:	00812403          	lw	s0,8(sp)
300002d4:	00412483          	lw	s1,4(sp)
300002d8:	00000513          	li	a0,0
300002dc:	01010113          	addi	sp,sp,16
300002e0:	00008067          	ret
300002e4:	05841783          	lh	a5,88(s0)
300002e8:	05641703          	lh	a4,86(s0)
300002ec:	06441683          	lh	a3,100(s0)
300002f0:	05e41603          	lh	a2,94(s0)
300002f4:	05042583          	lw	a1,80(s0)
300002f8:	00048513          	mv	a0,s1
300002fc:	135090ef          	jal	ra,30009c30 <_Z18gfBlitScaledBitmapP10_tgfBitmapS0_ssss>
30000300:	06c45783          	lhu	a5,108(s0)
30000304:	f80784e3          	beqz	a5,3000028c <_Z4animP10_tgfBitmap+0x3c>
30000308:	07041783          	lh	a5,112(s0)
3000030c:	06e41703          	lh	a4,110(s0)
30000310:	07c41683          	lh	a3,124(s0)
30000314:	07641603          	lh	a2,118(s0)
30000318:	06842583          	lw	a1,104(s0)
3000031c:	00048513          	mv	a0,s1
30000320:	111090ef          	jal	ra,30009c30 <_Z18gfBlitScaledBitmapP10_tgfBitmapS0_ssss>
30000324:	08445783          	lhu	a5,132(s0)
30000328:	f60786e3          	beqz	a5,30000294 <_Z4animP10_tgfBitmap+0x44>
3000032c:	08841783          	lh	a5,136(s0)
30000330:	08641703          	lh	a4,134(s0)
30000334:	09441683          	lh	a3,148(s0)
30000338:	08e41603          	lh	a2,142(s0)
3000033c:	08042583          	lw	a1,128(s0)
30000340:	00048513          	mv	a0,s1
30000344:	0ed090ef          	jal	ra,30009c30 <_Z18gfBlitScaledBitmapP10_tgfBitmapS0_ssss>
30000348:	09c45783          	lhu	a5,156(s0)
3000034c:	f40788e3          	beqz	a5,3000029c <_Z4animP10_tgfBitmap+0x4c>
30000350:	0a041783          	lh	a5,160(s0)
30000354:	09e41703          	lh	a4,158(s0)
30000358:	0ac41683          	lh	a3,172(s0)
3000035c:	0a641603          	lh	a2,166(s0)
30000360:	09842583          	lw	a1,152(s0)
30000364:	00048513          	mv	a0,s1
30000368:	0c9090ef          	jal	ra,30009c30 <_Z18gfBlitScaledBitmapP10_tgfBitmapS0_ssss>
3000036c:	0b445783          	lhu	a5,180(s0)
30000370:	f2078ae3          	beqz	a5,300002a4 <_Z4animP10_tgfBitmap+0x54>
30000374:	0b841783          	lh	a5,184(s0)
30000378:	0b641703          	lh	a4,182(s0)
3000037c:	0c441683          	lh	a3,196(s0)
30000380:	0be41603          	lh	a2,190(s0)
30000384:	0b042583          	lw	a1,176(s0)
30000388:	00048513          	mv	a0,s1
3000038c:	0a5090ef          	jal	ra,30009c30 <_Z18gfBlitScaledBitmapP10_tgfBitmapS0_ssss>
30000390:	0cc45783          	lhu	a5,204(s0)
30000394:	f0078ce3          	beqz	a5,300002ac <_Z4animP10_tgfBitmap+0x5c>
30000398:	0d041783          	lh	a5,208(s0)
3000039c:	0ce41703          	lh	a4,206(s0)
300003a0:	0dc41683          	lh	a3,220(s0)
300003a4:	0d641603          	lh	a2,214(s0)
300003a8:	0c842583          	lw	a1,200(s0)
300003ac:	00048513          	mv	a0,s1
300003b0:	081090ef          	jal	ra,30009c30 <_Z18gfBlitScaledBitmapP10_tgfBitmapS0_ssss>
300003b4:	0e445783          	lhu	a5,228(s0)
300003b8:	ee078ee3          	beqz	a5,300002b4 <_Z4animP10_tgfBitmap+0x64>
300003bc:	0e841783          	lh	a5,232(s0)
300003c0:	0e641703          	lh	a4,230(s0)
300003c4:	0f441683          	lh	a3,244(s0)
300003c8:	0ee41603          	lh	a2,238(s0)
300003cc:	0e042583          	lw	a1,224(s0)
300003d0:	00048513          	mv	a0,s1
300003d4:	05d090ef          	jal	ra,30009c30 <_Z18gfBlitScaledBitmapP10_tgfBitmapS0_ssss>
300003d8:	0fc45783          	lhu	a5,252(s0)
300003dc:	ee0780e3          	beqz	a5,300002bc <_Z4animP10_tgfBitmap+0x6c>
300003e0:	10041783          	lh	a5,256(s0)
300003e4:	0fe41703          	lh	a4,254(s0)
300003e8:	10c41683          	lh	a3,268(s0)
300003ec:	10641603          	lh	a2,262(s0)
300003f0:	0f842583          	lw	a1,248(s0)
300003f4:	00048513          	mv	a0,s1
300003f8:	039090ef          	jal	ra,30009c30 <_Z18gfBlitScaledBitmapP10_tgfBitmapS0_ssss>
300003fc:	11445783          	lhu	a5,276(s0)
30000400:	ec0782e3          	beqz	a5,300002c4 <_Z4animP10_tgfBitmap+0x74>
30000404:	11841783          	lh	a5,280(s0)
30000408:	11641703          	lh	a4,278(s0)
3000040c:	12441683          	lh	a3,292(s0)
30000410:	11e41603          	lh	a2,286(s0)
30000414:	11042583          	lw	a1,272(s0)
30000418:	00048513          	mv	a0,s1
3000041c:	015090ef          	jal	ra,30009c30 <_Z18gfBlitScaledBitmapP10_tgfBitmapS0_ssss>
30000420:	12c45783          	lhu	a5,300(s0)
30000424:	ea0784e3          	beqz	a5,300002cc <_Z4animP10_tgfBitmap+0x7c>
30000428:	13041783          	lh	a5,304(s0)
3000042c:	12e41703          	lh	a4,302(s0)
30000430:	13c41683          	lh	a3,316(s0)
30000434:	13641603          	lh	a2,310(s0)
30000438:	12842583          	lw	a1,296(s0)
3000043c:	00048513          	mv	a0,s1
30000440:	7f0090ef          	jal	ra,30009c30 <_Z18gfBlitScaledBitmapP10_tgfBitmapS0_ssss>
30000444:	00c12083          	lw	ra,12(sp)
30000448:	00812403          	lw	s0,8(sp)
3000044c:	00412483          	lw	s1,4(sp)
30000450:	00000513          	li	a0,0
30000454:	01010113          	addi	sp,sp,16
30000458:	00008067          	ret

3000045c <_Z8initAnimv>:
3000045c:	fc010113          	addi	sp,sp,-64
30000460:	3000d7b7          	lui	a5,0x3000d
30000464:	01712e23          	sw	s7,28(sp)
30000468:	6447ab83          	lw	s7,1604(a5) # 3000d644 <__clzsi2+0x154>
3000046c:	02812c23          	sw	s0,56(sp)
30000470:	03212823          	sw	s2,48(sp)
30000474:	3000f437          	lui	s0,0x3000f
30000478:	3000f937          	lui	s2,0x3000f
3000047c:	03412423          	sw	s4,40(sp)
30000480:	03512223          	sw	s5,36(sp)
30000484:	03612023          	sw	s6,32(sp)
30000488:	01812c23          	sw	s8,24(sp)
3000048c:	01912a23          	sw	s9,20(sp)
30000490:	01a12823          	sw	s10,16(sp)
30000494:	02112e23          	sw	ra,60(sp)
30000498:	02912a23          	sw	s1,52(sp)
3000049c:	03312623          	sw	s3,44(sp)
300004a0:	01b12623          	sw	s11,12(sp)
300004a4:	24c40413          	addi	s0,s0,588 # 3000f24c <asteroids>
300004a8:	00040d37          	lui	s10,0x40
300004ac:	00a00c93          	li	s9,10
300004b0:	21c90913          	addi	s2,s2,540 # 3000f21c <asteroid1>
300004b4:	00100c13          	li	s8,1
300004b8:	0dc00b13          	li	s6,220
300004bc:	06400a93          	li	s5,100
300004c0:	00a00a13          	li	s4,10
300004c4:	01242023          	sw	s2,0(s0)
300004c8:	01841223          	sh	s8,4(s0)
300004cc:	4c4000ef          	jal	ra,30000990 <_Z12randomNumberv>
300004d0:	036577b3          	remu	a5,a0,s6
300004d4:	01840413          	addi	s0,s0,24
300004d8:	000c8513          	mv	a0,s9
300004dc:	fffc8c93          	addi	s9,s9,-1
300004e0:	fef41e23          	sh	a5,-4(s0)
300004e4:	6e90c0ef          	jal	ra,3000d3cc <__floatunsisf>
300004e8:	000b8593          	mv	a1,s7
300004ec:	1e50c0ef          	jal	ra,3000ced0 <__mulsf3>
300004f0:	fe842983          	lw	s3,-24(s0)
300004f4:	00050d93          	mv	s11,a0
300004f8:	0009d503          	lhu	a0,0(s3)
300004fc:	5bd0c0ef          	jal	ra,3000d2b8 <__floatsisf>
30000500:	000d8593          	mv	a1,s11
30000504:	60c0c0ef          	jal	ra,3000cb10 <__divsf3>
30000508:	54d0c0ef          	jal	ra,3000d254 <__fixunssfsi>
3000050c:	01051493          	slli	s1,a0,0x10
30000510:	0049d503          	lhu	a0,4(s3)
30000514:	0104d493          	srli	s1,s1,0x10
30000518:	fe941723          	sh	s1,-18(s0)
3000051c:	59d0c0ef          	jal	ra,3000d2b8 <__floatsisf>
30000520:	000d8593          	mv	a1,s11
30000524:	5ec0c0ef          	jal	ra,3000cb10 <__divsf3>
30000528:	52d0c0ef          	jal	ra,3000d254 <__fixunssfsi>
3000052c:	fea41823          	sh	a0,-16(s0)
30000530:	460000ef          	jal	ra,30000990 <_Z12randomNumberv>
30000534:	03557533          	remu	a0,a0,s5
30000538:	409004b3          	neg	s1,s1
3000053c:	00040737          	lui	a4,0x40
30000540:	034d57b3          	divu	a5,s10,s4
30000544:	40a484b3          	sub	s1,s1,a0
30000548:	01049493          	slli	s1,s1,0x10
3000054c:	fe942a23          	sw	s1,-12(s0)
30000550:	00ed0d33          	add	s10,s10,a4
30000554:	fef42c23          	sw	a5,-8(s0)
30000558:	f60c96e3          	bnez	s9,300004c4 <_Z8initAnimv+0x68>
3000055c:	03c12083          	lw	ra,60(sp)
30000560:	03812403          	lw	s0,56(sp)
30000564:	03412483          	lw	s1,52(sp)
30000568:	03012903          	lw	s2,48(sp)
3000056c:	02c12983          	lw	s3,44(sp)
30000570:	02812a03          	lw	s4,40(sp)
30000574:	02412a83          	lw	s5,36(sp)
30000578:	02012b03          	lw	s6,32(sp)
3000057c:	01c12b83          	lw	s7,28(sp)
30000580:	01812c03          	lw	s8,24(sp)
30000584:	01412c83          	lw	s9,20(sp)
30000588:	01012d03          	lw	s10,16(sp)
3000058c:	00c12d83          	lw	s11,12(sp)
30000590:	00000513          	li	a0,0
30000594:	04010113          	addi	sp,sp,64
30000598:	00008067          	ret

3000059c <_Z13moveAsteroidsv>:
3000059c:	ff010113          	addi	sp,sp,-16
300005a0:	00812423          	sw	s0,8(sp)
300005a4:	3000f437          	lui	s0,0x3000f
300005a8:	1fc40413          	addi	s0,s0,508 # 3000f1fc <screen1>
300005ac:	05445783          	lhu	a5,84(s0)
300005b0:	00112623          	sw	ra,12(sp)
300005b4:	00078e63          	beqz	a5,300005d0 <_Z13moveAsteroidsv+0x34>
300005b8:	05c42783          	lw	a5,92(s0)
300005bc:	06042683          	lw	a3,96(s0)
300005c0:	01400737          	lui	a4,0x1400
300005c4:	00d787b3          	add	a5,a5,a3
300005c8:	04f42e23          	sw	a5,92(s0)
300005cc:	2cf74663          	blt	a4,a5,30000898 <_Z13moveAsteroidsv+0x2fc>
300005d0:	06c45783          	lhu	a5,108(s0)
300005d4:	00078e63          	beqz	a5,300005f0 <_Z13moveAsteroidsv+0x54>
300005d8:	07442783          	lw	a5,116(s0)
300005dc:	07842683          	lw	a3,120(s0)
300005e0:	01400737          	lui	a4,0x1400
300005e4:	00d787b3          	add	a5,a5,a3
300005e8:	06f42a23          	sw	a5,116(s0)
300005ec:	10f74c63          	blt	a4,a5,30000704 <_Z13moveAsteroidsv+0x168>
300005f0:	08445783          	lhu	a5,132(s0)
300005f4:	00078e63          	beqz	a5,30000610 <_Z13moveAsteroidsv+0x74>
300005f8:	08c42783          	lw	a5,140(s0)
300005fc:	09042683          	lw	a3,144(s0)
30000600:	01400737          	lui	a4,0x1400
30000604:	00d787b3          	add	a5,a5,a3
30000608:	08f42623          	sw	a5,140(s0)
3000060c:	12f74263          	blt	a4,a5,30000730 <_Z13moveAsteroidsv+0x194>
30000610:	09c45783          	lhu	a5,156(s0)
30000614:	00078e63          	beqz	a5,30000630 <_Z13moveAsteroidsv+0x94>
30000618:	0a442783          	lw	a5,164(s0)
3000061c:	0a842683          	lw	a3,168(s0)
30000620:	01400737          	lui	a4,0x1400
30000624:	00d787b3          	add	a5,a5,a3
30000628:	0af42223          	sw	a5,164(s0)
3000062c:	12f74863          	blt	a4,a5,3000075c <_Z13moveAsteroidsv+0x1c0>
30000630:	0b445783          	lhu	a5,180(s0)
30000634:	00078e63          	beqz	a5,30000650 <_Z13moveAsteroidsv+0xb4>
30000638:	0bc42783          	lw	a5,188(s0)
3000063c:	0c042683          	lw	a3,192(s0)
30000640:	01400737          	lui	a4,0x1400
30000644:	00d787b3          	add	a5,a5,a3
30000648:	0af42e23          	sw	a5,188(s0)
3000064c:	12f74e63          	blt	a4,a5,30000788 <_Z13moveAsteroidsv+0x1ec>
30000650:	0cc45783          	lhu	a5,204(s0)
30000654:	00078e63          	beqz	a5,30000670 <_Z13moveAsteroidsv+0xd4>
30000658:	0d442783          	lw	a5,212(s0)
3000065c:	0d842683          	lw	a3,216(s0)
30000660:	01400737          	lui	a4,0x1400
30000664:	00d787b3          	add	a5,a5,a3
30000668:	0cf42a23          	sw	a5,212(s0)
3000066c:	14f74463          	blt	a4,a5,300007b4 <_Z13moveAsteroidsv+0x218>
30000670:	0e445783          	lhu	a5,228(s0)
30000674:	00078e63          	beqz	a5,30000690 <_Z13moveAsteroidsv+0xf4>
30000678:	0ec42783          	lw	a5,236(s0)
3000067c:	0f042683          	lw	a3,240(s0)
30000680:	01400737          	lui	a4,0x1400
30000684:	00d787b3          	add	a5,a5,a3
30000688:	0ef42623          	sw	a5,236(s0)
3000068c:	14f74a63          	blt	a4,a5,300007e0 <_Z13moveAsteroidsv+0x244>
30000690:	0fc45783          	lhu	a5,252(s0)
30000694:	00078e63          	beqz	a5,300006b0 <_Z13moveAsteroidsv+0x114>
30000698:	10442783          	lw	a5,260(s0)
3000069c:	10842683          	lw	a3,264(s0)
300006a0:	01400737          	lui	a4,0x1400
300006a4:	00d787b3          	add	a5,a5,a3
300006a8:	10f42223          	sw	a5,260(s0)
300006ac:	16f74063          	blt	a4,a5,3000080c <_Z13moveAsteroidsv+0x270>
300006b0:	11445783          	lhu	a5,276(s0)
300006b4:	00078e63          	beqz	a5,300006d0 <_Z13moveAsteroidsv+0x134>
300006b8:	11c42783          	lw	a5,284(s0)
300006bc:	12042683          	lw	a3,288(s0)
300006c0:	01400737          	lui	a4,0x1400
300006c4:	00d787b3          	add	a5,a5,a3
300006c8:	10f42e23          	sw	a5,284(s0)
300006cc:	16f74663          	blt	a4,a5,30000838 <_Z13moveAsteroidsv+0x29c>
300006d0:	12c45783          	lhu	a5,300(s0)
300006d4:	00078e63          	beqz	a5,300006f0 <_Z13moveAsteroidsv+0x154>
300006d8:	13442783          	lw	a5,308(s0)
300006dc:	13842683          	lw	a3,312(s0)
300006e0:	01400737          	lui	a4,0x1400
300006e4:	00d787b3          	add	a5,a5,a3
300006e8:	12f42a23          	sw	a5,308(s0)
300006ec:	16f74c63          	blt	a4,a5,30000864 <_Z13moveAsteroidsv+0x2c8>
300006f0:	00c12083          	lw	ra,12(sp)
300006f4:	00812403          	lw	s0,8(sp)
300006f8:	00000513          	li	a0,0
300006fc:	01010113          	addi	sp,sp,16
30000700:	00008067          	ret
30000704:	06e45783          	lhu	a5,110(s0)
30000708:	40f007b3          	neg	a5,a5
3000070c:	01079793          	slli	a5,a5,0x10
30000710:	06f42a23          	sw	a5,116(s0)
30000714:	27c000ef          	jal	ra,30000990 <_Z12randomNumberv>
30000718:	0dc00793          	li	a5,220
3000071c:	02f577b3          	remu	a5,a0,a5
30000720:	06f41e23          	sh	a5,124(s0)
30000724:	08445783          	lhu	a5,132(s0)
30000728:	ee0784e3          	beqz	a5,30000610 <_Z13moveAsteroidsv+0x74>
3000072c:	ecdff06f          	j	300005f8 <_Z13moveAsteroidsv+0x5c>
30000730:	08645783          	lhu	a5,134(s0)
30000734:	40f007b3          	neg	a5,a5
30000738:	01079793          	slli	a5,a5,0x10
3000073c:	08f42623          	sw	a5,140(s0)
30000740:	250000ef          	jal	ra,30000990 <_Z12randomNumberv>
30000744:	0dc00793          	li	a5,220
30000748:	02f577b3          	remu	a5,a0,a5
3000074c:	08f41a23          	sh	a5,148(s0)
30000750:	09c45783          	lhu	a5,156(s0)
30000754:	ec078ee3          	beqz	a5,30000630 <_Z13moveAsteroidsv+0x94>
30000758:	ec1ff06f          	j	30000618 <_Z13moveAsteroidsv+0x7c>
3000075c:	09e45783          	lhu	a5,158(s0)
30000760:	40f007b3          	neg	a5,a5
30000764:	01079793          	slli	a5,a5,0x10
30000768:	0af42223          	sw	a5,164(s0)
3000076c:	224000ef          	jal	ra,30000990 <_Z12randomNumberv>
30000770:	0dc00793          	li	a5,220
30000774:	02f577b3          	remu	a5,a0,a5
30000778:	0af41623          	sh	a5,172(s0)
3000077c:	0b445783          	lhu	a5,180(s0)
30000780:	ec0788e3          	beqz	a5,30000650 <_Z13moveAsteroidsv+0xb4>
30000784:	eb5ff06f          	j	30000638 <_Z13moveAsteroidsv+0x9c>
30000788:	0b645783          	lhu	a5,182(s0)
3000078c:	40f007b3          	neg	a5,a5
30000790:	01079793          	slli	a5,a5,0x10
30000794:	0af42e23          	sw	a5,188(s0)
30000798:	1f8000ef          	jal	ra,30000990 <_Z12randomNumberv>
3000079c:	0dc00793          	li	a5,220
300007a0:	02f577b3          	remu	a5,a0,a5
300007a4:	0cf41223          	sh	a5,196(s0)
300007a8:	0cc45783          	lhu	a5,204(s0)
300007ac:	ec0782e3          	beqz	a5,30000670 <_Z13moveAsteroidsv+0xd4>
300007b0:	ea9ff06f          	j	30000658 <_Z13moveAsteroidsv+0xbc>
300007b4:	0ce45783          	lhu	a5,206(s0)
300007b8:	40f007b3          	neg	a5,a5
300007bc:	01079793          	slli	a5,a5,0x10
300007c0:	0cf42a23          	sw	a5,212(s0)
300007c4:	1cc000ef          	jal	ra,30000990 <_Z12randomNumberv>
300007c8:	0dc00793          	li	a5,220
300007cc:	02f577b3          	remu	a5,a0,a5
300007d0:	0cf41e23          	sh	a5,220(s0)
300007d4:	0e445783          	lhu	a5,228(s0)
300007d8:	ea078ce3          	beqz	a5,30000690 <_Z13moveAsteroidsv+0xf4>
300007dc:	e9dff06f          	j	30000678 <_Z13moveAsteroidsv+0xdc>
300007e0:	0e645783          	lhu	a5,230(s0)
300007e4:	40f007b3          	neg	a5,a5
300007e8:	01079793          	slli	a5,a5,0x10
300007ec:	0ef42623          	sw	a5,236(s0)
300007f0:	1a0000ef          	jal	ra,30000990 <_Z12randomNumberv>
300007f4:	0dc00793          	li	a5,220
300007f8:	02f577b3          	remu	a5,a0,a5
300007fc:	0ef41a23          	sh	a5,244(s0)
30000800:	0fc45783          	lhu	a5,252(s0)
30000804:	ea0786e3          	beqz	a5,300006b0 <_Z13moveAsteroidsv+0x114>
30000808:	e91ff06f          	j	30000698 <_Z13moveAsteroidsv+0xfc>
3000080c:	0fe45783          	lhu	a5,254(s0)
30000810:	40f007b3          	neg	a5,a5
30000814:	01079793          	slli	a5,a5,0x10
30000818:	10f42223          	sw	a5,260(s0)
3000081c:	174000ef          	jal	ra,30000990 <_Z12randomNumberv>
30000820:	0dc00793          	li	a5,220
30000824:	02f577b3          	remu	a5,a0,a5
30000828:	10f41623          	sh	a5,268(s0)
3000082c:	11445783          	lhu	a5,276(s0)
30000830:	ea0780e3          	beqz	a5,300006d0 <_Z13moveAsteroidsv+0x134>
30000834:	e85ff06f          	j	300006b8 <_Z13moveAsteroidsv+0x11c>
30000838:	11645783          	lhu	a5,278(s0)
3000083c:	40f007b3          	neg	a5,a5
30000840:	01079793          	slli	a5,a5,0x10
30000844:	10f42e23          	sw	a5,284(s0)
30000848:	148000ef          	jal	ra,30000990 <_Z12randomNumberv>
3000084c:	0dc00793          	li	a5,220
30000850:	02f577b3          	remu	a5,a0,a5
30000854:	12f41223          	sh	a5,292(s0)
30000858:	12c45783          	lhu	a5,300(s0)
3000085c:	e8078ae3          	beqz	a5,300006f0 <_Z13moveAsteroidsv+0x154>
30000860:	e79ff06f          	j	300006d8 <_Z13moveAsteroidsv+0x13c>
30000864:	12e45783          	lhu	a5,302(s0)
30000868:	40f007b3          	neg	a5,a5
3000086c:	01079793          	slli	a5,a5,0x10
30000870:	12f42a23          	sw	a5,308(s0)
30000874:	11c000ef          	jal	ra,30000990 <_Z12randomNumberv>
30000878:	0dc00793          	li	a5,220
3000087c:	02f577b3          	remu	a5,a0,a5
30000880:	00c12083          	lw	ra,12(sp)
30000884:	00000513          	li	a0,0
30000888:	12f41e23          	sh	a5,316(s0)
3000088c:	00812403          	lw	s0,8(sp)
30000890:	01010113          	addi	sp,sp,16
30000894:	00008067          	ret
30000898:	05645783          	lhu	a5,86(s0)
3000089c:	40f007b3          	neg	a5,a5
300008a0:	01079793          	slli	a5,a5,0x10
300008a4:	04f42e23          	sw	a5,92(s0)
300008a8:	0e8000ef          	jal	ra,30000990 <_Z12randomNumberv>
300008ac:	0dc00793          	li	a5,220
300008b0:	02f577b3          	remu	a5,a0,a5
300008b4:	06f41223          	sh	a5,100(s0)
300008b8:	06c45783          	lhu	a5,108(s0)
300008bc:	d2078ae3          	beqz	a5,300005f0 <_Z13moveAsteroidsv+0x54>
300008c0:	d19ff06f          	j	300005d8 <_Z13moveAsteroidsv+0x3c>

300008c4 <_Z7bspInitv>:
300008c4:	ff010113          	addi	sp,sp,-16
300008c8:	00812423          	sw	s0,8(sp)
300008cc:	3000f437          	lui	s0,0x3000f
300008d0:	1f442703          	lw	a4,500(s0) # 3000f1f4 <bsp>
300008d4:	0000f6b7          	lui	a3,0xf
300008d8:	12368693          	addi	a3,a3,291 # f123 <stackPointer+0x83e3>
300008dc:	01c72783          	lw	a5,28(a4) # 140001c <stackPointer+0x13f92dc>
300008e0:	01c72703          	lw	a4,28(a4)
300008e4:	00112623          	sw	ra,12(sp)
300008e8:	01079793          	slli	a5,a5,0x10
300008ec:	00d74733          	xor	a4,a4,a3
300008f0:	00e7e7b3          	or	a5,a5,a4
300008f4:	3000f737          	lui	a4,0x3000f
300008f8:	1cf72823          	sw	a5,464(a4) # 3000f1d0 <random_state>
300008fc:	38c080ef          	jal	ra,30008c88 <_Z11osAllocInitv>
30000900:	00780637          	lui	a2,0x780
30000904:	00100693          	li	a3,1
30000908:	ff060613          	addi	a2,a2,-16 # 77fff0 <stackPointer+0x7792b0>
3000090c:	200005b7          	lui	a1,0x20000
30000910:	00000513          	li	a0,0
30000914:	3b4080ef          	jal	ra,30008cc8 <_Z14osAllocAddNodemPvmm>
30000918:	1f442783          	lw	a5,500(s0)
3000091c:	3000f537          	lui	a0,0x3000f
30000920:	00200713          	li	a4,2
30000924:	33c50413          	addi	s0,a0,828 # 3000f33c <con>
30000928:	00e7a423          	sw	a4,8(a5)
3000092c:	000087b7          	lui	a5,0x8
30000930:	00f42023          	sw	a5,0(s0)
30000934:	001e07b7          	lui	a5,0x1e0
30000938:	05078793          	addi	a5,a5,80 # 1e0050 <stackPointer+0x1d9310>
3000093c:	00f42223          	sw	a5,4(s0)
30000940:	00f00793          	li	a5,15
30000944:	00f40623          	sb	a5,12(s0)
30000948:	000077b7          	lui	a5,0x7
3000094c:	d4078793          	addi	a5,a5,-704 # 6d40 <stackPointer>
30000950:	00042423          	sw	zero,8(s0)
30000954:	33c50513          	addi	a0,a0,828
30000958:	00f42a23          	sw	a5,20(s0)
3000095c:	00042823          	sw	zero,16(s0)
30000960:	3450a0ef          	jal	ra,3000b4a4 <_Z5toClsP15_tgfTextOverlay>
30000964:	02800793          	li	a5,40
30000968:	00f41223          	sh	a5,4(s0)
3000096c:	f8f00793          	li	a5,-113
30000970:	00f40623          	sb	a5,12(s0)
30000974:	00c12083          	lw	ra,12(sp)
30000978:	00812403          	lw	s0,8(sp)
3000097c:	300107b7          	lui	a5,0x30010
30000980:	a607a223          	sw	zero,-1436(a5) # 3000fa64 <bootLoaderEntry>
30000984:	00000513          	li	a0,0
30000988:	01010113          	addi	sp,sp,16
3000098c:	00008067          	ret

30000990 <_Z12randomNumberv>:
30000990:	3000f737          	lui	a4,0x3000f
30000994:	1d072503          	lw	a0,464(a4) # 3000f1d0 <random_state>
30000998:	00d51793          	slli	a5,a0,0xd
3000099c:	00a7c7b3          	xor	a5,a5,a0
300009a0:	0117d513          	srli	a0,a5,0x11
300009a4:	00f547b3          	xor	a5,a0,a5
300009a8:	00579513          	slli	a0,a5,0x5
300009ac:	00f54533          	xor	a0,a0,a5
300009b0:	1ca72823          	sw	a0,464(a4)
300009b4:	00008067          	ret

300009b8 <_Z8hexDigitPcc>:
300009b8:	00f5f593          	andi	a1,a1,15
300009bc:	00900713          	li	a4,9
300009c0:	05758793          	addi	a5,a1,87 # 20000057 <stackPointer+0x1fff9317>
300009c4:	00b76463          	bltu	a4,a1,300009cc <_Z8hexDigitPcc+0x14>
300009c8:	03058793          	addi	a5,a1,48
300009cc:	000500a3          	sb	zero,1(a0)
300009d0:	00f50023          	sb	a5,0(a0)
300009d4:	00008067          	ret

300009d8 <_Z14itoaHex2DigitsmPc>:
300009d8:	00455793          	srli	a5,a0,0x4
300009dc:	00f7f793          	andi	a5,a5,15
300009e0:	00900693          	li	a3,9
300009e4:	05778713          	addi	a4,a5,87
300009e8:	00f6e463          	bltu	a3,a5,300009f0 <_Z14itoaHex2DigitsmPc+0x18>
300009ec:	03078713          	addi	a4,a5,48
300009f0:	00f57513          	andi	a0,a0,15
300009f4:	00e58023          	sb	a4,0(a1)
300009f8:	00900713          	li	a4,9
300009fc:	05750793          	addi	a5,a0,87
30000a00:	00a76463          	bltu	a4,a0,30000a08 <_Z14itoaHex2DigitsmPc+0x30>
30000a04:	03050793          	addi	a5,a0,48
30000a08:	00058123          	sb	zero,2(a1)
30000a0c:	00f580a3          	sb	a5,1(a1)
30000a10:	00008067          	ret

30000a14 <_Z14itoaHex4DigitsmPc>:
30000a14:	00c55793          	srli	a5,a0,0xc
30000a18:	00f7f793          	andi	a5,a5,15
30000a1c:	00900693          	li	a3,9
30000a20:	05778713          	addi	a4,a5,87
30000a24:	00f6e463          	bltu	a3,a5,30000a2c <_Z14itoaHex4DigitsmPc+0x18>
30000a28:	03078713          	addi	a4,a5,48
30000a2c:	00855793          	srli	a5,a0,0x8
30000a30:	00f7f793          	andi	a5,a5,15
30000a34:	00e58223          	sb	a4,4(a1)
30000a38:	00900693          	li	a3,9
30000a3c:	05778713          	addi	a4,a5,87
30000a40:	00f6e463          	bltu	a3,a5,30000a48 <_Z14itoaHex4DigitsmPc+0x34>
30000a44:	03078713          	addi	a4,a5,48
30000a48:	00455793          	srli	a5,a0,0x4
30000a4c:	00f7f793          	andi	a5,a5,15
30000a50:	00e582a3          	sb	a4,5(a1)
30000a54:	00900693          	li	a3,9
30000a58:	05778713          	addi	a4,a5,87
30000a5c:	00f6e463          	bltu	a3,a5,30000a64 <_Z14itoaHex4DigitsmPc+0x50>
30000a60:	03078713          	addi	a4,a5,48
30000a64:	00f57513          	andi	a0,a0,15
30000a68:	00e58323          	sb	a4,6(a1)
30000a6c:	00900713          	li	a4,9
30000a70:	05750793          	addi	a5,a0,87
30000a74:	00a76463          	bltu	a4,a0,30000a7c <_Z14itoaHex4DigitsmPc+0x68>
30000a78:	03050793          	addi	a5,a0,48
30000a7c:	00058423          	sb	zero,8(a1)
30000a80:	00f583a3          	sb	a5,7(a1)
30000a84:	00008067          	ret

30000a88 <_Z14itoaHex8DigitsmPc>:
30000a88:	01c55793          	srli	a5,a0,0x1c
30000a8c:	0ff7f693          	andi	a3,a5,255
30000a90:	00900613          	li	a2,9
30000a94:	05768713          	addi	a4,a3,87
30000a98:	00f66463          	bltu	a2,a5,30000aa0 <_Z14itoaHex8DigitsmPc+0x18>
30000a9c:	03068713          	addi	a4,a3,48
30000aa0:	01855793          	srli	a5,a0,0x18
30000aa4:	00f7f793          	andi	a5,a5,15
30000aa8:	00e58023          	sb	a4,0(a1)
30000aac:	00900693          	li	a3,9
30000ab0:	05778713          	addi	a4,a5,87
30000ab4:	00f6e463          	bltu	a3,a5,30000abc <_Z14itoaHex8DigitsmPc+0x34>
30000ab8:	03078713          	addi	a4,a5,48
30000abc:	01455793          	srli	a5,a0,0x14
30000ac0:	00f7f793          	andi	a5,a5,15
30000ac4:	00e580a3          	sb	a4,1(a1)
30000ac8:	00900693          	li	a3,9
30000acc:	05778713          	addi	a4,a5,87
30000ad0:	00f6e463          	bltu	a3,a5,30000ad8 <_Z14itoaHex8DigitsmPc+0x50>
30000ad4:	03078713          	addi	a4,a5,48
30000ad8:	01055793          	srli	a5,a0,0x10
30000adc:	00f7f793          	andi	a5,a5,15
30000ae0:	00e58123          	sb	a4,2(a1)
30000ae4:	00900693          	li	a3,9
30000ae8:	05778713          	addi	a4,a5,87
30000aec:	00f6e463          	bltu	a3,a5,30000af4 <_Z14itoaHex8DigitsmPc+0x6c>
30000af0:	03078713          	addi	a4,a5,48
30000af4:	00c55793          	srli	a5,a0,0xc
30000af8:	00f7f793          	andi	a5,a5,15
30000afc:	00e581a3          	sb	a4,3(a1)
30000b00:	00900693          	li	a3,9
30000b04:	05778713          	addi	a4,a5,87
30000b08:	00f6e463          	bltu	a3,a5,30000b10 <_Z14itoaHex8DigitsmPc+0x88>
30000b0c:	03078713          	addi	a4,a5,48
30000b10:	00855793          	srli	a5,a0,0x8
30000b14:	00f7f793          	andi	a5,a5,15
30000b18:	00e58223          	sb	a4,4(a1)
30000b1c:	00900693          	li	a3,9
30000b20:	05778713          	addi	a4,a5,87
30000b24:	00f6e463          	bltu	a3,a5,30000b2c <_Z14itoaHex8DigitsmPc+0xa4>
30000b28:	03078713          	addi	a4,a5,48
30000b2c:	00455793          	srli	a5,a0,0x4
30000b30:	00f7f793          	andi	a5,a5,15
30000b34:	00e582a3          	sb	a4,5(a1)
30000b38:	00900693          	li	a3,9
30000b3c:	05778713          	addi	a4,a5,87
30000b40:	00f6e463          	bltu	a3,a5,30000b48 <_Z14itoaHex8DigitsmPc+0xc0>
30000b44:	03078713          	addi	a4,a5,48
30000b48:	00f57513          	andi	a0,a0,15
30000b4c:	00e58323          	sb	a4,6(a1)
30000b50:	00900713          	li	a4,9
30000b54:	05750793          	addi	a5,a0,87
30000b58:	00a76463          	bltu	a4,a0,30000b60 <_Z14itoaHex8DigitsmPc+0xd8>
30000b5c:	03050793          	addi	a5,a0,48
30000b60:	00058423          	sb	zero,8(a1)
30000b64:	00f583a3          	sb	a5,7(a1)
30000b68:	00008067          	ret

30000b6c <_Z8getTicksv>:
30000b6c:	3000f7b7          	lui	a5,0x3000f
30000b70:	1f47a783          	lw	a5,500(a5) # 3000f1f4 <bsp>
30000b74:	01c7a503          	lw	a0,28(a5)
30000b78:	00008067          	ret

30000b7c <_Z7delayMsm>:
30000b7c:	3000f7b7          	lui	a5,0x3000f
30000b80:	1f47a703          	lw	a4,500(a5) # 3000f1f4 <bsp>
30000b84:	01c72783          	lw	a5,28(a4)
30000b88:	00a78533          	add	a0,a5,a0
30000b8c:	01c72783          	lw	a5,28(a4)
30000b90:	fea7eee3          	bltu	a5,a0,30000b8c <_Z7delayMsm+0x10>
30000b94:	00008067          	ret

30000b98 <_Z12setVideoModem>:
30000b98:	00457793          	andi	a5,a0,4
30000b9c:	3000f737          	lui	a4,0x3000f
30000ba0:	1f472703          	lw	a4,500(a4) # 3000f1f4 <bsp>
30000ba4:	0017b793          	seqz	a5,a5
30000ba8:	40f007b3          	neg	a5,a5
30000bac:	fd87f793          	andi	a5,a5,-40
30000bb0:	05078793          	addi	a5,a5,80
30000bb4:	00a72423          	sw	a0,8(a4)
30000bb8:	3000f737          	lui	a4,0x3000f
30000bbc:	34f71023          	sh	a5,832(a4) # 3000f340 <con+0x4>
30000bc0:	01057513          	andi	a0,a0,16
30000bc4:	3000f7b7          	lui	a5,0x3000f
30000bc8:	1d47a783          	lw	a5,468(a5) # 3000f1d4 <sdrdma>
30000bcc:	00050c63          	beqz	a0,30000be4 <_Z12setVideoModem+0x4c>
30000bd0:	0007a623          	sw	zero,12(a5)
30000bd4:	0c000713          	li	a4,192
30000bd8:	00e7a823          	sw	a4,16(a5)
30000bdc:	00000513          	li	a0,0
30000be0:	00008067          	ret
30000be4:	06000713          	li	a4,96
30000be8:	00e7a623          	sw	a4,12(a5)
30000bec:	00e7a823          	sw	a4,16(a5)
30000bf0:	00000513          	li	a0,0
30000bf4:	00008067          	ret

30000bf8 <_Z6rebootv>:
30000bf8:	300107b7          	lui	a5,0x30010
30000bfc:	a647a303          	lw	t1,-1436(a5) # 3000fa64 <bootLoaderEntry>
30000c00:	00030067          	jr	t1

30000c04 <_Z10usbHIDInitv>:
30000c04:	300107b7          	lui	a5,0x30010
30000c08:	a607aa23          	sw	zero,-1420(a5) # 3000fa74 <_ZL10activeKeys>
30000c0c:	300107b7          	lui	a5,0x30010
30000c10:	a6078823          	sb	zero,-1424(a5) # 3000fa70 <_ZL10shiftState>
30000c14:	fff00713          	li	a4,-1
30000c18:	300107b7          	lui	a5,0x30010
30000c1c:	a6e7a623          	sw	a4,-1428(a5) # 3000fa6c <_ZL24lastPressedKeyRepeatTime>
30000c20:	300107b7          	lui	a5,0x30010
30000c24:	a6078423          	sb	zero,-1432(a5) # 3000fa68 <_ZL18lastPressedKeyCode>
30000c28:	00000513          	li	a0,0
30000c2c:	00008067          	ret

30000c30 <_Z18usbHIDHandleEventsv>:
30000c30:	f9010113          	addi	sp,sp,-112
30000c34:	03b12e23          	sw	s11,60(sp)
30000c38:	3000fdb7          	lui	s11,0x3000f
30000c3c:	1e8da703          	lw	a4,488(s11) # 3000f1e8 <usbhost>
30000c40:	06112623          	sw	ra,108(sp)
30000c44:	06812423          	sw	s0,104(sp)
30000c48:	00872783          	lw	a5,8(a4)
30000c4c:	06912223          	sw	s1,100(sp)
30000c50:	07212023          	sw	s2,96(sp)
30000c54:	05312e23          	sw	s3,92(sp)
30000c58:	05412c23          	sw	s4,88(sp)
30000c5c:	05512a23          	sw	s5,84(sp)
30000c60:	05612823          	sw	s6,80(sp)
30000c64:	05712623          	sw	s7,76(sp)
30000c68:	05812423          	sw	s8,72(sp)
30000c6c:	05912223          	sw	s9,68(sp)
30000c70:	05a12023          	sw	s10,64(sp)
30000c74:	0017f793          	andi	a5,a5,1
30000c78:	32079463          	bnez	a5,30000fa0 <_Z18usbHIDHandleEventsv+0x370>
30000c7c:	00872783          	lw	a5,8(a4)
30000c80:	0017f793          	andi	a5,a5,1
30000c84:	0a079a63          	bnez	a5,30000d38 <_Z18usbHIDHandleEventsv+0x108>
30000c88:	3000fab7          	lui	s5,0x3000f
30000c8c:	30010d37          	lui	s10,0x30010
30000c90:	a90a8793          	addi	a5,s5,-1392 # 3000ea90 <_ZL7HIDkeys>
30000c94:	30010cb7          	lui	s9,0x30010
30000c98:	a74d0413          	addi	s0,s10,-1420 # 3000fa74 <_ZL10activeKeys>
30000c9c:	10300c13          	li	s8,259
30000ca0:	00f12623          	sw	a5,12(sp)
30000ca4:	30010b37          	lui	s6,0x30010
30000ca8:	00c72483          	lw	s1,12(a4)
30000cac:	a70cc703          	lbu	a4,-1424(s9) # 3000fa70 <_ZL10shiftState>
30000cb0:	0184d793          	srli	a5,s1,0x18
30000cb4:	0104db93          	srli	s7,s1,0x10
30000cb8:	0084da93          	srli	s5,s1,0x8
30000cbc:	0227f693          	andi	a3,a5,34
30000cc0:	0ffbfa13          	andi	s4,s7,255
30000cc4:	0ffaf993          	andi	s3,s5,255
30000cc8:	0ff4f913          	andi	s2,s1,255
30000ccc:	0fe77613          	andi	a2,a4,254
30000cd0:	00068463          	beqz	a3,30000cd8 <_Z18usbHIDHandleEventsv+0xa8>
30000cd4:	00176613          	ori	a2,a4,1
30000cd8:	0017f713          	andi	a4,a5,1
30000cdc:	0fd67693          	andi	a3,a2,253
30000ce0:	00070463          	beqz	a4,30000ce8 <_Z18usbHIDHandleEventsv+0xb8>
30000ce4:	00266693          	ori	a3,a2,2
30000ce8:	0447f793          	andi	a5,a5,68
30000cec:	0fb6f713          	andi	a4,a3,251
30000cf0:	00078463          	beqz	a5,30000cf8 <_Z18usbHIDHandleEventsv+0xc8>
30000cf4:	0046e713          	ori	a4,a3,4
30000cf8:	a74d4783          	lbu	a5,-1420(s10)
30000cfc:	a6ec8823          	sb	a4,-1424(s9)
30000d00:	1e079463          	bnez	a5,30000ee8 <_Z18usbHIDHandleEventsv+0x2b8>
30000d04:	00144783          	lbu	a5,1(s0)
30000d08:	24079263          	bnez	a5,30000f4c <_Z18usbHIDHandleEventsv+0x31c>
30000d0c:	00244783          	lbu	a5,2(s0)
30000d10:	18079263          	bnez	a5,30000e94 <_Z18usbHIDHandleEventsv+0x264>
30000d14:	00344783          	lbu	a5,3(s0)
30000d18:	06079463          	bnez	a5,30000d80 <_Z18usbHIDHandleEventsv+0x150>
30000d1c:	10091663          	bnez	s2,30000e28 <_Z18usbHIDHandleEventsv+0x1f8>
30000d20:	0c099863          	bnez	s3,30000df0 <_Z18usbHIDHandleEventsv+0x1c0>
30000d24:	120a1c63          	bnez	s4,30000e5c <_Z18usbHIDHandleEventsv+0x22c>
30000d28:	1e8da703          	lw	a4,488(s11)
30000d2c:	00872783          	lw	a5,8(a4)
30000d30:	0017f793          	andi	a5,a5,1
30000d34:	f6078ae3          	beqz	a5,30000ca8 <_Z18usbHIDHandleEventsv+0x78>
30000d38:	06c12083          	lw	ra,108(sp)
30000d3c:	06812403          	lw	s0,104(sp)
30000d40:	06412483          	lw	s1,100(sp)
30000d44:	06012903          	lw	s2,96(sp)
30000d48:	05c12983          	lw	s3,92(sp)
30000d4c:	05812a03          	lw	s4,88(sp)
30000d50:	05412a83          	lw	s5,84(sp)
30000d54:	05012b03          	lw	s6,80(sp)
30000d58:	04c12b83          	lw	s7,76(sp)
30000d5c:	04812c03          	lw	s8,72(sp)
30000d60:	04412c83          	lw	s9,68(sp)
30000d64:	04012d03          	lw	s10,64(sp)
30000d68:	03c12d83          	lw	s11,60(sp)
30000d6c:	00000513          	li	a0,0
30000d70:	07010113          	addi	sp,sp,112
30000d74:	00008067          	ret
30000d78:	00344783          	lbu	a5,3(s0)
30000d7c:	0a078663          	beqz	a5,30000e28 <_Z18usbHIDHandleEventsv+0x1f8>
30000d80:	0af90463          	beq	s2,a5,30000e28 <_Z18usbHIDHandleEventsv+0x1f8>
30000d84:	06f98463          	beq	s3,a5,30000dec <_Z18usbHIDHandleEventsv+0x1bc>
30000d88:	f8fa0ae3          	beq	s4,a5,30000d1c <_Z18usbHIDHandleEventsv+0xec>
30000d8c:	a70cc703          	lbu	a4,-1424(s9)
30000d90:	01811e23          	sh	s8,28(sp)
30000d94:	00177693          	andi	a3,a4,1
30000d98:	2a068463          	beqz	a3,30001040 <_Z18usbHIDHandleEventsv+0x410>
30000d9c:	00c12683          	lw	a3,12(sp)
30000da0:	00f686b3          	add	a3,a3,a5
30000da4:	0546c683          	lbu	a3,84(a3)
30000da8:	01c10513          	addi	a0,sp,28
30000dac:	02e12223          	sw	a4,36(sp)
30000db0:	02f12423          	sw	a5,40(sp)
30000db4:	02d12023          	sw	a3,32(sp)
30000db8:	02012623          	sw	zero,44(sp)
30000dbc:	480000ef          	jal	ra,3000123c <_Z12osPutUIEventP11_tosUIEvent>
30000dc0:	00344703          	lbu	a4,3(s0)
30000dc4:	a68b4783          	lbu	a5,-1432(s6) # 3000fa68 <_ZL18lastPressedKeyCode>
30000dc8:	00f71a63          	bne	a4,a5,30000ddc <_Z18usbHIDHandleEventsv+0x1ac>
30000dcc:	300107b7          	lui	a5,0x30010
30000dd0:	fff00713          	li	a4,-1
30000dd4:	a60b0423          	sb	zero,-1432(s6)
30000dd8:	a6e7a623          	sw	a4,-1428(a5) # 3000fa6c <_ZL24lastPressedKeyRepeatTime>
30000ddc:	000401a3          	sb	zero,3(s0)
30000de0:	00000793          	li	a5,0
30000de4:	f2090ee3          	beqz	s2,30000d20 <_Z18usbHIDHandleEventsv+0xf0>
30000de8:	0400006f          	j	30000e28 <_Z18usbHIDHandleEventsv+0x1f8>
30000dec:	02091e63          	bnez	s2,30000e28 <_Z18usbHIDHandleEventsv+0x1f8>
30000df0:	a74d4783          	lbu	a5,-1420(s10)
30000df4:	f2f988e3          	beq	s3,a5,30000d24 <_Z18usbHIDHandleEventsv+0xf4>
30000df8:	00144703          	lbu	a4,1(s0)
30000dfc:	f2e984e3          	beq	s3,a4,30000d24 <_Z18usbHIDHandleEventsv+0xf4>
30000e00:	00244683          	lbu	a3,2(s0)
30000e04:	f2d980e3          	beq	s3,a3,30000d24 <_Z18usbHIDHandleEventsv+0xf4>
30000e08:	00344603          	lbu	a2,3(s0)
30000e0c:	f0c98ce3          	beq	s3,a2,30000d24 <_Z18usbHIDHandleEventsv+0xf4>
30000e10:	34078a63          	beqz	a5,30001164 <_Z18usbHIDHandleEventsv+0x534>
30000e14:	3c070063          	beqz	a4,300011d4 <_Z18usbHIDHandleEventsv+0x5a4>
30000e18:	3e068263          	beqz	a3,300011fc <_Z18usbHIDHandleEventsv+0x5cc>
30000e1c:	f00614e3          	bnez	a2,30000d24 <_Z18usbHIDHandleEventsv+0xf4>
30000e20:	00300793          	li	a5,3
30000e24:	3440006f          	j	30001168 <_Z18usbHIDHandleEventsv+0x538>
30000e28:	a74d4703          	lbu	a4,-1420(s10)
30000e2c:	eee90ae3          	beq	s2,a4,30000d20 <_Z18usbHIDHandleEventsv+0xf0>
30000e30:	00144683          	lbu	a3,1(s0)
30000e34:	eed906e3          	beq	s2,a3,30000d20 <_Z18usbHIDHandleEventsv+0xf0>
30000e38:	00244603          	lbu	a2,2(s0)
30000e3c:	eec902e3          	beq	s2,a2,30000d20 <_Z18usbHIDHandleEventsv+0xf0>
30000e40:	eef900e3          	beq	s2,a5,30000d20 <_Z18usbHIDHandleEventsv+0xf0>
30000e44:	2a070663          	beqz	a4,300010f0 <_Z18usbHIDHandleEventsv+0x4c0>
30000e48:	38068a63          	beqz	a3,300011dc <_Z18usbHIDHandleEventsv+0x5ac>
30000e4c:	3a060063          	beqz	a2,300011ec <_Z18usbHIDHandleEventsv+0x5bc>
30000e50:	ec0798e3          	bnez	a5,30000d20 <_Z18usbHIDHandleEventsv+0xf0>
30000e54:	00300793          	li	a5,3
30000e58:	29c0006f          	j	300010f4 <_Z18usbHIDHandleEventsv+0x4c4>
30000e5c:	a74d4783          	lbu	a5,-1420(s10)
30000e60:	ecfa04e3          	beq	s4,a5,30000d28 <_Z18usbHIDHandleEventsv+0xf8>
30000e64:	00144703          	lbu	a4,1(s0)
30000e68:	ecea00e3          	beq	s4,a4,30000d28 <_Z18usbHIDHandleEventsv+0xf8>
30000e6c:	00244683          	lbu	a3,2(s0)
30000e70:	eada0ce3          	beq	s4,a3,30000d28 <_Z18usbHIDHandleEventsv+0xf8>
30000e74:	00344603          	lbu	a2,3(s0)
30000e78:	eaca08e3          	beq	s4,a2,30000d28 <_Z18usbHIDHandleEventsv+0xf8>
30000e7c:	20078263          	beqz	a5,30001080 <_Z18usbHIDHandleEventsv+0x450>
30000e80:	36070263          	beqz	a4,300011e4 <_Z18usbHIDHandleEventsv+0x5b4>
30000e84:	36068863          	beqz	a3,300011f4 <_Z18usbHIDHandleEventsv+0x5c4>
30000e88:	ea0610e3          	bnez	a2,30000d28 <_Z18usbHIDHandleEventsv+0xf8>
30000e8c:	00300793          	li	a5,3
30000e90:	1f40006f          	j	30001084 <_Z18usbHIDHandleEventsv+0x454>
30000e94:	eef902e3          	beq	s2,a5,30000d78 <_Z18usbHIDHandleEventsv+0x148>
30000e98:	e6f98ee3          	beq	s3,a5,30000d14 <_Z18usbHIDHandleEventsv+0xe4>
30000e9c:	e6fa0ce3          	beq	s4,a5,30000d14 <_Z18usbHIDHandleEventsv+0xe4>
30000ea0:	a70cc703          	lbu	a4,-1424(s9)
30000ea4:	01811e23          	sh	s8,28(sp)
30000ea8:	00177693          	andi	a3,a4,1
30000eac:	16068a63          	beqz	a3,30001020 <_Z18usbHIDHandleEventsv+0x3f0>
30000eb0:	00c12683          	lw	a3,12(sp)
30000eb4:	00f686b3          	add	a3,a3,a5
30000eb8:	0546c683          	lbu	a3,84(a3)
30000ebc:	01c10513          	addi	a0,sp,28
30000ec0:	02e12223          	sw	a4,36(sp)
30000ec4:	02f12423          	sw	a5,40(sp)
30000ec8:	02d12023          	sw	a3,32(sp)
30000ecc:	02012623          	sw	zero,44(sp)
30000ed0:	36c000ef          	jal	ra,3000123c <_Z12osPutUIEventP11_tosUIEvent>
30000ed4:	00244703          	lbu	a4,2(s0)
30000ed8:	a68b4783          	lbu	a5,-1432(s6)
30000edc:	16f70a63          	beq	a4,a5,30001050 <_Z18usbHIDHandleEventsv+0x420>
30000ee0:	00040123          	sb	zero,2(s0)
30000ee4:	e31ff06f          	j	30000d14 <_Z18usbHIDHandleEventsv+0xe4>
30000ee8:	e0f90ee3          	beq	s2,a5,30000d04 <_Z18usbHIDHandleEventsv+0xd4>
30000eec:	e0f98ce3          	beq	s3,a5,30000d04 <_Z18usbHIDHandleEventsv+0xd4>
30000ef0:	e0fa0ae3          	beq	s4,a5,30000d04 <_Z18usbHIDHandleEventsv+0xd4>
30000ef4:	01811e23          	sh	s8,28(sp)
30000ef8:	00177693          	andi	a3,a4,1
30000efc:	10068a63          	beqz	a3,30001010 <_Z18usbHIDHandleEventsv+0x3e0>
30000f00:	00c12683          	lw	a3,12(sp)
30000f04:	00f686b3          	add	a3,a3,a5
30000f08:	0546c683          	lbu	a3,84(a3)
30000f0c:	01c10513          	addi	a0,sp,28
30000f10:	02e12223          	sw	a4,36(sp)
30000f14:	02f12423          	sw	a5,40(sp)
30000f18:	02d12023          	sw	a3,32(sp)
30000f1c:	02012623          	sw	zero,44(sp)
30000f20:	31c000ef          	jal	ra,3000123c <_Z12osPutUIEventP11_tosUIEvent>
30000f24:	a74d4703          	lbu	a4,-1420(s10)
30000f28:	a68b4783          	lbu	a5,-1432(s6)
30000f2c:	00f71a63          	bne	a4,a5,30000f40 <_Z18usbHIDHandleEventsv+0x310>
30000f30:	300107b7          	lui	a5,0x30010
30000f34:	fff00713          	li	a4,-1
30000f38:	a60b0423          	sb	zero,-1432(s6)
30000f3c:	a6e7a623          	sw	a4,-1428(a5) # 3000fa6c <_ZL24lastPressedKeyRepeatTime>
30000f40:	00144783          	lbu	a5,1(s0)
30000f44:	a60d0a23          	sb	zero,-1420(s10)
30000f48:	dc0782e3          	beqz	a5,30000d0c <_Z18usbHIDHandleEventsv+0xdc>
30000f4c:	dcf900e3          	beq	s2,a5,30000d0c <_Z18usbHIDHandleEventsv+0xdc>
30000f50:	daf98ee3          	beq	s3,a5,30000d0c <_Z18usbHIDHandleEventsv+0xdc>
30000f54:	dafa0ce3          	beq	s4,a5,30000d0c <_Z18usbHIDHandleEventsv+0xdc>
30000f58:	a70cc703          	lbu	a4,-1424(s9)
30000f5c:	01811e23          	sh	s8,28(sp)
30000f60:	00177693          	andi	a3,a4,1
30000f64:	0c068663          	beqz	a3,30001030 <_Z18usbHIDHandleEventsv+0x400>
30000f68:	00c12683          	lw	a3,12(sp)
30000f6c:	00f686b3          	add	a3,a3,a5
30000f70:	0546c683          	lbu	a3,84(a3)
30000f74:	01c10513          	addi	a0,sp,28
30000f78:	02e12223          	sw	a4,36(sp)
30000f7c:	02f12423          	sw	a5,40(sp)
30000f80:	02d12023          	sw	a3,32(sp)
30000f84:	02012623          	sw	zero,44(sp)
30000f88:	2b4000ef          	jal	ra,3000123c <_Z12osPutUIEventP11_tosUIEvent>
30000f8c:	00144703          	lbu	a4,1(s0)
30000f90:	a68b4783          	lbu	a5,-1432(s6)
30000f94:	0cf70a63          	beq	a4,a5,30001068 <_Z18usbHIDHandleEventsv+0x438>
30000f98:	000400a3          	sb	zero,1(s0)
30000f9c:	d71ff06f          	j	30000d0c <_Z18usbHIDHandleEventsv+0xdc>
30000fa0:	30010437          	lui	s0,0x30010
30000fa4:	a6844783          	lbu	a5,-1432(s0) # 3000fa68 <_ZL18lastPressedKeyCode>
30000fa8:	d80788e3          	beqz	a5,30000d38 <_Z18usbHIDHandleEventsv+0x108>
30000fac:	300104b7          	lui	s1,0x30010
30000fb0:	bbdff0ef          	jal	ra,30000b6c <_Z8getTicksv>
30000fb4:	a6c4a783          	lw	a5,-1428(s1) # 3000fa6c <_ZL24lastPressedKeyRepeatTime>
30000fb8:	d8f560e3          	bltu	a0,a5,30000d38 <_Z18usbHIDHandleEventsv+0x108>
30000fbc:	bb1ff0ef          	jal	ra,30000b6c <_Z8getTicksv>
30000fc0:	300107b7          	lui	a5,0x30010
30000fc4:	a707c683          	lbu	a3,-1424(a5) # 3000fa70 <_ZL10shiftState>
30000fc8:	08050513          	addi	a0,a0,128
30000fcc:	10100793          	li	a5,257
30000fd0:	00f11e23          	sh	a5,28(sp)
30000fd4:	a6a4a623          	sw	a0,-1428(s1)
30000fd8:	0016f793          	andi	a5,a3,1
30000fdc:	a6844703          	lbu	a4,-1432(s0)
30000fe0:	22078263          	beqz	a5,30001204 <_Z18usbHIDHandleEventsv+0x5d4>
30000fe4:	3000f7b7          	lui	a5,0x3000f
30000fe8:	a9078793          	addi	a5,a5,-1392 # 3000ea90 <_ZL7HIDkeys>
30000fec:	00e787b3          	add	a5,a5,a4
30000ff0:	0547c783          	lbu	a5,84(a5)
30000ff4:	01c10513          	addi	a0,sp,28
30000ff8:	02f12023          	sw	a5,32(sp)
30000ffc:	02d12223          	sw	a3,36(sp)
30001000:	02e12423          	sw	a4,40(sp)
30001004:	02012623          	sw	zero,44(sp)
30001008:	234000ef          	jal	ra,3000123c <_Z12osPutUIEventP11_tosUIEvent>
3000100c:	d2dff06f          	j	30000d38 <_Z18usbHIDHandleEventsv+0x108>
30001010:	00c12683          	lw	a3,12(sp)
30001014:	00f686b3          	add	a3,a3,a5
30001018:	0006c683          	lbu	a3,0(a3)
3000101c:	ef1ff06f          	j	30000f0c <_Z18usbHIDHandleEventsv+0x2dc>
30001020:	00c12683          	lw	a3,12(sp)
30001024:	00f686b3          	add	a3,a3,a5
30001028:	0006c683          	lbu	a3,0(a3)
3000102c:	e91ff06f          	j	30000ebc <_Z18usbHIDHandleEventsv+0x28c>
30001030:	00c12683          	lw	a3,12(sp)
30001034:	00f686b3          	add	a3,a3,a5
30001038:	0006c683          	lbu	a3,0(a3)
3000103c:	f39ff06f          	j	30000f74 <_Z18usbHIDHandleEventsv+0x344>
30001040:	00c12683          	lw	a3,12(sp)
30001044:	00f686b3          	add	a3,a3,a5
30001048:	0006c683          	lbu	a3,0(a3)
3000104c:	d5dff06f          	j	30000da8 <_Z18usbHIDHandleEventsv+0x178>
30001050:	300107b7          	lui	a5,0x30010
30001054:	fff00713          	li	a4,-1
30001058:	a60b0423          	sb	zero,-1432(s6)
3000105c:	a6e7a623          	sw	a4,-1428(a5) # 3000fa6c <_ZL24lastPressedKeyRepeatTime>
30001060:	00040123          	sb	zero,2(s0)
30001064:	cb1ff06f          	j	30000d14 <_Z18usbHIDHandleEventsv+0xe4>
30001068:	300107b7          	lui	a5,0x30010
3000106c:	fff00713          	li	a4,-1
30001070:	a60b0423          	sb	zero,-1432(s6)
30001074:	a6e7a623          	sw	a4,-1428(a5) # 3000fa6c <_ZL24lastPressedKeyRepeatTime>
30001078:	000400a3          	sb	zero,1(s0)
3000107c:	c91ff06f          	j	30000d0c <_Z18usbHIDHandleEventsv+0xdc>
30001080:	00000793          	li	a5,0
30001084:	a70cc703          	lbu	a4,-1424(s9)
30001088:	00f407b3          	add	a5,s0,a5
3000108c:	01478023          	sb	s4,0(a5)
30001090:	10100793          	li	a5,257
30001094:	00f11e23          	sh	a5,28(sp)
30001098:	00177793          	andi	a5,a4,1
3000109c:	0ffbf813          	andi	a6,s7,255
300010a0:	04078063          	beqz	a5,300010e0 <_Z18usbHIDHandleEventsv+0x4b0>
300010a4:	00c12783          	lw	a5,12(sp)
300010a8:	010787b3          	add	a5,a5,a6
300010ac:	0547c783          	lbu	a5,84(a5)
300010b0:	01c10513          	addi	a0,sp,28
300010b4:	02f12023          	sw	a5,32(sp)
300010b8:	02e12223          	sw	a4,36(sp)
300010bc:	03012423          	sw	a6,40(sp)
300010c0:	02012623          	sw	zero,44(sp)
300010c4:	178000ef          	jal	ra,3000123c <_Z12osPutUIEventP11_tosUIEvent>
300010c8:	aa5ff0ef          	jal	ra,30000b6c <_Z8getTicksv>
300010cc:	3e850513          	addi	a0,a0,1000
300010d0:	300107b7          	lui	a5,0x30010
300010d4:	a6a7a623          	sw	a0,-1428(a5) # 3000fa6c <_ZL24lastPressedKeyRepeatTime>
300010d8:	a74b0423          	sb	s4,-1432(s6)
300010dc:	c4dff06f          	j	30000d28 <_Z18usbHIDHandleEventsv+0xf8>
300010e0:	00c12783          	lw	a5,12(sp)
300010e4:	010787b3          	add	a5,a5,a6
300010e8:	0007c783          	lbu	a5,0(a5)
300010ec:	fc5ff06f          	j	300010b0 <_Z18usbHIDHandleEventsv+0x480>
300010f0:	00000793          	li	a5,0
300010f4:	a70cc703          	lbu	a4,-1424(s9)
300010f8:	00f407b3          	add	a5,s0,a5
300010fc:	01278023          	sb	s2,0(a5)
30001100:	10100793          	li	a5,257
30001104:	00f11e23          	sh	a5,28(sp)
30001108:	00177793          	andi	a5,a4,1
3000110c:	0ff4f493          	andi	s1,s1,255
30001110:	04078263          	beqz	a5,30001154 <_Z18usbHIDHandleEventsv+0x524>
30001114:	00c12783          	lw	a5,12(sp)
30001118:	009787b3          	add	a5,a5,s1
3000111c:	0547c783          	lbu	a5,84(a5)
30001120:	01c10513          	addi	a0,sp,28
30001124:	02f12023          	sw	a5,32(sp)
30001128:	02e12223          	sw	a4,36(sp)
3000112c:	02912423          	sw	s1,40(sp)
30001130:	02012623          	sw	zero,44(sp)
30001134:	108000ef          	jal	ra,3000123c <_Z12osPutUIEventP11_tosUIEvent>
30001138:	a35ff0ef          	jal	ra,30000b6c <_Z8getTicksv>
3000113c:	3e850513          	addi	a0,a0,1000
30001140:	300107b7          	lui	a5,0x30010
30001144:	a6a7a623          	sw	a0,-1428(a5) # 3000fa6c <_ZL24lastPressedKeyRepeatTime>
30001148:	a72b0423          	sb	s2,-1432(s6)
3000114c:	bc098ce3          	beqz	s3,30000d24 <_Z18usbHIDHandleEventsv+0xf4>
30001150:	ca1ff06f          	j	30000df0 <_Z18usbHIDHandleEventsv+0x1c0>
30001154:	00c12783          	lw	a5,12(sp)
30001158:	009787b3          	add	a5,a5,s1
3000115c:	0007c783          	lbu	a5,0(a5)
30001160:	fc1ff06f          	j	30001120 <_Z18usbHIDHandleEventsv+0x4f0>
30001164:	00000793          	li	a5,0
30001168:	a70cc703          	lbu	a4,-1424(s9)
3000116c:	00f407b3          	add	a5,s0,a5
30001170:	01378023          	sb	s3,0(a5)
30001174:	10100793          	li	a5,257
30001178:	00f11e23          	sh	a5,28(sp)
3000117c:	00177793          	andi	a5,a4,1
30001180:	0ffaf893          	andi	a7,s5,255
30001184:	04078063          	beqz	a5,300011c4 <_Z18usbHIDHandleEventsv+0x594>
30001188:	00c12783          	lw	a5,12(sp)
3000118c:	011787b3          	add	a5,a5,a7
30001190:	0547c783          	lbu	a5,84(a5)
30001194:	01c10513          	addi	a0,sp,28
30001198:	02f12023          	sw	a5,32(sp)
3000119c:	02e12223          	sw	a4,36(sp)
300011a0:	03112423          	sw	a7,40(sp)
300011a4:	02012623          	sw	zero,44(sp)
300011a8:	094000ef          	jal	ra,3000123c <_Z12osPutUIEventP11_tosUIEvent>
300011ac:	9c1ff0ef          	jal	ra,30000b6c <_Z8getTicksv>
300011b0:	3e850513          	addi	a0,a0,1000
300011b4:	300107b7          	lui	a5,0x30010
300011b8:	a6a7a623          	sw	a0,-1428(a5) # 3000fa6c <_ZL24lastPressedKeyRepeatTime>
300011bc:	a73b0423          	sb	s3,-1432(s6)
300011c0:	b65ff06f          	j	30000d24 <_Z18usbHIDHandleEventsv+0xf4>
300011c4:	00c12783          	lw	a5,12(sp)
300011c8:	011787b3          	add	a5,a5,a7
300011cc:	0007c783          	lbu	a5,0(a5)
300011d0:	fc5ff06f          	j	30001194 <_Z18usbHIDHandleEventsv+0x564>
300011d4:	00100793          	li	a5,1
300011d8:	f91ff06f          	j	30001168 <_Z18usbHIDHandleEventsv+0x538>
300011dc:	00100793          	li	a5,1
300011e0:	f15ff06f          	j	300010f4 <_Z18usbHIDHandleEventsv+0x4c4>
300011e4:	00100793          	li	a5,1
300011e8:	e9dff06f          	j	30001084 <_Z18usbHIDHandleEventsv+0x454>
300011ec:	00200793          	li	a5,2
300011f0:	f05ff06f          	j	300010f4 <_Z18usbHIDHandleEventsv+0x4c4>
300011f4:	00200793          	li	a5,2
300011f8:	e8dff06f          	j	30001084 <_Z18usbHIDHandleEventsv+0x454>
300011fc:	00200793          	li	a5,2
30001200:	f69ff06f          	j	30001168 <_Z18usbHIDHandleEventsv+0x538>
30001204:	3000f7b7          	lui	a5,0x3000f
30001208:	a9078793          	addi	a5,a5,-1392 # 3000ea90 <_ZL7HIDkeys>
3000120c:	00e787b3          	add	a5,a5,a4
30001210:	0007c783          	lbu	a5,0(a5)
30001214:	de1ff06f          	j	30000ff4 <_Z18usbHIDHandleEventsv+0x3c4>

30001218 <_Z14osUIEventsInitv>:
30001218:	3000f7b7          	lui	a5,0x3000f
3000121c:	35478793          	addi	a5,a5,852 # 3000f354 <osUIEventQueue>
30001220:	00100713          	li	a4,1
30001224:	00e79023          	sh	a4,0(a5)
30001228:	2807a423          	sw	zero,648(a5)
3000122c:	2807a223          	sw	zero,644(a5)
30001230:	28079623          	sh	zero,652(a5)
30001234:	00079023          	sh	zero,0(a5)
30001238:	9cdff06f          	j	30000c04 <_Z10usbHIDInitv>

3000123c <_Z12osPutUIEventP11_tosUIEvent>:
3000123c:	0e050a63          	beqz	a0,30001330 <_Z12osPutUIEventP11_tosUIEvent+0xf4>
30001240:	3000f7b7          	lui	a5,0x3000f
30001244:	35478793          	addi	a5,a5,852 # 3000f354 <osUIEventQueue>
30001248:	00100713          	li	a4,1
3000124c:	00e79023          	sh	a4,0(a5)
30001250:	28c7d703          	lhu	a4,652(a5)
30001254:	01e00693          	li	a3,30
30001258:	0ce6e663          	bltu	a3,a4,30001324 <_Z12osPutUIEventP11_tosUIEvent+0xe8>
3000125c:	2887a683          	lw	a3,648(a5)
30001260:	00055583          	lhu	a1,0(a0)
30001264:	00452603          	lw	a2,4(a0)
30001268:	00269713          	slli	a4,a3,0x2
3000126c:	00d70733          	add	a4,a4,a3
30001270:	00271713          	slli	a4,a4,0x2
30001274:	00e78733          	add	a4,a5,a4
30001278:	00b71223          	sh	a1,4(a4)
3000127c:	2887a683          	lw	a3,648(a5)
30001280:	00852883          	lw	a7,8(a0)
30001284:	00c52803          	lw	a6,12(a0)
30001288:	00269713          	slli	a4,a3,0x2
3000128c:	00d70733          	add	a4,a4,a3
30001290:	00271713          	slli	a4,a4,0x2
30001294:	00e78733          	add	a4,a5,a4
30001298:	00c72423          	sw	a2,8(a4)
3000129c:	2887a683          	lw	a3,648(a5)
300012a0:	01052583          	lw	a1,16(a0)
300012a4:	01f00613          	li	a2,31
300012a8:	00269713          	slli	a4,a3,0x2
300012ac:	00d70733          	add	a4,a4,a3
300012b0:	00271713          	slli	a4,a4,0x2
300012b4:	00e78733          	add	a4,a5,a4
300012b8:	01172623          	sw	a7,12(a4)
300012bc:	2887a683          	lw	a3,648(a5)
300012c0:	00269713          	slli	a4,a3,0x2
300012c4:	00d70733          	add	a4,a4,a3
300012c8:	00271713          	slli	a4,a4,0x2
300012cc:	00e78733          	add	a4,a5,a4
300012d0:	01072823          	sw	a6,16(a4)
300012d4:	2887a683          	lw	a3,648(a5)
300012d8:	00269713          	slli	a4,a3,0x2
300012dc:	00d70733          	add	a4,a4,a3
300012e0:	00271713          	slli	a4,a4,0x2
300012e4:	00e78733          	add	a4,a5,a4
300012e8:	00b72a23          	sw	a1,20(a4)
300012ec:	28c7d703          	lhu	a4,652(a5)
300012f0:	00170713          	addi	a4,a4,1
300012f4:	01071713          	slli	a4,a4,0x10
300012f8:	01075713          	srli	a4,a4,0x10
300012fc:	28e79623          	sh	a4,652(a5)
30001300:	2887a703          	lw	a4,648(a5)
30001304:	00170713          	addi	a4,a4,1
30001308:	28e7a423          	sw	a4,648(a5)
3000130c:	2887a703          	lw	a4,648(a5)
30001310:	00e67463          	bgeu	a2,a4,30001318 <_Z12osPutUIEventP11_tosUIEvent+0xdc>
30001314:	2807a423          	sw	zero,648(a5)
30001318:	00079023          	sh	zero,0(a5)
3000131c:	00000513          	li	a0,0
30001320:	00008067          	ret
30001324:	00079023          	sh	zero,0(a5)
30001328:	10000513          	li	a0,256
3000132c:	00008067          	ret
30001330:	00100513          	li	a0,1
30001334:	00008067          	ret

30001338 <_Z12osGetUIEventP11_tosUIEvent>:
30001338:	ff010113          	addi	sp,sp,-16
3000133c:	00812423          	sw	s0,8(sp)
30001340:	00050413          	mv	s0,a0
30001344:	00112623          	sw	ra,12(sp)
30001348:	8e9ff0ef          	jal	ra,30000c30 <_Z18usbHIDHandleEventsv>
3000134c:	12040c63          	beqz	s0,30001484 <_Z12osGetUIEventP11_tosUIEvent+0x14c>
30001350:	3000f7b7          	lui	a5,0x3000f
30001354:	35478793          	addi	a5,a5,852 # 3000f354 <osUIEventQueue>
30001358:	0007d703          	lhu	a4,0(a5)
3000135c:	00200513          	li	a0,2
30001360:	01071713          	slli	a4,a4,0x10
30001364:	01075713          	srli	a4,a4,0x10
30001368:	0e071063          	bnez	a4,30001448 <_Z12osGetUIEventP11_tosUIEvent+0x110>
3000136c:	00100713          	li	a4,1
30001370:	00e79023          	sh	a4,0(a5)
30001374:	28c7d703          	lhu	a4,652(a5)
30001378:	01071713          	slli	a4,a4,0x10
3000137c:	01075713          	srli	a4,a4,0x10
30001380:	0c070c63          	beqz	a4,30001458 <_Z12osGetUIEventP11_tosUIEvent+0x120>
30001384:	2847a603          	lw	a2,644(a5)
30001388:	01f00693          	li	a3,31
3000138c:	00261713          	slli	a4,a2,0x2
30001390:	00c70733          	add	a4,a4,a2
30001394:	00271713          	slli	a4,a4,0x2
30001398:	00e78733          	add	a4,a5,a4
3000139c:	00475703          	lhu	a4,4(a4)
300013a0:	2847a603          	lw	a2,644(a5)
300013a4:	00e41023          	sh	a4,0(s0)
300013a8:	00261713          	slli	a4,a2,0x2
300013ac:	00c70733          	add	a4,a4,a2
300013b0:	00271713          	slli	a4,a4,0x2
300013b4:	00e78733          	add	a4,a5,a4
300013b8:	00872703          	lw	a4,8(a4)
300013bc:	2847a603          	lw	a2,644(a5)
300013c0:	00e42223          	sw	a4,4(s0)
300013c4:	00261713          	slli	a4,a2,0x2
300013c8:	00c70733          	add	a4,a4,a2
300013cc:	00271713          	slli	a4,a4,0x2
300013d0:	00e78733          	add	a4,a5,a4
300013d4:	00c72703          	lw	a4,12(a4)
300013d8:	2847a603          	lw	a2,644(a5)
300013dc:	00e42423          	sw	a4,8(s0)
300013e0:	00261713          	slli	a4,a2,0x2
300013e4:	00c70733          	add	a4,a4,a2
300013e8:	00271713          	slli	a4,a4,0x2
300013ec:	00e78733          	add	a4,a5,a4
300013f0:	01072703          	lw	a4,16(a4)
300013f4:	2847a603          	lw	a2,644(a5)
300013f8:	00e42623          	sw	a4,12(s0)
300013fc:	00261713          	slli	a4,a2,0x2
30001400:	00c70733          	add	a4,a4,a2
30001404:	00271713          	slli	a4,a4,0x2
30001408:	00e78733          	add	a4,a5,a4
3000140c:	01472603          	lw	a2,20(a4)
30001410:	28c7d703          	lhu	a4,652(a5)
30001414:	00c42823          	sw	a2,16(s0)
30001418:	fff70713          	addi	a4,a4,-1
3000141c:	01071713          	slli	a4,a4,0x10
30001420:	01075713          	srli	a4,a4,0x10
30001424:	28e79623          	sh	a4,652(a5)
30001428:	2847a703          	lw	a4,644(a5)
3000142c:	00170713          	addi	a4,a4,1
30001430:	28e7a223          	sw	a4,644(a5)
30001434:	2847a703          	lw	a4,644(a5)
30001438:	00e6f463          	bgeu	a3,a4,30001440 <_Z12osGetUIEventP11_tosUIEvent+0x108>
3000143c:	2807a223          	sw	zero,644(a5)
30001440:	00079023          	sh	zero,0(a5)
30001444:	00000513          	li	a0,0
30001448:	00c12083          	lw	ra,12(sp)
3000144c:	00812403          	lw	s0,8(sp)
30001450:	01010113          	addi	sp,sp,16
30001454:	00008067          	ret
30001458:	00041023          	sh	zero,0(s0)
3000145c:	00042223          	sw	zero,4(s0)
30001460:	00042423          	sw	zero,8(s0)
30001464:	00042623          	sw	zero,12(s0)
30001468:	00042823          	sw	zero,16(s0)
3000146c:	00c12083          	lw	ra,12(sp)
30001470:	00812403          	lw	s0,8(sp)
30001474:	00079023          	sh	zero,0(a5)
30001478:	10000513          	li	a0,256
3000147c:	01010113          	addi	sp,sp,16
30001480:	00008067          	ret
30001484:	00c12083          	lw	ra,12(sp)
30001488:	00812403          	lw	s0,8(sp)
3000148c:	00100513          	li	a0,1
30001490:	01010113          	addi	sp,sp,16
30001494:	00008067          	ret

30001498 <_ZL14xmit_datablockPKhh.part.1>:
30001498:	3000f7b7          	lui	a5,0x3000f
3000149c:	1e07a703          	lw	a4,480(a5) # 3000f1e0 <spi0>
300014a0:	ff010113          	addi	sp,sp,-16
300014a4:	00050693          	mv	a3,a0
300014a8:	00b10623          	sb	a1,12(sp)
300014ac:	00c72783          	lw	a5,12(a4)
300014b0:	0017f793          	andi	a5,a5,1
300014b4:	fe078ce3          	beqz	a5,300014ac <_ZL14xmit_datablockPKhh.part.1+0x14>
300014b8:	00b72423          	sw	a1,8(a4)
300014bc:	0fd00793          	li	a5,253
300014c0:	00100513          	li	a0,1
300014c4:	08f58663          	beq	a1,a5,30001550 <_ZL14xmit_datablockPKhh.part.1+0xb8>
300014c8:	20068593          	addi	a1,a3,512
300014cc:	00168693          	addi	a3,a3,1
300014d0:	fff6c603          	lbu	a2,-1(a3)
300014d4:	00c72783          	lw	a5,12(a4)
300014d8:	0017f793          	andi	a5,a5,1
300014dc:	fe078ce3          	beqz	a5,300014d4 <_ZL14xmit_datablockPKhh.part.1+0x3c>
300014e0:	00c72423          	sw	a2,8(a4)
300014e4:	feb694e3          	bne	a3,a1,300014cc <_ZL14xmit_datablockPKhh.part.1+0x34>
300014e8:	00c10693          	addi	a3,sp,12
300014ec:	00e10593          	addi	a1,sp,14
300014f0:	0ff00613          	li	a2,255
300014f4:	00c72783          	lw	a5,12(a4)
300014f8:	0017f793          	andi	a5,a5,1
300014fc:	fe078ce3          	beqz	a5,300014f4 <_ZL14xmit_datablockPKhh.part.1+0x5c>
30001500:	00c72423          	sw	a2,8(a4)
30001504:	00c72783          	lw	a5,12(a4)
30001508:	0017f793          	andi	a5,a5,1
3000150c:	fe078ce3          	beqz	a5,30001504 <_ZL14xmit_datablockPKhh.part.1+0x6c>
30001510:	00872783          	lw	a5,8(a4)
30001514:	00168693          	addi	a3,a3,1
30001518:	fef68fa3          	sb	a5,-1(a3)
3000151c:	fcb69ce3          	bne	a3,a1,300014f4 <_ZL14xmit_datablockPKhh.part.1+0x5c>
30001520:	00c72783          	lw	a5,12(a4)
30001524:	0017f793          	andi	a5,a5,1
30001528:	fe078ce3          	beqz	a5,30001520 <_ZL14xmit_datablockPKhh.part.1+0x88>
3000152c:	0ff00793          	li	a5,255
30001530:	00f72423          	sw	a5,8(a4)
30001534:	00c72783          	lw	a5,12(a4)
30001538:	0017f793          	andi	a5,a5,1
3000153c:	fe078ce3          	beqz	a5,30001534 <_ZL14xmit_datablockPKhh.part.1+0x9c>
30001540:	00872503          	lw	a0,8(a4)
30001544:	01f57513          	andi	a0,a0,31
30001548:	ffb50513          	addi	a0,a0,-5
3000154c:	00153513          	seqz	a0,a0
30001550:	01010113          	addi	sp,sp,16
30001554:	00008067          	ret

30001558 <_ZL14rcvr_datablockPhj.constprop.2>:
30001558:	3000f837          	lui	a6,0x3000f
3000155c:	1e082703          	lw	a4,480(a6) # 3000f1e0 <spi0>
30001560:	ff010113          	addi	sp,sp,-16
30001564:	3e800613          	li	a2,1000
30001568:	0ff00593          	li	a1,255
3000156c:	7cf00693          	li	a3,1999
30001570:	00c72783          	lw	a5,12(a4)
30001574:	0017f793          	andi	a5,a5,1
30001578:	fe078ce3          	beqz	a5,30001570 <_ZL14rcvr_datablockPhj.constprop.2+0x18>
3000157c:	00b72423          	sw	a1,8(a4)
30001580:	00c72783          	lw	a5,12(a4)
30001584:	0017f793          	andi	a5,a5,1
30001588:	fe078ce3          	beqz	a5,30001580 <_ZL14rcvr_datablockPhj.constprop.2+0x28>
3000158c:	00872783          	lw	a5,8(a4)
30001590:	0ff7f793          	andi	a5,a5,255
30001594:	02b79e63          	bne	a5,a1,300015d0 <_ZL14rcvr_datablockPhj.constprop.2+0x78>
30001598:	00012623          	sw	zero,12(sp)
3000159c:	00c12783          	lw	a5,12(sp)
300015a0:	00f6ec63          	bltu	a3,a5,300015b8 <_ZL14rcvr_datablockPhj.constprop.2+0x60>
300015a4:	00c12783          	lw	a5,12(sp)
300015a8:	00178793          	addi	a5,a5,1
300015ac:	00f12623          	sw	a5,12(sp)
300015b0:	00c12783          	lw	a5,12(sp)
300015b4:	fef6f8e3          	bgeu	a3,a5,300015a4 <_ZL14rcvr_datablockPhj.constprop.2+0x4c>
300015b8:	fff60613          	addi	a2,a2,-1
300015bc:	fa061ae3          	bnez	a2,30001570 <_ZL14rcvr_datablockPhj.constprop.2+0x18>
300015c0:	00000693          	li	a3,0
300015c4:	00068513          	mv	a0,a3
300015c8:	01010113          	addi	sp,sp,16
300015cc:	00008067          	ret
300015d0:	00f10423          	sb	a5,8(sp)
300015d4:	0fe00613          	li	a2,254
300015d8:	00000693          	li	a3,0
300015dc:	fec794e3          	bne	a5,a2,300015c4 <_ZL14rcvr_datablockPhj.constprop.2+0x6c>
300015e0:	20050613          	addi	a2,a0,512
300015e4:	0ff00693          	li	a3,255
300015e8:	00c72783          	lw	a5,12(a4)
300015ec:	0017f793          	andi	a5,a5,1
300015f0:	fe078ce3          	beqz	a5,300015e8 <_ZL14rcvr_datablockPhj.constprop.2+0x90>
300015f4:	00d72423          	sw	a3,8(a4)
300015f8:	00c72783          	lw	a5,12(a4)
300015fc:	0017f793          	andi	a5,a5,1
30001600:	fe078ce3          	beqz	a5,300015f8 <_ZL14rcvr_datablockPhj.constprop.2+0xa0>
30001604:	00872783          	lw	a5,8(a4)
30001608:	00150513          	addi	a0,a0,1
3000160c:	fef50fa3          	sb	a5,-1(a0)
30001610:	1e082703          	lw	a4,480(a6)
30001614:	fcc51ae3          	bne	a0,a2,300015e8 <_ZL14rcvr_datablockPhj.constprop.2+0x90>
30001618:	00810693          	addi	a3,sp,8
3000161c:	00a10593          	addi	a1,sp,10
30001620:	0ff00613          	li	a2,255
30001624:	00c72783          	lw	a5,12(a4)
30001628:	0017f793          	andi	a5,a5,1
3000162c:	fe078ce3          	beqz	a5,30001624 <_ZL14rcvr_datablockPhj.constprop.2+0xcc>
30001630:	00c72423          	sw	a2,8(a4)
30001634:	00c72783          	lw	a5,12(a4)
30001638:	0017f793          	andi	a5,a5,1
3000163c:	fe078ce3          	beqz	a5,30001634 <_ZL14rcvr_datablockPhj.constprop.2+0xdc>
30001640:	00872783          	lw	a5,8(a4)
30001644:	00168693          	addi	a3,a3,1
30001648:	fef68fa3          	sb	a5,-1(a3)
3000164c:	fcb69ce3          	bne	a3,a1,30001624 <_ZL14rcvr_datablockPhj.constprop.2+0xcc>
30001650:	00100693          	li	a3,1
30001654:	00068513          	mv	a0,a3
30001658:	01010113          	addi	sp,sp,16
3000165c:	00008067          	ret

30001660 <_ZL8send_cmdhm>:
30001660:	fe010113          	addi	sp,sp,-32
30001664:	01851793          	slli	a5,a0,0x18
30001668:	00812c23          	sw	s0,24(sp)
3000166c:	00912a23          	sw	s1,20(sp)
30001670:	00112e23          	sw	ra,28(sp)
30001674:	4187d793          	srai	a5,a5,0x18
30001678:	00050413          	mv	s0,a0
3000167c:	00058493          	mv	s1,a1
30001680:	1e07c463          	bltz	a5,30001868 <_ZL8send_cmdhm+0x208>
30001684:	3000f7b7          	lui	a5,0x3000f
30001688:	1f47a503          	lw	a0,500(a5) # 3000f1f4 <bsp>
3000168c:	3000f7b7          	lui	a5,0x3000f
30001690:	1e07a783          	lw	a5,480(a5) # 3000f1e0 <spi0>
30001694:	01452703          	lw	a4,20(a0)
30001698:	00176713          	ori	a4,a4,1
3000169c:	00e52a23          	sw	a4,20(a0)
300016a0:	00c7a703          	lw	a4,12(a5)
300016a4:	00177713          	andi	a4,a4,1
300016a8:	fe070ce3          	beqz	a4,300016a0 <_ZL8send_cmdhm+0x40>
300016ac:	0ff00713          	li	a4,255
300016b0:	00e7a423          	sw	a4,8(a5)
300016b4:	00c7a703          	lw	a4,12(a5)
300016b8:	00177713          	andi	a4,a4,1
300016bc:	fe070ce3          	beqz	a4,300016b4 <_ZL8send_cmdhm+0x54>
300016c0:	0087a703          	lw	a4,8(a5)
300016c4:	01452703          	lw	a4,20(a0)
300016c8:	00001637          	lui	a2,0x1
300016cc:	38860613          	addi	a2,a2,904 # 1388 <stackPointer-0x59b8>
300016d0:	ffe77713          	andi	a4,a4,-2
300016d4:	00e52a23          	sw	a4,20(a0)
300016d8:	0ff00593          	li	a1,255
300016dc:	7cf00693          	li	a3,1999
300016e0:	00c7a703          	lw	a4,12(a5)
300016e4:	00177713          	andi	a4,a4,1
300016e8:	fe070ce3          	beqz	a4,300016e0 <_ZL8send_cmdhm+0x80>
300016ec:	00b7a423          	sw	a1,8(a5)
300016f0:	00c7a703          	lw	a4,12(a5)
300016f4:	00177713          	andi	a4,a4,1
300016f8:	fe070ce3          	beqz	a4,300016f0 <_ZL8send_cmdhm+0x90>
300016fc:	0087a703          	lw	a4,8(a5)
30001700:	0ff77713          	andi	a4,a4,255
30001704:	06b70a63          	beq	a4,a1,30001778 <_ZL8send_cmdhm+0x118>
30001708:	00012223          	sw	zero,4(sp)
3000170c:	00412703          	lw	a4,4(sp)
30001710:	00e6ec63          	bltu	a3,a4,30001728 <_ZL8send_cmdhm+0xc8>
30001714:	00412703          	lw	a4,4(sp)
30001718:	00170713          	addi	a4,a4,1
3000171c:	00e12223          	sw	a4,4(sp)
30001720:	00412703          	lw	a4,4(sp)
30001724:	fee6f8e3          	bgeu	a3,a4,30001714 <_ZL8send_cmdhm+0xb4>
30001728:	fff60613          	addi	a2,a2,-1
3000172c:	fa061ae3          	bnez	a2,300016e0 <_ZL8send_cmdhm+0x80>
30001730:	01452703          	lw	a4,20(a0)
30001734:	00176713          	ori	a4,a4,1
30001738:	00e52a23          	sw	a4,20(a0)
3000173c:	00c7a703          	lw	a4,12(a5)
30001740:	00177713          	andi	a4,a4,1
30001744:	fe070ce3          	beqz	a4,3000173c <_ZL8send_cmdhm+0xdc>
30001748:	0ff00713          	li	a4,255
3000174c:	00e7a423          	sw	a4,8(a5)
30001750:	00c7a703          	lw	a4,12(a5)
30001754:	00177713          	andi	a4,a4,1
30001758:	fe070ce3          	beqz	a4,30001750 <_ZL8send_cmdhm+0xf0>
3000175c:	0087a783          	lw	a5,8(a5)
30001760:	0ff00513          	li	a0,255
30001764:	01c12083          	lw	ra,28(sp)
30001768:	01812403          	lw	s0,24(sp)
3000176c:	01412483          	lw	s1,20(sp)
30001770:	02010113          	addi	sp,sp,32
30001774:	00008067          	ret
30001778:	04046713          	ori	a4,s0,64
3000177c:	0184d593          	srli	a1,s1,0x18
30001780:	0104d613          	srli	a2,s1,0x10
30001784:	0084d693          	srli	a3,s1,0x8
30001788:	00e10423          	sb	a4,8(sp)
3000178c:	00b104a3          	sb	a1,9(sp)
30001790:	00c10523          	sb	a2,10(sp)
30001794:	00d105a3          	sb	a3,11(sp)
30001798:	00910623          	sb	s1,12(sp)
3000179c:	09500713          	li	a4,149
300017a0:	0a041a63          	bnez	s0,30001854 <_ZL8send_cmdhm+0x1f4>
300017a4:	00e106a3          	sb	a4,13(sp)
300017a8:	00810693          	addi	a3,sp,8
300017ac:	00e10593          	addi	a1,sp,14
300017b0:	00168693          	addi	a3,a3,1
300017b4:	fff6c603          	lbu	a2,-1(a3)
300017b8:	00c7a703          	lw	a4,12(a5)
300017bc:	00177713          	andi	a4,a4,1
300017c0:	fe070ce3          	beqz	a4,300017b8 <_ZL8send_cmdhm+0x158>
300017c4:	00c7a423          	sw	a2,8(a5)
300017c8:	feb694e3          	bne	a3,a1,300017b0 <_ZL8send_cmdhm+0x150>
300017cc:	00c00713          	li	a4,12
300017d0:	04e40e63          	beq	s0,a4,3000182c <_ZL8send_cmdhm+0x1cc>
300017d4:	00a00693          	li	a3,10
300017d8:	0ff00613          	li	a2,255
300017dc:	00c7a703          	lw	a4,12(a5)
300017e0:	00177713          	andi	a4,a4,1
300017e4:	fe070ce3          	beqz	a4,300017dc <_ZL8send_cmdhm+0x17c>
300017e8:	00c7a423          	sw	a2,8(a5)
300017ec:	00c7a703          	lw	a4,12(a5)
300017f0:	00177713          	andi	a4,a4,1
300017f4:	fe070ce3          	beqz	a4,300017ec <_ZL8send_cmdhm+0x18c>
300017f8:	0087a503          	lw	a0,8(a5)
300017fc:	01851713          	slli	a4,a0,0x18
30001800:	41875713          	srai	a4,a4,0x18
30001804:	0ff57513          	andi	a0,a0,255
30001808:	f4075ee3          	bgez	a4,30001764 <_ZL8send_cmdhm+0x104>
3000180c:	fff68693          	addi	a3,a3,-1
30001810:	0ff6f693          	andi	a3,a3,255
30001814:	fc0694e3          	bnez	a3,300017dc <_ZL8send_cmdhm+0x17c>
30001818:	01c12083          	lw	ra,28(sp)
3000181c:	01812403          	lw	s0,24(sp)
30001820:	01412483          	lw	s1,20(sp)
30001824:	02010113          	addi	sp,sp,32
30001828:	00008067          	ret
3000182c:	00c7a703          	lw	a4,12(a5)
30001830:	00177713          	andi	a4,a4,1
30001834:	fe070ce3          	beqz	a4,3000182c <_ZL8send_cmdhm+0x1cc>
30001838:	0ff00713          	li	a4,255
3000183c:	00e7a423          	sw	a4,8(a5)
30001840:	00c7a703          	lw	a4,12(a5)
30001844:	00177713          	andi	a4,a4,1
30001848:	fe070ce3          	beqz	a4,30001840 <_ZL8send_cmdhm+0x1e0>
3000184c:	0087a703          	lw	a4,8(a5)
30001850:	f85ff06f          	j	300017d4 <_ZL8send_cmdhm+0x174>
30001854:	00800693          	li	a3,8
30001858:	00100713          	li	a4,1
3000185c:	f4d414e3          	bne	s0,a3,300017a4 <_ZL8send_cmdhm+0x144>
30001860:	08700713          	li	a4,135
30001864:	f41ff06f          	j	300017a4 <_ZL8send_cmdhm+0x144>
30001868:	00000593          	li	a1,0
3000186c:	03700513          	li	a0,55
30001870:	df1ff0ef          	jal	ra,30001660 <_ZL8send_cmdhm>
30001874:	00100793          	li	a5,1
30001878:	eea7e6e3          	bltu	a5,a0,30001764 <_ZL8send_cmdhm+0x104>
3000187c:	07f47413          	andi	s0,s0,127
30001880:	e05ff06f          	j	30001684 <_ZL8send_cmdhm+0x24>

30001884 <get_fattime>:
30001884:	00000513          	li	a0,0
30001888:	00008067          	ret

3000188c <disk_status>:
3000188c:	3000f737          	lui	a4,0x3000f
30001890:	1f874783          	lbu	a5,504(a4) # 3000f1f8 <_ZL4Stat>
30001894:	00051863          	bnez	a0,300018a4 <disk_status+0x18>
30001898:	0f97f513          	andi	a0,a5,249
3000189c:	1ea70c23          	sb	a0,504(a4)
300018a0:	00008067          	ret
300018a4:	00300513          	li	a0,3
300018a8:	1ea70c23          	sb	a0,504(a4)
300018ac:	00008067          	ret

300018b0 <disk_initialize>:
300018b0:	10051e63          	bnez	a0,300019cc <disk_initialize+0x11c>
300018b4:	fc010113          	addi	sp,sp,-64
300018b8:	03312623          	sw	s3,44(sp)
300018bc:	3000f9b7          	lui	s3,0x3000f
300018c0:	1f49a683          	lw	a3,500(s3) # 3000f1f4 <bsp>
300018c4:	02912a23          	sw	s1,52(sp)
300018c8:	3000f4b7          	lui	s1,0x3000f
300018cc:	0146a783          	lw	a5,20(a3)
300018d0:	03412423          	sw	s4,40(sp)
300018d4:	1f84ca03          	lbu	s4,504(s1) # 3000f1f8 <_ZL4Stat>
300018d8:	03212823          	sw	s2,48(sp)
300018dc:	3000f937          	lui	s2,0x3000f
300018e0:	1e092703          	lw	a4,480(s2) # 3000f1e0 <spi0>
300018e4:	02812c23          	sw	s0,56(sp)
300018e8:	02112e23          	sw	ra,60(sp)
300018ec:	03512223          	sw	s5,36(sp)
300018f0:	03612023          	sw	s6,32(sp)
300018f4:	01712e23          	sw	s7,28(sp)
300018f8:	0f9a7413          	andi	s0,s4,249
300018fc:	0017e793          	ori	a5,a5,1
30001900:	00f6aa23          	sw	a5,20(a3)
30001904:	1e848c23          	sb	s0,504(s1)
30001908:	00a00693          	li	a3,10
3000190c:	0ff00613          	li	a2,255
30001910:	00c72783          	lw	a5,12(a4)
30001914:	0017f793          	andi	a5,a5,1
30001918:	fe078ce3          	beqz	a5,30001910 <disk_initialize+0x60>
3000191c:	00c72423          	sw	a2,8(a4)
30001920:	00c72783          	lw	a5,12(a4)
30001924:	0017f793          	andi	a5,a5,1
30001928:	fe078ce3          	beqz	a5,30001920 <disk_initialize+0x70>
3000192c:	fff68693          	addi	a3,a3,-1
30001930:	00872783          	lw	a5,8(a4)
30001934:	0ff6f693          	andi	a3,a3,255
30001938:	fc069ce3          	bnez	a3,30001910 <disk_initialize+0x60>
3000193c:	00000593          	li	a1,0
30001940:	00000513          	li	a0,0
30001944:	00f10423          	sb	a5,8(sp)
30001948:	d19ff0ef          	jal	ra,30001660 <_ZL8send_cmdhm>
3000194c:	00100793          	li	a5,1
30001950:	00050b93          	mv	s7,a0
30001954:	08f50663          	beq	a0,a5,300019e0 <disk_initialize+0x130>
30001958:	300107b7          	lui	a5,0x30010
3000195c:	a6078c23          	sb	zero,-1416(a5) # 3000fa78 <_ZL8CardType>
30001960:	1e092783          	lw	a5,480(s2)
30001964:	00146513          	ori	a0,s0,1
30001968:	1f49a683          	lw	a3,500(s3)
3000196c:	1ea48c23          	sb	a0,504(s1)
30001970:	0146a703          	lw	a4,20(a3)
30001974:	00176713          	ori	a4,a4,1
30001978:	00e6aa23          	sw	a4,20(a3)
3000197c:	00c7a703          	lw	a4,12(a5)
30001980:	00177713          	andi	a4,a4,1
30001984:	fe070ce3          	beqz	a4,3000197c <disk_initialize+0xcc>
30001988:	0ff00713          	li	a4,255
3000198c:	00e7a423          	sw	a4,8(a5)
30001990:	00c7a703          	lw	a4,12(a5)
30001994:	00177713          	andi	a4,a4,1
30001998:	fe070ce3          	beqz	a4,30001990 <disk_initialize+0xe0>
3000199c:	03c12083          	lw	ra,60(sp)
300019a0:	03812403          	lw	s0,56(sp)
300019a4:	03412483          	lw	s1,52(sp)
300019a8:	03012903          	lw	s2,48(sp)
300019ac:	02c12983          	lw	s3,44(sp)
300019b0:	02812a03          	lw	s4,40(sp)
300019b4:	02412a83          	lw	s5,36(sp)
300019b8:	02012b03          	lw	s6,32(sp)
300019bc:	01c12b83          	lw	s7,28(sp)
300019c0:	0087a783          	lw	a5,8(a5)
300019c4:	04010113          	addi	sp,sp,64
300019c8:	00008067          	ret
300019cc:	3000f7b7          	lui	a5,0x3000f
300019d0:	00300713          	li	a4,3
300019d4:	1ee78c23          	sb	a4,504(a5) # 3000f1f8 <_ZL4Stat>
300019d8:	00300513          	li	a0,3
300019dc:	00008067          	ret
300019e0:	1aa00593          	li	a1,426
300019e4:	00800513          	li	a0,8
300019e8:	c79ff0ef          	jal	ra,30001660 <_ZL8send_cmdhm>
300019ec:	05751c63          	bne	a0,s7,30001a44 <disk_initialize+0x194>
300019f0:	1e092783          	lw	a5,480(s2)
300019f4:	00810693          	addi	a3,sp,8
300019f8:	00c10b13          	addi	s6,sp,12
300019fc:	0ff00613          	li	a2,255
30001a00:	00c7a703          	lw	a4,12(a5)
30001a04:	00177713          	andi	a4,a4,1
30001a08:	fe070ce3          	beqz	a4,30001a00 <disk_initialize+0x150>
30001a0c:	00c7a423          	sw	a2,8(a5)
30001a10:	00c7a703          	lw	a4,12(a5)
30001a14:	00177713          	andi	a4,a4,1
30001a18:	fe070ce3          	beqz	a4,30001a10 <disk_initialize+0x160>
30001a1c:	0087a703          	lw	a4,8(a5)
30001a20:	00168693          	addi	a3,a3,1
30001a24:	fee68fa3          	sb	a4,-1(a3)
30001a28:	fd669ce3          	bne	a3,s6,30001a00 <disk_initialize+0x150>
30001a2c:	00a14683          	lbu	a3,10(sp)
30001a30:	00100713          	li	a4,1
30001a34:	06e68863          	beq	a3,a4,30001aa4 <disk_initialize+0x1f4>
30001a38:	30010737          	lui	a4,0x30010
30001a3c:	a6070c23          	sb	zero,-1416(a4) # 3000fa78 <_ZL8CardType>
30001a40:	f25ff06f          	j	30001964 <disk_initialize+0xb4>
30001a44:	00000593          	li	a1,0
30001a48:	0a900513          	li	a0,169
30001a4c:	c15ff0ef          	jal	ra,30001660 <_ZL8send_cmdhm>
30001a50:	04abf663          	bgeu	s7,a0,30001a9c <disk_initialize+0x1ec>
30001a54:	00005ab7          	lui	s5,0x5
30001a58:	3e800b13          	li	s6,1000
30001a5c:	e1fa8a93          	addi	s5,s5,-481 # 4e1f <stackPointer-0x1f21>
30001a60:	00000593          	li	a1,0
30001a64:	0a900513          	li	a0,169
30001a68:	bf9ff0ef          	jal	ra,30001660 <_ZL8send_cmdhm>
30001a6c:	08050663          	beqz	a0,30001af8 <disk_initialize+0x248>
30001a70:	00012623          	sw	zero,12(sp)
30001a74:	00c12783          	lw	a5,12(sp)
30001a78:	00faec63          	bltu	s5,a5,30001a90 <disk_initialize+0x1e0>
30001a7c:	00c12783          	lw	a5,12(sp)
30001a80:	00178793          	addi	a5,a5,1
30001a84:	00f12623          	sw	a5,12(sp)
30001a88:	00c12783          	lw	a5,12(sp)
30001a8c:	fefaf8e3          	bgeu	s5,a5,30001a7c <disk_initialize+0x1cc>
30001a90:	fffb0b13          	addi	s6,s6,-1
30001a94:	fc0b16e3          	bnez	s6,30001a60 <disk_initialize+0x1b0>
30001a98:	ec1ff06f          	j	30001958 <disk_initialize+0xa8>
30001a9c:	00200b93          	li	s7,2
30001aa0:	fb5ff06f          	j	30001a54 <disk_initialize+0x1a4>
30001aa4:	00b14683          	lbu	a3,11(sp)
30001aa8:	0aa00713          	li	a4,170
30001aac:	f8e696e3          	bne	a3,a4,30001a38 <disk_initialize+0x188>
30001ab0:	00005ab7          	lui	s5,0x5
30001ab4:	3e800b93          	li	s7,1000
30001ab8:	e1fa8a93          	addi	s5,s5,-481 # 4e1f <stackPointer-0x1f21>
30001abc:	400005b7          	lui	a1,0x40000
30001ac0:	0a900513          	li	a0,169
30001ac4:	b9dff0ef          	jal	ra,30001660 <_ZL8send_cmdhm>
30001ac8:	04050a63          	beqz	a0,30001b1c <disk_initialize+0x26c>
30001acc:	00012623          	sw	zero,12(sp)
30001ad0:	00c12783          	lw	a5,12(sp)
30001ad4:	00faec63          	bltu	s5,a5,30001aec <disk_initialize+0x23c>
30001ad8:	00c12783          	lw	a5,12(sp)
30001adc:	00178793          	addi	a5,a5,1
30001ae0:	00f12623          	sw	a5,12(sp)
30001ae4:	00c12783          	lw	a5,12(sp)
30001ae8:	fefaf8e3          	bgeu	s5,a5,30001ad8 <disk_initialize+0x228>
30001aec:	fffb8b93          	addi	s7,s7,-1
30001af0:	fc0b96e3          	bnez	s7,30001abc <disk_initialize+0x20c>
30001af4:	e65ff06f          	j	30001958 <disk_initialize+0xa8>
30001af8:	20000593          	li	a1,512
30001afc:	01000513          	li	a0,16
30001b00:	b61ff0ef          	jal	ra,30001660 <_ZL8send_cmdhm>
30001b04:	e4051ae3          	bnez	a0,30001958 <disk_initialize+0xa8>
30001b08:	300107b7          	lui	a5,0x30010
30001b0c:	a7778c23          	sb	s7,-1416(a5) # 3000fa78 <_ZL8CardType>
30001b10:	0f8a7513          	andi	a0,s4,248
30001b14:	1e092783          	lw	a5,480(s2)
30001b18:	e51ff06f          	j	30001968 <disk_initialize+0xb8>
30001b1c:	00000593          	li	a1,0
30001b20:	03a00513          	li	a0,58
30001b24:	b3dff0ef          	jal	ra,30001660 <_ZL8send_cmdhm>
30001b28:	e20518e3          	bnez	a0,30001958 <disk_initialize+0xa8>
30001b2c:	1e092703          	lw	a4,480(s2)
30001b30:	00810793          	addi	a5,sp,8
30001b34:	0ff00613          	li	a2,255
30001b38:	00c72683          	lw	a3,12(a4)
30001b3c:	0016f693          	andi	a3,a3,1
30001b40:	fe068ce3          	beqz	a3,30001b38 <disk_initialize+0x288>
30001b44:	00c72423          	sw	a2,8(a4)
30001b48:	00c72683          	lw	a3,12(a4)
30001b4c:	0016f693          	andi	a3,a3,1
30001b50:	fe068ce3          	beqz	a3,30001b48 <disk_initialize+0x298>
30001b54:	00872683          	lw	a3,8(a4)
30001b58:	00178793          	addi	a5,a5,1
30001b5c:	fed78fa3          	sb	a3,-1(a5)
30001b60:	fd679ce3          	bne	a5,s6,30001b38 <disk_initialize+0x288>
30001b64:	00814b83          	lbu	s7,8(sp)
30001b68:	003bdb93          	srli	s7,s7,0x3
30001b6c:	008bfb93          	andi	s7,s7,8
30001b70:	004b8b93          	addi	s7,s7,4
30001b74:	f95ff06f          	j	30001b08 <disk_initialize+0x258>

30001b78 <disk_read>:
30001b78:	ff010113          	addi	sp,sp,-16
30001b7c:	00112623          	sw	ra,12(sp)
30001b80:	00812423          	sw	s0,8(sp)
30001b84:	00912223          	sw	s1,4(sp)
30001b88:	01212023          	sw	s2,0(sp)
30001b8c:	10051463          	bnez	a0,30001c94 <disk_read+0x11c>
30001b90:	3000f737          	lui	a4,0x3000f
30001b94:	1f874783          	lbu	a5,504(a4) # 3000f1f8 <_ZL4Stat>
30001b98:	00068413          	mv	s0,a3
30001b9c:	ff97f693          	andi	a3,a5,-7
30001ba0:	1ed70c23          	sb	a3,504(a4)
30001ba4:	0017f793          	andi	a5,a5,1
30001ba8:	0e079c63          	bnez	a5,30001ca0 <disk_read+0x128>
30001bac:	00400913          	li	s2,4
30001bb0:	06040c63          	beqz	s0,30001c28 <disk_read+0xb0>
30001bb4:	300107b7          	lui	a5,0x30010
30001bb8:	a787c783          	lbu	a5,-1416(a5) # 3000fa78 <_ZL8CardType>
30001bbc:	00058493          	mv	s1,a1
30001bc0:	0087f793          	andi	a5,a5,8
30001bc4:	00079463          	bnez	a5,30001bcc <disk_read+0x54>
30001bc8:	00961613          	slli	a2,a2,0x9
30001bcc:	00100793          	li	a5,1
30001bd0:	00060593          	mv	a1,a2
30001bd4:	0af40063          	beq	s0,a5,30001c74 <disk_read+0xfc>
30001bd8:	01200513          	li	a0,18
30001bdc:	a85ff0ef          	jal	ra,30001660 <_ZL8send_cmdhm>
30001be0:	00100913          	li	s2,1
30001be4:	06050463          	beqz	a0,30001c4c <disk_read+0xd4>
30001be8:	3000f7b7          	lui	a5,0x3000f
30001bec:	1f47a683          	lw	a3,500(a5) # 3000f1f4 <bsp>
30001bf0:	3000f7b7          	lui	a5,0x3000f
30001bf4:	1e07a703          	lw	a4,480(a5) # 3000f1e0 <spi0>
30001bf8:	0146a783          	lw	a5,20(a3)
30001bfc:	0017e793          	ori	a5,a5,1
30001c00:	00f6aa23          	sw	a5,20(a3)
30001c04:	00c72783          	lw	a5,12(a4)
30001c08:	0017f793          	andi	a5,a5,1
30001c0c:	fe078ce3          	beqz	a5,30001c04 <disk_read+0x8c>
30001c10:	0ff00793          	li	a5,255
30001c14:	00f72423          	sw	a5,8(a4)
30001c18:	00c72783          	lw	a5,12(a4)
30001c1c:	0017f793          	andi	a5,a5,1
30001c20:	fe078ce3          	beqz	a5,30001c18 <disk_read+0xa0>
30001c24:	00872783          	lw	a5,8(a4)
30001c28:	00c12083          	lw	ra,12(sp)
30001c2c:	00812403          	lw	s0,8(sp)
30001c30:	00090513          	mv	a0,s2
30001c34:	00412483          	lw	s1,4(sp)
30001c38:	00012903          	lw	s2,0(sp)
30001c3c:	01010113          	addi	sp,sp,16
30001c40:	00008067          	ret
30001c44:	20048493          	addi	s1,s1,512
30001c48:	06040c63          	beqz	s0,30001cc0 <disk_read+0x148>
30001c4c:	00048513          	mv	a0,s1
30001c50:	fff40413          	addi	s0,s0,-1
30001c54:	905ff0ef          	jal	ra,30001558 <_ZL14rcvr_datablockPhj.constprop.2>
30001c58:	0ff47413          	andi	s0,s0,255
30001c5c:	fe0514e3          	bnez	a0,30001c44 <disk_read+0xcc>
30001c60:	00100913          	li	s2,1
30001c64:	00000593          	li	a1,0
30001c68:	00c00513          	li	a0,12
30001c6c:	9f5ff0ef          	jal	ra,30001660 <_ZL8send_cmdhm>
30001c70:	f79ff06f          	j	30001be8 <disk_read+0x70>
30001c74:	01100513          	li	a0,17
30001c78:	9e9ff0ef          	jal	ra,30001660 <_ZL8send_cmdhm>
30001c7c:	00100913          	li	s2,1
30001c80:	f60514e3          	bnez	a0,30001be8 <disk_read+0x70>
30001c84:	00048513          	mv	a0,s1
30001c88:	8d1ff0ef          	jal	ra,30001558 <_ZL14rcvr_datablockPhj.constprop.2>
30001c8c:	00153913          	seqz	s2,a0
30001c90:	f59ff06f          	j	30001be8 <disk_read+0x70>
30001c94:	3000f7b7          	lui	a5,0x3000f
30001c98:	00300713          	li	a4,3
30001c9c:	1ee78c23          	sb	a4,504(a5) # 3000f1f8 <_ZL4Stat>
30001ca0:	00c12083          	lw	ra,12(sp)
30001ca4:	00812403          	lw	s0,8(sp)
30001ca8:	00300913          	li	s2,3
30001cac:	00090513          	mv	a0,s2
30001cb0:	00412483          	lw	s1,4(sp)
30001cb4:	00012903          	lw	s2,0(sp)
30001cb8:	01010113          	addi	sp,sp,16
30001cbc:	00008067          	ret
30001cc0:	00000913          	li	s2,0
30001cc4:	fa1ff06f          	j	30001c64 <disk_read+0xec>

30001cc8 <disk_write>:
30001cc8:	20051a63          	bnez	a0,30001edc <disk_write+0x214>
30001ccc:	3000f737          	lui	a4,0x3000f
30001cd0:	1f874783          	lbu	a5,504(a4) # 3000f1f8 <_ZL4Stat>
30001cd4:	fc010113          	addi	sp,sp,-64
30001cd8:	03312623          	sw	s3,44(sp)
30001cdc:	00068993          	mv	s3,a3
30001ce0:	ff97f693          	andi	a3,a5,-7
30001ce4:	02112e23          	sw	ra,60(sp)
30001ce8:	02812c23          	sw	s0,56(sp)
30001cec:	02912a23          	sw	s1,52(sp)
30001cf0:	03212823          	sw	s2,48(sp)
30001cf4:	03412423          	sw	s4,40(sp)
30001cf8:	03512223          	sw	s5,36(sp)
30001cfc:	1ed70c23          	sb	a3,504(a4)
30001d00:	0017f793          	andi	a5,a5,1
30001d04:	10079a63          	bnez	a5,30001e18 <disk_write+0x150>
30001d08:	00400513          	li	a0,4
30001d0c:	10098863          	beqz	s3,30001e1c <disk_write+0x154>
30001d10:	300107b7          	lui	a5,0x30010
30001d14:	a787c783          	lbu	a5,-1416(a5) # 3000fa78 <_ZL8CardType>
30001d18:	00058413          	mv	s0,a1
30001d1c:	0087f713          	andi	a4,a5,8
30001d20:	00071463          	bnez	a4,30001d28 <disk_write+0x60>
30001d24:	00961613          	slli	a2,a2,0x9
30001d28:	00100713          	li	a4,1
30001d2c:	14e98c63          	beq	s3,a4,30001e84 <disk_write+0x1bc>
30001d30:	0067f793          	andi	a5,a5,6
30001d34:	1a079e63          	bnez	a5,30001ef0 <disk_write+0x228>
30001d38:	00060593          	mv	a1,a2
30001d3c:	01900513          	li	a0,25
30001d40:	921ff0ef          	jal	ra,30001660 <_ZL8send_cmdhm>
30001d44:	14051863          	bnez	a0,30001e94 <disk_write+0x1cc>
30001d48:	3000fa37          	lui	s4,0x3000f
30001d4c:	00001ab7          	lui	s5,0x1
30001d50:	0ff00913          	li	s2,255
30001d54:	7cf00493          	li	s1,1999
30001d58:	1e0a2783          	lw	a5,480(s4) # 3000f1e0 <spi0>
30001d5c:	388a8613          	addi	a2,s5,904 # 1388 <stackPointer-0x59b8>
30001d60:	00c7a703          	lw	a4,12(a5)
30001d64:	00177713          	andi	a4,a4,1
30001d68:	fe070ce3          	beqz	a4,30001d60 <disk_write+0x98>
30001d6c:	0127a423          	sw	s2,8(a5)
30001d70:	00c7a703          	lw	a4,12(a5)
30001d74:	00177713          	andi	a4,a4,1
30001d78:	fe070ce3          	beqz	a4,30001d70 <disk_write+0xa8>
30001d7c:	0087a703          	lw	a4,8(a5)
30001d80:	0ff77713          	andi	a4,a4,255
30001d84:	0d270c63          	beq	a4,s2,30001e5c <disk_write+0x194>
30001d88:	00012c23          	sw	zero,24(sp)
30001d8c:	01812703          	lw	a4,24(sp)
30001d90:	00e4ec63          	bltu	s1,a4,30001da8 <disk_write+0xe0>
30001d94:	01812703          	lw	a4,24(sp)
30001d98:	00170713          	addi	a4,a4,1
30001d9c:	00e12c23          	sw	a4,24(sp)
30001da0:	01812703          	lw	a4,24(sp)
30001da4:	fee4f8e3          	bgeu	s1,a4,30001d94 <disk_write+0xcc>
30001da8:	fff60613          	addi	a2,a2,-1
30001dac:	fa061ae3          	bnez	a2,30001d60 <disk_write+0x98>
30001db0:	00001637          	lui	a2,0x1
30001db4:	38860613          	addi	a2,a2,904 # 1388 <stackPointer-0x59b8>
30001db8:	0ff00593          	li	a1,255
30001dbc:	7cf00693          	li	a3,1999
30001dc0:	00c7a703          	lw	a4,12(a5)
30001dc4:	00177713          	andi	a4,a4,1
30001dc8:	fe070ce3          	beqz	a4,30001dc0 <disk_write+0xf8>
30001dcc:	00b7a423          	sw	a1,8(a5)
30001dd0:	00c7a703          	lw	a4,12(a5)
30001dd4:	00177713          	andi	a4,a4,1
30001dd8:	fe070ce3          	beqz	a4,30001dd0 <disk_write+0x108>
30001ddc:	0087a703          	lw	a4,8(a5)
30001de0:	0ff77713          	andi	a4,a4,255
30001de4:	04b70e63          	beq	a4,a1,30001e40 <disk_write+0x178>
30001de8:	00012e23          	sw	zero,28(sp)
30001dec:	01c12703          	lw	a4,28(sp)
30001df0:	00e6ec63          	bltu	a3,a4,30001e08 <disk_write+0x140>
30001df4:	01c12703          	lw	a4,28(sp)
30001df8:	00170713          	addi	a4,a4,1
30001dfc:	00e12e23          	sw	a4,28(sp)
30001e00:	01c12703          	lw	a4,28(sp)
30001e04:	fee6f8e3          	bgeu	a3,a4,30001df4 <disk_write+0x12c>
30001e08:	fff60613          	addi	a2,a2,-1
30001e0c:	fa061ae3          	bnez	a2,30001dc0 <disk_write+0xf8>
30001e10:	00100513          	li	a0,1
30001e14:	08c0006f          	j	30001ea0 <disk_write+0x1d8>
30001e18:	00300513          	li	a0,3
30001e1c:	03c12083          	lw	ra,60(sp)
30001e20:	03812403          	lw	s0,56(sp)
30001e24:	03412483          	lw	s1,52(sp)
30001e28:	03012903          	lw	s2,48(sp)
30001e2c:	02c12983          	lw	s3,44(sp)
30001e30:	02812a03          	lw	s4,40(sp)
30001e34:	02412a83          	lw	s5,36(sp)
30001e38:	04010113          	addi	sp,sp,64
30001e3c:	00008067          	ret
30001e40:	00c7a703          	lw	a4,12(a5)
30001e44:	00177713          	andi	a4,a4,1
30001e48:	fe070ce3          	beqz	a4,30001e40 <disk_write+0x178>
30001e4c:	0fd00713          	li	a4,253
30001e50:	00e7a423          	sw	a4,8(a5)
30001e54:	01303533          	snez	a0,s3
30001e58:	0480006f          	j	30001ea0 <disk_write+0x1d8>
30001e5c:	0fc00593          	li	a1,252
30001e60:	00040513          	mv	a0,s0
30001e64:	e34ff0ef          	jal	ra,30001498 <_ZL14xmit_datablockPKhh.part.1>
30001e68:	00050a63          	beqz	a0,30001e7c <disk_write+0x1b4>
30001e6c:	fff98993          	addi	s3,s3,-1
30001e70:	0ff9f993          	andi	s3,s3,255
30001e74:	20040413          	addi	s0,s0,512
30001e78:	ee0990e3          	bnez	s3,30001d58 <disk_write+0x90>
30001e7c:	1e0a2783          	lw	a5,480(s4)
30001e80:	f31ff06f          	j	30001db0 <disk_write+0xe8>
30001e84:	00060593          	mv	a1,a2
30001e88:	01800513          	li	a0,24
30001e8c:	fd4ff0ef          	jal	ra,30001660 <_ZL8send_cmdhm>
30001e90:	06050c63          	beqz	a0,30001f08 <disk_write+0x240>
30001e94:	3000f7b7          	lui	a5,0x3000f
30001e98:	1e07a783          	lw	a5,480(a5) # 3000f1e0 <spi0>
30001e9c:	00100513          	li	a0,1
30001ea0:	3000f737          	lui	a4,0x3000f
30001ea4:	1f472683          	lw	a3,500(a4) # 3000f1f4 <bsp>
30001ea8:	0146a703          	lw	a4,20(a3)
30001eac:	00176713          	ori	a4,a4,1
30001eb0:	00e6aa23          	sw	a4,20(a3)
30001eb4:	00c7a703          	lw	a4,12(a5)
30001eb8:	00177713          	andi	a4,a4,1
30001ebc:	fe070ce3          	beqz	a4,30001eb4 <disk_write+0x1ec>
30001ec0:	0ff00713          	li	a4,255
30001ec4:	00e7a423          	sw	a4,8(a5)
30001ec8:	00c7a703          	lw	a4,12(a5)
30001ecc:	00177713          	andi	a4,a4,1
30001ed0:	fe070ce3          	beqz	a4,30001ec8 <disk_write+0x200>
30001ed4:	0087a783          	lw	a5,8(a5)
30001ed8:	f45ff06f          	j	30001e1c <disk_write+0x154>
30001edc:	3000f7b7          	lui	a5,0x3000f
30001ee0:	00300713          	li	a4,3
30001ee4:	1ee78c23          	sb	a4,504(a5) # 3000f1f8 <_ZL4Stat>
30001ee8:	00300513          	li	a0,3
30001eec:	00008067          	ret
30001ef0:	00098593          	mv	a1,s3
30001ef4:	09700513          	li	a0,151
30001ef8:	00c12623          	sw	a2,12(sp)
30001efc:	f64ff0ef          	jal	ra,30001660 <_ZL8send_cmdhm>
30001f00:	00c12603          	lw	a2,12(sp)
30001f04:	e35ff06f          	j	30001d38 <disk_write+0x70>
30001f08:	3000fa37          	lui	s4,0x3000f
30001f0c:	1e0a2783          	lw	a5,480(s4) # 3000f1e0 <spi0>
30001f10:	00001637          	lui	a2,0x1
30001f14:	38860613          	addi	a2,a2,904 # 1388 <stackPointer-0x59b8>
30001f18:	0ff00593          	li	a1,255
30001f1c:	7cf00693          	li	a3,1999
30001f20:	00c7a703          	lw	a4,12(a5)
30001f24:	00177713          	andi	a4,a4,1
30001f28:	fe070ce3          	beqz	a4,30001f20 <disk_write+0x258>
30001f2c:	00b7a423          	sw	a1,8(a5)
30001f30:	00c7a703          	lw	a4,12(a5)
30001f34:	00177713          	andi	a4,a4,1
30001f38:	fe070ce3          	beqz	a4,30001f30 <disk_write+0x268>
30001f3c:	0087a703          	lw	a4,8(a5)
30001f40:	0ff77713          	andi	a4,a4,255
30001f44:	02b70a63          	beq	a4,a1,30001f78 <disk_write+0x2b0>
30001f48:	00012a23          	sw	zero,20(sp)
30001f4c:	01412703          	lw	a4,20(sp)
30001f50:	00e6ec63          	bltu	a3,a4,30001f68 <disk_write+0x2a0>
30001f54:	01412703          	lw	a4,20(sp)
30001f58:	00170713          	addi	a4,a4,1
30001f5c:	00e12a23          	sw	a4,20(sp)
30001f60:	01412703          	lw	a4,20(sp)
30001f64:	fee6f8e3          	bgeu	a3,a4,30001f54 <disk_write+0x28c>
30001f68:	fff60613          	addi	a2,a2,-1
30001f6c:	fa061ae3          	bnez	a2,30001f20 <disk_write+0x258>
30001f70:	00100513          	li	a0,1
30001f74:	f2dff06f          	j	30001ea0 <disk_write+0x1d8>
30001f78:	0fe00593          	li	a1,254
30001f7c:	00040513          	mv	a0,s0
30001f80:	d18ff0ef          	jal	ra,30001498 <_ZL14xmit_datablockPKhh.part.1>
30001f84:	00153513          	seqz	a0,a0
30001f88:	1e0a2783          	lw	a5,480(s4)
30001f8c:	f15ff06f          	j	30001ea0 <disk_write+0x1d8>

30001f90 <disk_ioctl>:
30001f90:	08051e63          	bnez	a0,3000202c <disk_ioctl+0x9c>
30001f94:	3000f737          	lui	a4,0x3000f
30001f98:	1f874783          	lbu	a5,504(a4) # 3000f1f8 <_ZL4Stat>
30001f9c:	ff97f693          	andi	a3,a5,-7
30001fa0:	1ed70c23          	sb	a3,504(a4)
30001fa4:	0017f793          	andi	a5,a5,1
30001fa8:	08079863          	bnez	a5,30002038 <disk_ioctl+0xa8>
30001fac:	fd010113          	addi	sp,sp,-48
30001fb0:	02112623          	sw	ra,44(sp)
30001fb4:	02812423          	sw	s0,40(sp)
30001fb8:	00100713          	li	a4,1
30001fbc:	0ae58c63          	beq	a1,a4,30002074 <disk_ioctl+0xe4>
30001fc0:	0e058063          	beqz	a1,300020a0 <disk_ioctl+0x110>
30001fc4:	00200793          	li	a5,2
30001fc8:	08f58863          	beq	a1,a5,30002058 <disk_ioctl+0xc8>
30001fcc:	00300793          	li	a5,3
30001fd0:	06f59863          	bne	a1,a5,30002040 <disk_ioctl+0xb0>
30001fd4:	3000f7b7          	lui	a5,0x3000f
30001fd8:	1f47a803          	lw	a6,500(a5) # 3000f1f4 <bsp>
30001fdc:	3000f7b7          	lui	a5,0x3000f
30001fe0:	1e07a783          	lw	a5,480(a5) # 3000f1e0 <spi0>
30001fe4:	00000513          	li	a0,0
30001fe8:	00e62023          	sw	a4,0(a2)
30001fec:	01482703          	lw	a4,20(a6)
30001ff0:	00176713          	ori	a4,a4,1
30001ff4:	00e82a23          	sw	a4,20(a6)
30001ff8:	00c7a703          	lw	a4,12(a5)
30001ffc:	00177713          	andi	a4,a4,1
30002000:	fe070ce3          	beqz	a4,30001ff8 <disk_ioctl+0x68>
30002004:	0ff00713          	li	a4,255
30002008:	00e7a423          	sw	a4,8(a5)
3000200c:	00c7a703          	lw	a4,12(a5)
30002010:	00177713          	andi	a4,a4,1
30002014:	fe070ce3          	beqz	a4,3000200c <disk_ioctl+0x7c>
30002018:	02c12083          	lw	ra,44(sp)
3000201c:	02812403          	lw	s0,40(sp)
30002020:	0087a783          	lw	a5,8(a5)
30002024:	03010113          	addi	sp,sp,48
30002028:	00008067          	ret
3000202c:	3000f7b7          	lui	a5,0x3000f
30002030:	00300713          	li	a4,3
30002034:	1ee78c23          	sb	a4,504(a5) # 3000f1f8 <_ZL4Stat>
30002038:	00300513          	li	a0,3
3000203c:	00008067          	ret
30002040:	3000f7b7          	lui	a5,0x3000f
30002044:	1f47a803          	lw	a6,500(a5) # 3000f1f4 <bsp>
30002048:	3000f7b7          	lui	a5,0x3000f
3000204c:	1e07a783          	lw	a5,480(a5) # 3000f1e0 <spi0>
30002050:	00400513          	li	a0,4
30002054:	f99ff06f          	j	30001fec <disk_ioctl+0x5c>
30002058:	02c12083          	lw	ra,44(sp)
3000205c:	02812403          	lw	s0,40(sp)
30002060:	20000793          	li	a5,512
30002064:	00f61023          	sh	a5,0(a2)
30002068:	00000513          	li	a0,0
3000206c:	03010113          	addi	sp,sp,48
30002070:	00008067          	ret
30002074:	00000593          	li	a1,0
30002078:	00900513          	li	a0,9
3000207c:	00060413          	mv	s0,a2
30002080:	de0ff0ef          	jal	ra,30001660 <_ZL8send_cmdhm>
30002084:	10050463          	beqz	a0,3000218c <disk_ioctl+0x1fc>
30002088:	3000f7b7          	lui	a5,0x3000f
3000208c:	1f47a803          	lw	a6,500(a5) # 3000f1f4 <bsp>
30002090:	3000f7b7          	lui	a5,0x3000f
30002094:	1e07a783          	lw	a5,480(a5) # 3000f1e0 <spi0>
30002098:	00100513          	li	a0,1
3000209c:	f51ff06f          	j	30001fec <disk_ioctl+0x5c>
300020a0:	3000f7b7          	lui	a5,0x3000f
300020a4:	1f47a803          	lw	a6,500(a5) # 3000f1f4 <bsp>
300020a8:	3000f7b7          	lui	a5,0x3000f
300020ac:	1e07a783          	lw	a5,480(a5) # 3000f1e0 <spi0>
300020b0:	01482703          	lw	a4,20(a6)
300020b4:	00001637          	lui	a2,0x1
300020b8:	38860613          	addi	a2,a2,904 # 1388 <stackPointer-0x59b8>
300020bc:	ffe77713          	andi	a4,a4,-2
300020c0:	00e82a23          	sw	a4,20(a6)
300020c4:	0ff00593          	li	a1,255
300020c8:	7cf00693          	li	a3,1999
300020cc:	00c7a703          	lw	a4,12(a5)
300020d0:	00177713          	andi	a4,a4,1
300020d4:	fe070ce3          	beqz	a4,300020cc <disk_ioctl+0x13c>
300020d8:	00b7a423          	sw	a1,8(a5)
300020dc:	00c7a703          	lw	a4,12(a5)
300020e0:	00177713          	andi	a4,a4,1
300020e4:	fe070ce3          	beqz	a4,300020dc <disk_ioctl+0x14c>
300020e8:	0087a703          	lw	a4,8(a5)
300020ec:	0ff77713          	andi	a4,a4,255
300020f0:	06b70263          	beq	a4,a1,30002154 <disk_ioctl+0x1c4>
300020f4:	00012423          	sw	zero,8(sp)
300020f8:	00812703          	lw	a4,8(sp)
300020fc:	00e6ec63          	bltu	a3,a4,30002114 <disk_ioctl+0x184>
30002100:	00812703          	lw	a4,8(sp)
30002104:	00170713          	addi	a4,a4,1
30002108:	00e12423          	sw	a4,8(sp)
3000210c:	00812703          	lw	a4,8(sp)
30002110:	fee6f8e3          	bgeu	a3,a4,30002100 <disk_ioctl+0x170>
30002114:	fff60613          	addi	a2,a2,-1
30002118:	fa061ae3          	bnez	a2,300020cc <disk_ioctl+0x13c>
3000211c:	01482703          	lw	a4,20(a6)
30002120:	00176713          	ori	a4,a4,1
30002124:	00e82a23          	sw	a4,20(a6)
30002128:	00c7a703          	lw	a4,12(a5)
3000212c:	00177713          	andi	a4,a4,1
30002130:	fe070ce3          	beqz	a4,30002128 <disk_ioctl+0x198>
30002134:	0ff00713          	li	a4,255
30002138:	00e7a423          	sw	a4,8(a5)
3000213c:	00c7a703          	lw	a4,12(a5)
30002140:	00177713          	andi	a4,a4,1
30002144:	fe070ce3          	beqz	a4,3000213c <disk_ioctl+0x1ac>
30002148:	0087a703          	lw	a4,8(a5)
3000214c:	00100513          	li	a0,1
30002150:	e9dff06f          	j	30001fec <disk_ioctl+0x5c>
30002154:	01482703          	lw	a4,20(a6)
30002158:	00176713          	ori	a4,a4,1
3000215c:	00e82a23          	sw	a4,20(a6)
30002160:	00c7a703          	lw	a4,12(a5)
30002164:	00177713          	andi	a4,a4,1
30002168:	fe070ce3          	beqz	a4,30002160 <disk_ioctl+0x1d0>
3000216c:	0ff00713          	li	a4,255
30002170:	00e7a423          	sw	a4,8(a5)
30002174:	00c7a703          	lw	a4,12(a5)
30002178:	00177713          	andi	a4,a4,1
3000217c:	fe070ce3          	beqz	a4,30002174 <disk_ioctl+0x1e4>
30002180:	0087a703          	lw	a4,8(a5)
30002184:	00000513          	li	a0,0
30002188:	e65ff06f          	j	30001fec <disk_ioctl+0x5c>
3000218c:	3000f7b7          	lui	a5,0x3000f
30002190:	1e07a783          	lw	a5,480(a5) # 3000f1e0 <spi0>
30002194:	3e800613          	li	a2,1000
30002198:	0ff00593          	li	a1,255
3000219c:	7cf00693          	li	a3,1999
300021a0:	00c7a703          	lw	a4,12(a5)
300021a4:	00177713          	andi	a4,a4,1
300021a8:	fe070ce3          	beqz	a4,300021a0 <disk_ioctl+0x210>
300021ac:	00b7a423          	sw	a1,8(a5)
300021b0:	00c7a703          	lw	a4,12(a5)
300021b4:	00177713          	andi	a4,a4,1
300021b8:	fe070ce3          	beqz	a4,300021b0 <disk_ioctl+0x220>
300021bc:	0087a703          	lw	a4,8(a5)
300021c0:	0ff77713          	andi	a4,a4,255
300021c4:	02b71e63          	bne	a4,a1,30002200 <disk_ioctl+0x270>
300021c8:	00012623          	sw	zero,12(sp)
300021cc:	00c12703          	lw	a4,12(sp)
300021d0:	00e6ec63          	bltu	a3,a4,300021e8 <disk_ioctl+0x258>
300021d4:	00c12703          	lw	a4,12(sp)
300021d8:	00170713          	addi	a4,a4,1
300021dc:	00e12623          	sw	a4,12(sp)
300021e0:	00c12703          	lw	a4,12(sp)
300021e4:	fee6f8e3          	bgeu	a3,a4,300021d4 <disk_ioctl+0x244>
300021e8:	fff60613          	addi	a2,a2,-1
300021ec:	fa061ae3          	bnez	a2,300021a0 <disk_ioctl+0x210>
300021f0:	3000f737          	lui	a4,0x3000f
300021f4:	1f472803          	lw	a6,500(a4) # 3000f1f4 <bsp>
300021f8:	00100513          	li	a0,1
300021fc:	df1ff06f          	j	30001fec <disk_ioctl+0x5c>
30002200:	00e10423          	sb	a4,8(sp)
30002204:	0fe00693          	li	a3,254
30002208:	fed714e3          	bne	a4,a3,300021f0 <disk_ioctl+0x260>
3000220c:	01010693          	addi	a3,sp,16
30002210:	0ff00613          	li	a2,255
30002214:	00c7a703          	lw	a4,12(a5)
30002218:	00177713          	andi	a4,a4,1
3000221c:	fe070ce3          	beqz	a4,30002214 <disk_ioctl+0x284>
30002220:	00c7a423          	sw	a2,8(a5)
30002224:	00c7a703          	lw	a4,12(a5)
30002228:	00177713          	andi	a4,a4,1
3000222c:	fe070ce3          	beqz	a4,30002224 <disk_ioctl+0x294>
30002230:	0087a703          	lw	a4,8(a5)
30002234:	00168693          	addi	a3,a3,1
30002238:	fee68fa3          	sb	a4,-1(a3)
3000223c:	02010713          	addi	a4,sp,32
30002240:	fce69ae3          	bne	a3,a4,30002214 <disk_ioctl+0x284>
30002244:	00810693          	addi	a3,sp,8
30002248:	00a10593          	addi	a1,sp,10
3000224c:	0ff00613          	li	a2,255
30002250:	00c7a703          	lw	a4,12(a5)
30002254:	00177713          	andi	a4,a4,1
30002258:	fe070ce3          	beqz	a4,30002250 <disk_ioctl+0x2c0>
3000225c:	00c7a423          	sw	a2,8(a5)
30002260:	00c7a703          	lw	a4,12(a5)
30002264:	00177713          	andi	a4,a4,1
30002268:	fe070ce3          	beqz	a4,30002260 <disk_ioctl+0x2d0>
3000226c:	0087a703          	lw	a4,8(a5)
30002270:	00168693          	addi	a3,a3,1
30002274:	fee68fa3          	sb	a4,-1(a3)
30002278:	fcb69ce3          	bne	a3,a1,30002250 <disk_ioctl+0x2c0>
3000227c:	01014703          	lbu	a4,16(sp)
30002280:	3000f537          	lui	a0,0x3000f
30002284:	00100693          	li	a3,1
30002288:	40675713          	srai	a4,a4,0x6
3000228c:	01914603          	lbu	a2,25(sp)
30002290:	01814583          	lbu	a1,24(sp)
30002294:	1f452803          	lw	a6,500(a0) # 3000f1f4 <bsp>
30002298:	06d70663          	beq	a4,a3,30002304 <disk_ioctl+0x374>
3000229c:	01714703          	lbu	a4,23(sp)
300022a0:	01614503          	lbu	a0,22(sp)
300022a4:	4065d593          	srai	a1,a1,0x6
300022a8:	00271713          	slli	a4,a4,0x2
300022ac:	01514683          	lbu	a3,21(sp)
300022b0:	01a14883          	lbu	a7,26(sp)
300022b4:	00170713          	addi	a4,a4,1
300022b8:	00b70733          	add	a4,a4,a1
300022bc:	000015b7          	lui	a1,0x1
300022c0:	00a51513          	slli	a0,a0,0xa
300022c4:	c0058593          	addi	a1,a1,-1024 # c00 <stackPointer-0x6140>
300022c8:	00b575b3          	and	a1,a0,a1
300022cc:	00f6f693          	andi	a3,a3,15
300022d0:	0078d893          	srli	a7,a7,0x7
300022d4:	00161613          	slli	a2,a2,0x1
300022d8:	011686b3          	add	a3,a3,a7
300022dc:	00667613          	andi	a2,a2,6
300022e0:	00b70733          	add	a4,a4,a1
300022e4:	00c686b3          	add	a3,a3,a2
300022e8:	01071713          	slli	a4,a4,0x10
300022ec:	01075713          	srli	a4,a4,0x10
300022f0:	ff968693          	addi	a3,a3,-7
300022f4:	00d71733          	sll	a4,a4,a3
300022f8:	00e42023          	sw	a4,0(s0)
300022fc:	00000513          	li	a0,0
30002300:	cedff06f          	j	30001fec <disk_ioctl+0x5c>
30002304:	00859713          	slli	a4,a1,0x8
30002308:	00160613          	addi	a2,a2,1
3000230c:	00c70733          	add	a4,a4,a2
30002310:	01071713          	slli	a4,a4,0x10
30002314:	01075713          	srli	a4,a4,0x10
30002318:	00a71713          	slli	a4,a4,0xa
3000231c:	00e42023          	sw	a4,0(s0)
30002320:	00000513          	li	a0,0
30002324:	cc9ff06f          	j	30001fec <disk_ioctl+0x5c>

30002328 <ff_convert>:
30002328:	07f00793          	li	a5,127
3000232c:	04a7fa63          	bgeu	a5,a0,30002380 <ff_convert+0x58>
30002330:	04059263          	bnez	a1,30002374 <ff_convert+0x4c>
30002334:	3000f7b7          	lui	a5,0x3000f
30002338:	b5c78793          	addi	a5,a5,-1188 # 3000eb5c <_ZL3Tbl>
3000233c:	00000713          	li	a4,0
30002340:	08000593          	li	a1,128
30002344:	0100006f          	j	30002354 <ff_convert+0x2c>
30002348:	01061713          	slli	a4,a2,0x10
3000234c:	01075713          	srli	a4,a4,0x10
30002350:	02b70663          	beq	a4,a1,3000237c <ff_convert+0x54>
30002354:	0007d683          	lhu	a3,0(a5)
30002358:	00170613          	addi	a2,a4,1
3000235c:	00278793          	addi	a5,a5,2
30002360:	fea694e3          	bne	a3,a0,30002348 <ff_convert+0x20>
30002364:	08070713          	addi	a4,a4,128
30002368:	01071513          	slli	a0,a4,0x10
3000236c:	01055513          	srli	a0,a0,0x10
30002370:	00008067          	ret
30002374:	0ff00793          	li	a5,255
30002378:	00a7f663          	bgeu	a5,a0,30002384 <ff_convert+0x5c>
3000237c:	00000513          	li	a0,0
30002380:	00008067          	ret
30002384:	f8050713          	addi	a4,a0,-128
30002388:	3000f7b7          	lui	a5,0x3000f
3000238c:	b5c78793          	addi	a5,a5,-1188 # 3000eb5c <_ZL3Tbl>
30002390:	00171713          	slli	a4,a4,0x1
30002394:	00e78733          	add	a4,a5,a4
30002398:	00075503          	lhu	a0,0(a4)
3000239c:	00008067          	ret

300023a0 <ff_wtoupper>:
300023a0:	000017b7          	lui	a5,0x1
300023a4:	02f56e63          	bltu	a0,a5,300023e0 <ff_wtoupper+0x40>
300023a8:	3000f737          	lui	a4,0x3000f
300023ac:	e5070713          	addi	a4,a4,-432 # 3000ee50 <_ZZ11ff_wtoupperE4cvt2>
300023b0:	0240006f          	j	300023d4 <ff_wtoupper+0x34>
300023b4:	02d56463          	bltu	a0,a3,300023dc <ff_wtoupper+0x3c>
300023b8:	00470713          	addi	a4,a4,4
300023bc:	ffe75783          	lhu	a5,-2(a4)
300023c0:	0ff7f613          	andi	a2,a5,255
300023c4:	00d605b3          	add	a1,a2,a3
300023c8:	4087d793          	srai	a5,a5,0x8
300023cc:	02b54063          	blt	a0,a1,300023ec <ff_wtoupper+0x4c>
300023d0:	02078e63          	beqz	a5,3000240c <ff_wtoupper+0x6c>
300023d4:	00075683          	lhu	a3,0(a4)
300023d8:	fc069ee3          	bnez	a3,300023b4 <ff_wtoupper+0x14>
300023dc:	00008067          	ret
300023e0:	3000f737          	lui	a4,0x3000f
300023e4:	c5c70713          	addi	a4,a4,-932 # 3000ec5c <_ZZ11ff_wtoupperE4cvt1>
300023e8:	fedff06f          	j	300023d4 <ff_wtoupper+0x34>
300023ec:	00800613          	li	a2,8
300023f0:	fef666e3          	bltu	a2,a5,300023dc <ff_wtoupper+0x3c>
300023f4:	3000f637          	lui	a2,0x3000f
300023f8:	00279793          	slli	a5,a5,0x2
300023fc:	b3860613          	addi	a2,a2,-1224 # 3000eb38 <_ZL14HIDKeysShifted+0x54>
30002400:	00c787b3          	add	a5,a5,a2
30002404:	0007a783          	lw	a5,0(a5) # 1000 <stackPointer-0x5d40>
30002408:	00078067          	jr	a5
3000240c:	00161613          	slli	a2,a2,0x1
30002410:	00c70733          	add	a4,a4,a2
30002414:	fc1ff06f          	j	300023d4 <ff_wtoupper+0x34>
30002418:	fb050513          	addi	a0,a0,-80
3000241c:	01051513          	slli	a0,a0,0x10
30002420:	01055513          	srli	a0,a0,0x10
30002424:	00008067          	ret
30002428:	ffffe7b7          	lui	a5,0xffffe
3000242c:	3a078793          	addi	a5,a5,928 # ffffe3a0 <__bss_end__+0xcfefe3a0>
30002430:	00f50533          	add	a0,a0,a5
30002434:	01051513          	slli	a0,a0,0x10
30002438:	01055513          	srli	a0,a0,0x10
3000243c:	00008067          	ret
30002440:	40d507b3          	sub	a5,a0,a3
30002444:	00179793          	slli	a5,a5,0x1
30002448:	00f70733          	add	a4,a4,a5
3000244c:	00075503          	lhu	a0,0(a4)
30002450:	00008067          	ret
30002454:	40d506b3          	sub	a3,a0,a3
30002458:	0016f793          	andi	a5,a3,1
3000245c:	40f50533          	sub	a0,a0,a5
30002460:	01051513          	slli	a0,a0,0x10
30002464:	01055513          	srli	a0,a0,0x10
30002468:	00008067          	ret
3000246c:	ff050513          	addi	a0,a0,-16
30002470:	01051513          	slli	a0,a0,0x10
30002474:	01055513          	srli	a0,a0,0x10
30002478:	00008067          	ret
3000247c:	fe050513          	addi	a0,a0,-32
30002480:	01051513          	slli	a0,a0,0x10
30002484:	01055513          	srli	a0,a0,0x10
30002488:	00008067          	ret
3000248c:	fd050513          	addi	a0,a0,-48
30002490:	01051513          	slli	a0,a0,0x10
30002494:	01055513          	srli	a0,a0,0x10
30002498:	00008067          	ret
3000249c:	fe650513          	addi	a0,a0,-26
300024a0:	01051513          	slli	a0,a0,0x10
300024a4:	01055513          	srli	a0,a0,0x10
300024a8:	00008067          	ret
300024ac:	00850513          	addi	a0,a0,8
300024b0:	01051513          	slli	a0,a0,0x10
300024b4:	01055513          	srli	a0,a0,0x10
300024b8:	00008067          	ret

300024bc <_ZL12get_fileinfoP3DIRP7FILINFO>:
300024bc:	01052783          	lw	a5,16(a0)
300024c0:	fe010113          	addi	sp,sp,-32
300024c4:	00112e23          	sw	ra,28(sp)
300024c8:	00812c23          	sw	s0,24(sp)
300024cc:	00912a23          	sw	s1,20(sp)
300024d0:	01212823          	sw	s2,16(sp)
300024d4:	01312623          	sw	s3,12(sp)
300024d8:	00958713          	addi	a4,a1,9
300024dc:	1a078863          	beqz	a5,3000268c <_ZL12get_fileinfoP3DIRP7FILINFO+0x1d0>
300024e0:	01452783          	lw	a5,20(a0)
300024e4:	00c7c683          	lbu	a3,12(a5)
300024e8:	0086f613          	andi	a2,a3,8
300024ec:	22061c63          	bnez	a2,30002724 <_ZL12get_fileinfoP3DIRP7FILINFO+0x268>
300024f0:	0007c603          	lbu	a2,0(a5)
300024f4:	02000813          	li	a6,32
300024f8:	0f060463          	beq	a2,a6,300025e0 <_ZL12get_fileinfoP3DIRP7FILINFO+0x124>
300024fc:	00500713          	li	a4,5
30002500:	42e60663          	beq	a2,a4,3000292c <_ZL12get_fileinfoP3DIRP7FILINFO+0x470>
30002504:	00c584a3          	sb	a2,9(a1)
30002508:	0017c603          	lbu	a2,1(a5)
3000250c:	02000813          	li	a6,32
30002510:	00a58713          	addi	a4,a1,10
30002514:	0d060663          	beq	a2,a6,300025e0 <_ZL12get_fileinfoP3DIRP7FILINFO+0x124>
30002518:	00500713          	li	a4,5
3000251c:	42e60063          	beq	a2,a4,3000293c <_ZL12get_fileinfoP3DIRP7FILINFO+0x480>
30002520:	00c58523          	sb	a2,10(a1)
30002524:	0027c603          	lbu	a2,2(a5)
30002528:	02000813          	li	a6,32
3000252c:	00b58713          	addi	a4,a1,11
30002530:	0b060863          	beq	a2,a6,300025e0 <_ZL12get_fileinfoP3DIRP7FILINFO+0x124>
30002534:	00500713          	li	a4,5
30002538:	40e60663          	beq	a2,a4,30002944 <_ZL12get_fileinfoP3DIRP7FILINFO+0x488>
3000253c:	00c585a3          	sb	a2,11(a1)
30002540:	0037c603          	lbu	a2,3(a5)
30002544:	02000813          	li	a6,32
30002548:	00c58713          	addi	a4,a1,12
3000254c:	09060a63          	beq	a2,a6,300025e0 <_ZL12get_fileinfoP3DIRP7FILINFO+0x124>
30002550:	00500713          	li	a4,5
30002554:	00e61463          	bne	a2,a4,3000255c <_ZL12get_fileinfoP3DIRP7FILINFO+0xa0>
30002558:	0e500613          	li	a2,229
3000255c:	00c58623          	sb	a2,12(a1)
30002560:	0047c603          	lbu	a2,4(a5)
30002564:	02000813          	li	a6,32
30002568:	00d58713          	addi	a4,a1,13
3000256c:	07060a63          	beq	a2,a6,300025e0 <_ZL12get_fileinfoP3DIRP7FILINFO+0x124>
30002570:	00500713          	li	a4,5
30002574:	00e61463          	bne	a2,a4,3000257c <_ZL12get_fileinfoP3DIRP7FILINFO+0xc0>
30002578:	0e500613          	li	a2,229
3000257c:	00c586a3          	sb	a2,13(a1)
30002580:	0057c603          	lbu	a2,5(a5)
30002584:	02000813          	li	a6,32
30002588:	00e58713          	addi	a4,a1,14
3000258c:	05060a63          	beq	a2,a6,300025e0 <_ZL12get_fileinfoP3DIRP7FILINFO+0x124>
30002590:	00500713          	li	a4,5
30002594:	00e61463          	bne	a2,a4,3000259c <_ZL12get_fileinfoP3DIRP7FILINFO+0xe0>
30002598:	0e500613          	li	a2,229
3000259c:	00c58723          	sb	a2,14(a1)
300025a0:	0067c603          	lbu	a2,6(a5)
300025a4:	02000813          	li	a6,32
300025a8:	00f58713          	addi	a4,a1,15
300025ac:	03060a63          	beq	a2,a6,300025e0 <_ZL12get_fileinfoP3DIRP7FILINFO+0x124>
300025b0:	00500713          	li	a4,5
300025b4:	00e61463          	bne	a2,a4,300025bc <_ZL12get_fileinfoP3DIRP7FILINFO+0x100>
300025b8:	0e500613          	li	a2,229
300025bc:	00c587a3          	sb	a2,15(a1)
300025c0:	0077c603          	lbu	a2,7(a5)
300025c4:	02000813          	li	a6,32
300025c8:	01058713          	addi	a4,a1,16
300025cc:	01060a63          	beq	a2,a6,300025e0 <_ZL12get_fileinfoP3DIRP7FILINFO+0x124>
300025d0:	00500713          	li	a4,5
300025d4:	36e60c63          	beq	a2,a4,3000294c <_ZL12get_fileinfoP3DIRP7FILINFO+0x490>
300025d8:	01158713          	addi	a4,a1,17
300025dc:	00c58823          	sb	a2,16(a1)
300025e0:	0087c803          	lbu	a6,8(a5)
300025e4:	02000613          	li	a2,32
300025e8:	04c80463          	beq	a6,a2,30002630 <_ZL12get_fileinfoP3DIRP7FILINFO+0x174>
300025ec:	02e00813          	li	a6,46
300025f0:	01070023          	sb	a6,0(a4)
300025f4:	0106f693          	andi	a3,a3,16
300025f8:	00170813          	addi	a6,a4,1
300025fc:	2c069263          	bnez	a3,300028c0 <_ZL12get_fileinfoP3DIRP7FILINFO+0x404>
30002600:	0087c683          	lbu	a3,8(a5)
30002604:	38c68063          	beq	a3,a2,30002984 <_ZL12get_fileinfoP3DIRP7FILINFO+0x4c8>
30002608:	00d700a3          	sb	a3,1(a4)
3000260c:	0097c683          	lbu	a3,9(a5)
30002610:	00270813          	addi	a6,a4,2
30002614:	36c68863          	beq	a3,a2,30002984 <_ZL12get_fileinfoP3DIRP7FILINFO+0x4c8>
30002618:	00d70123          	sb	a3,2(a4)
3000261c:	00a7c683          	lbu	a3,10(a5)
30002620:	00370813          	addi	a6,a4,3
30002624:	36c68063          	beq	a3,a2,30002984 <_ZL12get_fileinfoP3DIRP7FILINFO+0x4c8>
30002628:	00d701a3          	sb	a3,3(a4)
3000262c:	00470713          	addi	a4,a4,4
30002630:	00b7c683          	lbu	a3,11(a5)
30002634:	00d58423          	sb	a3,8(a1)
30002638:	01d7c803          	lbu	a6,29(a5)
3000263c:	01c7c883          	lbu	a7,28(a5)
30002640:	01e7c603          	lbu	a2,30(a5)
30002644:	01f7c683          	lbu	a3,31(a5)
30002648:	00881813          	slli	a6,a6,0x8
3000264c:	01186833          	or	a6,a6,a7
30002650:	01061613          	slli	a2,a2,0x10
30002654:	01066633          	or	a2,a2,a6
30002658:	01869693          	slli	a3,a3,0x18
3000265c:	00c6e6b3          	or	a3,a3,a2
30002660:	00d5a023          	sw	a3,0(a1)
30002664:	0197c683          	lbu	a3,25(a5)
30002668:	0187c603          	lbu	a2,24(a5)
3000266c:	00869693          	slli	a3,a3,0x8
30002670:	00c6e6b3          	or	a3,a3,a2
30002674:	00d59223          	sh	a3,4(a1)
30002678:	0177c683          	lbu	a3,23(a5)
3000267c:	0167c603          	lbu	a2,22(a5)
30002680:	00869793          	slli	a5,a3,0x8
30002684:	00c7e7b3          	or	a5,a5,a2
30002688:	00f59323          	sh	a5,6(a1)
3000268c:	00070023          	sb	zero,0(a4)
30002690:	0185a983          	lw	s3,24(a1)
30002694:	06098a63          	beqz	s3,30002708 <_ZL12get_fileinfoP3DIRP7FILINFO+0x24c>
30002698:	01c5a783          	lw	a5,28(a1)
3000269c:	06078663          	beqz	a5,30002708 <_ZL12get_fileinfoP3DIRP7FILINFO+0x24c>
300026a0:	01052783          	lw	a5,16(a0)
300026a4:	06078063          	beqz	a5,30002704 <_ZL12get_fileinfoP3DIRP7FILINFO+0x248>
300026a8:	02055703          	lhu	a4,32(a0)
300026ac:	000107b7          	lui	a5,0x10
300026b0:	fff78793          	addi	a5,a5,-1 # ffff <stackPointer+0x92bf>
300026b4:	04f70863          	beq	a4,a5,30002704 <_ZL12get_fileinfoP3DIRP7FILINFO+0x248>
300026b8:	01c52903          	lw	s2,28(a0)
300026bc:	00095503          	lhu	a0,0(s2)
300026c0:	00290913          	addi	s2,s2,2
300026c4:	04050063          	beqz	a0,30002704 <_ZL12get_fileinfoP3DIRP7FILINFO+0x248>
300026c8:	00058413          	mv	s0,a1
300026cc:	00000493          	li	s1,0
300026d0:	0240006f          	j	300026f4 <_ZL12get_fileinfoP3DIRP7FILINFO+0x238>
300026d4:	01c42783          	lw	a5,28(s0)
300026d8:	fff78793          	addi	a5,a5,-1
300026dc:	02f4f463          	bgeu	s1,a5,30002704 <_ZL12get_fileinfoP3DIRP7FILINFO+0x248>
300026e0:	00148493          	addi	s1,s1,1
300026e4:	009987b3          	add	a5,s3,s1
300026e8:	fea78fa3          	sb	a0,-1(a5)
300026ec:	ffe95503          	lhu	a0,-2(s2)
300026f0:	2a050a63          	beqz	a0,300029a4 <_ZL12get_fileinfoP3DIRP7FILINFO+0x4e8>
300026f4:	00000593          	li	a1,0
300026f8:	00290913          	addi	s2,s2,2
300026fc:	c2dff0ef          	jal	ra,30002328 <ff_convert>
30002700:	fc051ae3          	bnez	a0,300026d4 <_ZL12get_fileinfoP3DIRP7FILINFO+0x218>
30002704:	00098023          	sb	zero,0(s3)
30002708:	01c12083          	lw	ra,28(sp)
3000270c:	01812403          	lw	s0,24(sp)
30002710:	01412483          	lw	s1,20(sp)
30002714:	01012903          	lw	s2,16(sp)
30002718:	00c12983          	lw	s3,12(sp)
3000271c:	02010113          	addi	sp,sp,32
30002720:	00008067          	ret
30002724:	0007c603          	lbu	a2,0(a5)
30002728:	02000813          	li	a6,32
3000272c:	eb060ae3          	beq	a2,a6,300025e0 <_ZL12get_fileinfoP3DIRP7FILINFO+0x124>
30002730:	00500713          	li	a4,5
30002734:	20e60063          	beq	a2,a4,30002934 <_ZL12get_fileinfoP3DIRP7FILINFO+0x478>
30002738:	fbf60713          	addi	a4,a2,-65
3000273c:	0ff77713          	andi	a4,a4,255
30002740:	01900813          	li	a6,25
30002744:	00e86663          	bltu	a6,a4,30002750 <_ZL12get_fileinfoP3DIRP7FILINFO+0x294>
30002748:	02060613          	addi	a2,a2,32
3000274c:	0ff67613          	andi	a2,a2,255
30002750:	00c584a3          	sb	a2,9(a1)
30002754:	0017c603          	lbu	a2,1(a5)
30002758:	02000813          	li	a6,32
3000275c:	00a58713          	addi	a4,a1,10
30002760:	e90600e3          	beq	a2,a6,300025e0 <_ZL12get_fileinfoP3DIRP7FILINFO+0x124>
30002764:	00500713          	li	a4,5
30002768:	1ee60663          	beq	a2,a4,30002954 <_ZL12get_fileinfoP3DIRP7FILINFO+0x498>
3000276c:	fbf60713          	addi	a4,a2,-65
30002770:	0ff77713          	andi	a4,a4,255
30002774:	01900813          	li	a6,25
30002778:	00e86663          	bltu	a6,a4,30002784 <_ZL12get_fileinfoP3DIRP7FILINFO+0x2c8>
3000277c:	02060613          	addi	a2,a2,32
30002780:	0ff67613          	andi	a2,a2,255
30002784:	00c58523          	sb	a2,10(a1)
30002788:	0027c603          	lbu	a2,2(a5)
3000278c:	02000813          	li	a6,32
30002790:	00b58713          	addi	a4,a1,11
30002794:	e50606e3          	beq	a2,a6,300025e0 <_ZL12get_fileinfoP3DIRP7FILINFO+0x124>
30002798:	00500713          	li	a4,5
3000279c:	1ce60063          	beq	a2,a4,3000295c <_ZL12get_fileinfoP3DIRP7FILINFO+0x4a0>
300027a0:	fbf60713          	addi	a4,a2,-65
300027a4:	0ff77713          	andi	a4,a4,255
300027a8:	01900813          	li	a6,25
300027ac:	00e86663          	bltu	a6,a4,300027b8 <_ZL12get_fileinfoP3DIRP7FILINFO+0x2fc>
300027b0:	02060613          	addi	a2,a2,32
300027b4:	0ff67613          	andi	a2,a2,255
300027b8:	00c585a3          	sb	a2,11(a1)
300027bc:	0037c603          	lbu	a2,3(a5)
300027c0:	02000813          	li	a6,32
300027c4:	00c58713          	addi	a4,a1,12
300027c8:	e1060ce3          	beq	a2,a6,300025e0 <_ZL12get_fileinfoP3DIRP7FILINFO+0x124>
300027cc:	00500713          	li	a4,5
300027d0:	18e60a63          	beq	a2,a4,30002964 <_ZL12get_fileinfoP3DIRP7FILINFO+0x4a8>
300027d4:	fbf60713          	addi	a4,a2,-65
300027d8:	0ff77713          	andi	a4,a4,255
300027dc:	01900813          	li	a6,25
300027e0:	00e86663          	bltu	a6,a4,300027ec <_ZL12get_fileinfoP3DIRP7FILINFO+0x330>
300027e4:	02060613          	addi	a2,a2,32
300027e8:	0ff67613          	andi	a2,a2,255
300027ec:	00c58623          	sb	a2,12(a1)
300027f0:	0047c603          	lbu	a2,4(a5)
300027f4:	02000813          	li	a6,32
300027f8:	00d58713          	addi	a4,a1,13
300027fc:	df0602e3          	beq	a2,a6,300025e0 <_ZL12get_fileinfoP3DIRP7FILINFO+0x124>
30002800:	00500713          	li	a4,5
30002804:	16e60463          	beq	a2,a4,3000296c <_ZL12get_fileinfoP3DIRP7FILINFO+0x4b0>
30002808:	fbf60713          	addi	a4,a2,-65
3000280c:	0ff77713          	andi	a4,a4,255
30002810:	01900813          	li	a6,25
30002814:	00e86663          	bltu	a6,a4,30002820 <_ZL12get_fileinfoP3DIRP7FILINFO+0x364>
30002818:	02060613          	addi	a2,a2,32
3000281c:	0ff67613          	andi	a2,a2,255
30002820:	00c586a3          	sb	a2,13(a1)
30002824:	0057c603          	lbu	a2,5(a5)
30002828:	02000813          	li	a6,32
3000282c:	00e58713          	addi	a4,a1,14
30002830:	db0608e3          	beq	a2,a6,300025e0 <_ZL12get_fileinfoP3DIRP7FILINFO+0x124>
30002834:	00500713          	li	a4,5
30002838:	12e60e63          	beq	a2,a4,30002974 <_ZL12get_fileinfoP3DIRP7FILINFO+0x4b8>
3000283c:	fbf60713          	addi	a4,a2,-65
30002840:	0ff77713          	andi	a4,a4,255
30002844:	01900813          	li	a6,25
30002848:	00e86663          	bltu	a6,a4,30002854 <_ZL12get_fileinfoP3DIRP7FILINFO+0x398>
3000284c:	02060613          	addi	a2,a2,32
30002850:	0ff67613          	andi	a2,a2,255
30002854:	00c58723          	sb	a2,14(a1)
30002858:	0067c603          	lbu	a2,6(a5)
3000285c:	02000813          	li	a6,32
30002860:	00f58713          	addi	a4,a1,15
30002864:	d7060ee3          	beq	a2,a6,300025e0 <_ZL12get_fileinfoP3DIRP7FILINFO+0x124>
30002868:	00500713          	li	a4,5
3000286c:	10e60863          	beq	a2,a4,3000297c <_ZL12get_fileinfoP3DIRP7FILINFO+0x4c0>
30002870:	fbf60713          	addi	a4,a2,-65
30002874:	0ff77713          	andi	a4,a4,255
30002878:	01900813          	li	a6,25
3000287c:	00e86663          	bltu	a6,a4,30002888 <_ZL12get_fileinfoP3DIRP7FILINFO+0x3cc>
30002880:	02060613          	addi	a2,a2,32
30002884:	0ff67613          	andi	a2,a2,255
30002888:	00c587a3          	sb	a2,15(a1)
3000288c:	0077c603          	lbu	a2,7(a5)
30002890:	02000813          	li	a6,32
30002894:	01058713          	addi	a4,a1,16
30002898:	d50604e3          	beq	a2,a6,300025e0 <_ZL12get_fileinfoP3DIRP7FILINFO+0x124>
3000289c:	00500713          	li	a4,5
300028a0:	0ae60663          	beq	a2,a4,3000294c <_ZL12get_fileinfoP3DIRP7FILINFO+0x490>
300028a4:	fbf60713          	addi	a4,a2,-65
300028a8:	0ff77713          	andi	a4,a4,255
300028ac:	01900813          	li	a6,25
300028b0:	d2e864e3          	bltu	a6,a4,300025d8 <_ZL12get_fileinfoP3DIRP7FILINFO+0x11c>
300028b4:	02060613          	addi	a2,a2,32
300028b8:	0ff67613          	andi	a2,a2,255
300028bc:	d1dff06f          	j	300025d8 <_ZL12get_fileinfoP3DIRP7FILINFO+0x11c>
300028c0:	0087c683          	lbu	a3,8(a5)
300028c4:	0cc68063          	beq	a3,a2,30002984 <_ZL12get_fileinfoP3DIRP7FILINFO+0x4c8>
300028c8:	fbf68613          	addi	a2,a3,-65
300028cc:	0ff67613          	andi	a2,a2,255
300028d0:	01900813          	li	a6,25
300028d4:	0ac87c63          	bgeu	a6,a2,3000298c <_ZL12get_fileinfoP3DIRP7FILINFO+0x4d0>
300028d8:	00d700a3          	sb	a3,1(a4)
300028dc:	0097c683          	lbu	a3,9(a5)
300028e0:	02000613          	li	a2,32
300028e4:	00270813          	addi	a6,a4,2
300028e8:	08c68e63          	beq	a3,a2,30002984 <_ZL12get_fileinfoP3DIRP7FILINFO+0x4c8>
300028ec:	fbf68613          	addi	a2,a3,-65
300028f0:	0ff67613          	andi	a2,a2,255
300028f4:	01900813          	li	a6,25
300028f8:	0ac87063          	bgeu	a6,a2,30002998 <_ZL12get_fileinfoP3DIRP7FILINFO+0x4dc>
300028fc:	00d70123          	sb	a3,2(a4)
30002900:	00a7c683          	lbu	a3,10(a5)
30002904:	02000613          	li	a2,32
30002908:	00370813          	addi	a6,a4,3
3000290c:	06c68c63          	beq	a3,a2,30002984 <_ZL12get_fileinfoP3DIRP7FILINFO+0x4c8>
30002910:	fbf68613          	addi	a2,a3,-65
30002914:	0ff67613          	andi	a2,a2,255
30002918:	01900813          	li	a6,25
3000291c:	d0c866e3          	bltu	a6,a2,30002628 <_ZL12get_fileinfoP3DIRP7FILINFO+0x16c>
30002920:	02068693          	addi	a3,a3,32
30002924:	0ff6f693          	andi	a3,a3,255
30002928:	d01ff06f          	j	30002628 <_ZL12get_fileinfoP3DIRP7FILINFO+0x16c>
3000292c:	0e500613          	li	a2,229
30002930:	bd5ff06f          	j	30002504 <_ZL12get_fileinfoP3DIRP7FILINFO+0x48>
30002934:	0e500613          	li	a2,229
30002938:	e19ff06f          	j	30002750 <_ZL12get_fileinfoP3DIRP7FILINFO+0x294>
3000293c:	0e500613          	li	a2,229
30002940:	be1ff06f          	j	30002520 <_ZL12get_fileinfoP3DIRP7FILINFO+0x64>
30002944:	0e500613          	li	a2,229
30002948:	bf5ff06f          	j	3000253c <_ZL12get_fileinfoP3DIRP7FILINFO+0x80>
3000294c:	0e500613          	li	a2,229
30002950:	c89ff06f          	j	300025d8 <_ZL12get_fileinfoP3DIRP7FILINFO+0x11c>
30002954:	0e500613          	li	a2,229
30002958:	e2dff06f          	j	30002784 <_ZL12get_fileinfoP3DIRP7FILINFO+0x2c8>
3000295c:	0e500613          	li	a2,229
30002960:	e59ff06f          	j	300027b8 <_ZL12get_fileinfoP3DIRP7FILINFO+0x2fc>
30002964:	0e500613          	li	a2,229
30002968:	e85ff06f          	j	300027ec <_ZL12get_fileinfoP3DIRP7FILINFO+0x330>
3000296c:	0e500613          	li	a2,229
30002970:	eb1ff06f          	j	30002820 <_ZL12get_fileinfoP3DIRP7FILINFO+0x364>
30002974:	0e500613          	li	a2,229
30002978:	eddff06f          	j	30002854 <_ZL12get_fileinfoP3DIRP7FILINFO+0x398>
3000297c:	0e500613          	li	a2,229
30002980:	f09ff06f          	j	30002888 <_ZL12get_fileinfoP3DIRP7FILINFO+0x3cc>
30002984:	00080713          	mv	a4,a6
30002988:	ca9ff06f          	j	30002630 <_ZL12get_fileinfoP3DIRP7FILINFO+0x174>
3000298c:	02068693          	addi	a3,a3,32
30002990:	0ff6f693          	andi	a3,a3,255
30002994:	f45ff06f          	j	300028d8 <_ZL12get_fileinfoP3DIRP7FILINFO+0x41c>
30002998:	02068693          	addi	a3,a3,32
3000299c:	0ff6f693          	andi	a3,a3,255
300029a0:	f5dff06f          	j	300028fc <_ZL12get_fileinfoP3DIRP7FILINFO+0x440>
300029a4:	00078993          	mv	s3,a5
300029a8:	00098023          	sb	zero,0(s3)
300029ac:	d5dff06f          	j	30002708 <_ZL12get_fileinfoP3DIRP7FILINFO+0x24c>

300029b0 <_ZL11move_windowP5FATFSm>:
300029b0:	fe010113          	addi	sp,sp,-32
300029b4:	00112e23          	sw	ra,28(sp)
300029b8:	00812c23          	sw	s0,24(sp)
300029bc:	00912a23          	sw	s1,20(sp)
300029c0:	01212823          	sw	s2,16(sp)
300029c4:	01312623          	sw	s3,12(sp)
300029c8:	01412423          	sw	s4,8(sp)
300029cc:	02c52483          	lw	s1,44(a0)
300029d0:	00b48c63          	beq	s1,a1,300029e8 <_ZL11move_windowP5FATFSm+0x38>
300029d4:	00454783          	lbu	a5,4(a0)
300029d8:	00058993          	mv	s3,a1
300029dc:	00050413          	mv	s0,a0
300029e0:	02079663          	bnez	a5,30002a0c <_ZL11move_windowP5FATFSm+0x5c>
300029e4:	08099c63          	bnez	s3,30002a7c <_ZL11move_windowP5FATFSm+0xcc>
300029e8:	01c12083          	lw	ra,28(sp)
300029ec:	01812403          	lw	s0,24(sp)
300029f0:	01412483          	lw	s1,20(sp)
300029f4:	01012903          	lw	s2,16(sp)
300029f8:	00c12983          	lw	s3,12(sp)
300029fc:	00812a03          	lw	s4,8(sp)
30002a00:	00000513          	li	a0,0
30002a04:	02010113          	addi	sp,sp,32
30002a08:	00008067          	ret
30002a0c:	00154503          	lbu	a0,1(a0)
30002a10:	03040a13          	addi	s4,s0,48
30002a14:	00100693          	li	a3,1
30002a18:	00048613          	mv	a2,s1
30002a1c:	000a0593          	mv	a1,s4
30002a20:	aa8ff0ef          	jal	ra,30001cc8 <disk_write>
30002a24:	08051a63          	bnez	a0,30002ab8 <_ZL11move_windowP5FATFSm+0x108>
30002a28:	01c42783          	lw	a5,28(s0)
30002a2c:	02042703          	lw	a4,32(s0)
30002a30:	00040223          	sb	zero,4(s0)
30002a34:	00e78733          	add	a4,a5,a4
30002a38:	fae4f6e3          	bgeu	s1,a4,300029e4 <_ZL11move_windowP5FATFSm+0x34>
30002a3c:	00344903          	lbu	s2,3(s0)
30002a40:	00100713          	li	a4,1
30002a44:	01276663          	bltu	a4,s2,30002a50 <_ZL11move_windowP5FATFSm+0xa0>
30002a48:	f9dff06f          	j	300029e4 <_ZL11move_windowP5FATFSm+0x34>
30002a4c:	01c42783          	lw	a5,28(s0)
30002a50:	00144503          	lbu	a0,1(s0)
30002a54:	00f484b3          	add	s1,s1,a5
30002a58:	00100693          	li	a3,1
30002a5c:	00048613          	mv	a2,s1
30002a60:	000a0593          	mv	a1,s4
30002a64:	a64ff0ef          	jal	ra,30001cc8 <disk_write>
30002a68:	fff90913          	addi	s2,s2,-1
30002a6c:	0ff97913          	andi	s2,s2,255
30002a70:	00100793          	li	a5,1
30002a74:	fcf91ce3          	bne	s2,a5,30002a4c <_ZL11move_windowP5FATFSm+0x9c>
30002a78:	f60988e3          	beqz	s3,300029e8 <_ZL11move_windowP5FATFSm+0x38>
30002a7c:	00144503          	lbu	a0,1(s0)
30002a80:	00100693          	li	a3,1
30002a84:	00098613          	mv	a2,s3
30002a88:	03040593          	addi	a1,s0,48
30002a8c:	8ecff0ef          	jal	ra,30001b78 <disk_read>
30002a90:	02051463          	bnez	a0,30002ab8 <_ZL11move_windowP5FATFSm+0x108>
30002a94:	03342623          	sw	s3,44(s0)
30002a98:	01c12083          	lw	ra,28(sp)
30002a9c:	01812403          	lw	s0,24(sp)
30002aa0:	01412483          	lw	s1,20(sp)
30002aa4:	01012903          	lw	s2,16(sp)
30002aa8:	00c12983          	lw	s3,12(sp)
30002aac:	00812a03          	lw	s4,8(sp)
30002ab0:	02010113          	addi	sp,sp,32
30002ab4:	00008067          	ret
30002ab8:	01c12083          	lw	ra,28(sp)
30002abc:	01812403          	lw	s0,24(sp)
30002ac0:	01412483          	lw	s1,20(sp)
30002ac4:	01012903          	lw	s2,16(sp)
30002ac8:	00c12983          	lw	s3,12(sp)
30002acc:	00812a03          	lw	s4,8(sp)
30002ad0:	00100513          	li	a0,1
30002ad4:	02010113          	addi	sp,sp,32
30002ad8:	00008067          	ret

30002adc <_ZL8check_fsP5FATFSm>:
30002adc:	ff010113          	addi	sp,sp,-16
30002ae0:	00812423          	sw	s0,8(sp)
30002ae4:	00112623          	sw	ra,12(sp)
30002ae8:	00050413          	mv	s0,a0
30002aec:	00154503          	lbu	a0,1(a0)
30002af0:	00058613          	mv	a2,a1
30002af4:	00100693          	li	a3,1
30002af8:	03040593          	addi	a1,s0,48
30002afc:	87cff0ef          	jal	ra,30001b78 <disk_read>
30002b00:	08051263          	bnez	a0,30002b84 <_ZL8check_fsP5FATFSm+0xa8>
30002b04:	22f44783          	lbu	a5,559(s0)
30002b08:	22e44703          	lbu	a4,558(s0)
30002b0c:	00200513          	li	a0,2
30002b10:	00879793          	slli	a5,a5,0x8
30002b14:	00e7e7b3          	or	a5,a5,a4
30002b18:	01079793          	slli	a5,a5,0x10
30002b1c:	ffffb737          	lui	a4,0xffffb
30002b20:	4107d793          	srai	a5,a5,0x10
30002b24:	a5570713          	addi	a4,a4,-1451 # ffffaa55 <__bss_end__+0xcfefaa55>
30002b28:	04e79663          	bne	a5,a4,30002b74 <_ZL8check_fsP5FATFSm+0x98>
30002b2c:	06845783          	lhu	a5,104(s0)
30002b30:	06645703          	lhu	a4,102(s0)
30002b34:	01000537          	lui	a0,0x1000
30002b38:	01079793          	slli	a5,a5,0x10
30002b3c:	00e7e7b3          	or	a5,a5,a4
30002b40:	fff50693          	addi	a3,a0,-1 # ffffff <stackPointer+0xff92bf>
30002b44:	00544537          	lui	a0,0x544
30002b48:	14650713          	addi	a4,a0,326 # 544146 <stackPointer+0x53d406>
30002b4c:	00d7f7b3          	and	a5,a5,a3
30002b50:	00000513          	li	a0,0
30002b54:	02e78063          	beq	a5,a4,30002b74 <_ZL8check_fsP5FATFSm+0x98>
30002b58:	08445503          	lhu	a0,132(s0)
30002b5c:	08245783          	lhu	a5,130(s0)
30002b60:	01051513          	slli	a0,a0,0x10
30002b64:	00f56533          	or	a0,a0,a5
30002b68:	00d57533          	and	a0,a0,a3
30002b6c:	40e50533          	sub	a0,a0,a4
30002b70:	00a03533          	snez	a0,a0
30002b74:	00c12083          	lw	ra,12(sp)
30002b78:	00812403          	lw	s0,8(sp)
30002b7c:	01010113          	addi	sp,sp,16
30002b80:	00008067          	ret
30002b84:	00c12083          	lw	ra,12(sp)
30002b88:	00812403          	lw	s0,8(sp)
30002b8c:	00300513          	li	a0,3
30002b90:	01010113          	addi	sp,sp,16
30002b94:	00008067          	ret

30002b98 <_ZL11chk_mountedPPKcPP5FATFSh>:
30002b98:	00052703          	lw	a4,0(a0)
30002b9c:	00900693          	li	a3,9
30002ba0:	00074783          	lbu	a5,0(a4)
30002ba4:	fd078793          	addi	a5,a5,-48
30002ba8:	00f6e863          	bltu	a3,a5,30002bb8 <_ZL11chk_mountedPPKcPP5FATFSh+0x20>
30002bac:	00174803          	lbu	a6,1(a4)
30002bb0:	03a00693          	li	a3,58
30002bb4:	28d80863          	beq	a6,a3,30002e44 <_ZL11chk_mountedPPKcPP5FATFSh+0x2ac>
30002bb8:	ff010113          	addi	sp,sp,-16
30002bbc:	300107b7          	lui	a5,0x30010
30002bc0:	00812423          	sw	s0,8(sp)
30002bc4:	a807a403          	lw	s0,-1408(a5) # 3000fa80 <_ZL5FatFs>
30002bc8:	00112623          	sw	ra,12(sp)
30002bcc:	00912223          	sw	s1,4(sp)
30002bd0:	0085a023          	sw	s0,0(a1)
30002bd4:	2a040263          	beqz	s0,30002e78 <_ZL11chk_mountedPPKcPP5FATFSh+0x2e0>
30002bd8:	00044783          	lbu	a5,0(s0)
30002bdc:	00060493          	mv	s1,a2
30002be0:	02078e63          	beqz	a5,30002c1c <_ZL11chk_mountedPPKcPP5FATFSh+0x84>
30002be4:	00144503          	lbu	a0,1(s0)
30002be8:	ca5fe0ef          	jal	ra,3000188c <disk_status>
30002bec:	00157793          	andi	a5,a0,1
30002bf0:	02079663          	bnez	a5,30002c1c <_ZL11chk_mountedPPKcPP5FATFSh+0x84>
30002bf4:	00000713          	li	a4,0
30002bf8:	00048663          	beqz	s1,30002c04 <_ZL11chk_mountedPPKcPP5FATFSh+0x6c>
30002bfc:	00457513          	andi	a0,a0,4
30002c00:	24051e63          	bnez	a0,30002e5c <_ZL11chk_mountedPPKcPP5FATFSh+0x2c4>
30002c04:	00c12083          	lw	ra,12(sp)
30002c08:	00812403          	lw	s0,8(sp)
30002c0c:	00412483          	lw	s1,4(sp)
30002c10:	00070513          	mv	a0,a4
30002c14:	01010113          	addi	sp,sp,16
30002c18:	00008067          	ret
30002c1c:	00041023          	sh	zero,0(s0)
30002c20:	00000513          	li	a0,0
30002c24:	c8dfe0ef          	jal	ra,300018b0 <disk_initialize>
30002c28:	00157793          	andi	a5,a0,1
30002c2c:	00300713          	li	a4,3
30002c30:	fc079ae3          	bnez	a5,30002c04 <_ZL11chk_mountedPPKcPP5FATFSh+0x6c>
30002c34:	00048663          	beqz	s1,30002c40 <_ZL11chk_mountedPPKcPP5FATFSh+0xa8>
30002c38:	00457513          	andi	a0,a0,4
30002c3c:	22051063          	bnez	a0,30002e5c <_ZL11chk_mountedPPKcPP5FATFSh+0x2c4>
30002c40:	00000593          	li	a1,0
30002c44:	00040513          	mv	a0,s0
30002c48:	e95ff0ef          	jal	ra,30002adc <_ZL8check_fsP5FATFSm>
30002c4c:	00100793          	li	a5,1
30002c50:	00000493          	li	s1,0
30002c54:	1cf50663          	beq	a0,a5,30002e20 <_ZL11chk_mountedPPKcPP5FATFSh+0x288>
30002c58:	00300793          	li	a5,3
30002c5c:	00100713          	li	a4,1
30002c60:	faf502e3          	beq	a0,a5,30002c04 <_ZL11chk_mountedPPKcPP5FATFSh+0x6c>
30002c64:	1c051263          	bnez	a0,30002e28 <_ZL11chk_mountedPPKcPP5FATFSh+0x290>
30002c68:	03c44783          	lbu	a5,60(s0)
30002c6c:	03b44683          	lbu	a3,59(s0)
30002c70:	20000713          	li	a4,512
30002c74:	00879793          	slli	a5,a5,0x8
30002c78:	00d7e7b3          	or	a5,a5,a3
30002c7c:	01079793          	slli	a5,a5,0x10
30002c80:	4107d793          	srai	a5,a5,0x10
30002c84:	1ae79263          	bne	a5,a4,30002e28 <_ZL11chk_mountedPPKcPP5FATFSh+0x290>
30002c88:	04744783          	lbu	a5,71(s0)
30002c8c:	04644703          	lbu	a4,70(s0)
30002c90:	00879793          	slli	a5,a5,0x8
30002c94:	00e7e7b3          	or	a5,a5,a4
30002c98:	00079463          	bnez	a5,30002ca0 <_ZL11chk_mountedPPKcPP5FATFSh+0x108>
30002c9c:	05442783          	lw	a5,84(s0)
30002ca0:	04044703          	lbu	a4,64(s0)
30002ca4:	00f42e23          	sw	a5,28(s0)
30002ca8:	00100613          	li	a2,1
30002cac:	fff70693          	addi	a3,a4,-1
30002cb0:	00e401a3          	sb	a4,3(s0)
30002cb4:	0ff6f693          	andi	a3,a3,255
30002cb8:	16d66863          	bltu	a2,a3,30002e28 <_ZL11chk_mountedPPKcPP5FATFSh+0x290>
30002cbc:	03d44683          	lbu	a3,61(s0)
30002cc0:	00d40123          	sb	a3,2(s0)
30002cc4:	16068263          	beqz	a3,30002e28 <_ZL11chk_mountedPPKcPP5FATFSh+0x290>
30002cc8:	fff68613          	addi	a2,a3,-1
30002ccc:	00d67633          	and	a2,a2,a3
30002cd0:	14061c63          	bnez	a2,30002e28 <_ZL11chk_mountedPPKcPP5FATFSh+0x290>
30002cd4:	04244583          	lbu	a1,66(s0)
30002cd8:	04144603          	lbu	a2,65(s0)
30002cdc:	00859593          	slli	a1,a1,0x8
30002ce0:	00c5e5b3          	or	a1,a1,a2
30002ce4:	00b41423          	sh	a1,8(s0)
30002ce8:	00f5f613          	andi	a2,a1,15
30002cec:	12061e63          	bnez	a2,30002e28 <_ZL11chk_mountedPPKcPP5FATFSh+0x290>
30002cf0:	04444603          	lbu	a2,68(s0)
30002cf4:	04344503          	lbu	a0,67(s0)
30002cf8:	00861613          	slli	a2,a2,0x8
30002cfc:	00a66633          	or	a2,a2,a0
30002d00:	00061463          	bnez	a2,30002d08 <_ZL11chk_mountedPPKcPP5FATFSh+0x170>
30002d04:	05042603          	lw	a2,80(s0)
30002d08:	03f44503          	lbu	a0,63(s0)
30002d0c:	03e44803          	lbu	a6,62(s0)
30002d10:	00851513          	slli	a0,a0,0x8
30002d14:	01056533          	or	a0,a0,a6
30002d18:	10050863          	beqz	a0,30002e28 <_ZL11chk_mountedPPKcPP5FATFSh+0x290>
30002d1c:	02f70733          	mul	a4,a4,a5
30002d20:	0045d813          	srli	a6,a1,0x4
30002d24:	00a80833          	add	a6,a6,a0
30002d28:	00e80833          	add	a6,a6,a4
30002d2c:	0f066e63          	bltu	a2,a6,30002e28 <_ZL11chk_mountedPPKcPP5FATFSh+0x290>
30002d30:	41060633          	sub	a2,a2,a6
30002d34:	02d658b3          	divu	a7,a2,a3
30002d38:	0ed66863          	bltu	a2,a3,30002e28 <_ZL11chk_mountedPPKcPP5FATFSh+0x290>
30002d3c:	00001637          	lui	a2,0x1
30002d40:	ff560613          	addi	a2,a2,-11 # ff5 <stackPointer-0x5d4b>
30002d44:	00950533          	add	a0,a0,s1
30002d48:	01048833          	add	a6,s1,a6
30002d4c:	00288693          	addi	a3,a7,2
30002d50:	17167e63          	bgeu	a2,a7,30002ecc <_ZL11chk_mountedPPKcPP5FATFSh+0x334>
30002d54:	00010637          	lui	a2,0x10
30002d58:	ff560613          	addi	a2,a2,-11 # fff5 <stackPointer+0x92b5>
30002d5c:	00d42c23          	sw	a3,24(s0)
30002d60:	03042423          	sw	a6,40(s0)
30002d64:	02a42023          	sw	a0,32(s0)
30002d68:	1f167263          	bgeu	a2,a7,30002f4c <_ZL11chk_mountedPPKcPP5FATFSh+0x3b4>
30002d6c:	0a059e63          	bnez	a1,30002e28 <_ZL11chk_mountedPPKcPP5FATFSh+0x290>
30002d70:	05c42603          	lw	a2,92(s0)
30002d74:	00269713          	slli	a4,a3,0x2
30002d78:	1ff70713          	addi	a4,a4,511
30002d7c:	02c42223          	sw	a2,36(s0)
30002d80:	00975713          	srli	a4,a4,0x9
30002d84:	0ae7e263          	bltu	a5,a4,30002e28 <_ZL11chk_mountedPPKcPP5FATFSh+0x290>
30002d88:	06144603          	lbu	a2,97(s0)
30002d8c:	06044783          	lbu	a5,96(s0)
30002d90:	00144503          	lbu	a0,1(s0)
30002d94:	00861613          	slli	a2,a2,0x8
30002d98:	00f66633          	or	a2,a2,a5
30002d9c:	00960633          	add	a2,a2,s1
30002da0:	fff00793          	li	a5,-1
30002da4:	00c42a23          	sw	a2,20(s0)
30002da8:	00f42823          	sw	a5,16(s0)
30002dac:	00042623          	sw	zero,12(s0)
30002db0:	000402a3          	sb	zero,5(s0)
30002db4:	00100693          	li	a3,1
30002db8:	03040593          	addi	a1,s0,48
30002dbc:	dbdfe0ef          	jal	ra,30001b78 <disk_read>
30002dc0:	00300613          	li	a2,3
30002dc4:	02051663          	bnez	a0,30002df0 <_ZL11chk_mountedPPKcPP5FATFSh+0x258>
30002dc8:	22f44783          	lbu	a5,559(s0)
30002dcc:	22e44703          	lbu	a4,558(s0)
30002dd0:	00300613          	li	a2,3
30002dd4:	00879793          	slli	a5,a5,0x8
30002dd8:	00e7e7b3          	or	a5,a5,a4
30002ddc:	01079793          	slli	a5,a5,0x10
30002de0:	ffffb737          	lui	a4,0xffffb
30002de4:	4107d793          	srai	a5,a5,0x10
30002de8:	a5570713          	addi	a4,a4,-1451 # ffffaa55 <__bss_end__+0xcfefaa55>
30002dec:	12e78663          	beq	a5,a4,30002f18 <_ZL11chk_mountedPPKcPP5FATFSh+0x380>
30002df0:	30010737          	lui	a4,0x30010
30002df4:	a7c75783          	lhu	a5,-1412(a4) # 3000fa7c <_ZL4Fsid>
30002df8:	00c40023          	sb	a2,0(s0)
30002dfc:	02042623          	sw	zero,44(s0)
30002e00:	00178793          	addi	a5,a5,1
30002e04:	01079793          	slli	a5,a5,0x10
30002e08:	0107d793          	srli	a5,a5,0x10
30002e0c:	a6f71e23          	sh	a5,-1412(a4)
30002e10:	00f41323          	sh	a5,6(s0)
30002e14:	00040223          	sb	zero,4(s0)
30002e18:	00000713          	li	a4,0
30002e1c:	de9ff06f          	j	30002c04 <_ZL11chk_mountedPPKcPP5FATFSh+0x6c>
30002e20:	1f244783          	lbu	a5,498(s0)
30002e24:	06079863          	bnez	a5,30002e94 <_ZL11chk_mountedPPKcPP5FATFSh+0x2fc>
30002e28:	00c12083          	lw	ra,12(sp)
30002e2c:	00812403          	lw	s0,8(sp)
30002e30:	00d00713          	li	a4,13
30002e34:	00412483          	lw	s1,4(sp)
30002e38:	00070513          	mv	a0,a4
30002e3c:	01010113          	addi	sp,sp,16
30002e40:	00008067          	ret
30002e44:	00270713          	addi	a4,a4,2
30002e48:	00e52023          	sw	a4,0(a0)
30002e4c:	00b00713          	li	a4,11
30002e50:	d60784e3          	beqz	a5,30002bb8 <_ZL11chk_mountedPPKcPP5FATFSh+0x20>
30002e54:	00070513          	mv	a0,a4
30002e58:	00008067          	ret
30002e5c:	00c12083          	lw	ra,12(sp)
30002e60:	00812403          	lw	s0,8(sp)
30002e64:	00a00713          	li	a4,10
30002e68:	00412483          	lw	s1,4(sp)
30002e6c:	00070513          	mv	a0,a4
30002e70:	01010113          	addi	sp,sp,16
30002e74:	00008067          	ret
30002e78:	00c12083          	lw	ra,12(sp)
30002e7c:	00812403          	lw	s0,8(sp)
30002e80:	00c00713          	li	a4,12
30002e84:	00412483          	lw	s1,4(sp)
30002e88:	00070513          	mv	a0,a4
30002e8c:	01010113          	addi	sp,sp,16
30002e90:	00008067          	ret
30002e94:	1f744483          	lbu	s1,503(s0)
30002e98:	1f644683          	lbu	a3,502(s0)
30002e9c:	1f844783          	lbu	a5,504(s0)
30002ea0:	1f944703          	lbu	a4,505(s0)
30002ea4:	00849493          	slli	s1,s1,0x8
30002ea8:	00d4e4b3          	or	s1,s1,a3
30002eac:	01079793          	slli	a5,a5,0x10
30002eb0:	0097e7b3          	or	a5,a5,s1
30002eb4:	01871493          	slli	s1,a4,0x18
30002eb8:	00f4e4b3          	or	s1,s1,a5
30002ebc:	00048593          	mv	a1,s1
30002ec0:	00040513          	mv	a0,s0
30002ec4:	c19ff0ef          	jal	ra,30002adc <_ZL8check_fsP5FATFSm>
30002ec8:	d91ff06f          	j	30002c58 <_ZL11chk_mountedPPKcPP5FATFSh+0xc0>
30002ecc:	00d42c23          	sw	a3,24(s0)
30002ed0:	03042423          	sw	a6,40(s0)
30002ed4:	02a42023          	sw	a0,32(s0)
30002ed8:	f40588e3          	beqz	a1,30002e28 <_ZL11chk_mountedPPKcPP5FATFSh+0x290>
30002edc:	00169613          	slli	a2,a3,0x1
30002ee0:	00d60633          	add	a2,a2,a3
30002ee4:	00165613          	srli	a2,a2,0x1
30002ee8:	00a70733          	add	a4,a4,a0
30002eec:	0016f693          	andi	a3,a3,1
30002ef0:	00d606b3          	add	a3,a2,a3
30002ef4:	02e42223          	sw	a4,36(s0)
30002ef8:	00100613          	li	a2,1
30002efc:	1ff68693          	addi	a3,a3,511
30002f00:	0096d713          	srli	a4,a3,0x9
30002f04:	f2e7e2e3          	bltu	a5,a4,30002e28 <_ZL11chk_mountedPPKcPP5FATFSh+0x290>
30002f08:	fff00793          	li	a5,-1
30002f0c:	00f42823          	sw	a5,16(s0)
30002f10:	00042623          	sw	zero,12(s0)
30002f14:	eddff06f          	j	30002df0 <_ZL11chk_mountedPPKcPP5FATFSh+0x258>
30002f18:	03042703          	lw	a4,48(s0)
30002f1c:	416157b7          	lui	a5,0x41615
30002f20:	25278793          	addi	a5,a5,594 # 41615252 <__bss_end__+0x11515252>
30002f24:	ecf716e3          	bne	a4,a5,30002df0 <_ZL11chk_mountedPPKcPP5FATFSh+0x258>
30002f28:	21442703          	lw	a4,532(s0)
30002f2c:	614177b7          	lui	a5,0x61417
30002f30:	27278793          	addi	a5,a5,626 # 61417272 <__bss_end__+0x31317272>
30002f34:	eaf71ee3          	bne	a4,a5,30002df0 <_ZL11chk_mountedPPKcPP5FATFSh+0x258>
30002f38:	21842703          	lw	a4,536(s0)
30002f3c:	21c42783          	lw	a5,540(s0)
30002f40:	00e42823          	sw	a4,16(s0)
30002f44:	00f42623          	sw	a5,12(s0)
30002f48:	ea9ff06f          	j	30002df0 <_ZL11chk_mountedPPKcPP5FATFSh+0x258>
30002f4c:	ec058ee3          	beqz	a1,30002e28 <_ZL11chk_mountedPPKcPP5FATFSh+0x290>
30002f50:	00a70733          	add	a4,a4,a0
30002f54:	02e42223          	sw	a4,36(s0)
30002f58:	00169693          	slli	a3,a3,0x1
30002f5c:	00200613          	li	a2,2
30002f60:	f9dff06f          	j	30002efc <_ZL11chk_mountedPPKcPP5FATFSh+0x364>

30002f64 <_Z7get_fatP5FATFSm.part.5>:
30002f64:	fe010113          	addi	sp,sp,-32
30002f68:	00812c23          	sw	s0,24(sp)
30002f6c:	00912a23          	sw	s1,20(sp)
30002f70:	00112e23          	sw	ra,28(sp)
30002f74:	01212823          	sw	s2,16(sp)
30002f78:	01312623          	sw	s3,12(sp)
30002f7c:	00054703          	lbu	a4,0(a0)
30002f80:	00200793          	li	a5,2
30002f84:	00050493          	mv	s1,a0
30002f88:	00058413          	mv	s0,a1
30002f8c:	02f70c63          	beq	a4,a5,30002fc4 <_Z7get_fatP5FATFSm.part.5+0x60>
30002f90:	00300793          	li	a5,3
30002f94:	0cf70063          	beq	a4,a5,30003054 <_Z7get_fatP5FATFSm.part.5+0xf0>
30002f98:	00100693          	li	a3,1
30002f9c:	fff00793          	li	a5,-1
30002fa0:	06d70a63          	beq	a4,a3,30003014 <_Z7get_fatP5FATFSm.part.5+0xb0>
30002fa4:	01c12083          	lw	ra,28(sp)
30002fa8:	01812403          	lw	s0,24(sp)
30002fac:	01412483          	lw	s1,20(sp)
30002fb0:	01012903          	lw	s2,16(sp)
30002fb4:	00c12983          	lw	s3,12(sp)
30002fb8:	00078513          	mv	a0,a5
30002fbc:	02010113          	addi	sp,sp,32
30002fc0:	00008067          	ret
30002fc4:	02052783          	lw	a5,32(a0)
30002fc8:	0085d593          	srli	a1,a1,0x8
30002fcc:	00f585b3          	add	a1,a1,a5
30002fd0:	9e1ff0ef          	jal	ra,300029b0 <_ZL11move_windowP5FATFSm>
30002fd4:	04051e63          	bnez	a0,30003030 <_Z7get_fatP5FATFSm.part.5+0xcc>
30002fd8:	00141413          	slli	s0,s0,0x1
30002fdc:	1fe47413          	andi	s0,s0,510
30002fe0:	00848433          	add	s0,s1,s0
30002fe4:	03144783          	lbu	a5,49(s0)
30002fe8:	03044703          	lbu	a4,48(s0)
30002fec:	01c12083          	lw	ra,28(sp)
30002ff0:	01812403          	lw	s0,24(sp)
30002ff4:	00879793          	slli	a5,a5,0x8
30002ff8:	00e7e7b3          	or	a5,a5,a4
30002ffc:	01412483          	lw	s1,20(sp)
30003000:	01012903          	lw	s2,16(sp)
30003004:	00c12983          	lw	s3,12(sp)
30003008:	00078513          	mv	a0,a5
3000300c:	02010113          	addi	sp,sp,32
30003010:	00008067          	ret
30003014:	0015d913          	srli	s2,a1,0x1
30003018:	02052783          	lw	a5,32(a0)
3000301c:	00b90933          	add	s2,s2,a1
30003020:	00995593          	srli	a1,s2,0x9
30003024:	00f585b3          	add	a1,a1,a5
30003028:	989ff0ef          	jal	ra,300029b0 <_ZL11move_windowP5FATFSm>
3000302c:	0a050063          	beqz	a0,300030cc <_Z7get_fatP5FATFSm.part.5+0x168>
30003030:	01c12083          	lw	ra,28(sp)
30003034:	01812403          	lw	s0,24(sp)
30003038:	fff00793          	li	a5,-1
3000303c:	01412483          	lw	s1,20(sp)
30003040:	01012903          	lw	s2,16(sp)
30003044:	00c12983          	lw	s3,12(sp)
30003048:	00078513          	mv	a0,a5
3000304c:	02010113          	addi	sp,sp,32
30003050:	00008067          	ret
30003054:	02052783          	lw	a5,32(a0)
30003058:	0075d593          	srli	a1,a1,0x7
3000305c:	00f585b3          	add	a1,a1,a5
30003060:	951ff0ef          	jal	ra,300029b0 <_ZL11move_windowP5FATFSm>
30003064:	fc0516e3          	bnez	a0,30003030 <_Z7get_fatP5FATFSm.part.5+0xcc>
30003068:	00241413          	slli	s0,s0,0x2
3000306c:	1fc47413          	andi	s0,s0,508
30003070:	03040713          	addi	a4,s0,48
30003074:	00e48733          	add	a4,s1,a4
30003078:	00374783          	lbu	a5,3(a4)
3000307c:	00274683          	lbu	a3,2(a4)
30003080:	00848433          	add	s0,s1,s0
30003084:	03044603          	lbu	a2,48(s0)
30003088:	00174703          	lbu	a4,1(a4)
3000308c:	01879793          	slli	a5,a5,0x18
30003090:	01069693          	slli	a3,a3,0x10
30003094:	00d7e7b3          	or	a5,a5,a3
30003098:	00c7e7b3          	or	a5,a5,a2
3000309c:	00871713          	slli	a4,a4,0x8
300030a0:	00e7e7b3          	or	a5,a5,a4
300030a4:	00479793          	slli	a5,a5,0x4
300030a8:	01c12083          	lw	ra,28(sp)
300030ac:	01812403          	lw	s0,24(sp)
300030b0:	0047d793          	srli	a5,a5,0x4
300030b4:	01412483          	lw	s1,20(sp)
300030b8:	01012903          	lw	s2,16(sp)
300030bc:	00c12983          	lw	s3,12(sp)
300030c0:	00078513          	mv	a0,a5
300030c4:	02010113          	addi	sp,sp,32
300030c8:	00008067          	ret
300030cc:	0204a783          	lw	a5,32(s1)
300030d0:	00190993          	addi	s3,s2,1
300030d4:	0099d593          	srli	a1,s3,0x9
300030d8:	1ff97913          	andi	s2,s2,511
300030dc:	01248933          	add	s2,s1,s2
300030e0:	00f585b3          	add	a1,a1,a5
300030e4:	00048513          	mv	a0,s1
300030e8:	03094903          	lbu	s2,48(s2)
300030ec:	8c5ff0ef          	jal	ra,300029b0 <_ZL11move_windowP5FATFSm>
300030f0:	f40510e3          	bnez	a0,30003030 <_Z7get_fatP5FATFSm.part.5+0xcc>
300030f4:	1ff9f993          	andi	s3,s3,511
300030f8:	013484b3          	add	s1,s1,s3
300030fc:	0304c783          	lbu	a5,48(s1)
30003100:	00147413          	andi	s0,s0,1
30003104:	00879793          	slli	a5,a5,0x8
30003108:	0127e7b3          	or	a5,a5,s2
3000310c:	f8041ee3          	bnez	s0,300030a8 <_Z7get_fatP5FATFSm.part.5+0x144>
30003110:	01479793          	slli	a5,a5,0x14
30003114:	0147d793          	srli	a5,a5,0x14
30003118:	e8dff06f          	j	30002fa4 <_Z7get_fatP5FATFSm.part.5+0x40>

3000311c <_ZL7dir_sdiP3DIRt>:
3000311c:	fe010113          	addi	sp,sp,-32
30003120:	00852783          	lw	a5,8(a0)
30003124:	01212823          	sw	s2,16(sp)
30003128:	00112e23          	sw	ra,28(sp)
3000312c:	00812c23          	sw	s0,24(sp)
30003130:	00912a23          	sw	s1,20(sp)
30003134:	01312623          	sw	s3,12(sp)
30003138:	01412423          	sw	s4,8(sp)
3000313c:	00b51323          	sh	a1,6(a0)
30003140:	00100713          	li	a4,1
30003144:	00050913          	mv	s2,a0
30003148:	08e78c63          	beq	a5,a4,300031e0 <_ZL7dir_sdiP3DIRt+0xc4>
3000314c:	00052503          	lw	a0,0(a0)
30003150:	01852703          	lw	a4,24(a0)
30003154:	08e7f663          	bgeu	a5,a4,300031e0 <_ZL7dir_sdiP3DIRt+0xc4>
30003158:	00058413          	mv	s0,a1
3000315c:	06079663          	bnez	a5,300031c8 <_ZL7dir_sdiP3DIRt+0xac>
30003160:	00054683          	lbu	a3,0(a0)
30003164:	00300793          	li	a5,3
30003168:	04f68c63          	beq	a3,a5,300031c0 <_ZL7dir_sdiP3DIRt+0xa4>
3000316c:	00092623          	sw	zero,12(s2)
30003170:	00855783          	lhu	a5,8(a0)
30003174:	06f47663          	bgeu	s0,a5,300031e0 <_ZL7dir_sdiP3DIRt+0xc4>
30003178:	02452783          	lw	a5,36(a0)
3000317c:	00445713          	srli	a4,s0,0x4
30003180:	00e787b3          	add	a5,a5,a4
30003184:	00f92823          	sw	a5,16(s2)
30003188:	00f47413          	andi	s0,s0,15
3000318c:	00541413          	slli	s0,s0,0x5
30003190:	03050513          	addi	a0,a0,48
30003194:	00850533          	add	a0,a0,s0
30003198:	01c12083          	lw	ra,28(sp)
3000319c:	01812403          	lw	s0,24(sp)
300031a0:	00a92a23          	sw	a0,20(s2)
300031a4:	01412483          	lw	s1,20(sp)
300031a8:	01012903          	lw	s2,16(sp)
300031ac:	00c12983          	lw	s3,12(sp)
300031b0:	00812a03          	lw	s4,8(sp)
300031b4:	00000513          	li	a0,0
300031b8:	02010113          	addi	sp,sp,32
300031bc:	00008067          	ret
300031c0:	02452783          	lw	a5,36(a0)
300031c4:	fa0784e3          	beqz	a5,3000316c <_ZL7dir_sdiP3DIRt+0x50>
300031c8:	00254483          	lbu	s1,2(a0)
300031cc:	00449493          	slli	s1,s1,0x4
300031d0:	06946a63          	bltu	s0,s1,30003244 <_ZL7dir_sdiP3DIRt+0x128>
300031d4:	00100693          	li	a3,1
300031d8:	00f6f463          	bgeu	a3,a5,300031e0 <_ZL7dir_sdiP3DIRt+0xc4>
300031dc:	02e7e463          	bltu	a5,a4,30003204 <_ZL7dir_sdiP3DIRt+0xe8>
300031e0:	00200513          	li	a0,2
300031e4:	01c12083          	lw	ra,28(sp)
300031e8:	01812403          	lw	s0,24(sp)
300031ec:	01412483          	lw	s1,20(sp)
300031f0:	01012903          	lw	s2,16(sp)
300031f4:	00c12983          	lw	s3,12(sp)
300031f8:	00812a03          	lw	s4,8(sp)
300031fc:	02010113          	addi	sp,sp,32
30003200:	00008067          	ret
30003204:	fff00993          	li	s3,-1
30003208:	00100a13          	li	s4,1
3000320c:	0080006f          	j	30003214 <_ZL7dir_sdiP3DIRt+0xf8>
30003210:	02946a63          	bltu	s0,s1,30003244 <_ZL7dir_sdiP3DIRt+0x128>
30003214:	00078593          	mv	a1,a5
30003218:	40940433          	sub	s0,s0,s1
3000321c:	d49ff0ef          	jal	ra,30002f64 <_Z7get_fatP5FATFSm.part.5>
30003220:	01041413          	slli	s0,s0,0x10
30003224:	00050793          	mv	a5,a0
30003228:	01045413          	srli	s0,s0,0x10
3000322c:	05350863          	beq	a0,s3,3000327c <_ZL7dir_sdiP3DIRt+0x160>
30003230:	faaa78e3          	bgeu	s4,a0,300031e0 <_ZL7dir_sdiP3DIRt+0xc4>
30003234:	00092503          	lw	a0,0(s2)
30003238:	01852703          	lw	a4,24(a0)
3000323c:	fce7eae3          	bltu	a5,a4,30003210 <_ZL7dir_sdiP3DIRt+0xf4>
30003240:	fa1ff06f          	j	300031e0 <_ZL7dir_sdiP3DIRt+0xc4>
30003244:	00f92623          	sw	a5,12(s2)
30003248:	01852683          	lw	a3,24(a0)
3000324c:	ffe78793          	addi	a5,a5,-2
30003250:	00000713          	li	a4,0
30003254:	ffe68693          	addi	a3,a3,-2
30003258:	00d7fa63          	bgeu	a5,a3,3000326c <_ZL7dir_sdiP3DIRt+0x150>
3000325c:	00254703          	lbu	a4,2(a0)
30003260:	02852683          	lw	a3,40(a0)
30003264:	02f707b3          	mul	a5,a4,a5
30003268:	00d78733          	add	a4,a5,a3
3000326c:	00445793          	srli	a5,s0,0x4
30003270:	00e78733          	add	a4,a5,a4
30003274:	00e92823          	sw	a4,16(s2)
30003278:	f11ff06f          	j	30003188 <_ZL7dir_sdiP3DIRt+0x6c>
3000327c:	00100513          	li	a0,1
30003280:	f65ff06f          	j	300031e4 <_ZL7dir_sdiP3DIRt+0xc8>

30003284 <_Z7put_fatP5FATFSmm.part.6>:
30003284:	fe010113          	addi	sp,sp,-32
30003288:	00812c23          	sw	s0,24(sp)
3000328c:	00912a23          	sw	s1,20(sp)
30003290:	01412423          	sw	s4,8(sp)
30003294:	00112e23          	sw	ra,28(sp)
30003298:	01212823          	sw	s2,16(sp)
3000329c:	01312623          	sw	s3,12(sp)
300032a0:	01512223          	sw	s5,4(sp)
300032a4:	01612023          	sw	s6,0(sp)
300032a8:	00054903          	lbu	s2,0(a0)
300032ac:	00200793          	li	a5,2
300032b0:	00050413          	mv	s0,a0
300032b4:	00058493          	mv	s1,a1
300032b8:	00060a13          	mv	s4,a2
300032bc:	04f90663          	beq	s2,a5,30003308 <_Z7put_fatP5FATFSmm.part.6+0x84>
300032c0:	00300793          	li	a5,3
300032c4:	0ef90863          	beq	s2,a5,300033b4 <_Z7put_fatP5FATFSmm.part.6+0x130>
300032c8:	00100793          	li	a5,1
300032cc:	00200993          	li	s3,2
300032d0:	06f90663          	beq	s2,a5,3000333c <_Z7put_fatP5FATFSmm.part.6+0xb8>
300032d4:	00100793          	li	a5,1
300032d8:	00f40223          	sb	a5,4(s0)
300032dc:	01c12083          	lw	ra,28(sp)
300032e0:	01812403          	lw	s0,24(sp)
300032e4:	00098513          	mv	a0,s3
300032e8:	01412483          	lw	s1,20(sp)
300032ec:	01012903          	lw	s2,16(sp)
300032f0:	00c12983          	lw	s3,12(sp)
300032f4:	00812a03          	lw	s4,8(sp)
300032f8:	00412a83          	lw	s5,4(sp)
300032fc:	00012b03          	lw	s6,0(sp)
30003300:	02010113          	addi	sp,sp,32
30003304:	00008067          	ret
30003308:	02052783          	lw	a5,32(a0)
3000330c:	0085d593          	srli	a1,a1,0x8
30003310:	00f585b3          	add	a1,a1,a5
30003314:	e9cff0ef          	jal	ra,300029b0 <_ZL11move_windowP5FATFSm>
30003318:	00050993          	mv	s3,a0
3000331c:	fa051ce3          	bnez	a0,300032d4 <_Z7put_fatP5FATFSmm.part.6+0x50>
30003320:	00149493          	slli	s1,s1,0x1
30003324:	1fe4f493          	andi	s1,s1,510
30003328:	009404b3          	add	s1,s0,s1
3000332c:	408a5793          	srai	a5,s4,0x8
30003330:	03448823          	sb	s4,48(s1)
30003334:	02f488a3          	sb	a5,49(s1)
30003338:	f9dff06f          	j	300032d4 <_Z7put_fatP5FATFSmm.part.6+0x50>
3000333c:	02052783          	lw	a5,32(a0)
30003340:	0015da93          	srli	s5,a1,0x1
30003344:	00ba8ab3          	add	s5,s5,a1
30003348:	009ad593          	srli	a1,s5,0x9
3000334c:	00f585b3          	add	a1,a1,a5
30003350:	e60ff0ef          	jal	ra,300029b0 <_ZL11move_windowP5FATFSm>
30003354:	00050993          	mv	s3,a0
30003358:	f6051ee3          	bnez	a0,300032d4 <_Z7put_fatP5FATFSmm.part.6+0x50>
3000335c:	02042783          	lw	a5,32(s0)
30003360:	001a8b13          	addi	s6,s5,1
30003364:	009b5593          	srli	a1,s6,0x9
30003368:	1ffafa93          	andi	s5,s5,511
3000336c:	0014f493          	andi	s1,s1,1
30003370:	00f585b3          	add	a1,a1,a5
30003374:	01540ab3          	add	s5,s0,s5
30003378:	08048e63          	beqz	s1,30003414 <_Z7put_fatP5FATFSmm.part.6+0x190>
3000337c:	030ac783          	lbu	a5,48(s5)
30003380:	000016b7          	lui	a3,0x1
30003384:	004a1713          	slli	a4,s4,0x4
30003388:	ff068693          	addi	a3,a3,-16 # ff0 <stackPointer-0x5d50>
3000338c:	00f7f793          	andi	a5,a5,15
30003390:	00d77733          	and	a4,a4,a3
30003394:	00e7e7b3          	or	a5,a5,a4
30003398:	02fa8823          	sb	a5,48(s5)
3000339c:	01240223          	sb	s2,4(s0)
300033a0:	00040513          	mv	a0,s0
300033a4:	e0cff0ef          	jal	ra,300029b0 <_ZL11move_windowP5FATFSm>
300033a8:	0a050263          	beqz	a0,3000344c <_Z7put_fatP5FATFSmm.part.6+0x1c8>
300033ac:	00050993          	mv	s3,a0
300033b0:	f25ff06f          	j	300032d4 <_Z7put_fatP5FATFSmm.part.6+0x50>
300033b4:	02052783          	lw	a5,32(a0)
300033b8:	0075d593          	srli	a1,a1,0x7
300033bc:	00f585b3          	add	a1,a1,a5
300033c0:	df0ff0ef          	jal	ra,300029b0 <_ZL11move_windowP5FATFSm>
300033c4:	00050993          	mv	s3,a0
300033c8:	f00516e3          	bnez	a0,300032d4 <_Z7put_fatP5FATFSmm.part.6+0x50>
300033cc:	00249493          	slli	s1,s1,0x2
300033d0:	1fc4f493          	andi	s1,s1,508
300033d4:	03048793          	addi	a5,s1,48
300033d8:	00f407b3          	add	a5,s0,a5
300033dc:	0037c603          	lbu	a2,3(a5)
300033e0:	f0000737          	lui	a4,0xf0000
300033e4:	009404b3          	add	s1,s0,s1
300033e8:	01861613          	slli	a2,a2,0x18
300033ec:	00e67633          	and	a2,a2,a4
300033f0:	01466a33          	or	s4,a2,s4
300033f4:	03448823          	sb	s4,48(s1)
300033f8:	408a5693          	srai	a3,s4,0x8
300033fc:	010a5713          	srli	a4,s4,0x10
30003400:	018a5a13          	srli	s4,s4,0x18
30003404:	00d780a3          	sb	a3,1(a5)
30003408:	00e78123          	sb	a4,2(a5)
3000340c:	014781a3          	sb	s4,3(a5)
30003410:	ec5ff06f          	j	300032d4 <_Z7put_fatP5FATFSmm.part.6+0x50>
30003414:	034a8823          	sb	s4,48(s5)
30003418:	01240223          	sb	s2,4(s0)
3000341c:	00040513          	mv	a0,s0
30003420:	d90ff0ef          	jal	ra,300029b0 <_ZL11move_windowP5FATFSm>
30003424:	f80514e3          	bnez	a0,300033ac <_Z7put_fatP5FATFSmm.part.6+0x128>
30003428:	1ffb7b13          	andi	s6,s6,511
3000342c:	01640b33          	add	s6,s0,s6
30003430:	030b4783          	lbu	a5,48(s6)
30003434:	008a5a13          	srli	s4,s4,0x8
30003438:	00fa7a13          	andi	s4,s4,15
3000343c:	ff07f793          	andi	a5,a5,-16
30003440:	0147ea33          	or	s4,a5,s4
30003444:	034b0823          	sb	s4,48(s6)
30003448:	e8dff06f          	j	300032d4 <_Z7put_fatP5FATFSmm.part.6+0x50>
3000344c:	1ffb7b13          	andi	s6,s6,511
30003450:	004a5a13          	srli	s4,s4,0x4
30003454:	0ffa7a13          	andi	s4,s4,255
30003458:	01640b33          	add	s6,s0,s6
3000345c:	034b0823          	sb	s4,48(s6)
30003460:	e75ff06f          	j	300032d4 <_Z7put_fatP5FATFSmm.part.6+0x50>

30003464 <_ZL8dir_nextP3DIRi.constprop.11>:
30003464:	fe010113          	addi	sp,sp,-32
30003468:	00812c23          	sw	s0,24(sp)
3000346c:	00655403          	lhu	s0,6(a0)
30003470:	00112e23          	sw	ra,28(sp)
30003474:	00912a23          	sw	s1,20(sp)
30003478:	00140413          	addi	s0,s0,1
3000347c:	01041413          	slli	s0,s0,0x10
30003480:	01212823          	sw	s2,16(sp)
30003484:	01312623          	sw	s3,12(sp)
30003488:	01045413          	srli	s0,s0,0x10
3000348c:	0e040063          	beqz	s0,3000356c <_ZL8dir_nextP3DIRi.constprop.11+0x108>
30003490:	01052703          	lw	a4,16(a0)
30003494:	0c070c63          	beqz	a4,3000356c <_ZL8dir_nextP3DIRi.constprop.11+0x108>
30003498:	00f47913          	andi	s2,s0,15
3000349c:	00050493          	mv	s1,a0
300034a0:	00052503          	lw	a0,0(a0)
300034a4:	02090c63          	beqz	s2,300034dc <_ZL8dir_nextP3DIRi.constprop.11+0x78>
300034a8:	03050793          	addi	a5,a0,48
300034ac:	00591913          	slli	s2,s2,0x5
300034b0:	012787b3          	add	a5,a5,s2
300034b4:	00849323          	sh	s0,6(s1)
300034b8:	00f4aa23          	sw	a5,20(s1)
300034bc:	00000513          	li	a0,0
300034c0:	01c12083          	lw	ra,28(sp)
300034c4:	01812403          	lw	s0,24(sp)
300034c8:	01412483          	lw	s1,20(sp)
300034cc:	01012903          	lw	s2,16(sp)
300034d0:	00c12983          	lw	s3,12(sp)
300034d4:	02010113          	addi	sp,sp,32
300034d8:	00008067          	ret
300034dc:	00c4a583          	lw	a1,12(s1)
300034e0:	00170713          	addi	a4,a4,1 # f0000001 <__bss_end__+0xbff00001>
300034e4:	00e4a823          	sw	a4,16(s1)
300034e8:	06058e63          	beqz	a1,30003564 <_ZL8dir_nextP3DIRi.constprop.11+0x100>
300034ec:	00254683          	lbu	a3,2(a0)
300034f0:	00445713          	srli	a4,s0,0x4
300034f4:	fff68693          	addi	a3,a3,-1
300034f8:	00e6f733          	and	a4,a3,a4
300034fc:	fa0716e3          	bnez	a4,300034a8 <_ZL8dir_nextP3DIRi.constprop.11+0x44>
30003500:	00100993          	li	s3,1
30003504:	08b9f463          	bgeu	s3,a1,3000358c <_ZL8dir_nextP3DIRi.constprop.11+0x128>
30003508:	01852703          	lw	a4,24(a0)
3000350c:	08e5f063          	bgeu	a1,a4,3000358c <_ZL8dir_nextP3DIRi.constprop.11+0x128>
30003510:	a55ff0ef          	jal	ra,30002f64 <_Z7get_fatP5FATFSm.part.5>
30003514:	00050713          	mv	a4,a0
30003518:	06a9fa63          	bgeu	s3,a0,3000358c <_ZL8dir_nextP3DIRi.constprop.11+0x128>
3000351c:	fff00793          	li	a5,-1
30003520:	00100513          	li	a0,1
30003524:	f8f70ee3          	beq	a4,a5,300034c0 <_ZL8dir_nextP3DIRi.constprop.11+0x5c>
30003528:	0004a503          	lw	a0,0(s1)
3000352c:	01852683          	lw	a3,24(a0)
30003530:	02d77e63          	bgeu	a4,a3,3000356c <_ZL8dir_nextP3DIRi.constprop.11+0x108>
30003534:	00e4a623          	sw	a4,12(s1)
30003538:	01852603          	lw	a2,24(a0)
3000353c:	ffe70713          	addi	a4,a4,-2
30003540:	00000693          	li	a3,0
30003544:	ffe60613          	addi	a2,a2,-2
30003548:	00c77a63          	bgeu	a4,a2,3000355c <_ZL8dir_nextP3DIRi.constprop.11+0xf8>
3000354c:	00254683          	lbu	a3,2(a0)
30003550:	02852603          	lw	a2,40(a0)
30003554:	02e68733          	mul	a4,a3,a4
30003558:	00c706b3          	add	a3,a4,a2
3000355c:	00d4a823          	sw	a3,16(s1)
30003560:	f49ff06f          	j	300034a8 <_ZL8dir_nextP3DIRi.constprop.11+0x44>
30003564:	00855703          	lhu	a4,8(a0)
30003568:	f4e460e3          	bltu	s0,a4,300034a8 <_ZL8dir_nextP3DIRi.constprop.11+0x44>
3000356c:	01c12083          	lw	ra,28(sp)
30003570:	01812403          	lw	s0,24(sp)
30003574:	01412483          	lw	s1,20(sp)
30003578:	01012903          	lw	s2,16(sp)
3000357c:	00c12983          	lw	s3,12(sp)
30003580:	00400513          	li	a0,4
30003584:	02010113          	addi	sp,sp,32
30003588:	00008067          	ret
3000358c:	00200513          	li	a0,2
30003590:	f31ff06f          	j	300034c0 <_ZL8dir_nextP3DIRi.constprop.11+0x5c>

30003594 <_ZL4syncP5FATFS>:
30003594:	fe010113          	addi	sp,sp,-32
30003598:	00812c23          	sw	s0,24(sp)
3000359c:	00112e23          	sw	ra,28(sp)
300035a0:	00912a23          	sw	s1,20(sp)
300035a4:	01212823          	sw	s2,16(sp)
300035a8:	01312623          	sw	s3,12(sp)
300035ac:	02c52483          	lw	s1,44(a0)
300035b0:	00050413          	mv	s0,a0
300035b4:	00048663          	beqz	s1,300035c0 <_ZL4syncP5FATFS+0x2c>
300035b8:	00454783          	lbu	a5,4(a0)
300035bc:	04079263          	bnez	a5,30003600 <_ZL4syncP5FATFS+0x6c>
300035c0:	00044703          	lbu	a4,0(s0)
300035c4:	00300793          	li	a5,3
300035c8:	0af70463          	beq	a4,a5,30003670 <_ZL4syncP5FATFS+0xdc>
300035cc:	00144503          	lbu	a0,1(s0)
300035d0:	00000613          	li	a2,0
300035d4:	00000593          	li	a1,0
300035d8:	9b9fe0ef          	jal	ra,30001f90 <disk_ioctl>
300035dc:	00a037b3          	snez	a5,a0
300035e0:	01c12083          	lw	ra,28(sp)
300035e4:	01812403          	lw	s0,24(sp)
300035e8:	01412483          	lw	s1,20(sp)
300035ec:	01012903          	lw	s2,16(sp)
300035f0:	00c12983          	lw	s3,12(sp)
300035f4:	00078513          	mv	a0,a5
300035f8:	02010113          	addi	sp,sp,32
300035fc:	00008067          	ret
30003600:	00154503          	lbu	a0,1(a0)
30003604:	03040993          	addi	s3,s0,48
30003608:	00100693          	li	a3,1
3000360c:	00048613          	mv	a2,s1
30003610:	00098593          	mv	a1,s3
30003614:	eb4fe0ef          	jal	ra,30001cc8 <disk_write>
30003618:	00100793          	li	a5,1
3000361c:	fc0512e3          	bnez	a0,300035e0 <_ZL4syncP5FATFS+0x4c>
30003620:	01c42703          	lw	a4,28(s0)
30003624:	02042683          	lw	a3,32(s0)
30003628:	00040223          	sb	zero,4(s0)
3000362c:	00d706b3          	add	a3,a4,a3
30003630:	f8d4f8e3          	bgeu	s1,a3,300035c0 <_ZL4syncP5FATFS+0x2c>
30003634:	00344903          	lbu	s2,3(s0)
30003638:	0127e663          	bltu	a5,s2,30003644 <_ZL4syncP5FATFS+0xb0>
3000363c:	f85ff06f          	j	300035c0 <_ZL4syncP5FATFS+0x2c>
30003640:	01c42703          	lw	a4,28(s0)
30003644:	00144503          	lbu	a0,1(s0)
30003648:	00e484b3          	add	s1,s1,a4
3000364c:	00100693          	li	a3,1
30003650:	00048613          	mv	a2,s1
30003654:	00098593          	mv	a1,s3
30003658:	e70fe0ef          	jal	ra,30001cc8 <disk_write>
3000365c:	fff90913          	addi	s2,s2,-1
30003660:	0ff97913          	andi	s2,s2,255
30003664:	00100793          	li	a5,1
30003668:	fcf91ce3          	bne	s2,a5,30003640 <_ZL4syncP5FATFS+0xac>
3000366c:	f55ff06f          	j	300035c0 <_ZL4syncP5FATFS+0x2c>
30003670:	00544783          	lbu	a5,5(s0)
30003674:	f4078ce3          	beqz	a5,300035cc <_ZL4syncP5FATFS+0x38>
30003678:	03040793          	addi	a5,s0,48
3000367c:	20000613          	li	a2,512
30003680:	00000593          	li	a1,0
30003684:	00078513          	mv	a0,a5
30003688:	02042623          	sw	zero,44(s0)
3000368c:	111080ef          	jal	ra,3000bf9c <memset>
30003690:	ffffb737          	lui	a4,0xffffb
30003694:	a5570713          	addi	a4,a4,-1451 # ffffaa55 <__bss_end__+0xcfefaa55>
30003698:	22e41723          	sh	a4,558(s0)
3000369c:	41615737          	lui	a4,0x41615
300036a0:	01042583          	lw	a1,16(s0)
300036a4:	00c42683          	lw	a3,12(s0)
300036a8:	25270713          	addi	a4,a4,594 # 41615252 <__bss_end__+0x11515252>
300036ac:	00050793          	mv	a5,a0
300036b0:	02e42823          	sw	a4,48(s0)
300036b4:	01442603          	lw	a2,20(s0)
300036b8:	00144503          	lbu	a0,1(s0)
300036bc:	61417737          	lui	a4,0x61417
300036c0:	27270713          	addi	a4,a4,626 # 61417272 <__bss_end__+0x31317272>
300036c4:	20b42c23          	sw	a1,536(s0)
300036c8:	20d42e23          	sw	a3,540(s0)
300036cc:	20e42a23          	sw	a4,532(s0)
300036d0:	00100693          	li	a3,1
300036d4:	00078593          	mv	a1,a5
300036d8:	df0fe0ef          	jal	ra,30001cc8 <disk_write>
300036dc:	000402a3          	sb	zero,5(s0)
300036e0:	eedff06f          	j	300035cc <_ZL4syncP5FATFS+0x38>

300036e4 <_ZL8dir_findP3DIR.part.7>:
300036e4:	fb010113          	addi	sp,sp,-80
300036e8:	03812423          	sw	s8,40(sp)
300036ec:	03912223          	sw	s9,36(sp)
300036f0:	00052c03          	lw	s8,0(a0)
300036f4:	01052c83          	lw	s9,16(a0)
300036f8:	03412c23          	sw	s4,56(sp)
300036fc:	00010a37          	lui	s4,0x10
30003700:	04912223          	sw	s1,68(sp)
30003704:	05212023          	sw	s2,64(sp)
30003708:	03312e23          	sw	s3,60(sp)
3000370c:	03512a23          	sw	s5,52(sp)
30003710:	03612823          	sw	s6,48(sp)
30003714:	03712623          	sw	s7,44(sp)
30003718:	04112623          	sw	ra,76(sp)
3000371c:	04812423          	sw	s0,72(sp)
30003720:	03a12023          	sw	s10,32(sp)
30003724:	01b12e23          	sw	s11,28(sp)
30003728:	00050b93          	mv	s7,a0
3000372c:	0ff00993          	li	s3,255
30003730:	0ff00493          	li	s1,255
30003734:	0e500913          	li	s2,229
30003738:	3000fb37          	lui	s6,0x3000f
3000373c:	fffa0a13          	addi	s4,s4,-1 # ffff <stackPointer+0x92bf>
30003740:	0fe00a93          	li	s5,254
30003744:	02cc2403          	lw	s0,44(s8)
30003748:	01940863          	beq	s0,s9,30003758 <_ZL8dir_findP3DIR.part.7+0x74>
3000374c:	004c4783          	lbu	a5,4(s8)
30003750:	08079663          	bnez	a5,300037dc <_ZL8dir_findP3DIR.part.7+0xf8>
30003754:	0e0c9c63          	bnez	s9,3000384c <_ZL8dir_findP3DIR.part.7+0x168>
30003758:	014ba403          	lw	s0,20(s7)
3000375c:	00044703          	lbu	a4,0(s0)
30003760:	10070a63          	beqz	a4,30003874 <_ZL8dir_findP3DIR.part.7+0x190>
30003764:	00b44783          	lbu	a5,11(s0)
30003768:	03f7f693          	andi	a3,a5,63
3000376c:	01270a63          	beq	a4,s2,30003780 <_ZL8dir_findP3DIR.part.7+0x9c>
30003770:	0087f793          	andi	a5,a5,8
30003774:	1e078663          	beqz	a5,30003960 <_ZL8dir_findP3DIR.part.7+0x27c>
30003778:	00f00793          	li	a5,15
3000377c:	12f68c63          	beq	a3,a5,300038b4 <_ZL8dir_findP3DIR.part.7+0x1d0>
30003780:	0ff00493          	li	s1,255
30003784:	006bd403          	lhu	s0,6(s7)
30003788:	00140413          	addi	s0,s0,1
3000378c:	01041413          	slli	s0,s0,0x10
30003790:	01045413          	srli	s0,s0,0x10
30003794:	0e040063          	beqz	s0,30003874 <_ZL8dir_findP3DIR.part.7+0x190>
30003798:	010bac83          	lw	s9,16(s7)
3000379c:	0c0c8c63          	beqz	s9,30003874 <_ZL8dir_findP3DIR.part.7+0x190>
300037a0:	00f47d13          	andi	s10,s0,15
300037a4:	000bac03          	lw	s8,0(s7)
300037a8:	000d1e63          	bnez	s10,300037c4 <_ZL8dir_findP3DIR.part.7+0xe0>
300037ac:	00cba583          	lw	a1,12(s7)
300037b0:	001c8c93          	addi	s9,s9,1
300037b4:	019ba823          	sw	s9,16(s7)
300037b8:	26059263          	bnez	a1,30003a1c <_ZL8dir_findP3DIR.part.7+0x338>
300037bc:	008c5783          	lhu	a5,8(s8)
300037c0:	0af47a63          	bgeu	s0,a5,30003874 <_ZL8dir_findP3DIR.part.7+0x190>
300037c4:	030c0793          	addi	a5,s8,48
300037c8:	005d1d13          	slli	s10,s10,0x5
300037cc:	01a787b3          	add	a5,a5,s10
300037d0:	008b9323          	sh	s0,6(s7)
300037d4:	00fbaa23          	sw	a5,20(s7)
300037d8:	f6dff06f          	j	30003744 <_ZL8dir_findP3DIR.part.7+0x60>
300037dc:	001c4503          	lbu	a0,1(s8)
300037e0:	030c0d93          	addi	s11,s8,48
300037e4:	00100693          	li	a3,1
300037e8:	00040613          	mv	a2,s0
300037ec:	000d8593          	mv	a1,s11
300037f0:	cd8fe0ef          	jal	ra,30001cc8 <disk_write>
300037f4:	22051063          	bnez	a0,30003a14 <_ZL8dir_findP3DIR.part.7+0x330>
300037f8:	01cc2783          	lw	a5,28(s8)
300037fc:	020c2703          	lw	a4,32(s8)
30003800:	000c0223          	sb	zero,4(s8)
30003804:	00e78733          	add	a4,a5,a4
30003808:	f4e476e3          	bgeu	s0,a4,30003754 <_ZL8dir_findP3DIR.part.7+0x70>
3000380c:	003c4d03          	lbu	s10,3(s8)
30003810:	00100713          	li	a4,1
30003814:	01a76663          	bltu	a4,s10,30003820 <_ZL8dir_findP3DIR.part.7+0x13c>
30003818:	f3dff06f          	j	30003754 <_ZL8dir_findP3DIR.part.7+0x70>
3000381c:	01cc2783          	lw	a5,28(s8)
30003820:	001c4503          	lbu	a0,1(s8)
30003824:	00f40433          	add	s0,s0,a5
30003828:	00100693          	li	a3,1
3000382c:	00040613          	mv	a2,s0
30003830:	000d8593          	mv	a1,s11
30003834:	c94fe0ef          	jal	ra,30001cc8 <disk_write>
30003838:	fffd0d13          	addi	s10,s10,-1
3000383c:	0ffd7d13          	andi	s10,s10,255
30003840:	00100793          	li	a5,1
30003844:	fcfd1ce3          	bne	s10,a5,3000381c <_ZL8dir_findP3DIR.part.7+0x138>
30003848:	f00c88e3          	beqz	s9,30003758 <_ZL8dir_findP3DIR.part.7+0x74>
3000384c:	001c4503          	lbu	a0,1(s8)
30003850:	00100693          	li	a3,1
30003854:	000c8613          	mv	a2,s9
30003858:	030c0593          	addi	a1,s8,48
3000385c:	b1cfe0ef          	jal	ra,30001b78 <disk_read>
30003860:	1a051a63          	bnez	a0,30003a14 <_ZL8dir_findP3DIR.part.7+0x330>
30003864:	039c2623          	sw	s9,44(s8)
30003868:	014ba403          	lw	s0,20(s7)
3000386c:	00044703          	lbu	a4,0(s0)
30003870:	ee071ae3          	bnez	a4,30003764 <_ZL8dir_findP3DIR.part.7+0x80>
30003874:	00400513          	li	a0,4
30003878:	04c12083          	lw	ra,76(sp)
3000387c:	04812403          	lw	s0,72(sp)
30003880:	04412483          	lw	s1,68(sp)
30003884:	04012903          	lw	s2,64(sp)
30003888:	03c12983          	lw	s3,60(sp)
3000388c:	03812a03          	lw	s4,56(sp)
30003890:	03412a83          	lw	s5,52(sp)
30003894:	03012b03          	lw	s6,48(sp)
30003898:	02c12b83          	lw	s7,44(sp)
3000389c:	02812c03          	lw	s8,40(sp)
300038a0:	02412c83          	lw	s9,36(sp)
300038a4:	02012d03          	lw	s10,32(sp)
300038a8:	01c12d83          	lw	s11,28(sp)
300038ac:	05010113          	addi	sp,sp,80
300038b0:	00008067          	ret
300038b4:	01cbac83          	lw	s9,28(s7)
300038b8:	ec0c86e3          	beqz	s9,30003784 <_ZL8dir_findP3DIR.part.7+0xa0>
300038bc:	04077793          	andi	a5,a4,64
300038c0:	2c078a63          	beqz	a5,30003b94 <_ZL8dir_findP3DIR.part.7+0x4b0>
300038c4:	006bd783          	lhu	a5,6(s7)
300038c8:	00d44983          	lbu	s3,13(s0)
300038cc:	0bf77493          	andi	s1,a4,191
300038d0:	02fb9023          	sh	a5,32(s7)
300038d4:	00d44783          	lbu	a5,13(s0)
300038d8:	eb3794e3          	bne	a5,s3,30003780 <_ZL8dir_findP3DIR.part.7+0x9c>
300038dc:	00044783          	lbu	a5,0(s0)
300038e0:	f0cb0d13          	addi	s10,s6,-244 # 3000ef0c <_ZL6LfnOfs>
300038e4:	00dd0c13          	addi	s8,s10,13
300038e8:	fbf7f793          	andi	a5,a5,-65
300038ec:	fff78793          	addi	a5,a5,-1
300038f0:	00179d93          	slli	s11,a5,0x1
300038f4:	00fd8db3          	add	s11,s11,a5
300038f8:	002d9d93          	slli	s11,s11,0x2
300038fc:	00fd8db3          	add	s11,s11,a5
30003900:	00100693          	li	a3,1
30003904:	0100006f          	j	30003914 <_ZL8dir_findP3DIR.part.7+0x230>
30003908:	e7451ce3          	bne	a0,s4,30003780 <_ZL8dir_findP3DIR.part.7+0x9c>
3000390c:	001d0d13          	addi	s10,s10,1
30003910:	298d0663          	beq	s10,s8,30003b9c <_ZL8dir_findP3DIR.part.7+0x4b8>
30003914:	000d4703          	lbu	a4,0(s10)
30003918:	00e40733          	add	a4,s0,a4
3000391c:	00174783          	lbu	a5,1(a4)
30003920:	00074703          	lbu	a4,0(a4)
30003924:	00879793          	slli	a5,a5,0x8
30003928:	00e7e533          	or	a0,a5,a4
3000392c:	fc068ee3          	beqz	a3,30003908 <_ZL8dir_findP3DIR.part.7+0x224>
30003930:	a71fe0ef          	jal	ra,300023a0 <ff_wtoupper>
30003934:	001d9793          	slli	a5,s11,0x1
30003938:	00a12623          	sw	a0,12(sp)
3000393c:	00fc87b3          	add	a5,s9,a5
30003940:	e5bae0e3          	bltu	s5,s11,30003780 <_ZL8dir_findP3DIR.part.7+0x9c>
30003944:	0007d503          	lhu	a0,0(a5)
30003948:	001d8d93          	addi	s11,s11,1
3000394c:	a55fe0ef          	jal	ra,300023a0 <ff_wtoupper>
30003950:	00c12703          	lw	a4,12(sp)
30003954:	00050693          	mv	a3,a0
30003958:	faa70ae3          	beq	a4,a0,3000390c <_ZL8dir_findP3DIR.part.7+0x228>
3000395c:	e25ff06f          	j	30003780 <_ZL8dir_findP3DIR.part.7+0x9c>
30003960:	00f00793          	li	a5,15
30003964:	f4f688e3          	beq	a3,a5,300038b4 <_ZL8dir_findP3DIR.part.7+0x1d0>
30003968:	12048863          	beqz	s1,30003a98 <_ZL8dir_findP3DIR.part.7+0x3b4>
3000396c:	018ba783          	lw	a5,24(s7)
30003970:	fff00713          	li	a4,-1
30003974:	02eb9023          	sh	a4,32(s7)
30003978:	00b7c703          	lbu	a4,11(a5)
3000397c:	0ff00493          	li	s1,255
30003980:	00177713          	andi	a4,a4,1
30003984:	e00710e3          	bnez	a4,30003784 <_ZL8dir_findP3DIR.part.7+0xa0>
30003988:	0007c683          	lbu	a3,0(a5)
3000398c:	00044703          	lbu	a4,0(s0)
30003990:	dee69ae3          	bne	a3,a4,30003784 <_ZL8dir_findP3DIR.part.7+0xa0>
30003994:	0017c683          	lbu	a3,1(a5)
30003998:	00144703          	lbu	a4,1(s0)
3000399c:	dee694e3          	bne	a3,a4,30003784 <_ZL8dir_findP3DIR.part.7+0xa0>
300039a0:	0027c683          	lbu	a3,2(a5)
300039a4:	00244703          	lbu	a4,2(s0)
300039a8:	dce69ee3          	bne	a3,a4,30003784 <_ZL8dir_findP3DIR.part.7+0xa0>
300039ac:	0037c683          	lbu	a3,3(a5)
300039b0:	00344703          	lbu	a4,3(s0)
300039b4:	dce698e3          	bne	a3,a4,30003784 <_ZL8dir_findP3DIR.part.7+0xa0>
300039b8:	0047c683          	lbu	a3,4(a5)
300039bc:	00444703          	lbu	a4,4(s0)
300039c0:	dce692e3          	bne	a3,a4,30003784 <_ZL8dir_findP3DIR.part.7+0xa0>
300039c4:	0057c683          	lbu	a3,5(a5)
300039c8:	00544703          	lbu	a4,5(s0)
300039cc:	dae69ce3          	bne	a3,a4,30003784 <_ZL8dir_findP3DIR.part.7+0xa0>
300039d0:	0067c683          	lbu	a3,6(a5)
300039d4:	00644703          	lbu	a4,6(s0)
300039d8:	dae696e3          	bne	a3,a4,30003784 <_ZL8dir_findP3DIR.part.7+0xa0>
300039dc:	0077c683          	lbu	a3,7(a5)
300039e0:	00744703          	lbu	a4,7(s0)
300039e4:	dae690e3          	bne	a3,a4,30003784 <_ZL8dir_findP3DIR.part.7+0xa0>
300039e8:	0087c683          	lbu	a3,8(a5)
300039ec:	00844703          	lbu	a4,8(s0)
300039f0:	d8e698e3          	bne	a3,a4,30003780 <_ZL8dir_findP3DIR.part.7+0x9c>
300039f4:	0097c683          	lbu	a3,9(a5)
300039f8:	00944703          	lbu	a4,9(s0)
300039fc:	d8e692e3          	bne	a3,a4,30003780 <_ZL8dir_findP3DIR.part.7+0x9c>
30003a00:	00a44703          	lbu	a4,10(s0)
30003a04:	00a7c783          	lbu	a5,10(a5)
30003a08:	d6f71ee3          	bne	a4,a5,30003784 <_ZL8dir_findP3DIR.part.7+0xa0>
30003a0c:	00000513          	li	a0,0
30003a10:	e69ff06f          	j	30003878 <_ZL8dir_findP3DIR.part.7+0x194>
30003a14:	00100513          	li	a0,1
30003a18:	e61ff06f          	j	30003878 <_ZL8dir_findP3DIR.part.7+0x194>
30003a1c:	002c4703          	lbu	a4,2(s8)
30003a20:	00445793          	srli	a5,s0,0x4
30003a24:	fff70713          	addi	a4,a4,-1
30003a28:	00f777b3          	and	a5,a4,a5
30003a2c:	d8079ce3          	bnez	a5,300037c4 <_ZL8dir_findP3DIR.part.7+0xe0>
30003a30:	00100c93          	li	s9,1
30003a34:	04bcfe63          	bgeu	s9,a1,30003a90 <_ZL8dir_findP3DIR.part.7+0x3ac>
30003a38:	018c2783          	lw	a5,24(s8)
30003a3c:	04f5fa63          	bgeu	a1,a5,30003a90 <_ZL8dir_findP3DIR.part.7+0x3ac>
30003a40:	000c0513          	mv	a0,s8
30003a44:	d20ff0ef          	jal	ra,30002f64 <_Z7get_fatP5FATFSm.part.5>
30003a48:	04acf463          	bgeu	s9,a0,30003a90 <_ZL8dir_findP3DIR.part.7+0x3ac>
30003a4c:	fff00793          	li	a5,-1
30003a50:	fcf502e3          	beq	a0,a5,30003a14 <_ZL8dir_findP3DIR.part.7+0x330>
30003a54:	000bac03          	lw	s8,0(s7)
30003a58:	018c2783          	lw	a5,24(s8)
30003a5c:	e0f57ce3          	bgeu	a0,a5,30003874 <_ZL8dir_findP3DIR.part.7+0x190>
30003a60:	00aba623          	sw	a0,12(s7)
30003a64:	018c2783          	lw	a5,24(s8)
30003a68:	ffe50513          	addi	a0,a0,-2
30003a6c:	00000c93          	li	s9,0
30003a70:	ffe78793          	addi	a5,a5,-2
30003a74:	00f57a63          	bgeu	a0,a5,30003a88 <_ZL8dir_findP3DIR.part.7+0x3a4>
30003a78:	002c4c83          	lbu	s9,2(s8)
30003a7c:	028c2783          	lw	a5,40(s8)
30003a80:	02ac8533          	mul	a0,s9,a0
30003a84:	00f50cb3          	add	s9,a0,a5
30003a88:	019ba823          	sw	s9,16(s7)
30003a8c:	d39ff06f          	j	300037c4 <_ZL8dir_findP3DIR.part.7+0xe0>
30003a90:	00200513          	li	a0,2
30003a94:	de5ff06f          	j	30003878 <_ZL8dir_findP3DIR.part.7+0x194>
30003a98:	00144683          	lbu	a3,1(s0)
30003a9c:	00771793          	slli	a5,a4,0x7
30003aa0:	40175713          	srai	a4,a4,0x1
30003aa4:	00d787b3          	add	a5,a5,a3
30003aa8:	00e78733          	add	a4,a5,a4
30003aac:	00244683          	lbu	a3,2(s0)
30003ab0:	0ff77793          	andi	a5,a4,255
30003ab4:	00779713          	slli	a4,a5,0x7
30003ab8:	00d70733          	add	a4,a4,a3
30003abc:	0017d793          	srli	a5,a5,0x1
30003ac0:	00f70733          	add	a4,a4,a5
30003ac4:	00344683          	lbu	a3,3(s0)
30003ac8:	0ff77713          	andi	a4,a4,255
30003acc:	00771793          	slli	a5,a4,0x7
30003ad0:	00d787b3          	add	a5,a5,a3
30003ad4:	00175713          	srli	a4,a4,0x1
30003ad8:	00e787b3          	add	a5,a5,a4
30003adc:	00444683          	lbu	a3,4(s0)
30003ae0:	0ff7f793          	andi	a5,a5,255
30003ae4:	00779713          	slli	a4,a5,0x7
30003ae8:	00d70733          	add	a4,a4,a3
30003aec:	0017d793          	srli	a5,a5,0x1
30003af0:	00f70733          	add	a4,a4,a5
30003af4:	00544683          	lbu	a3,5(s0)
30003af8:	0ff77713          	andi	a4,a4,255
30003afc:	00771793          	slli	a5,a4,0x7
30003b00:	00d787b3          	add	a5,a5,a3
30003b04:	00175713          	srli	a4,a4,0x1
30003b08:	00e787b3          	add	a5,a5,a4
30003b0c:	00644683          	lbu	a3,6(s0)
30003b10:	0ff7f793          	andi	a5,a5,255
30003b14:	00779713          	slli	a4,a5,0x7
30003b18:	00d70733          	add	a4,a4,a3
30003b1c:	0017d793          	srli	a5,a5,0x1
30003b20:	00f70733          	add	a4,a4,a5
30003b24:	00744683          	lbu	a3,7(s0)
30003b28:	0ff77713          	andi	a4,a4,255
30003b2c:	00771793          	slli	a5,a4,0x7
30003b30:	00d787b3          	add	a5,a5,a3
30003b34:	00175713          	srli	a4,a4,0x1
30003b38:	00e787b3          	add	a5,a5,a4
30003b3c:	00844683          	lbu	a3,8(s0)
30003b40:	0ff7f793          	andi	a5,a5,255
30003b44:	00779713          	slli	a4,a5,0x7
30003b48:	00d70733          	add	a4,a4,a3
30003b4c:	0017d793          	srli	a5,a5,0x1
30003b50:	00f70733          	add	a4,a4,a5
30003b54:	00944683          	lbu	a3,9(s0)
30003b58:	0ff77713          	andi	a4,a4,255
30003b5c:	00771793          	slli	a5,a4,0x7
30003b60:	00d787b3          	add	a5,a5,a3
30003b64:	00175713          	srli	a4,a4,0x1
30003b68:	00e787b3          	add	a5,a5,a4
30003b6c:	00a44683          	lbu	a3,10(s0)
30003b70:	0ff7f793          	andi	a5,a5,255
30003b74:	00779713          	slli	a4,a5,0x7
30003b78:	00d70733          	add	a4,a4,a3
30003b7c:	0017d793          	srli	a5,a5,0x1
30003b80:	00f707b3          	add	a5,a4,a5
30003b84:	0ff7f793          	andi	a5,a5,255
30003b88:	df3792e3          	bne	a5,s3,3000396c <_ZL8dir_findP3DIR.part.7+0x288>
30003b8c:	00000513          	li	a0,0
30003b90:	ce9ff06f          	j	30003878 <_ZL8dir_findP3DIR.part.7+0x194>
30003b94:	be9716e3          	bne	a4,s1,30003780 <_ZL8dir_findP3DIR.part.7+0x9c>
30003b98:	d3dff06f          	j	300038d4 <_ZL8dir_findP3DIR.part.7+0x1f0>
30003b9c:	00044783          	lbu	a5,0(s0)
30003ba0:	0407f793          	andi	a5,a5,64
30003ba4:	00078c63          	beqz	a5,30003bbc <_ZL8dir_findP3DIR.part.7+0x4d8>
30003ba8:	00068a63          	beqz	a3,30003bbc <_ZL8dir_findP3DIR.part.7+0x4d8>
30003bac:	001d9d93          	slli	s11,s11,0x1
30003bb0:	01bc8cb3          	add	s9,s9,s11
30003bb4:	000cd783          	lhu	a5,0(s9)
30003bb8:	bc0794e3          	bnez	a5,30003780 <_ZL8dir_findP3DIR.part.7+0x9c>
30003bbc:	fff48493          	addi	s1,s1,-1
30003bc0:	0ff4f493          	andi	s1,s1,255
30003bc4:	bc1ff06f          	j	30003784 <_ZL8dir_findP3DIR.part.7+0xa0>

30003bc8 <_ZL11follow_pathP3DIRPKc>:
30003bc8:	fb010113          	addi	sp,sp,-80
30003bcc:	03412c23          	sw	s4,56(sp)
30003bd0:	01b12e23          	sw	s11,28(sp)
30003bd4:	04112623          	sw	ra,76(sp)
30003bd8:	04812423          	sw	s0,72(sp)
30003bdc:	04912223          	sw	s1,68(sp)
30003be0:	05212023          	sw	s2,64(sp)
30003be4:	03312e23          	sw	s3,60(sp)
30003be8:	03512a23          	sw	s5,52(sp)
30003bec:	03612823          	sw	s6,48(sp)
30003bf0:	03712623          	sw	s7,44(sp)
30003bf4:	03812423          	sw	s8,40(sp)
30003bf8:	03912223          	sw	s9,36(sp)
30003bfc:	03a12023          	sw	s10,32(sp)
30003c00:	0005c703          	lbu	a4,0(a1)
30003c04:	02f00693          	li	a3,47
30003c08:	00058a13          	mv	s4,a1
30003c0c:	00050d93          	mv	s11,a0
30003c10:	12d70063          	beq	a4,a3,30003d30 <_ZL11follow_pathP3DIRPKc+0x168>
30003c14:	05c00693          	li	a3,92
30003c18:	10d70c63          	beq	a4,a3,30003d30 <_ZL11follow_pathP3DIRPKc+0x168>
30003c1c:	000da423          	sw	zero,8(s11)
30003c20:	000a4683          	lbu	a3,0(s4)
30003c24:	01f00713          	li	a4,31
30003c28:	10d77e63          	bgeu	a4,a3,30003d44 <_ZL11follow_pathP3DIRPKc+0x17c>
30003c2c:	3000f9b7          	lui	s3,0x3000f
30003c30:	f0c98793          	addi	a5,s3,-244 # 3000ef0c <_ZL6LfnOfs>
30003c34:	02f00493          	li	s1,47
30003c38:	00f12623          	sw	a5,12(sp)
30003c3c:	05c00713          	li	a4,92
30003c40:	000a4503          	lbu	a0,0(s4)
30003c44:	00950463          	beq	a0,s1,30003c4c <_ZL11follow_pathP3DIRPKc+0x84>
30003c48:	00e51663          	bne	a0,a4,30003c54 <_ZL11follow_pathP3DIRPKc+0x8c>
30003c4c:	001a0a13          	addi	s4,s4,1
30003c50:	ff1ff06f          	j	30003c40 <_ZL11follow_pathP3DIRPKc+0x78>
30003c54:	01051513          	slli	a0,a0,0x10
30003c58:	01055513          	srli	a0,a0,0x10
30003c5c:	01f00693          	li	a3,31
30003c60:	01cda983          	lw	s3,28(s11)
30003c64:	08a6f663          	bgeu	a3,a0,30003cf0 <_ZL11follow_pathP3DIRPKc+0x128>
30003c68:	08950463          	beq	a0,s1,30003cf0 <_ZL11follow_pathP3DIRPKc+0x128>
30003c6c:	08e50263          	beq	a0,a4,30003cf0 <_ZL11follow_pathP3DIRPKc+0x128>
30003c70:	00098913          	mv	s2,s3
30003c74:	00098b13          	mv	s6,s3
30003c78:	00100413          	li	s0,1
30003c7c:	07f00d13          	li	s10,127
30003c80:	02200c93          	li	s9,34
30003c84:	01f00c13          	li	s8,31
30003c88:	05c00b93          	li	s7,92
30003c8c:	0300006f          	j	30003cbc <_ZL11follow_pathP3DIRPKc+0xf4>
30003c90:	00140713          	addi	a4,s0,1
30003c94:	00ab1023          	sh	a0,0(s6)
30003c98:	00ea0ab3          	add	s5,s4,a4
30003c9c:	fffac503          	lbu	a0,-1(s5)
30003ca0:	3cac7463          	bgeu	s8,a0,30004068 <_ZL11follow_pathP3DIRPKc+0x4a0>
30003ca4:	0a950a63          	beq	a0,s1,30003d58 <_ZL11follow_pathP3DIRPKc+0x190>
30003ca8:	0b750863          	beq	a0,s7,30003d58 <_ZL11follow_pathP3DIRPKc+0x190>
30003cac:	10000793          	li	a5,256
30003cb0:	002b0b13          	addi	s6,s6,2
30003cb4:	02f70e63          	beq	a4,a5,30003cf0 <_ZL11follow_pathP3DIRPKc+0x128>
30003cb8:	00070413          	mv	s0,a4
30003cbc:	00100593          	li	a1,1
30003cc0:	e68fe0ef          	jal	ra,30002328 <ff_convert>
30003cc4:	02050663          	beqz	a0,30003cf0 <_ZL11follow_pathP3DIRPKc+0x128>
30003cc8:	fcad64e3          	bltu	s10,a0,30003c90 <_ZL11follow_pathP3DIRPKc+0xc8>
30003ccc:	03950263          	beq	a0,s9,30003cf0 <_ZL11follow_pathP3DIRPKc+0x128>
30003cd0:	3000d7b7          	lui	a5,0x3000d
30003cd4:	5fd78693          	addi	a3,a5,1533 # 3000d5fd <__clzsi2+0x10d>
30003cd8:	02a00713          	li	a4,42
30003cdc:	00c0006f          	j	30003ce8 <_ZL11follow_pathP3DIRPKc+0x120>
30003ce0:	0006c703          	lbu	a4,0(a3)
30003ce4:	fa0706e3          	beqz	a4,30003c90 <_ZL11follow_pathP3DIRPKc+0xc8>
30003ce8:	00168693          	addi	a3,a3,1
30003cec:	fee51ae3          	bne	a0,a4,30003ce0 <_ZL11follow_pathP3DIRPKc+0x118>
30003cf0:	00600513          	li	a0,6
30003cf4:	04c12083          	lw	ra,76(sp)
30003cf8:	04812403          	lw	s0,72(sp)
30003cfc:	04412483          	lw	s1,68(sp)
30003d00:	04012903          	lw	s2,64(sp)
30003d04:	03c12983          	lw	s3,60(sp)
30003d08:	03812a03          	lw	s4,56(sp)
30003d0c:	03412a83          	lw	s5,52(sp)
30003d10:	03012b03          	lw	s6,48(sp)
30003d14:	02c12b83          	lw	s7,44(sp)
30003d18:	02812c03          	lw	s8,40(sp)
30003d1c:	02412c83          	lw	s9,36(sp)
30003d20:	02012d03          	lw	s10,32(sp)
30003d24:	01c12d83          	lw	s11,28(sp)
30003d28:	05010113          	addi	sp,sp,80
30003d2c:	00008067          	ret
30003d30:	001a0a13          	addi	s4,s4,1
30003d34:	000da423          	sw	zero,8(s11)
30003d38:	000a4683          	lbu	a3,0(s4)
30003d3c:	01f00713          	li	a4,31
30003d40:	eed766e3          	bltu	a4,a3,30003c2c <_ZL11follow_pathP3DIRPKc+0x64>
30003d44:	00000593          	li	a1,0
30003d48:	000d8513          	mv	a0,s11
30003d4c:	bd0ff0ef          	jal	ra,3000311c <_ZL7dir_sdiP3DIRt>
30003d50:	000daa23          	sw	zero,20(s11)
30003d54:	fa1ff06f          	j	30003cf4 <_ZL11follow_pathP3DIRPKc+0x12c>
30003d58:	00000b93          	li	s7,0
30003d5c:	00141793          	slli	a5,s0,0x1
30003d60:	00f987b3          	add	a5,s3,a5
30003d64:	02000593          	li	a1,32
30003d68:	02e00693          	li	a3,46
30003d6c:	ffe7d703          	lhu	a4,-2(a5)
30003d70:	ffe78793          	addi	a5,a5,-2
30003d74:	00b70463          	beq	a4,a1,30003d7c <_ZL11follow_pathP3DIRPKc+0x1b4>
30003d78:	00d71863          	bne	a4,a3,30003d88 <_ZL11follow_pathP3DIRPKc+0x1c0>
30003d7c:	fff40413          	addi	s0,s0,-1
30003d80:	fe0416e3          	bnez	s0,30003d6c <_ZL11follow_pathP3DIRPKc+0x1a4>
30003d84:	f6dff06f          	j	30003cf0 <_ZL11follow_pathP3DIRPKc+0x128>
30003d88:	018da783          	lw	a5,24(s11)
30003d8c:	00141713          	slli	a4,s0,0x1
30003d90:	00e98733          	add	a4,s3,a4
30003d94:	00071023          	sh	zero,0(a4)
30003d98:	02000693          	li	a3,32
30003d9c:	00d780a3          	sb	a3,1(a5)
30003da0:	00d78123          	sb	a3,2(a5)
30003da4:	00d781a3          	sb	a3,3(a5)
30003da8:	00d78223          	sb	a3,4(a5)
30003dac:	00d782a3          	sb	a3,5(a5)
30003db0:	00d78323          	sb	a3,6(a5)
30003db4:	00d783a3          	sb	a3,7(a5)
30003db8:	00d78423          	sb	a3,8(a5)
30003dbc:	00d784a3          	sb	a3,9(a5)
30003dc0:	00d78523          	sb	a3,10(a5)
30003dc4:	00b78023          	sb	a1,0(a5)
30003dc8:	00000b13          	li	s6,0
30003dcc:	02000693          	li	a3,32
30003dd0:	02e00793          	li	a5,46
30003dd4:	00095503          	lhu	a0,0(s2)
30003dd8:	00290913          	addi	s2,s2,2
30003ddc:	00d50463          	beq	a0,a3,30003de4 <_ZL11follow_pathP3DIRPKc+0x21c>
30003de0:	00f51663          	bne	a0,a5,30003dec <_ZL11follow_pathP3DIRPKc+0x224>
30003de4:	001b0b13          	addi	s6,s6,1
30003de8:	fedff06f          	j	30003dd4 <_ZL11follow_pathP3DIRPKc+0x20c>
30003dec:	000b0463          	beqz	s6,30003df4 <_ZL11follow_pathP3DIRPKc+0x22c>
30003df0:	003beb93          	ori	s7,s7,3
30003df4:	00070793          	mv	a5,a4
30003df8:	02e00693          	li	a3,46
30003dfc:	ffe7d703          	lhu	a4,-2(a5)
30003e00:	ffe78793          	addi	a5,a5,-2
30003e04:	00d70663          	beq	a4,a3,30003e10 <_ZL11follow_pathP3DIRPKc+0x248>
30003e08:	fff40413          	addi	s0,s0,-1
30003e0c:	fe0418e3          	bnez	s0,30003dfc <_ZL11follow_pathP3DIRPKc+0x234>
30003e10:	001b0b13          	addi	s6,s6,1
30003e14:	28050663          	beqz	a0,300040a0 <_ZL11follow_pathP3DIRPKc+0x4d8>
30003e18:	00000c93          	li	s9,0
30003e1c:	00800c13          	li	s8,8
30003e20:	00000d13          	li	s10,0
30003e24:	02000813          	li	a6,32
30003e28:	02e00693          	li	a3,46
30003e2c:	00b00a13          	li	s4,11
30003e30:	07f00913          	li	s2,127
30003e34:	07050863          	beq	a0,a6,30003ea4 <_ZL11follow_pathP3DIRPKc+0x2dc>
30003e38:	06d50463          	beq	a0,a3,30003ea0 <_ZL11follow_pathP3DIRPKc+0x2d8>
30003e3c:	178d7063          	bgeu	s10,s8,30003f9c <_ZL11follow_pathP3DIRPKc+0x3d4>
30003e40:	15640063          	beq	s0,s6,30003f80 <_ZL11follow_pathP3DIRPKc+0x3b8>
30003e44:	1ea96063          	bltu	s2,a0,30004024 <_ZL11follow_pathP3DIRPKc+0x45c>
30003e48:	02b00793          	li	a5,43
30003e4c:	20f50063          	beq	a0,a5,3000404c <_ZL11follow_pathP3DIRPKc+0x484>
30003e50:	3000d7b7          	lui	a5,0x3000d
30003e54:	60978793          	addi	a5,a5,1545 # 3000d609 <__clzsi2+0x119>
30003e58:	02c00713          	li	a4,44
30003e5c:	00178793          	addi	a5,a5,1
30003e60:	1ea70663          	beq	a4,a0,3000404c <_ZL11follow_pathP3DIRPKc+0x484>
30003e64:	0007c703          	lbu	a4,0(a5)
30003e68:	fe071ae3          	bnez	a4,30003e5c <_ZL11follow_pathP3DIRPKc+0x294>
30003e6c:	fbf50793          	addi	a5,a0,-65
30003e70:	01079793          	slli	a5,a5,0x10
30003e74:	0107d793          	srli	a5,a5,0x10
30003e78:	01900713          	li	a4,25
30003e7c:	1ef77a63          	bgeu	a4,a5,30004070 <_ZL11follow_pathP3DIRPKc+0x4a8>
30003e80:	f9f50793          	addi	a5,a0,-97
30003e84:	01079793          	slli	a5,a5,0x10
30003e88:	0107d793          	srli	a5,a5,0x10
30003e8c:	00f76663          	bltu	a4,a5,30003e98 <_ZL11follow_pathP3DIRPKc+0x2d0>
30003e90:	fe050513          	addi	a0,a0,-32
30003e94:	001cec93          	ori	s9,s9,1
30003e98:	0ff57513          	andi	a0,a0,255
30003e9c:	1b80006f          	j	30004054 <_ZL11follow_pathP3DIRPKc+0x48c>
30003ea0:	0f640063          	beq	s0,s6,30003f80 <_ZL11follow_pathP3DIRPKc+0x3b8>
30003ea4:	003beb93          	ori	s7,s7,3
30003ea8:	001b1793          	slli	a5,s6,0x1
30003eac:	00f987b3          	add	a5,s3,a5
30003eb0:	0007d503          	lhu	a0,0(a5)
30003eb4:	001b0b13          	addi	s6,s6,1
30003eb8:	f6051ee3          	bnez	a0,30003e34 <_ZL11follow_pathP3DIRPKc+0x26c>
30003ebc:	018da783          	lw	a5,24(s11)
30003ec0:	0e500713          	li	a4,229
30003ec4:	0007c683          	lbu	a3,0(a5)
30003ec8:	0ee68a63          	beq	a3,a4,30003fbc <_ZL11follow_pathP3DIRPKc+0x3f4>
30003ecc:	00800713          	li	a4,8
30003ed0:	10ec0063          	beq	s8,a4,30003fd0 <_ZL11follow_pathP3DIRPKc+0x408>
30003ed4:	00ccf713          	andi	a4,s9,12
30003ed8:	00c00693          	li	a3,12
30003edc:	10d70863          	beq	a4,a3,30003fec <_ZL11follow_pathP3DIRPKc+0x424>
30003ee0:	003cfc93          	andi	s9,s9,3
30003ee4:	00300693          	li	a3,3
30003ee8:	10dc8263          	beq	s9,a3,30003fec <_ZL11follow_pathP3DIRPKc+0x424>
30003eec:	002bf693          	andi	a3,s7,2
30003ef0:	00069e63          	bnez	a3,30003f0c <_ZL11follow_pathP3DIRPKc+0x344>
30003ef4:	00100693          	li	a3,1
30003ef8:	00dc9463          	bne	s9,a3,30003f00 <_ZL11follow_pathP3DIRPKc+0x338>
30003efc:	010beb93          	ori	s7,s7,16
30003f00:	00400693          	li	a3,4
30003f04:	00d71463          	bne	a4,a3,30003f0c <_ZL11follow_pathP3DIRPKc+0x344>
30003f08:	008beb93          	ori	s7,s7,8
30003f0c:	017785a3          	sb	s7,11(a5)
30003f10:	00000593          	li	a1,0
30003f14:	000d8513          	mv	a0,s11
30003f18:	a04ff0ef          	jal	ra,3000311c <_ZL7dir_sdiP3DIRt>
30003f1c:	0e051463          	bnez	a0,30004004 <_ZL11follow_pathP3DIRPKc+0x43c>
30003f20:	000d8513          	mv	a0,s11
30003f24:	fc0ff0ef          	jal	ra,300036e4 <_ZL8dir_findP3DIR.part.7>
30003f28:	018da783          	lw	a5,24(s11)
30003f2c:	00b7c783          	lbu	a5,11(a5)
30003f30:	0c051e63          	bnez	a0,3000400c <_ZL11follow_pathP3DIRPKc+0x444>
30003f34:	0047f793          	andi	a5,a5,4
30003f38:	da079ee3          	bnez	a5,30003cf4 <_ZL11follow_pathP3DIRPKc+0x12c>
30003f3c:	014da703          	lw	a4,20(s11)
30003f40:	00b74783          	lbu	a5,11(a4)
30003f44:	0107f793          	andi	a5,a5,16
30003f48:	0c078a63          	beqz	a5,3000401c <_ZL11follow_pathP3DIRPKc+0x454>
30003f4c:	01574783          	lbu	a5,21(a4)
30003f50:	01474583          	lbu	a1,20(a4)
30003f54:	01b74683          	lbu	a3,27(a4)
30003f58:	01a74603          	lbu	a2,26(a4)
30003f5c:	00879793          	slli	a5,a5,0x8
30003f60:	00b7e7b3          	or	a5,a5,a1
30003f64:	00869713          	slli	a4,a3,0x8
30003f68:	01079793          	slli	a5,a5,0x10
30003f6c:	00c76733          	or	a4,a4,a2
30003f70:	00e7e7b3          	or	a5,a5,a4
30003f74:	00fda423          	sw	a5,8(s11)
30003f78:	000a8a13          	mv	s4,s5
30003f7c:	cc1ff06f          	j	30003c3c <_ZL11follow_pathP3DIRPKc+0x74>
30003f80:	0f4c0e63          	beq	s8,s4,3000407c <_ZL11follow_pathP3DIRPKc+0x4b4>
30003f84:	002c9c93          	slli	s9,s9,0x2
30003f88:	0ffcfc93          	andi	s9,s9,255
30003f8c:	00040b13          	mv	s6,s0
30003f90:	00b00c13          	li	s8,11
30003f94:	00800d13          	li	s10,8
30003f98:	f11ff06f          	j	30003ea8 <_ZL11follow_pathP3DIRPKc+0x2e0>
30003f9c:	0f4c0063          	beq	s8,s4,3000407c <_ZL11follow_pathP3DIRPKc+0x4b4>
30003fa0:	ff6402e3          	beq	s0,s6,30003f84 <_ZL11follow_pathP3DIRPKc+0x3bc>
30003fa4:	003beb93          	ori	s7,s7,3
30003fa8:	fd647ee3          	bgeu	s0,s6,30003f84 <_ZL11follow_pathP3DIRPKc+0x3bc>
30003fac:	018da783          	lw	a5,24(s11)
30003fb0:	0e500713          	li	a4,229
30003fb4:	0007c683          	lbu	a3,0(a5)
30003fb8:	f0e69ae3          	bne	a3,a4,30003ecc <_ZL11follow_pathP3DIRPKc+0x304>
30003fbc:	00500713          	li	a4,5
30003fc0:	00e78023          	sb	a4,0(a5)
30003fc4:	00800713          	li	a4,8
30003fc8:	018da783          	lw	a5,24(s11)
30003fcc:	f0ec14e3          	bne	s8,a4,30003ed4 <_ZL11follow_pathP3DIRPKc+0x30c>
30003fd0:	002c9c93          	slli	s9,s9,0x2
30003fd4:	00ccf713          	andi	a4,s9,12
30003fd8:	00c00693          	li	a3,12
30003fdc:	00d70863          	beq	a4,a3,30003fec <_ZL11follow_pathP3DIRPKc+0x424>
30003fe0:	002bf693          	andi	a3,s7,2
30003fe4:	f0068ee3          	beqz	a3,30003f00 <_ZL11follow_pathP3DIRPKc+0x338>
30003fe8:	f25ff06f          	j	30003f0c <_ZL11follow_pathP3DIRPKc+0x344>
30003fec:	002beb93          	ori	s7,s7,2
30003ff0:	017785a3          	sb	s7,11(a5)
30003ff4:	00000593          	li	a1,0
30003ff8:	000d8513          	mv	a0,s11
30003ffc:	920ff0ef          	jal	ra,3000311c <_ZL7dir_sdiP3DIRt>
30004000:	f20500e3          	beqz	a0,30003f20 <_ZL11follow_pathP3DIRPKc+0x358>
30004004:	018da783          	lw	a5,24(s11)
30004008:	00b7c783          	lbu	a5,11(a5)
3000400c:	00400713          	li	a4,4
30004010:	cee512e3          	bne	a0,a4,30003cf4 <_ZL11follow_pathP3DIRPKc+0x12c>
30004014:	0047f793          	andi	a5,a5,4
30004018:	cc079ee3          	bnez	a5,30003cf4 <_ZL11follow_pathP3DIRPKc+0x12c>
3000401c:	00500513          	li	a0,5
30004020:	cd5ff06f          	j	30003cf4 <_ZL11follow_pathP3DIRPKc+0x12c>
30004024:	00000593          	li	a1,0
30004028:	b00fe0ef          	jal	ra,30002328 <ff_convert>
3000402c:	002beb93          	ori	s7,s7,2
30004030:	02000813          	li	a6,32
30004034:	02e00693          	li	a3,46
30004038:	00050a63          	beqz	a0,3000404c <_ZL11follow_pathP3DIRPKc+0x484>
3000403c:	00c12783          	lw	a5,12(sp)
30004040:	00a78533          	add	a0,a5,a0
30004044:	f9054503          	lbu	a0,-112(a0)
30004048:	e00510e3          	bnez	a0,30003e48 <_ZL11follow_pathP3DIRPKc+0x280>
3000404c:	003beb93          	ori	s7,s7,3
30004050:	05f00513          	li	a0,95
30004054:	018da783          	lw	a5,24(s11)
30004058:	01a787b3          	add	a5,a5,s10
3000405c:	00a78023          	sb	a0,0(a5)
30004060:	001d0d13          	addi	s10,s10,1
30004064:	e45ff06f          	j	30003ea8 <_ZL11follow_pathP3DIRPKc+0x2e0>
30004068:	00400b93          	li	s7,4
3000406c:	cf1ff06f          	j	30003d5c <_ZL11follow_pathP3DIRPKc+0x194>
30004070:	002cec93          	ori	s9,s9,2
30004074:	0ff57513          	andi	a0,a0,255
30004078:	fddff06f          	j	30004054 <_ZL11follow_pathP3DIRPKc+0x48c>
3000407c:	018da783          	lw	a5,24(s11)
30004080:	0e500713          	li	a4,229
30004084:	003beb93          	ori	s7,s7,3
30004088:	0007c683          	lbu	a3,0(a5)
3000408c:	e4e694e3          	bne	a3,a4,30003ed4 <_ZL11follow_pathP3DIRPKc+0x30c>
30004090:	00500713          	li	a4,5
30004094:	00e78023          	sb	a4,0(a5)
30004098:	018da783          	lw	a5,24(s11)
3000409c:	e39ff06f          	j	30003ed4 <_ZL11follow_pathP3DIRPKc+0x30c>
300040a0:	018da783          	lw	a5,24(s11)
300040a4:	0e500713          	li	a4,229
300040a8:	0007c683          	lbu	a3,0(a5)
300040ac:	00e68663          	beq	a3,a4,300040b8 <_ZL11follow_pathP3DIRPKc+0x4f0>
300040b0:	00000713          	li	a4,0
300040b4:	f2dff06f          	j	30003fe0 <_ZL11follow_pathP3DIRPKc+0x418>
300040b8:	00800c13          	li	s8,8
300040bc:	00000c93          	li	s9,0
300040c0:	efdff06f          	j	30003fbc <_ZL11follow_pathP3DIRPKc+0x3f4>

300040c4 <_ZL8dir_readP3DIR>:
300040c4:	fb010113          	addi	sp,sp,-80
300040c8:	03912223          	sw	s9,36(sp)
300040cc:	01052c83          	lw	s9,16(a0)
300040d0:	01b12e23          	sw	s11,28(sp)
300040d4:	04112623          	sw	ra,76(sp)
300040d8:	04812423          	sw	s0,72(sp)
300040dc:	04912223          	sw	s1,68(sp)
300040e0:	05212023          	sw	s2,64(sp)
300040e4:	03312e23          	sw	s3,60(sp)
300040e8:	03412c23          	sw	s4,56(sp)
300040ec:	03512a23          	sw	s5,52(sp)
300040f0:	03612823          	sw	s6,48(sp)
300040f4:	03712623          	sw	s7,44(sp)
300040f8:	03812423          	sw	s8,40(sp)
300040fc:	03a12023          	sw	s10,32(sp)
30004100:	00050d93          	mv	s11,a0
30004104:	2a0c8463          	beqz	s9,300043ac <_ZL8dir_readP3DIR+0x2e8>
30004108:	00010ab7          	lui	s5,0x10
3000410c:	00052d03          	lw	s10,0(a0)
30004110:	fffa8793          	addi	a5,s5,-1 # ffff <stackPointer+0x92bf>
30004114:	0ff00b13          	li	s6,255
30004118:	0ff00493          	li	s1,255
3000411c:	0e500913          	li	s2,229
30004120:	0ff00b93          	li	s7,255
30004124:	02e00993          	li	s3,46
30004128:	00f12623          	sw	a5,12(sp)
3000412c:	00f00a13          	li	s4,15
30004130:	02cd2403          	lw	s0,44(s10)
30004134:	028c8663          	beq	s9,s0,30004160 <_ZL8dir_readP3DIR+0x9c>
30004138:	004d4703          	lbu	a4,4(s10)
3000413c:	001d4503          	lbu	a0,1(s10)
30004140:	030d0c13          	addi	s8,s10,48
30004144:	2c071a63          	bnez	a4,30004418 <_ZL8dir_readP3DIR+0x354>
30004148:	00100693          	li	a3,1
3000414c:	000c8613          	mv	a2,s9
30004150:	000c0593          	mv	a1,s8
30004154:	a25fd0ef          	jal	ra,30001b78 <disk_read>
30004158:	2a051863          	bnez	a0,30004408 <_ZL8dir_readP3DIR+0x344>
3000415c:	039d2623          	sw	s9,44(s10)
30004160:	014da703          	lw	a4,20(s11)
30004164:	00074783          	lbu	a5,0(a4)
30004168:	24078263          	beqz	a5,300043ac <_ZL8dir_readP3DIR+0x2e8>
3000416c:	01278e63          	beq	a5,s2,30004188 <_ZL8dir_readP3DIR+0xc4>
30004170:	01378c63          	beq	a5,s3,30004188 <_ZL8dir_readP3DIR+0xc4>
30004174:	00b74683          	lbu	a3,11(a4)
30004178:	0086f613          	andi	a2,a3,8
3000417c:	03f6f693          	andi	a3,a3,63
30004180:	06060263          	beqz	a2,300041e4 <_ZL8dir_readP3DIR+0x120>
30004184:	07468263          	beq	a3,s4,300041e8 <_ZL8dir_readP3DIR+0x124>
30004188:	006dd403          	lhu	s0,6(s11)
3000418c:	0ff00493          	li	s1,255
30004190:	00140413          	addi	s0,s0,1
30004194:	01041413          	slli	s0,s0,0x10
30004198:	01045413          	srli	s0,s0,0x10
3000419c:	20040863          	beqz	s0,300043ac <_ZL8dir_readP3DIR+0x2e8>
300041a0:	010dac83          	lw	s9,16(s11)
300041a4:	200c8463          	beqz	s9,300043ac <_ZL8dir_readP3DIR+0x2e8>
300041a8:	00f47713          	andi	a4,s0,15
300041ac:	000dad03          	lw	s10,0(s11)
300041b0:	24071063          	bnez	a4,300043f0 <_ZL8dir_readP3DIR+0x32c>
300041b4:	00cda583          	lw	a1,12(s11)
300041b8:	001c8c93          	addi	s9,s9,1
300041bc:	019da823          	sw	s9,16(s11)
300041c0:	2c059463          	bnez	a1,30004488 <_ZL8dir_readP3DIR+0x3c4>
300041c4:	008d5703          	lhu	a4,8(s10)
300041c8:	1ee47263          	bgeu	s0,a4,300043ac <_ZL8dir_readP3DIR+0x2e8>
300041cc:	030d0713          	addi	a4,s10,48
300041d0:	008d9323          	sh	s0,6(s11)
300041d4:	00edaa23          	sw	a4,20(s11)
300041d8:	f40c9ce3          	bnez	s9,30004130 <_ZL8dir_readP3DIR+0x6c>
300041dc:	00000513          	li	a0,0
300041e0:	1d40006f          	j	300043b4 <_ZL8dir_readP3DIR+0x2f0>
300041e4:	49469a63          	bne	a3,s4,30004678 <_ZL8dir_readP3DIR+0x5b4>
300041e8:	0407f693          	andi	a3,a5,64
300041ec:	22068263          	beqz	a3,30004410 <_ZL8dir_readP3DIR+0x34c>
300041f0:	006dd683          	lhu	a3,6(s11)
300041f4:	00d74b03          	lbu	s6,13(a4)
300041f8:	0bf7f493          	andi	s1,a5,191
300041fc:	02dd9023          	sh	a3,32(s11)
30004200:	00d74783          	lbu	a5,13(a4)
30004204:	f96792e3          	bne	a5,s6,30004188 <_ZL8dir_readP3DIR+0xc4>
30004208:	00074783          	lbu	a5,0(a4)
3000420c:	00274603          	lbu	a2,2(a4)
30004210:	00174583          	lbu	a1,1(a4)
30004214:	03f7f793          	andi	a5,a5,63
30004218:	fff78693          	addi	a3,a5,-1
3000421c:	00169793          	slli	a5,a3,0x1
30004220:	00d787b3          	add	a5,a5,a3
30004224:	00861613          	slli	a2,a2,0x8
30004228:	00279793          	slli	a5,a5,0x2
3000422c:	00d787b3          	add	a5,a5,a3
30004230:	00b666b3          	or	a3,a2,a1
30004234:	0fe00613          	li	a2,254
30004238:	01cda803          	lw	a6,28(s11)
3000423c:	f4f666e3          	bltu	a2,a5,30004188 <_ZL8dir_readP3DIR+0xc4>
30004240:	00179613          	slli	a2,a5,0x1
30004244:	00c80633          	add	a2,a6,a2
30004248:	00d61023          	sh	a3,0(a2)
3000424c:	00474603          	lbu	a2,4(a4)
30004250:	00374503          	lbu	a0,3(a4)
30004254:	00178593          	addi	a1,a5,1
30004258:	00861613          	slli	a2,a2,0x8
3000425c:	00a66633          	or	a2,a2,a0
30004260:	2a069063          	bnez	a3,30004500 <_ZL8dir_readP3DIR+0x43c>
30004264:	00c12783          	lw	a5,12(sp)
30004268:	f2f610e3          	bne	a2,a5,30004188 <_ZL8dir_readP3DIR+0xc4>
3000426c:	00674683          	lbu	a3,6(a4)
30004270:	00574783          	lbu	a5,5(a4)
30004274:	00869693          	slli	a3,a3,0x8
30004278:	00f6e6b3          	or	a3,a3,a5
3000427c:	00c12783          	lw	a5,12(sp)
30004280:	f0f694e3          	bne	a3,a5,30004188 <_ZL8dir_readP3DIR+0xc4>
30004284:	00874603          	lbu	a2,8(a4)
30004288:	00774783          	lbu	a5,7(a4)
3000428c:	00861613          	slli	a2,a2,0x8
30004290:	00f66633          	or	a2,a2,a5
30004294:	00c12783          	lw	a5,12(sp)
30004298:	eef618e3          	bne	a2,a5,30004188 <_ZL8dir_readP3DIR+0xc4>
3000429c:	00a74683          	lbu	a3,10(a4)
300042a0:	00974783          	lbu	a5,9(a4)
300042a4:	00869693          	slli	a3,a3,0x8
300042a8:	00f6e6b3          	or	a3,a3,a5
300042ac:	00c12783          	lw	a5,12(sp)
300042b0:	ecf69ce3          	bne	a3,a5,30004188 <_ZL8dir_readP3DIR+0xc4>
300042b4:	00f74603          	lbu	a2,15(a4)
300042b8:	00e74783          	lbu	a5,14(a4)
300042bc:	00861613          	slli	a2,a2,0x8
300042c0:	00f66633          	or	a2,a2,a5
300042c4:	00c12783          	lw	a5,12(sp)
300042c8:	ecf610e3          	bne	a2,a5,30004188 <_ZL8dir_readP3DIR+0xc4>
300042cc:	01174683          	lbu	a3,17(a4)
300042d0:	01074783          	lbu	a5,16(a4)
300042d4:	00869693          	slli	a3,a3,0x8
300042d8:	00f6e6b3          	or	a3,a3,a5
300042dc:	00c12783          	lw	a5,12(sp)
300042e0:	eaf694e3          	bne	a3,a5,30004188 <_ZL8dir_readP3DIR+0xc4>
300042e4:	01374603          	lbu	a2,19(a4)
300042e8:	01274783          	lbu	a5,18(a4)
300042ec:	00861613          	slli	a2,a2,0x8
300042f0:	00f66633          	or	a2,a2,a5
300042f4:	00c12783          	lw	a5,12(sp)
300042f8:	e8f618e3          	bne	a2,a5,30004188 <_ZL8dir_readP3DIR+0xc4>
300042fc:	01574683          	lbu	a3,21(a4)
30004300:	01474783          	lbu	a5,20(a4)
30004304:	00869693          	slli	a3,a3,0x8
30004308:	00f6e6b3          	or	a3,a3,a5
3000430c:	00c12783          	lw	a5,12(sp)
30004310:	e6f69ce3          	bne	a3,a5,30004188 <_ZL8dir_readP3DIR+0xc4>
30004314:	01774603          	lbu	a2,23(a4)
30004318:	01674783          	lbu	a5,22(a4)
3000431c:	00861613          	slli	a2,a2,0x8
30004320:	00f66633          	or	a2,a2,a5
30004324:	00c12783          	lw	a5,12(sp)
30004328:	e6f610e3          	bne	a2,a5,30004188 <_ZL8dir_readP3DIR+0xc4>
3000432c:	01974683          	lbu	a3,25(a4)
30004330:	01874783          	lbu	a5,24(a4)
30004334:	00869693          	slli	a3,a3,0x8
30004338:	00f6e6b3          	or	a3,a3,a5
3000433c:	00c12783          	lw	a5,12(sp)
30004340:	e4f694e3          	bne	a3,a5,30004188 <_ZL8dir_readP3DIR+0xc4>
30004344:	01d74603          	lbu	a2,29(a4)
30004348:	01c74783          	lbu	a5,28(a4)
3000434c:	00861613          	slli	a2,a2,0x8
30004350:	00f66633          	or	a2,a2,a5
30004354:	00c12783          	lw	a5,12(sp)
30004358:	e2f618e3          	bne	a2,a5,30004188 <_ZL8dir_readP3DIR+0xc4>
3000435c:	01f74683          	lbu	a3,31(a4)
30004360:	01e74783          	lbu	a5,30(a4)
30004364:	00869693          	slli	a3,a3,0x8
30004368:	00f6e6b3          	or	a3,a3,a5
3000436c:	00c12783          	lw	a5,12(sp)
30004370:	e0f69ce3          	bne	a3,a5,30004188 <_ZL8dir_readP3DIR+0xc4>
30004374:	00074783          	lbu	a5,0(a4)
30004378:	0407f793          	andi	a5,a5,64
3000437c:	00078a63          	beqz	a5,30004390 <_ZL8dir_readP3DIR+0x2cc>
30004380:	e17584e3          	beq	a1,s7,30004188 <_ZL8dir_readP3DIR+0xc4>
30004384:	00159593          	slli	a1,a1,0x1
30004388:	00b80833          	add	a6,a6,a1
3000438c:	00081023          	sh	zero,0(a6)
30004390:	006dd403          	lhu	s0,6(s11)
30004394:	fff48493          	addi	s1,s1,-1
30004398:	0ff4f493          	andi	s1,s1,255
3000439c:	00140413          	addi	s0,s0,1
300043a0:	01041413          	slli	s0,s0,0x10
300043a4:	01045413          	srli	s0,s0,0x10
300043a8:	de041ce3          	bnez	s0,300041a0 <_ZL8dir_readP3DIR+0xdc>
300043ac:	00400513          	li	a0,4
300043b0:	000da823          	sw	zero,16(s11)
300043b4:	04c12083          	lw	ra,76(sp)
300043b8:	04812403          	lw	s0,72(sp)
300043bc:	04412483          	lw	s1,68(sp)
300043c0:	04012903          	lw	s2,64(sp)
300043c4:	03c12983          	lw	s3,60(sp)
300043c8:	03812a03          	lw	s4,56(sp)
300043cc:	03412a83          	lw	s5,52(sp)
300043d0:	03012b03          	lw	s6,48(sp)
300043d4:	02c12b83          	lw	s7,44(sp)
300043d8:	02812c03          	lw	s8,40(sp)
300043dc:	02412c83          	lw	s9,36(sp)
300043e0:	02012d03          	lw	s10,32(sp)
300043e4:	01c12d83          	lw	s11,28(sp)
300043e8:	05010113          	addi	sp,sp,80
300043ec:	00008067          	ret
300043f0:	030d0693          	addi	a3,s10,48
300043f4:	00571713          	slli	a4,a4,0x5
300043f8:	00e68733          	add	a4,a3,a4
300043fc:	008d9323          	sh	s0,6(s11)
30004400:	00edaa23          	sw	a4,20(s11)
30004404:	d2dff06f          	j	30004130 <_ZL8dir_readP3DIR+0x6c>
30004408:	00100513          	li	a0,1
3000440c:	fa5ff06f          	j	300043b0 <_ZL8dir_readP3DIR+0x2ec>
30004410:	d6979ce3          	bne	a5,s1,30004188 <_ZL8dir_readP3DIR+0xc4>
30004414:	dedff06f          	j	30004200 <_ZL8dir_readP3DIR+0x13c>
30004418:	00100693          	li	a3,1
3000441c:	00040613          	mv	a2,s0
30004420:	000c0593          	mv	a1,s8
30004424:	8a5fd0ef          	jal	ra,30001cc8 <disk_write>
30004428:	fe0510e3          	bnez	a0,30004408 <_ZL8dir_readP3DIR+0x344>
3000442c:	01cd2683          	lw	a3,28(s10)
30004430:	020d2703          	lw	a4,32(s10)
30004434:	000d0223          	sb	zero,4(s10)
30004438:	001d4503          	lbu	a0,1(s10)
3000443c:	00e68733          	add	a4,a3,a4
30004440:	d0e474e3          	bgeu	s0,a4,30004148 <_ZL8dir_readP3DIR+0x84>
30004444:	003d4a83          	lbu	s5,3(s10)
30004448:	00100613          	li	a2,1
3000444c:	01566863          	bltu	a2,s5,3000445c <_ZL8dir_readP3DIR+0x398>
30004450:	cf9ff06f          	j	30004148 <_ZL8dir_readP3DIR+0x84>
30004454:	01cd2683          	lw	a3,28(s10)
30004458:	001d4503          	lbu	a0,1(s10)
3000445c:	00d40433          	add	s0,s0,a3
30004460:	00040613          	mv	a2,s0
30004464:	00100693          	li	a3,1
30004468:	000c0593          	mv	a1,s8
3000446c:	85dfd0ef          	jal	ra,30001cc8 <disk_write>
30004470:	fffa8713          	addi	a4,s5,-1
30004474:	0ff77a93          	andi	s5,a4,255
30004478:	00100693          	li	a3,1
3000447c:	fcda9ce3          	bne	s5,a3,30004454 <_ZL8dir_readP3DIR+0x390>
30004480:	001d4503          	lbu	a0,1(s10)
30004484:	cc5ff06f          	j	30004148 <_ZL8dir_readP3DIR+0x84>
30004488:	002d4683          	lbu	a3,2(s10)
3000448c:	00445713          	srli	a4,s0,0x4
30004490:	fff68693          	addi	a3,a3,-1
30004494:	00e6f733          	and	a4,a3,a4
30004498:	d2071ae3          	bnez	a4,300041cc <_ZL8dir_readP3DIR+0x108>
3000449c:	00100c93          	li	s9,1
300044a0:	04bcfc63          	bgeu	s9,a1,300044f8 <_ZL8dir_readP3DIR+0x434>
300044a4:	018d2703          	lw	a4,24(s10)
300044a8:	04e5f863          	bgeu	a1,a4,300044f8 <_ZL8dir_readP3DIR+0x434>
300044ac:	000d0513          	mv	a0,s10
300044b0:	ab5fe0ef          	jal	ra,30002f64 <_Z7get_fatP5FATFSm.part.5>
300044b4:	04acf263          	bgeu	s9,a0,300044f8 <_ZL8dir_readP3DIR+0x434>
300044b8:	fff00793          	li	a5,-1
300044bc:	f4f506e3          	beq	a0,a5,30004408 <_ZL8dir_readP3DIR+0x344>
300044c0:	000dad03          	lw	s10,0(s11)
300044c4:	018d2783          	lw	a5,24(s10)
300044c8:	eef572e3          	bgeu	a0,a5,300043ac <_ZL8dir_readP3DIR+0x2e8>
300044cc:	00ada623          	sw	a0,12(s11)
300044d0:	018d2783          	lw	a5,24(s10)
300044d4:	ffe50513          	addi	a0,a0,-2
300044d8:	ffe78793          	addi	a5,a5,-2
300044dc:	2af57463          	bgeu	a0,a5,30004784 <_ZL8dir_readP3DIR+0x6c0>
300044e0:	002d4783          	lbu	a5,2(s10)
300044e4:	028d2703          	lw	a4,40(s10)
300044e8:	02a78533          	mul	a0,a5,a0
300044ec:	00e50cb3          	add	s9,a0,a4
300044f0:	019da823          	sw	s9,16(s11)
300044f4:	cd9ff06f          	j	300041cc <_ZL8dir_readP3DIR+0x108>
300044f8:	00200513          	li	a0,2
300044fc:	eb5ff06f          	j	300043b0 <_ZL8dir_readP3DIR+0x2ec>
30004500:	c97584e3          	beq	a1,s7,30004188 <_ZL8dir_readP3DIR+0xc4>
30004504:	00159593          	slli	a1,a1,0x1
30004508:	00b80533          	add	a0,a6,a1
3000450c:	00c51023          	sh	a2,0(a0)
30004510:	00674683          	lbu	a3,6(a4)
30004514:	00574883          	lbu	a7,5(a4)
30004518:	00278593          	addi	a1,a5,2
3000451c:	00869693          	slli	a3,a3,0x8
30004520:	0116e6b3          	or	a3,a3,a7
30004524:	d4060ce3          	beqz	a2,3000427c <_ZL8dir_readP3DIR+0x1b8>
30004528:	c77580e3          	beq	a1,s7,30004188 <_ZL8dir_readP3DIR+0xc4>
3000452c:	00d51123          	sh	a3,2(a0)
30004530:	00874603          	lbu	a2,8(a4)
30004534:	00774883          	lbu	a7,7(a4)
30004538:	00378593          	addi	a1,a5,3
3000453c:	00861613          	slli	a2,a2,0x8
30004540:	01166633          	or	a2,a2,a7
30004544:	d40688e3          	beqz	a3,30004294 <_ZL8dir_readP3DIR+0x1d0>
30004548:	c57580e3          	beq	a1,s7,30004188 <_ZL8dir_readP3DIR+0xc4>
3000454c:	00c51223          	sh	a2,4(a0)
30004550:	00a74683          	lbu	a3,10(a4)
30004554:	00974883          	lbu	a7,9(a4)
30004558:	00478593          	addi	a1,a5,4
3000455c:	00869693          	slli	a3,a3,0x8
30004560:	0116e6b3          	or	a3,a3,a7
30004564:	d40604e3          	beqz	a2,300042ac <_ZL8dir_readP3DIR+0x1e8>
30004568:	c37580e3          	beq	a1,s7,30004188 <_ZL8dir_readP3DIR+0xc4>
3000456c:	00d51323          	sh	a3,6(a0)
30004570:	00f74603          	lbu	a2,15(a4)
30004574:	00e74883          	lbu	a7,14(a4)
30004578:	00578593          	addi	a1,a5,5
3000457c:	00861613          	slli	a2,a2,0x8
30004580:	01166633          	or	a2,a2,a7
30004584:	d40680e3          	beqz	a3,300042c4 <_ZL8dir_readP3DIR+0x200>
30004588:	c17580e3          	beq	a1,s7,30004188 <_ZL8dir_readP3DIR+0xc4>
3000458c:	00c51423          	sh	a2,8(a0)
30004590:	01174683          	lbu	a3,17(a4)
30004594:	01074883          	lbu	a7,16(a4)
30004598:	00678593          	addi	a1,a5,6
3000459c:	00869693          	slli	a3,a3,0x8
300045a0:	0116e6b3          	or	a3,a3,a7
300045a4:	d2060ce3          	beqz	a2,300042dc <_ZL8dir_readP3DIR+0x218>
300045a8:	bf7580e3          	beq	a1,s7,30004188 <_ZL8dir_readP3DIR+0xc4>
300045ac:	00d51523          	sh	a3,10(a0)
300045b0:	01374603          	lbu	a2,19(a4)
300045b4:	01274883          	lbu	a7,18(a4)
300045b8:	00778593          	addi	a1,a5,7
300045bc:	00861613          	slli	a2,a2,0x8
300045c0:	01166633          	or	a2,a2,a7
300045c4:	d20688e3          	beqz	a3,300042f4 <_ZL8dir_readP3DIR+0x230>
300045c8:	bd7580e3          	beq	a1,s7,30004188 <_ZL8dir_readP3DIR+0xc4>
300045cc:	00c51623          	sh	a2,12(a0)
300045d0:	01574683          	lbu	a3,21(a4)
300045d4:	01474883          	lbu	a7,20(a4)
300045d8:	00878593          	addi	a1,a5,8
300045dc:	00869693          	slli	a3,a3,0x8
300045e0:	0116e6b3          	or	a3,a3,a7
300045e4:	d20604e3          	beqz	a2,3000430c <_ZL8dir_readP3DIR+0x248>
300045e8:	bb7580e3          	beq	a1,s7,30004188 <_ZL8dir_readP3DIR+0xc4>
300045ec:	00d51723          	sh	a3,14(a0)
300045f0:	01774603          	lbu	a2,23(a4)
300045f4:	01674883          	lbu	a7,22(a4)
300045f8:	00978593          	addi	a1,a5,9
300045fc:	00861613          	slli	a2,a2,0x8
30004600:	01166633          	or	a2,a2,a7
30004604:	d20680e3          	beqz	a3,30004324 <_ZL8dir_readP3DIR+0x260>
30004608:	b97580e3          	beq	a1,s7,30004188 <_ZL8dir_readP3DIR+0xc4>
3000460c:	00c51823          	sh	a2,16(a0)
30004610:	01974683          	lbu	a3,25(a4)
30004614:	01874883          	lbu	a7,24(a4)
30004618:	00a78593          	addi	a1,a5,10
3000461c:	00869693          	slli	a3,a3,0x8
30004620:	0116e6b3          	or	a3,a3,a7
30004624:	d0060ce3          	beqz	a2,3000433c <_ZL8dir_readP3DIR+0x278>
30004628:	b77580e3          	beq	a1,s7,30004188 <_ZL8dir_readP3DIR+0xc4>
3000462c:	00d51923          	sh	a3,18(a0)
30004630:	01d74603          	lbu	a2,29(a4)
30004634:	01c74883          	lbu	a7,28(a4)
30004638:	00b78593          	addi	a1,a5,11
3000463c:	00861613          	slli	a2,a2,0x8
30004640:	01166633          	or	a2,a2,a7
30004644:	d00688e3          	beqz	a3,30004354 <_ZL8dir_readP3DIR+0x290>
30004648:	b57580e3          	beq	a1,s7,30004188 <_ZL8dir_readP3DIR+0xc4>
3000464c:	00c51a23          	sh	a2,20(a0)
30004650:	01f74683          	lbu	a3,31(a4)
30004654:	01e74883          	lbu	a7,30(a4)
30004658:	00c78593          	addi	a1,a5,12
3000465c:	00869693          	slli	a3,a3,0x8
30004660:	0116e6b3          	or	a3,a3,a7
30004664:	d00604e3          	beqz	a2,3000436c <_ZL8dir_readP3DIR+0x2a8>
30004668:	b37580e3          	beq	a1,s7,30004188 <_ZL8dir_readP3DIR+0xc4>
3000466c:	00d78593          	addi	a1,a5,13
30004670:	00d51b23          	sh	a3,22(a0)
30004674:	d01ff06f          	j	30004374 <_ZL8dir_readP3DIR+0x2b0>
30004678:	00048a63          	beqz	s1,3000468c <_ZL8dir_readP3DIR+0x5c8>
3000467c:	fff00793          	li	a5,-1
30004680:	02fd9023          	sh	a5,32(s11)
30004684:	00000513          	li	a0,0
30004688:	d2dff06f          	j	300043b4 <_ZL8dir_readP3DIR+0x2f0>
3000468c:	00174603          	lbu	a2,1(a4)
30004690:	00779693          	slli	a3,a5,0x7
30004694:	4017d793          	srai	a5,a5,0x1
30004698:	00c686b3          	add	a3,a3,a2
3000469c:	00f687b3          	add	a5,a3,a5
300046a0:	00274603          	lbu	a2,2(a4)
300046a4:	0ff7f793          	andi	a5,a5,255
300046a8:	00779693          	slli	a3,a5,0x7
300046ac:	00c686b3          	add	a3,a3,a2
300046b0:	0017d793          	srli	a5,a5,0x1
300046b4:	00374603          	lbu	a2,3(a4)
300046b8:	00f686b3          	add	a3,a3,a5
300046bc:	0ff6f693          	andi	a3,a3,255
300046c0:	00769793          	slli	a5,a3,0x7
300046c4:	00c787b3          	add	a5,a5,a2
300046c8:	0016d693          	srli	a3,a3,0x1
300046cc:	00474603          	lbu	a2,4(a4)
300046d0:	00d787b3          	add	a5,a5,a3
300046d4:	0ff7f793          	andi	a5,a5,255
300046d8:	00779693          	slli	a3,a5,0x7
300046dc:	00c686b3          	add	a3,a3,a2
300046e0:	0017d793          	srli	a5,a5,0x1
300046e4:	00574603          	lbu	a2,5(a4)
300046e8:	00f686b3          	add	a3,a3,a5
300046ec:	0ff6f693          	andi	a3,a3,255
300046f0:	00769793          	slli	a5,a3,0x7
300046f4:	00c787b3          	add	a5,a5,a2
300046f8:	0016d693          	srli	a3,a3,0x1
300046fc:	00674603          	lbu	a2,6(a4)
30004700:	00d787b3          	add	a5,a5,a3
30004704:	0ff7f793          	andi	a5,a5,255
30004708:	00779693          	slli	a3,a5,0x7
3000470c:	00c686b3          	add	a3,a3,a2
30004710:	0017d793          	srli	a5,a5,0x1
30004714:	00774603          	lbu	a2,7(a4)
30004718:	00f686b3          	add	a3,a3,a5
3000471c:	0ff6f693          	andi	a3,a3,255
30004720:	00769793          	slli	a5,a3,0x7
30004724:	00c787b3          	add	a5,a5,a2
30004728:	0016d693          	srli	a3,a3,0x1
3000472c:	00874603          	lbu	a2,8(a4)
30004730:	00d787b3          	add	a5,a5,a3
30004734:	0ff7f793          	andi	a5,a5,255
30004738:	00779693          	slli	a3,a5,0x7
3000473c:	00c686b3          	add	a3,a3,a2
30004740:	0017d793          	srli	a5,a5,0x1
30004744:	00f686b3          	add	a3,a3,a5
30004748:	00974603          	lbu	a2,9(a4)
3000474c:	0ff6f693          	andi	a3,a3,255
30004750:	00769793          	slli	a5,a3,0x7
30004754:	00c787b3          	add	a5,a5,a2
30004758:	0016d693          	srli	a3,a3,0x1
3000475c:	00d787b3          	add	a5,a5,a3
30004760:	00a74683          	lbu	a3,10(a4)
30004764:	0ff7f793          	andi	a5,a5,255
30004768:	00779713          	slli	a4,a5,0x7
3000476c:	00d70733          	add	a4,a4,a3
30004770:	0017d793          	srli	a5,a5,0x1
30004774:	00f707b3          	add	a5,a4,a5
30004778:	0ff7f793          	andi	a5,a5,255
3000477c:	f16790e3          	bne	a5,s6,3000467c <_ZL8dir_readP3DIR+0x5b8>
30004780:	a5dff06f          	j	300041dc <_ZL8dir_readP3DIR+0x118>
30004784:	030d0793          	addi	a5,s10,48
30004788:	000da823          	sw	zero,16(s11)
3000478c:	008d9323          	sh	s0,6(s11)
30004790:	00fdaa23          	sw	a5,20(s11)
30004794:	00000513          	li	a0,0
30004798:	c1dff06f          	j	300043b4 <_ZL8dir_readP3DIR+0x2f0>

3000479c <_ZL12create_chainP5FATFSm>:
3000479c:	fd010113          	addi	sp,sp,-48
300047a0:	02912223          	sw	s1,36(sp)
300047a4:	01312e23          	sw	s3,28(sp)
300047a8:	02112623          	sw	ra,44(sp)
300047ac:	02812423          	sw	s0,40(sp)
300047b0:	03212023          	sw	s2,32(sp)
300047b4:	01412c23          	sw	s4,24(sp)
300047b8:	01512a23          	sw	s5,20(sp)
300047bc:	01612823          	sw	s6,16(sp)
300047c0:	01712623          	sw	s7,12(sp)
300047c4:	01812423          	sw	s8,8(sp)
300047c8:	01912223          	sw	s9,4(sp)
300047cc:	01a12023          	sw	s10,0(sp)
300047d0:	00058993          	mv	s3,a1
300047d4:	00050493          	mv	s1,a0
300047d8:	1c059463          	bnez	a1,300049a0 <_ZL12create_chainP5FATFSm+0x204>
300047dc:	00c52b83          	lw	s7,12(a0)
300047e0:	01852783          	lw	a5,24(a0)
300047e4:	140b9c63          	bnez	s7,3000493c <_ZL12create_chainP5FATFSm+0x1a0>
300047e8:	00100b93          	li	s7,1
300047ec:	000b8413          	mv	s0,s7
300047f0:	10000a37          	lui	s4,0x10000
300047f4:	00001ab7          	lui	s5,0x1
300047f8:	00140413          	addi	s0,s0,1
300047fc:	00100b13          	li	s6,1
30004800:	00200c93          	li	s9,2
30004804:	00300913          	li	s2,3
30004808:	fffa0a13          	addi	s4,s4,-1 # fffffff <stackPointer+0xfff92bf>
3000480c:	fffa8a93          	addi	s5,s5,-1 # fff <stackPointer-0x5d41>
30004810:	0ef46463          	bltu	s0,a5,300048f8 <_ZL12create_chainP5FATFSm+0x15c>
30004814:	1b7b7c63          	bgeu	s6,s7,300049cc <_ZL12create_chainP5FATFSm+0x230>
30004818:	04fce263          	bltu	s9,a5,3000485c <_ZL12create_chainP5FATFSm+0xc0>
3000481c:	00100413          	li	s0,1
30004820:	00040513          	mv	a0,s0
30004824:	02c12083          	lw	ra,44(sp)
30004828:	02812403          	lw	s0,40(sp)
3000482c:	02412483          	lw	s1,36(sp)
30004830:	02012903          	lw	s2,32(sp)
30004834:	01c12983          	lw	s3,28(sp)
30004838:	01812a03          	lw	s4,24(sp)
3000483c:	01412a83          	lw	s5,20(sp)
30004840:	01012b03          	lw	s6,16(sp)
30004844:	00c12b83          	lw	s7,12(sp)
30004848:	00812c03          	lw	s8,8(sp)
3000484c:	00412c83          	lw	s9,4(sp)
30004850:	00012d03          	lw	s10,0(sp)
30004854:	03010113          	addi	sp,sp,48
30004858:	00008067          	ret
3000485c:	0004c783          	lbu	a5,0(s1)
30004860:	00200413          	li	s0,2
30004864:	0b978063          	beq	a5,s9,30004904 <_ZL12create_chainP5FATFSm+0x168>
30004868:	0d278e63          	beq	a5,s2,30004944 <_ZL12create_chainP5FATFSm+0x1a8>
3000486c:	01678663          	beq	a5,s6,30004878 <_ZL12create_chainP5FATFSm+0xdc>
30004870:	fff00413          	li	s0,-1
30004874:	fadff06f          	j	30004820 <_ZL12create_chainP5FATFSm+0x84>
30004878:	00145c13          	srli	s8,s0,0x1
3000487c:	0204a783          	lw	a5,32(s1)
30004880:	008c0c33          	add	s8,s8,s0
30004884:	009c5593          	srli	a1,s8,0x9
30004888:	00f585b3          	add	a1,a1,a5
3000488c:	00048513          	mv	a0,s1
30004890:	920fe0ef          	jal	ra,300029b0 <_ZL11move_windowP5FATFSm>
30004894:	fc051ee3          	bnez	a0,30004870 <_ZL12create_chainP5FATFSm+0xd4>
30004898:	0204a783          	lw	a5,32(s1)
3000489c:	001c0d13          	addi	s10,s8,1
300048a0:	009d5593          	srli	a1,s10,0x9
300048a4:	1ffc7c13          	andi	s8,s8,511
300048a8:	01848c33          	add	s8,s1,s8
300048ac:	00f585b3          	add	a1,a1,a5
300048b0:	00048513          	mv	a0,s1
300048b4:	030c4c03          	lbu	s8,48(s8)
300048b8:	8f8fe0ef          	jal	ra,300029b0 <_ZL11move_windowP5FATFSm>
300048bc:	fa051ae3          	bnez	a0,30004870 <_ZL12create_chainP5FATFSm+0xd4>
300048c0:	1ffd7d13          	andi	s10,s10,511
300048c4:	01a48d33          	add	s10,s1,s10
300048c8:	030d4783          	lbu	a5,48(s10)
300048cc:	00147713          	andi	a4,s0,1
300048d0:	00879793          	slli	a5,a5,0x8
300048d4:	0187ec33          	or	s8,a5,s8
300048d8:	015c77b3          	and	a5,s8,s5
300048dc:	0e071c63          	bnez	a4,300049d4 <_ZL12create_chainP5FATFSm+0x238>
300048e0:	0e078e63          	beqz	a5,300049dc <_ZL12create_chainP5FATFSm+0x240>
300048e4:	f3678ce3          	beq	a5,s6,3000481c <_ZL12create_chainP5FATFSm+0x80>
300048e8:	0e8b8263          	beq	s7,s0,300049cc <_ZL12create_chainP5FATFSm+0x230>
300048ec:	0184a783          	lw	a5,24(s1)
300048f0:	00140413          	addi	s0,s0,1
300048f4:	f2f470e3          	bgeu	s0,a5,30004814 <_ZL12create_chainP5FATFSm+0x78>
300048f8:	f28b72e3          	bgeu	s6,s0,3000481c <_ZL12create_chainP5FATFSm+0x80>
300048fc:	0004c783          	lbu	a5,0(s1)
30004900:	f79794e3          	bne	a5,s9,30004868 <_ZL12create_chainP5FATFSm+0xcc>
30004904:	0204a783          	lw	a5,32(s1)
30004908:	00845593          	srli	a1,s0,0x8
3000490c:	00048513          	mv	a0,s1
30004910:	00f585b3          	add	a1,a1,a5
30004914:	89cfe0ef          	jal	ra,300029b0 <_ZL11move_windowP5FATFSm>
30004918:	f4051ce3          	bnez	a0,30004870 <_ZL12create_chainP5FATFSm+0xd4>
3000491c:	00141713          	slli	a4,s0,0x1
30004920:	1fe77713          	andi	a4,a4,510
30004924:	00e48733          	add	a4,s1,a4
30004928:	03174783          	lbu	a5,49(a4)
3000492c:	03074703          	lbu	a4,48(a4)
30004930:	00879793          	slli	a5,a5,0x8
30004934:	00e7e7b3          	or	a5,a5,a4
30004938:	fa9ff06f          	j	300048e0 <_ZL12create_chainP5FATFSm+0x144>
3000493c:	eafbe8e3          	bltu	s7,a5,300047ec <_ZL12create_chainP5FATFSm+0x50>
30004940:	ea9ff06f          	j	300047e8 <_ZL12create_chainP5FATFSm+0x4c>
30004944:	0204a783          	lw	a5,32(s1)
30004948:	00745593          	srli	a1,s0,0x7
3000494c:	00048513          	mv	a0,s1
30004950:	00f585b3          	add	a1,a1,a5
30004954:	85cfe0ef          	jal	ra,300029b0 <_ZL11move_windowP5FATFSm>
30004958:	f0051ce3          	bnez	a0,30004870 <_ZL12create_chainP5FATFSm+0xd4>
3000495c:	00241713          	slli	a4,s0,0x2
30004960:	1fc77713          	andi	a4,a4,508
30004964:	03070693          	addi	a3,a4,48
30004968:	00d486b3          	add	a3,s1,a3
3000496c:	0036c783          	lbu	a5,3(a3)
30004970:	0026c603          	lbu	a2,2(a3)
30004974:	00e48733          	add	a4,s1,a4
30004978:	03074583          	lbu	a1,48(a4)
3000497c:	0016c703          	lbu	a4,1(a3)
30004980:	01879793          	slli	a5,a5,0x18
30004984:	01061693          	slli	a3,a2,0x10
30004988:	00d7e7b3          	or	a5,a5,a3
3000498c:	00b7e7b3          	or	a5,a5,a1
30004990:	00871713          	slli	a4,a4,0x8
30004994:	00e7e7b3          	or	a5,a5,a4
30004998:	0147f7b3          	and	a5,a5,s4
3000499c:	f45ff06f          	j	300048e0 <_ZL12create_chainP5FATFSm+0x144>
300049a0:	00100913          	li	s2,1
300049a4:	e6b97ce3          	bgeu	s2,a1,3000481c <_ZL12create_chainP5FATFSm+0x80>
300049a8:	01852783          	lw	a5,24(a0)
300049ac:	e6f5f8e3          	bgeu	a1,a5,3000481c <_ZL12create_chainP5FATFSm+0x80>
300049b0:	db4fe0ef          	jal	ra,30002f64 <_Z7get_fatP5FATFSm.part.5>
300049b4:	00050413          	mv	s0,a0
300049b8:	e6a972e3          	bgeu	s2,a0,3000481c <_ZL12create_chainP5FATFSm+0x80>
300049bc:	0184a783          	lw	a5,24(s1)
300049c0:	00098b93          	mv	s7,s3
300049c4:	e2f574e3          	bgeu	a0,a5,300047ec <_ZL12create_chainP5FATFSm+0x50>
300049c8:	e59ff06f          	j	30004820 <_ZL12create_chainP5FATFSm+0x84>
300049cc:	00000413          	li	s0,0
300049d0:	e51ff06f          	j	30004820 <_ZL12create_chainP5FATFSm+0x84>
300049d4:	004c5793          	srli	a5,s8,0x4
300049d8:	f09ff06f          	j	300048e0 <_ZL12create_chainP5FATFSm+0x144>
300049dc:	0184a783          	lw	a5,24(s1)
300049e0:	e2f47ee3          	bgeu	s0,a5,3000481c <_ZL12create_chainP5FATFSm+0x80>
300049e4:	10000637          	lui	a2,0x10000
300049e8:	fff60613          	addi	a2,a2,-1 # fffffff <stackPointer+0xfff92bf>
300049ec:	00040593          	mv	a1,s0
300049f0:	00048513          	mv	a0,s1
300049f4:	891fe0ef          	jal	ra,30003284 <_Z7put_fatP5FATFSmm.part.6>
300049f8:	00050a63          	beqz	a0,30004a0c <_ZL12create_chainP5FATFSm+0x270>
300049fc:	00100793          	li	a5,1
30004a00:	e0f51ee3          	bne	a0,a5,3000481c <_ZL12create_chainP5FATFSm+0x80>
30004a04:	fff00413          	li	s0,-1
30004a08:	e19ff06f          	j	30004820 <_ZL12create_chainP5FATFSm+0x84>
30004a0c:	02098463          	beqz	s3,30004a34 <_ZL12create_chainP5FATFSm+0x298>
30004a10:	00100793          	li	a5,1
30004a14:	e137f4e3          	bgeu	a5,s3,3000481c <_ZL12create_chainP5FATFSm+0x80>
30004a18:	0184a783          	lw	a5,24(s1)
30004a1c:	e0f9f0e3          	bgeu	s3,a5,3000481c <_ZL12create_chainP5FATFSm+0x80>
30004a20:	00040613          	mv	a2,s0
30004a24:	00098593          	mv	a1,s3
30004a28:	00048513          	mv	a0,s1
30004a2c:	859fe0ef          	jal	ra,30003284 <_Z7put_fatP5FATFSmm.part.6>
30004a30:	fc0516e3          	bnez	a0,300049fc <_ZL12create_chainP5FATFSm+0x260>
30004a34:	0104a783          	lw	a5,16(s1)
30004a38:	0084a623          	sw	s0,12(s1)
30004a3c:	fff00713          	li	a4,-1
30004a40:	dee780e3          	beq	a5,a4,30004820 <_ZL12create_chainP5FATFSm+0x84>
30004a44:	fff78793          	addi	a5,a5,-1
30004a48:	00f4a823          	sw	a5,16(s1)
30004a4c:	00100793          	li	a5,1
30004a50:	00f482a3          	sb	a5,5(s1)
30004a54:	dcdff06f          	j	30004820 <_ZL12create_chainP5FATFSm+0x84>

30004a58 <_ZL12remove_chainP5FATFSm.part.8>:
30004a58:	fd010113          	addi	sp,sp,-48
30004a5c:	01312e23          	sw	s3,28(sp)
30004a60:	01412c23          	sw	s4,24(sp)
30004a64:	100009b7          	lui	s3,0x10000
30004a68:	00001a37          	lui	s4,0x1
30004a6c:	02812423          	sw	s0,40(sp)
30004a70:	02912223          	sw	s1,36(sp)
30004a74:	01512a23          	sw	s5,20(sp)
30004a78:	01612823          	sw	s6,16(sp)
30004a7c:	01712623          	sw	s7,12(sp)
30004a80:	01812423          	sw	s8,8(sp)
30004a84:	02112623          	sw	ra,44(sp)
30004a88:	03212023          	sw	s2,32(sp)
30004a8c:	01912223          	sw	s9,4(sp)
30004a90:	00050413          	mv	s0,a0
30004a94:	00058493          	mv	s1,a1
30004a98:	00100c13          	li	s8,1
30004a9c:	00200b13          	li	s6,2
30004aa0:	00300a93          	li	s5,3
30004aa4:	fff98993          	addi	s3,s3,-1 # fffffff <stackPointer+0xfff92bf>
30004aa8:	fffa0a13          	addi	s4,s4,-1 # fff <stackPointer-0x5d41>
30004aac:	fff00b93          	li	s7,-1
30004ab0:	01842783          	lw	a5,24(s0)
30004ab4:	18f4fa63          	bgeu	s1,a5,30004c48 <_ZL12remove_chainP5FATFSm.part.8+0x1f0>
30004ab8:	049c7663          	bgeu	s8,s1,30004b04 <_ZL12remove_chainP5FATFSm.part.8+0xac>
30004abc:	00044783          	lbu	a5,0(s0)
30004ac0:	15678863          	beq	a5,s6,30004c10 <_ZL12remove_chainP5FATFSm.part.8+0x1b8>
30004ac4:	0f578863          	beq	a5,s5,30004bb4 <_ZL12remove_chainP5FATFSm.part.8+0x15c>
30004ac8:	05878263          	beq	a5,s8,30004b0c <_ZL12remove_chainP5FATFSm.part.8+0xb4>
30004acc:	00100513          	li	a0,1
30004ad0:	02c12083          	lw	ra,44(sp)
30004ad4:	02812403          	lw	s0,40(sp)
30004ad8:	02412483          	lw	s1,36(sp)
30004adc:	02012903          	lw	s2,32(sp)
30004ae0:	01c12983          	lw	s3,28(sp)
30004ae4:	01812a03          	lw	s4,24(sp)
30004ae8:	01412a83          	lw	s5,20(sp)
30004aec:	01012b03          	lw	s6,16(sp)
30004af0:	00c12b83          	lw	s7,12(sp)
30004af4:	00812c03          	lw	s8,8(sp)
30004af8:	00412c83          	lw	s9,4(sp)
30004afc:	03010113          	addi	sp,sp,48
30004b00:	00008067          	ret
30004b04:	00200513          	li	a0,2
30004b08:	fc9ff06f          	j	30004ad0 <_ZL12remove_chainP5FATFSm.part.8+0x78>
30004b0c:	0014d913          	srli	s2,s1,0x1
30004b10:	02042783          	lw	a5,32(s0)
30004b14:	00990933          	add	s2,s2,s1
30004b18:	00995593          	srli	a1,s2,0x9
30004b1c:	00f585b3          	add	a1,a1,a5
30004b20:	00040513          	mv	a0,s0
30004b24:	e8dfd0ef          	jal	ra,300029b0 <_ZL11move_windowP5FATFSm>
30004b28:	fa0512e3          	bnez	a0,30004acc <_ZL12remove_chainP5FATFSm.part.8+0x74>
30004b2c:	02042783          	lw	a5,32(s0)
30004b30:	00190c93          	addi	s9,s2,1
30004b34:	009cd593          	srli	a1,s9,0x9
30004b38:	1ff97913          	andi	s2,s2,511
30004b3c:	01240933          	add	s2,s0,s2
30004b40:	00f585b3          	add	a1,a1,a5
30004b44:	00040513          	mv	a0,s0
30004b48:	03094903          	lbu	s2,48(s2)
30004b4c:	e65fd0ef          	jal	ra,300029b0 <_ZL11move_windowP5FATFSm>
30004b50:	f6051ee3          	bnez	a0,30004acc <_ZL12remove_chainP5FATFSm.part.8+0x74>
30004b54:	1ffcfc93          	andi	s9,s9,511
30004b58:	01940cb3          	add	s9,s0,s9
30004b5c:	030cc783          	lbu	a5,48(s9)
30004b60:	0014f713          	andi	a4,s1,1
30004b64:	00879793          	slli	a5,a5,0x8
30004b68:	0127e7b3          	or	a5,a5,s2
30004b6c:	0147f933          	and	s2,a5,s4
30004b70:	0e071063          	bnez	a4,30004c50 <_ZL12remove_chainP5FATFSm.part.8+0x1f8>
30004b74:	0c090a63          	beqz	s2,30004c48 <_ZL12remove_chainP5FATFSm.part.8+0x1f0>
30004b78:	f98906e3          	beq	s2,s8,30004b04 <_ZL12remove_chainP5FATFSm.part.8+0xac>
30004b7c:	01842783          	lw	a5,24(s0)
30004b80:	f8f4f2e3          	bgeu	s1,a5,30004b04 <_ZL12remove_chainP5FATFSm.part.8+0xac>
30004b84:	00000613          	li	a2,0
30004b88:	00048593          	mv	a1,s1
30004b8c:	00040513          	mv	a0,s0
30004b90:	ef4fe0ef          	jal	ra,30003284 <_Z7put_fatP5FATFSmm.part.6>
30004b94:	f2051ee3          	bnez	a0,30004ad0 <_ZL12remove_chainP5FATFSm.part.8+0x78>
30004b98:	01042783          	lw	a5,16(s0)
30004b9c:	01778863          	beq	a5,s7,30004bac <_ZL12remove_chainP5FATFSm.part.8+0x154>
30004ba0:	00178793          	addi	a5,a5,1
30004ba4:	00f42823          	sw	a5,16(s0)
30004ba8:	018402a3          	sb	s8,5(s0)
30004bac:	00090493          	mv	s1,s2
30004bb0:	f01ff06f          	j	30004ab0 <_ZL12remove_chainP5FATFSm.part.8+0x58>
30004bb4:	02042783          	lw	a5,32(s0)
30004bb8:	0074d593          	srli	a1,s1,0x7
30004bbc:	00040513          	mv	a0,s0
30004bc0:	00f585b3          	add	a1,a1,a5
30004bc4:	dedfd0ef          	jal	ra,300029b0 <_ZL11move_windowP5FATFSm>
30004bc8:	f00512e3          	bnez	a0,30004acc <_ZL12remove_chainP5FATFSm.part.8+0x74>
30004bcc:	00249793          	slli	a5,s1,0x2
30004bd0:	1fc7f793          	andi	a5,a5,508
30004bd4:	03078713          	addi	a4,a5,48
30004bd8:	00e40733          	add	a4,s0,a4
30004bdc:	00374903          	lbu	s2,3(a4)
30004be0:	00274683          	lbu	a3,2(a4)
30004be4:	00f407b3          	add	a5,s0,a5
30004be8:	0307c603          	lbu	a2,48(a5)
30004bec:	00174783          	lbu	a5,1(a4)
30004bf0:	01891913          	slli	s2,s2,0x18
30004bf4:	01069713          	slli	a4,a3,0x10
30004bf8:	00e96933          	or	s2,s2,a4
30004bfc:	00c96933          	or	s2,s2,a2
30004c00:	00879793          	slli	a5,a5,0x8
30004c04:	00f96933          	or	s2,s2,a5
30004c08:	01397933          	and	s2,s2,s3
30004c0c:	f69ff06f          	j	30004b74 <_ZL12remove_chainP5FATFSm.part.8+0x11c>
30004c10:	02042783          	lw	a5,32(s0)
30004c14:	0084d593          	srli	a1,s1,0x8
30004c18:	00040513          	mv	a0,s0
30004c1c:	00f585b3          	add	a1,a1,a5
30004c20:	d91fd0ef          	jal	ra,300029b0 <_ZL11move_windowP5FATFSm>
30004c24:	ea0514e3          	bnez	a0,30004acc <_ZL12remove_chainP5FATFSm.part.8+0x74>
30004c28:	00149793          	slli	a5,s1,0x1
30004c2c:	1fe7f793          	andi	a5,a5,510
30004c30:	00f407b3          	add	a5,s0,a5
30004c34:	0317c903          	lbu	s2,49(a5)
30004c38:	0307c783          	lbu	a5,48(a5)
30004c3c:	00891913          	slli	s2,s2,0x8
30004c40:	00f96933          	or	s2,s2,a5
30004c44:	f31ff06f          	j	30004b74 <_ZL12remove_chainP5FATFSm.part.8+0x11c>
30004c48:	00000513          	li	a0,0
30004c4c:	e85ff06f          	j	30004ad0 <_ZL12remove_chainP5FATFSm.part.8+0x78>
30004c50:	0047d913          	srli	s2,a5,0x4
30004c54:	f21ff06f          	j	30004b74 <_ZL12remove_chainP5FATFSm.part.8+0x11c>

30004c58 <_ZL12dir_registerP3DIR>:
30004c58:	f7010113          	addi	sp,sp,-144
30004c5c:	07612823          	sw	s6,112(sp)
30004c60:	01852b03          	lw	s6,24(a0)
30004c64:	07512a23          	sw	s5,116(sp)
30004c68:	07a12023          	sw	s10,96(sp)
30004c6c:	08112623          	sw	ra,140(sp)
30004c70:	08812423          	sw	s0,136(sp)
30004c74:	08912223          	sw	s1,132(sp)
30004c78:	09212023          	sw	s2,128(sp)
30004c7c:	07312e23          	sw	s3,124(sp)
30004c80:	07412c23          	sw	s4,120(sp)
30004c84:	07712623          	sw	s7,108(sp)
30004c88:	07812423          	sw	s8,104(sp)
30004c8c:	07912223          	sw	s9,100(sp)
30004c90:	05b12e23          	sw	s11,92(sp)
30004c94:	00bb4703          	lbu	a4,11(s6)
30004c98:	000b4283          	lbu	t0,0(s6)
30004c9c:	001b4f83          	lbu	t6,1(s6)
30004ca0:	002b4f03          	lbu	t5,2(s6)
30004ca4:	003b4e83          	lbu	t4,3(s6)
30004ca8:	01c52a83          	lw	s5,28(a0)
30004cac:	005b4303          	lbu	t1,5(s6)
30004cb0:	006b4883          	lbu	a7,6(s6)
30004cb4:	008b4583          	lbu	a1,8(s6)
30004cb8:	009b4603          	lbu	a2,9(s6)
30004cbc:	00ab4683          	lbu	a3,10(s6)
30004cc0:	00050d13          	mv	s10,a0
30004cc4:	004b4e03          	lbu	t3,4(s6)
30004cc8:	007b4503          	lbu	a0,7(s6)
30004ccc:	02e12623          	sw	a4,44(sp)
30004cd0:	04510223          	sb	t0,68(sp)
30004cd4:	05f102a3          	sb	t6,69(sp)
30004cd8:	05e10323          	sb	t5,70(sp)
30004cdc:	05d103a3          	sb	t4,71(sp)
30004ce0:	05c10423          	sb	t3,72(sp)
30004ce4:	04e107a3          	sb	a4,79(sp)
30004ce8:	046104a3          	sb	t1,73(sp)
30004cec:	05110523          	sb	a7,74(sp)
30004cf0:	04a105a3          	sb	a0,75(sp)
30004cf4:	04b10623          	sb	a1,76(sp)
30004cf8:	04c106a3          	sb	a2,77(sp)
30004cfc:	04d10723          	sb	a3,78(sp)
30004d00:	00177713          	andi	a4,a4,1
30004d04:	36070463          	beqz	a4,3000506c <_ZL12dir_registerP3DIR+0x414>
30004d08:	0fff7793          	andi	a5,t5,255
30004d0c:	00f12823          	sw	a5,16(sp)
30004d10:	0ffe7793          	andi	a5,t3,255
30004d14:	00f12a23          	sw	a5,20(sp)
30004d18:	0ff37793          	andi	a5,t1,255
30004d1c:	00f12623          	sw	a5,12(sp)
30004d20:	0ff8f793          	andi	a5,a7,255
30004d24:	00f12e23          	sw	a5,28(sp)
30004d28:	0ff57793          	andi	a5,a0,255
30004d2c:	00f12c23          	sw	a5,24(sp)
30004d30:	0ff5f793          	andi	a5,a1,255
30004d34:	02f12023          	sw	a5,32(sp)
30004d38:	0ff67793          	andi	a5,a2,255
30004d3c:	02f12223          	sw	a5,36(sp)
30004d40:	000b05a3          	sb	zero,11(s6)
30004d44:	0ff6f793          	andi	a5,a3,255
30004d48:	0ff2f993          	andi	s3,t0,255
30004d4c:	0ffffd93          	andi	s11,t6,255
30004d50:	0ffefc93          	andi	s9,t4,255
30004d54:	02f12423          	sw	a5,40(sp)
30004d58:	000d2e23          	sw	zero,28(s10)
30004d5c:	00100c13          	li	s8,1
30004d60:	03900413          	li	s0,57
30004d64:	00f00493          	li	s1,15
30004d68:	00800b93          	li	s7,8
30004d6c:	02000913          	li	s2,32
30004d70:	00700a13          	li	s4,7
30004d74:	01012783          	lw	a5,16(sp)
30004d78:	013b0023          	sb	s3,0(s6)
30004d7c:	01bb00a3          	sb	s11,1(s6)
30004d80:	00fb0123          	sb	a5,2(s6)
30004d84:	01412783          	lw	a5,20(sp)
30004d88:	019b01a3          	sb	s9,3(s6)
30004d8c:	000c0713          	mv	a4,s8
30004d90:	00fb0223          	sb	a5,4(s6)
30004d94:	00c12783          	lw	a5,12(sp)
30004d98:	00fb02a3          	sb	a5,5(s6)
30004d9c:	01c12783          	lw	a5,28(sp)
30004da0:	00fb0323          	sb	a5,6(s6)
30004da4:	01812783          	lw	a5,24(sp)
30004da8:	00fb03a3          	sb	a5,7(s6)
30004dac:	02012783          	lw	a5,32(sp)
30004db0:	00fb0423          	sb	a5,8(s6)
30004db4:	02412783          	lw	a5,36(sp)
30004db8:	00fb04a3          	sb	a5,9(s6)
30004dbc:	02812783          	lw	a5,40(sp)
30004dc0:	00fb0523          	sb	a5,10(s6)
30004dc4:	00500793          	li	a5,5
30004dc8:	0387f863          	bgeu	a5,s8,30004df8 <_ZL12dir_registerP3DIR+0x1a0>
30004dcc:	000ad503          	lhu	a0,0(s5)
30004dd0:	000a8593          	mv	a1,s5
30004dd4:	00f71613          	slli	a2,a4,0xf
30004dd8:	00258593          	addi	a1,a1,2
30004ddc:	00c50633          	add	a2,a0,a2
30004de0:	40175713          	srai	a4,a4,0x1
30004de4:	0005d503          	lhu	a0,0(a1)
30004de8:	00e60733          	add	a4,a2,a4
30004dec:	01071713          	slli	a4,a4,0x10
30004df0:	01075713          	srli	a4,a4,0x10
30004df4:	fe0510e3          	bnez	a0,30004dd4 <_ZL12dir_registerP3DIR+0x17c>
30004df8:	00f77613          	andi	a2,a4,15
30004dfc:	03060593          	addi	a1,a2,48
30004e00:	00b47463          	bgeu	s0,a1,30004e08 <_ZL12dir_registerP3DIR+0x1b0>
30004e04:	03760593          	addi	a1,a2,55
30004e08:	00475613          	srli	a2,a4,0x4
30004e0c:	01061613          	slli	a2,a2,0x10
30004e10:	04b101a3          	sb	a1,67(sp)
30004e14:	01065613          	srli	a2,a2,0x10
30004e18:	1ee4f663          	bgeu	s1,a4,30005004 <_ZL12dir_registerP3DIR+0x3ac>
30004e1c:	00f67593          	andi	a1,a2,15
30004e20:	03058513          	addi	a0,a1,48
30004e24:	00a47463          	bgeu	s0,a0,30004e2c <_ZL12dir_registerP3DIR+0x1d4>
30004e28:	03758513          	addi	a0,a1,55
30004e2c:	00875593          	srli	a1,a4,0x8
30004e30:	01059593          	slli	a1,a1,0x10
30004e34:	04a10123          	sb	a0,66(sp)
30004e38:	0105d593          	srli	a1,a1,0x10
30004e3c:	1ec4fa63          	bgeu	s1,a2,30005030 <_ZL12dir_registerP3DIR+0x3d8>
30004e40:	00f5f513          	andi	a0,a1,15
30004e44:	03050613          	addi	a2,a0,48
30004e48:	00c47463          	bgeu	s0,a2,30004e50 <_ZL12dir_registerP3DIR+0x1f8>
30004e4c:	03750613          	addi	a2,a0,55
30004e50:	00c75713          	srli	a4,a4,0xc
30004e54:	01071713          	slli	a4,a4,0x10
30004e58:	04c100a3          	sb	a2,65(sp)
30004e5c:	01075713          	srli	a4,a4,0x10
30004e60:	1eb4f263          	bgeu	s1,a1,30005044 <_ZL12dir_registerP3DIR+0x3ec>
30004e64:	0ff77713          	andi	a4,a4,255
30004e68:	03070613          	addi	a2,a4,48
30004e6c:	0ff67613          	andi	a2,a2,255
30004e70:	00c47663          	bgeu	s0,a2,30004e7c <_ZL12dir_registerP3DIR+0x224>
30004e74:	03770713          	addi	a4,a4,55
30004e78:	0ff77613          	andi	a2,a4,255
30004e7c:	07e00713          	li	a4,126
30004e80:	04c10023          	sb	a2,64(sp)
30004e84:	02e10fa3          	sb	a4,63(sp)
30004e88:	00300613          	li	a2,3
30004e8c:	19298463          	beq	s3,s2,30005014 <_ZL12dir_registerP3DIR+0x3bc>
30004e90:	00000713          	li	a4,0
30004e94:	00c0006f          	j	30004ea0 <_ZL12dir_registerP3DIR+0x248>
30004e98:	0005c503          	lbu	a0,0(a1)
30004e9c:	01250863          	beq	a0,s2,30004eac <_ZL12dir_registerP3DIR+0x254>
30004ea0:	00170713          	addi	a4,a4,1
30004ea4:	00eb05b3          	add	a1,s6,a4
30004ea8:	fec718e3          	bne	a4,a2,30004e98 <_ZL12dir_registerP3DIR+0x240>
30004eac:	05010793          	addi	a5,sp,80
30004eb0:	00c78533          	add	a0,a5,a2
30004eb4:	fec54303          	lbu	t1,-20(a0)
30004eb8:	00170713          	addi	a4,a4,1
30004ebc:	00160513          	addi	a0,a2,1
30004ec0:	00658023          	sb	t1,0(a1)
30004ec4:	0cea6263          	bltu	s4,a4,30004f88 <_ZL12dir_registerP3DIR+0x330>
30004ec8:	05010793          	addi	a5,sp,80
30004ecc:	00a78633          	add	a2,a5,a0
30004ed0:	fec64303          	lbu	t1,-20(a2)
30004ed4:	00eb0633          	add	a2,s6,a4
30004ed8:	00170593          	addi	a1,a4,1
30004edc:	00660023          	sb	t1,0(a2)
30004ee0:	00150613          	addi	a2,a0,1
30004ee4:	0b758263          	beq	a1,s7,30004f88 <_ZL12dir_registerP3DIR+0x330>
30004ee8:	02000313          	li	t1,32
30004eec:	01760863          	beq	a2,s7,30004efc <_ZL12dir_registerP3DIR+0x2a4>
30004ef0:	00c78633          	add	a2,a5,a2
30004ef4:	fec64303          	lbu	t1,-20(a2)
30004ef8:	00250613          	addi	a2,a0,2
30004efc:	00bb05b3          	add	a1,s6,a1
30004f00:	00270513          	addi	a0,a4,2
30004f04:	00658023          	sb	t1,0(a1)
30004f08:	09750063          	beq	a0,s7,30004f88 <_ZL12dir_registerP3DIR+0x330>
30004f0c:	02000313          	li	t1,32
30004f10:	01760a63          	beq	a2,s7,30004f24 <_ZL12dir_registerP3DIR+0x2cc>
30004f14:	05010793          	addi	a5,sp,80
30004f18:	00c785b3          	add	a1,a5,a2
30004f1c:	fec5c303          	lbu	t1,-20(a1)
30004f20:	00160613          	addi	a2,a2,1
30004f24:	00ab0533          	add	a0,s6,a0
30004f28:	00370593          	addi	a1,a4,3
30004f2c:	00650023          	sb	t1,0(a0)
30004f30:	05758c63          	beq	a1,s7,30004f88 <_ZL12dir_registerP3DIR+0x330>
30004f34:	02000513          	li	a0,32
30004f38:	01461463          	bne	a2,s4,30004f40 <_ZL12dir_registerP3DIR+0x2e8>
30004f3c:	04314503          	lbu	a0,67(sp)
30004f40:	00bb05b3          	add	a1,s6,a1
30004f44:	00470613          	addi	a2,a4,4
30004f48:	00a58023          	sb	a0,0(a1)
30004f4c:	03760e63          	beq	a2,s7,30004f88 <_ZL12dir_registerP3DIR+0x330>
30004f50:	00cb0633          	add	a2,s6,a2
30004f54:	02000513          	li	a0,32
30004f58:	00570593          	addi	a1,a4,5
30004f5c:	00a60023          	sb	a0,0(a2)
30004f60:	03758463          	beq	a1,s7,30004f88 <_ZL12dir_registerP3DIR+0x330>
30004f64:	00bb05b3          	add	a1,s6,a1
30004f68:	00670613          	addi	a2,a4,6
30004f6c:	00a58023          	sb	a0,0(a1)
30004f70:	01760c63          	beq	a2,s7,30004f88 <_ZL12dir_registerP3DIR+0x330>
30004f74:	00cb0633          	add	a2,s6,a2
30004f78:	00a60023          	sb	a0,0(a2)
30004f7c:	00100793          	li	a5,1
30004f80:	00f70463          	beq	a4,a5,30004f88 <_ZL12dir_registerP3DIR+0x330>
30004f84:	00ab03a3          	sb	a0,7(s6)
30004f88:	00000593          	li	a1,0
30004f8c:	000d0513          	mv	a0,s10
30004f90:	98cfe0ef          	jal	ra,3000311c <_ZL7dir_sdiP3DIRt>
30004f94:	00050313          	mv	t1,a0
30004f98:	0c051063          	bnez	a0,30005058 <_ZL12dir_registerP3DIR+0x400>
30004f9c:	000d0513          	mv	a0,s10
30004fa0:	f44fe0ef          	jal	ra,300036e4 <_ZL8dir_findP3DIR.part.7>
30004fa4:	00050313          	mv	t1,a0
30004fa8:	0a051863          	bnez	a0,30005058 <_ZL12dir_registerP3DIR+0x400>
30004fac:	001c0693          	addi	a3,s8,1
30004fb0:	01069c13          	slli	s8,a3,0x10
30004fb4:	010c5c13          	srli	s8,s8,0x10
30004fb8:	06400713          	li	a4,100
30004fbc:	daec1ce3          	bne	s8,a4,30004d74 <_ZL12dir_registerP3DIR+0x11c>
30004fc0:	00700313          	li	t1,7
30004fc4:	08c12083          	lw	ra,140(sp)
30004fc8:	08812403          	lw	s0,136(sp)
30004fcc:	08412483          	lw	s1,132(sp)
30004fd0:	08012903          	lw	s2,128(sp)
30004fd4:	07c12983          	lw	s3,124(sp)
30004fd8:	07812a03          	lw	s4,120(sp)
30004fdc:	07412a83          	lw	s5,116(sp)
30004fe0:	07012b03          	lw	s6,112(sp)
30004fe4:	06c12b83          	lw	s7,108(sp)
30004fe8:	06812c03          	lw	s8,104(sp)
30004fec:	06412c83          	lw	s9,100(sp)
30004ff0:	06012d03          	lw	s10,96(sp)
30004ff4:	05c12d83          	lw	s11,92(sp)
30004ff8:	00030513          	mv	a0,t1
30004ffc:	09010113          	addi	sp,sp,144
30005000:	00008067          	ret
30005004:	07e00713          	li	a4,126
30005008:	04e10123          	sb	a4,66(sp)
3000500c:	00600613          	li	a2,6
30005010:	e92990e3          	bne	s3,s2,30004e90 <_ZL12dir_registerP3DIR+0x238>
30005014:	05010793          	addi	a5,sp,80
30005018:	00c78733          	add	a4,a5,a2
3000501c:	fec74583          	lbu	a1,-20(a4)
30005020:	00160513          	addi	a0,a2,1
30005024:	00100713          	li	a4,1
30005028:	00bb0023          	sb	a1,0(s6)
3000502c:	e9dff06f          	j	30004ec8 <_ZL12dir_registerP3DIR+0x270>
30005030:	07e00713          	li	a4,126
30005034:	04e100a3          	sb	a4,65(sp)
30005038:	00500613          	li	a2,5
3000503c:	e5299ae3          	bne	s3,s2,30004e90 <_ZL12dir_registerP3DIR+0x238>
30005040:	fd5ff06f          	j	30005014 <_ZL12dir_registerP3DIR+0x3bc>
30005044:	07e00713          	li	a4,126
30005048:	04e10023          	sb	a4,64(sp)
3000504c:	00400613          	li	a2,4
30005050:	e52990e3          	bne	s3,s2,30004e90 <_ZL12dir_registerP3DIR+0x238>
30005054:	fc1ff06f          	j	30005014 <_ZL12dir_registerP3DIR+0x3bc>
30005058:	00400713          	li	a4,4
3000505c:	f6e314e3          	bne	t1,a4,30004fc4 <_ZL12dir_registerP3DIR+0x36c>
30005060:	02c12783          	lw	a5,44(sp)
30005064:	00fb05a3          	sb	a5,11(s6)
30005068:	015d2e23          	sw	s5,28(s10)
3000506c:	02c12783          	lw	a5,44(sp)
30005070:	00100493          	li	s1,1
30005074:	0027f793          	andi	a5,a5,2
30005078:	04078063          	beqz	a5,300050b8 <_ZL12dir_registerP3DIR+0x460>
3000507c:	000ad783          	lhu	a5,0(s5)
30005080:	02078c63          	beqz	a5,300050b8 <_ZL12dir_registerP3DIR+0x460>
30005084:	00000793          	li	a5,0
30005088:	00178793          	addi	a5,a5,1
3000508c:	01079793          	slli	a5,a5,0x10
30005090:	0107d793          	srli	a5,a5,0x10
30005094:	00179713          	slli	a4,a5,0x1
30005098:	00ea8733          	add	a4,s5,a4
3000509c:	00075703          	lhu	a4,0(a4)
300050a0:	fe0714e3          	bnez	a4,30005088 <_ZL12dir_registerP3DIR+0x430>
300050a4:	01978493          	addi	s1,a5,25
300050a8:	00d00793          	li	a5,13
300050ac:	02f4c4b3          	div	s1,s1,a5
300050b0:	01049493          	slli	s1,s1,0x10
300050b4:	0104d493          	srli	s1,s1,0x10
300050b8:	00000593          	li	a1,0
300050bc:	000d0513          	mv	a0,s10
300050c0:	85cfe0ef          	jal	ra,3000311c <_ZL7dir_sdiP3DIRt>
300050c4:	00050313          	mv	t1,a0
300050c8:	ee051ee3          	bnez	a0,30004fc4 <_ZL12dir_registerP3DIR+0x36c>
300050cc:	000d2503          	lw	a0,0(s10)
300050d0:	010d2583          	lw	a1,16(s10)
300050d4:	00000993          	li	s3,0
300050d8:	00000413          	li	s0,0
300050dc:	8d5fd0ef          	jal	ra,300029b0 <_ZL11move_windowP5FATFSm>
300050e0:	0e500913          	li	s2,229
300050e4:	00100a13          	li	s4,1
300050e8:	fff00a93          	li	s5,-1
300050ec:	00100b13          	li	s6,1
300050f0:	00050313          	mv	t1,a0
300050f4:	ec0518e3          	bnez	a0,30004fc4 <_ZL12dir_registerP3DIR+0x36c>
300050f8:	014d2783          	lw	a5,20(s10)
300050fc:	0007c783          	lbu	a5,0(a5)
30005100:	07278e63          	beq	a5,s2,3000517c <_ZL12dir_registerP3DIR+0x524>
30005104:	06078c63          	beqz	a5,3000517c <_ZL12dir_registerP3DIR+0x524>
30005108:	00000b93          	li	s7,0
3000510c:	006d5403          	lhu	s0,6(s10)
30005110:	00140413          	addi	s0,s0,1
30005114:	01041413          	slli	s0,s0,0x10
30005118:	01045413          	srli	s0,s0,0x10
3000511c:	12040663          	beqz	s0,30005248 <_ZL12dir_registerP3DIR+0x5f0>
30005120:	010d2583          	lw	a1,16(s10)
30005124:	12058263          	beqz	a1,30005248 <_ZL12dir_registerP3DIR+0x5f0>
30005128:	00f47c93          	andi	s9,s0,15
3000512c:	000d2503          	lw	a0,0(s10)
30005130:	000c9e63          	bnez	s9,3000514c <_ZL12dir_registerP3DIR+0x4f4>
30005134:	00cd2683          	lw	a3,12(s10)
30005138:	00158593          	addi	a1,a1,1
3000513c:	00bd2823          	sw	a1,16(s10)
30005140:	10069863          	bnez	a3,30005250 <_ZL12dir_registerP3DIR+0x5f8>
30005144:	00855783          	lhu	a5,8(a0)
30005148:	10f47063          	bgeu	s0,a5,30005248 <_ZL12dir_registerP3DIR+0x5f0>
3000514c:	03050793          	addi	a5,a0,48
30005150:	005c9c93          	slli	s9,s9,0x5
30005154:	019787b3          	add	a5,a5,s9
30005158:	008d1323          	sh	s0,6(s10)
3000515c:	00fd2a23          	sw	a5,20(s10)
30005160:	851fd0ef          	jal	ra,300029b0 <_ZL11move_windowP5FATFSm>
30005164:	000b8413          	mv	s0,s7
30005168:	00050313          	mv	t1,a0
3000516c:	e4051ce3          	bnez	a0,30004fc4 <_ZL12dir_registerP3DIR+0x36c>
30005170:	014d2783          	lw	a5,20(s10)
30005174:	0007c783          	lbu	a5,0(a5)
30005178:	f92796e3          	bne	a5,s2,30005104 <_ZL12dir_registerP3DIR+0x4ac>
3000517c:	00041463          	bnez	s0,30005184 <_ZL12dir_registerP3DIR+0x52c>
30005180:	006d5983          	lhu	s3,6(s10)
30005184:	00140b93          	addi	s7,s0,1
30005188:	010b9b93          	slli	s7,s7,0x10
3000518c:	010bdb93          	srli	s7,s7,0x10
30005190:	f7749ee3          	bne	s1,s7,3000510c <_ZL12dir_registerP3DIR+0x4b4>
30005194:	00100793          	li	a5,1
30005198:	12f49a63          	bne	s1,a5,300052cc <_ZL12dir_registerP3DIR+0x674>
3000519c:	010d2583          	lw	a1,16(s10)
300051a0:	000d2503          	lw	a0,0(s10)
300051a4:	80dfd0ef          	jal	ra,300029b0 <_ZL11move_windowP5FATFSm>
300051a8:	00050313          	mv	t1,a0
300051ac:	e0051ce3          	bnez	a0,30004fc4 <_ZL12dir_registerP3DIR+0x36c>
300051b0:	014d2783          	lw	a5,20(s10)
300051b4:	00a12623          	sw	a0,12(sp)
300051b8:	02000613          	li	a2,32
300051bc:	00078513          	mv	a0,a5
300051c0:	00000593          	li	a1,0
300051c4:	5d9060ef          	jal	ra,3000bf9c <memset>
300051c8:	018d2703          	lw	a4,24(s10)
300051cc:	00450693          	addi	a3,a0,4
300051d0:	00050793          	mv	a5,a0
300051d4:	00470613          	addi	a2,a4,4
300051d8:	00d736b3          	sltu	a3,a4,a3
300051dc:	00c53633          	sltu	a2,a0,a2
300051e0:	0016c693          	xori	a3,a3,1
300051e4:	00164613          	xori	a2,a2,1
300051e8:	00c6e6b3          	or	a3,a3,a2
300051ec:	00c12303          	lw	t1,12(sp)
300051f0:	5a068063          	beqz	a3,30005790 <_ZL12dir_registerP3DIR+0xb38>
300051f4:	00e566b3          	or	a3,a0,a4
300051f8:	0036f693          	andi	a3,a3,3
300051fc:	58069a63          	bnez	a3,30005790 <_ZL12dir_registerP3DIR+0xb38>
30005200:	00072683          	lw	a3,0(a4)
30005204:	00d52023          	sw	a3,0(a0)
30005208:	00472683          	lw	a3,4(a4)
3000520c:	00d52223          	sw	a3,4(a0)
30005210:	00874683          	lbu	a3,8(a4)
30005214:	00d78423          	sb	a3,8(a5)
30005218:	00974683          	lbu	a3,9(a4)
3000521c:	00d784a3          	sb	a3,9(a5)
30005220:	00a74703          	lbu	a4,10(a4)
30005224:	00e78523          	sb	a4,10(a5)
30005228:	018d2703          	lw	a4,24(s10)
3000522c:	00b74703          	lbu	a4,11(a4)
30005230:	01877713          	andi	a4,a4,24
30005234:	00e78623          	sb	a4,12(a5)
30005238:	000d2783          	lw	a5,0(s10)
3000523c:	00100713          	li	a4,1
30005240:	00e78223          	sb	a4,4(a5)
30005244:	d81ff06f          	j	30004fc4 <_ZL12dir_registerP3DIR+0x36c>
30005248:	00400313          	li	t1,4
3000524c:	d79ff06f          	j	30004fc4 <_ZL12dir_registerP3DIR+0x36c>
30005250:	00254703          	lbu	a4,2(a0)
30005254:	00445793          	srli	a5,s0,0x4
30005258:	fff70713          	addi	a4,a4,-1
3000525c:	00f777b3          	and	a5,a4,a5
30005260:	ee0796e3          	bnez	a5,3000514c <_ZL12dir_registerP3DIR+0x4f4>
30005264:	06da7063          	bgeu	s4,a3,300052c4 <_ZL12dir_registerP3DIR+0x66c>
30005268:	01852783          	lw	a5,24(a0)
3000526c:	04f6fc63          	bgeu	a3,a5,300052c4 <_ZL12dir_registerP3DIR+0x66c>
30005270:	00068593          	mv	a1,a3
30005274:	cf1fd0ef          	jal	ra,30002f64 <_Z7get_fatP5FATFSm.part.5>
30005278:	00050793          	mv	a5,a0
3000527c:	04aa7463          	bgeu	s4,a0,300052c4 <_ZL12dir_registerP3DIR+0x66c>
30005280:	3d550263          	beq	a0,s5,30005644 <_ZL12dir_registerP3DIR+0x9ec>
30005284:	000d2503          	lw	a0,0(s10)
30005288:	01852703          	lw	a4,24(a0)
3000528c:	24e7fe63          	bgeu	a5,a4,300054e8 <_ZL12dir_registerP3DIR+0x890>
30005290:	ffe78713          	addi	a4,a5,-2
30005294:	00e12c23          	sw	a4,24(sp)
30005298:	00fd2623          	sw	a5,12(s10)
3000529c:	01852783          	lw	a5,24(a0)
300052a0:	00000593          	li	a1,0
300052a4:	ffe78793          	addi	a5,a5,-2
300052a8:	00f77a63          	bgeu	a4,a5,300052bc <_ZL12dir_registerP3DIR+0x664>
300052ac:	00254583          	lbu	a1,2(a0)
300052b0:	02852783          	lw	a5,40(a0)
300052b4:	02e585b3          	mul	a1,a1,a4
300052b8:	00f585b3          	add	a1,a1,a5
300052bc:	00bd2823          	sw	a1,16(s10)
300052c0:	e8dff06f          	j	3000514c <_ZL12dir_registerP3DIR+0x4f4>
300052c4:	00200313          	li	t1,2
300052c8:	cfdff06f          	j	30004fc4 <_ZL12dir_registerP3DIR+0x36c>
300052cc:	00098593          	mv	a1,s3
300052d0:	000d0513          	mv	a0,s10
300052d4:	e49fd0ef          	jal	ra,3000311c <_ZL7dir_sdiP3DIRt>
300052d8:	00050313          	mv	t1,a0
300052dc:	ce0514e3          	bnez	a0,30004fc4 <_ZL12dir_registerP3DIR+0x36c>
300052e0:	018d2783          	lw	a5,24(s10)
300052e4:	00010ab7          	lui	s5,0x10
300052e8:	fffa8493          	addi	s1,s5,-1 # ffff <stackPointer+0x92bf>
300052ec:	0007c683          	lbu	a3,0(a5)
300052f0:	0017c583          	lbu	a1,1(a5)
300052f4:	0027c603          	lbu	a2,2(a5)
300052f8:	00769713          	slli	a4,a3,0x7
300052fc:	00b70733          	add	a4,a4,a1
30005300:	4016d693          	srai	a3,a3,0x1
30005304:	00d70733          	add	a4,a4,a3
30005308:	0ff77713          	andi	a4,a4,255
3000530c:	00771693          	slli	a3,a4,0x7
30005310:	00c686b3          	add	a3,a3,a2
30005314:	00175713          	srli	a4,a4,0x1
30005318:	0037c603          	lbu	a2,3(a5)
3000531c:	00e686b3          	add	a3,a3,a4
30005320:	0ff6f693          	andi	a3,a3,255
30005324:	00769713          	slli	a4,a3,0x7
30005328:	00c70733          	add	a4,a4,a2
3000532c:	0016d693          	srli	a3,a3,0x1
30005330:	0047c603          	lbu	a2,4(a5)
30005334:	00d70733          	add	a4,a4,a3
30005338:	0ff77713          	andi	a4,a4,255
3000533c:	00771693          	slli	a3,a4,0x7
30005340:	00c686b3          	add	a3,a3,a2
30005344:	00175713          	srli	a4,a4,0x1
30005348:	0057c603          	lbu	a2,5(a5)
3000534c:	00e686b3          	add	a3,a3,a4
30005350:	0ff6f693          	andi	a3,a3,255
30005354:	00769713          	slli	a4,a3,0x7
30005358:	00c70733          	add	a4,a4,a2
3000535c:	0016d693          	srli	a3,a3,0x1
30005360:	0067c603          	lbu	a2,6(a5)
30005364:	00d70733          	add	a4,a4,a3
30005368:	0ff77713          	andi	a4,a4,255
3000536c:	00771693          	slli	a3,a4,0x7
30005370:	00c686b3          	add	a3,a3,a2
30005374:	00175713          	srli	a4,a4,0x1
30005378:	0077c603          	lbu	a2,7(a5)
3000537c:	00e686b3          	add	a3,a3,a4
30005380:	0ff6f693          	andi	a3,a3,255
30005384:	00769713          	slli	a4,a3,0x7
30005388:	00c70733          	add	a4,a4,a2
3000538c:	0016d693          	srli	a3,a3,0x1
30005390:	0087c603          	lbu	a2,8(a5)
30005394:	00d70733          	add	a4,a4,a3
30005398:	0ff77713          	andi	a4,a4,255
3000539c:	00771693          	slli	a3,a4,0x7
300053a0:	00c686b3          	add	a3,a3,a2
300053a4:	00175713          	srli	a4,a4,0x1
300053a8:	00e686b3          	add	a3,a3,a4
300053ac:	0097c603          	lbu	a2,9(a5)
300053b0:	0ff6f693          	andi	a3,a3,255
300053b4:	00769713          	slli	a4,a3,0x7
300053b8:	00c70733          	add	a4,a4,a2
300053bc:	0016d693          	srli	a3,a3,0x1
300053c0:	00d70733          	add	a4,a4,a3
300053c4:	00a7c683          	lbu	a3,10(a5)
300053c8:	0ff77793          	andi	a5,a4,255
300053cc:	00779913          	slli	s2,a5,0x7
300053d0:	00d90933          	add	s2,s2,a3
300053d4:	0017d793          	srli	a5,a5,0x1
300053d8:	00f907b3          	add	a5,s2,a5
300053dc:	00f00a13          	li	s4,15
300053e0:	0ff7f913          	andi	s2,a5,255
300053e4:	fff00b13          	li	s6,-1
300053e8:	ffda8a93          	addi	s5,s5,-3
300053ec:	00100993          	li	s3,1
300053f0:	010d2583          	lw	a1,16(s10)
300053f4:	000d2503          	lw	a0,0(s10)
300053f8:	db8fd0ef          	jal	ra,300029b0 <_ZL11move_windowP5FATFSm>
300053fc:	00050313          	mv	t1,a0
30005400:	bc0512e3          	bnez	a0,30004fc4 <_ZL12dir_registerP3DIR+0x36c>
30005404:	0ff47613          	andi	a2,s0,255
30005408:	fff60693          	addi	a3,a2,-1
3000540c:	00169713          	slli	a4,a3,0x1
30005410:	00d70733          	add	a4,a4,a3
30005414:	01cd2583          	lw	a1,28(s10)
30005418:	014d2783          	lw	a5,20(s10)
3000541c:	00271713          	slli	a4,a4,0x2
30005420:	00d70733          	add	a4,a4,a3
30005424:	00171513          	slli	a0,a4,0x1
30005428:	012786a3          	sb	s2,13(a5)
3000542c:	014785a3          	sb	s4,11(a5)
30005430:	00078623          	sb	zero,12(a5)
30005434:	00078d23          	sb	zero,26(a5)
30005438:	00078da3          	sb	zero,27(a5)
3000543c:	00a58533          	add	a0,a1,a0
30005440:	00055683          	lhu	a3,0(a0)
30005444:	4086d893          	srai	a7,a3,0x8
30005448:	00d780a3          	sb	a3,1(a5)
3000544c:	01178123          	sb	a7,2(a5)
30005450:	1e069e63          	bnez	a3,3000564c <_ZL12dir_registerP3DIR+0x9f4>
30005454:	016781a3          	sb	s6,3(a5)
30005458:	01678223          	sb	s6,4(a5)
3000545c:	016782a3          	sb	s6,5(a5)
30005460:	01678323          	sb	s6,6(a5)
30005464:	016783a3          	sb	s6,7(a5)
30005468:	01678423          	sb	s6,8(a5)
3000546c:	016784a3          	sb	s6,9(a5)
30005470:	01678523          	sb	s6,10(a5)
30005474:	01678723          	sb	s6,14(a5)
30005478:	016787a3          	sb	s6,15(a5)
3000547c:	01678823          	sb	s6,16(a5)
30005480:	016788a3          	sb	s6,17(a5)
30005484:	01678923          	sb	s6,18(a5)
30005488:	016789a3          	sb	s6,19(a5)
3000548c:	01678a23          	sb	s6,20(a5)
30005490:	01678aa3          	sb	s6,21(a5)
30005494:	01678b23          	sb	s6,22(a5)
30005498:	01678ba3          	sb	s6,23(a5)
3000549c:	01678c23          	sb	s6,24(a5)
300054a0:	01678ca3          	sb	s6,25(a5)
300054a4:	01678e23          	sb	s6,28(a5)
300054a8:	01678ea3          	sb	s6,29(a5)
300054ac:	01678f23          	sb	s6,30(a5)
300054b0:	01678fa3          	sb	s6,31(a5)
300054b4:	04066613          	ori	a2,a2,64
300054b8:	00c78023          	sb	a2,0(a5)
300054bc:	000d2783          	lw	a5,0(s10)
300054c0:	000d0513          	mv	a0,s10
300054c4:	01378223          	sb	s3,4(a5)
300054c8:	f9dfd0ef          	jal	ra,30003464 <_ZL8dir_nextP3DIRi.constprop.11>
300054cc:	00050313          	mv	t1,a0
300054d0:	ae051ae3          	bnez	a0,30004fc4 <_ZL12dir_registerP3DIR+0x36c>
300054d4:	fff40413          	addi	s0,s0,-1
300054d8:	01041413          	slli	s0,s0,0x10
300054dc:	01045413          	srli	s0,s0,0x10
300054e0:	f00418e3          	bnez	s0,300053f0 <_ZL12dir_registerP3DIR+0x798>
300054e4:	cb9ff06f          	j	3000519c <_ZL12dir_registerP3DIR+0x544>
300054e8:	00cd2583          	lw	a1,12(s10)
300054ec:	ab0ff0ef          	jal	ra,3000479c <_ZL12create_chainP5FATFSm>
300054f0:	00050793          	mv	a5,a0
300054f4:	ac0506e3          	beqz	a0,30004fc0 <_ZL12dir_registerP3DIR+0x368>
300054f8:	dd4506e3          	beq	a0,s4,300052c4 <_ZL12dir_registerP3DIR+0x66c>
300054fc:	15550463          	beq	a0,s5,30005644 <_ZL12dir_registerP3DIR+0x9ec>
30005500:	000d2c03          	lw	s8,0(s10)
30005504:	02cc2d83          	lw	s11,44(s8)
30005508:	030c0813          	addi	a6,s8,48
3000550c:	000d8663          	beqz	s11,30005518 <_ZL12dir_registerP3DIR+0x8c0>
30005510:	004c4703          	lbu	a4,4(s8)
30005514:	2c071c63          	bnez	a4,300057ec <_ZL12dir_registerP3DIR+0xb94>
30005518:	20000613          	li	a2,512
3000551c:	00000593          	li	a1,0
30005520:	00080513          	mv	a0,a6
30005524:	00f12623          	sw	a5,12(sp)
30005528:	275060ef          	jal	ra,3000bf9c <memset>
3000552c:	000d2683          	lw	a3,0(s10)
30005530:	00c12783          	lw	a5,12(sp)
30005534:	00000713          	li	a4,0
30005538:	0186a603          	lw	a2,24(a3)
3000553c:	ffe78593          	addi	a1,a5,-2
30005540:	00b12c23          	sw	a1,24(sp)
30005544:	ffe60613          	addi	a2,a2,-2
30005548:	00c5fa63          	bgeu	a1,a2,3000555c <_ZL12dir_registerP3DIR+0x904>
3000554c:	0026c703          	lbu	a4,2(a3)
30005550:	0286a603          	lw	a2,40(a3)
30005554:	02b70733          	mul	a4,a4,a1
30005558:	00c70733          	add	a4,a4,a2
3000555c:	02e6a623          	sw	a4,44(a3)
30005560:	000d2703          	lw	a4,0(s10)
30005564:	00274c03          	lbu	s8,2(a4)
30005568:	260c0663          	beqz	s8,300057d4 <_ZL12dir_registerP3DIR+0xb7c>
3000556c:	00000c13          	li	s8,0
30005570:	0200006f          	j	30005590 <_ZL12dir_registerP3DIR+0x938>
30005574:	001d8d93          	addi	s11,s11,1
30005578:	03b72623          	sw	s11,44(a4)
3000557c:	000d2703          	lw	a4,0(s10)
30005580:	001c0893          	addi	a7,s8,1
30005584:	0ff8fc13          	andi	s8,a7,255
30005588:	00274683          	lbu	a3,2(a4)
3000558c:	24dc7463          	bgeu	s8,a3,300057d4 <_ZL12dir_registerP3DIR+0xb7c>
30005590:	01670223          	sb	s6,4(a4)
30005594:	000d2703          	lw	a4,0(s10)
30005598:	02c72d83          	lw	s11,44(a4)
3000559c:	fc0d8ce3          	beqz	s11,30005574 <_ZL12dir_registerP3DIR+0x91c>
300055a0:	00474683          	lbu	a3,4(a4)
300055a4:	fc0688e3          	beqz	a3,30005574 <_ZL12dir_registerP3DIR+0x91c>
300055a8:	00174503          	lbu	a0,1(a4)
300055ac:	00f12823          	sw	a5,16(sp)
300055b0:	03070793          	addi	a5,a4,48
300055b4:	00100693          	li	a3,1
300055b8:	000d8613          	mv	a2,s11
300055bc:	00078593          	mv	a1,a5
300055c0:	00e12623          	sw	a4,12(sp)
300055c4:	00f12e23          	sw	a5,28(sp)
300055c8:	f00fc0ef          	jal	ra,30001cc8 <disk_write>
300055cc:	06051c63          	bnez	a0,30005644 <_ZL12dir_registerP3DIR+0x9ec>
300055d0:	00c12703          	lw	a4,12(sp)
300055d4:	01012783          	lw	a5,16(sp)
300055d8:	01c72683          	lw	a3,28(a4)
300055dc:	02072603          	lw	a2,32(a4)
300055e0:	00070223          	sb	zero,4(a4)
300055e4:	00c68633          	add	a2,a3,a2
300055e8:	04cdf863          	bgeu	s11,a2,30005638 <_ZL12dir_registerP3DIR+0x9e0>
300055ec:	00374303          	lbu	t1,3(a4)
300055f0:	006a6663          	bltu	s4,t1,300055fc <_ZL12dir_registerP3DIR+0x9a4>
300055f4:	0440006f          	j	30005638 <_ZL12dir_registerP3DIR+0x9e0>
300055f8:	01c72683          	lw	a3,28(a4)
300055fc:	00174503          	lbu	a0,1(a4)
30005600:	01c12583          	lw	a1,28(sp)
30005604:	00dd8db3          	add	s11,s11,a3
30005608:	000d8613          	mv	a2,s11
3000560c:	00100693          	li	a3,1
30005610:	00612a23          	sw	t1,20(sp)
30005614:	00f12823          	sw	a5,16(sp)
30005618:	00e12623          	sw	a4,12(sp)
3000561c:	eacfc0ef          	jal	ra,30001cc8 <disk_write>
30005620:	01412303          	lw	t1,20(sp)
30005624:	00c12703          	lw	a4,12(sp)
30005628:	01012783          	lw	a5,16(sp)
3000562c:	fff30313          	addi	t1,t1,-1
30005630:	0ff37313          	andi	t1,t1,255
30005634:	fd4312e3          	bne	t1,s4,300055f8 <_ZL12dir_registerP3DIR+0x9a0>
30005638:	000d2703          	lw	a4,0(s10)
3000563c:	02c72d83          	lw	s11,44(a4)
30005640:	f35ff06f          	j	30005574 <_ZL12dir_registerP3DIR+0x91c>
30005644:	00100313          	li	t1,1
30005648:	97dff06f          	j	30004fc4 <_ZL12dir_registerP3DIR+0x36c>
3000564c:	e09684e3          	beq	a3,s1,30005454 <_ZL12dir_registerP3DIR+0x7fc>
30005650:	00170713          	addi	a4,a4,1
30005654:	00171713          	slli	a4,a4,0x1
30005658:	00e58733          	add	a4,a1,a4
3000565c:	00075683          	lhu	a3,0(a4)
30005660:	4086d593          	srai	a1,a3,0x8
30005664:	00d781a3          	sb	a3,3(a5)
30005668:	00b78223          	sb	a1,4(a5)
3000566c:	de0688e3          	beqz	a3,3000545c <_ZL12dir_registerP3DIR+0x804>
30005670:	de9686e3          	beq	a3,s1,3000545c <_ZL12dir_registerP3DIR+0x804>
30005674:	00275683          	lhu	a3,2(a4)
30005678:	4086d593          	srai	a1,a3,0x8
3000567c:	00d782a3          	sb	a3,5(a5)
30005680:	00b78323          	sb	a1,6(a5)
30005684:	de0680e3          	beqz	a3,30005464 <_ZL12dir_registerP3DIR+0x80c>
30005688:	dc968ee3          	beq	a3,s1,30005464 <_ZL12dir_registerP3DIR+0x80c>
3000568c:	00475683          	lhu	a3,4(a4)
30005690:	4086d593          	srai	a1,a3,0x8
30005694:	00d783a3          	sb	a3,7(a5)
30005698:	00b78423          	sb	a1,8(a5)
3000569c:	dc0688e3          	beqz	a3,3000546c <_ZL12dir_registerP3DIR+0x814>
300056a0:	dc9686e3          	beq	a3,s1,3000546c <_ZL12dir_registerP3DIR+0x814>
300056a4:	00675683          	lhu	a3,6(a4)
300056a8:	4086d593          	srai	a1,a3,0x8
300056ac:	00d784a3          	sb	a3,9(a5)
300056b0:	00b78523          	sb	a1,10(a5)
300056b4:	dc0680e3          	beqz	a3,30005474 <_ZL12dir_registerP3DIR+0x81c>
300056b8:	da968ee3          	beq	a3,s1,30005474 <_ZL12dir_registerP3DIR+0x81c>
300056bc:	00875683          	lhu	a3,8(a4)
300056c0:	4086d593          	srai	a1,a3,0x8
300056c4:	00d78723          	sb	a3,14(a5)
300056c8:	00b787a3          	sb	a1,15(a5)
300056cc:	da0688e3          	beqz	a3,3000547c <_ZL12dir_registerP3DIR+0x824>
300056d0:	da9686e3          	beq	a3,s1,3000547c <_ZL12dir_registerP3DIR+0x824>
300056d4:	00a75683          	lhu	a3,10(a4)
300056d8:	4086d593          	srai	a1,a3,0x8
300056dc:	00d78823          	sb	a3,16(a5)
300056e0:	00b788a3          	sb	a1,17(a5)
300056e4:	da0680e3          	beqz	a3,30005484 <_ZL12dir_registerP3DIR+0x82c>
300056e8:	d8968ee3          	beq	a3,s1,30005484 <_ZL12dir_registerP3DIR+0x82c>
300056ec:	00c75683          	lhu	a3,12(a4)
300056f0:	4086d593          	srai	a1,a3,0x8
300056f4:	00d78923          	sb	a3,18(a5)
300056f8:	00b789a3          	sb	a1,19(a5)
300056fc:	d80688e3          	beqz	a3,3000548c <_ZL12dir_registerP3DIR+0x834>
30005700:	d89686e3          	beq	a3,s1,3000548c <_ZL12dir_registerP3DIR+0x834>
30005704:	00e75683          	lhu	a3,14(a4)
30005708:	4086d593          	srai	a1,a3,0x8
3000570c:	00d78a23          	sb	a3,20(a5)
30005710:	00b78aa3          	sb	a1,21(a5)
30005714:	d80680e3          	beqz	a3,30005494 <_ZL12dir_registerP3DIR+0x83c>
30005718:	d6968ee3          	beq	a3,s1,30005494 <_ZL12dir_registerP3DIR+0x83c>
3000571c:	01075683          	lhu	a3,16(a4)
30005720:	4086d593          	srai	a1,a3,0x8
30005724:	00d78b23          	sb	a3,22(a5)
30005728:	00b78ba3          	sb	a1,23(a5)
3000572c:	d60688e3          	beqz	a3,3000549c <_ZL12dir_registerP3DIR+0x844>
30005730:	d69686e3          	beq	a3,s1,3000549c <_ZL12dir_registerP3DIR+0x844>
30005734:	01275683          	lhu	a3,18(a4)
30005738:	4086d593          	srai	a1,a3,0x8
3000573c:	00d78c23          	sb	a3,24(a5)
30005740:	00b78ca3          	sb	a1,25(a5)
30005744:	d60680e3          	beqz	a3,300054a4 <_ZL12dir_registerP3DIR+0x84c>
30005748:	d4968ee3          	beq	a3,s1,300054a4 <_ZL12dir_registerP3DIR+0x84c>
3000574c:	01475683          	lhu	a3,20(a4)
30005750:	4086d593          	srai	a1,a3,0x8
30005754:	00d78e23          	sb	a3,28(a5)
30005758:	00b78ea3          	sb	a1,29(a5)
3000575c:	d40688e3          	beqz	a3,300054ac <_ZL12dir_registerP3DIR+0x854>
30005760:	d49686e3          	beq	a3,s1,300054ac <_ZL12dir_registerP3DIR+0x854>
30005764:	01675683          	lhu	a3,22(a4)
30005768:	fff68713          	addi	a4,a3,-1
3000576c:	4086d593          	srai	a1,a3,0x8
30005770:	01071713          	slli	a4,a4,0x10
30005774:	00d78f23          	sb	a3,30(a5)
30005778:	00b78fa3          	sb	a1,31(a5)
3000577c:	01075713          	srli	a4,a4,0x10
30005780:	d2eaeae3          	bltu	s5,a4,300054b4 <_ZL12dir_registerP3DIR+0x85c>
30005784:	01a55703          	lhu	a4,26(a0)
30005788:	d20718e3          	bnez	a4,300054b8 <_ZL12dir_registerP3DIR+0x860>
3000578c:	d29ff06f          	j	300054b4 <_ZL12dir_registerP3DIR+0x85c>
30005790:	00074683          	lbu	a3,0(a4)
30005794:	00d78023          	sb	a3,0(a5)
30005798:	00174683          	lbu	a3,1(a4)
3000579c:	00d780a3          	sb	a3,1(a5)
300057a0:	00274683          	lbu	a3,2(a4)
300057a4:	00d78123          	sb	a3,2(a5)
300057a8:	00374683          	lbu	a3,3(a4)
300057ac:	00d781a3          	sb	a3,3(a5)
300057b0:	00474683          	lbu	a3,4(a4)
300057b4:	00d78223          	sb	a3,4(a5)
300057b8:	00574683          	lbu	a3,5(a4)
300057bc:	00d782a3          	sb	a3,5(a5)
300057c0:	00674683          	lbu	a3,6(a4)
300057c4:	00d78323          	sb	a3,6(a5)
300057c8:	00774683          	lbu	a3,7(a4)
300057cc:	00d783a3          	sb	a3,7(a5)
300057d0:	a41ff06f          	j	30005210 <_ZL12dir_registerP3DIR+0x5b8>
300057d4:	02c72683          	lw	a3,44(a4)
300057d8:	418688b3          	sub	a7,a3,s8
300057dc:	03172623          	sw	a7,44(a4)
300057e0:	000d2503          	lw	a0,0(s10)
300057e4:	01812703          	lw	a4,24(sp)
300057e8:	ab1ff06f          	j	30005298 <_ZL12dir_registerP3DIR+0x640>
300057ec:	00a12823          	sw	a0,16(sp)
300057f0:	001c4503          	lbu	a0,1(s8)
300057f4:	00100693          	li	a3,1
300057f8:	000d8613          	mv	a2,s11
300057fc:	00080593          	mv	a1,a6
30005800:	01012623          	sw	a6,12(sp)
30005804:	cc4fc0ef          	jal	ra,30001cc8 <disk_write>
30005808:	e2051ee3          	bnez	a0,30005644 <_ZL12dir_registerP3DIR+0x9ec>
3000580c:	01cc2683          	lw	a3,28(s8)
30005810:	020c2703          	lw	a4,32(s8)
30005814:	000c0223          	sb	zero,4(s8)
30005818:	00c12803          	lw	a6,12(sp)
3000581c:	00e68733          	add	a4,a3,a4
30005820:	01012783          	lw	a5,16(sp)
30005824:	04edf863          	bgeu	s11,a4,30005874 <_ZL12dir_registerP3DIR+0xc1c>
30005828:	003c4703          	lbu	a4,3(s8)
3000582c:	00ea6663          	bltu	s4,a4,30005838 <_ZL12dir_registerP3DIR+0xbe0>
30005830:	0440006f          	j	30005874 <_ZL12dir_registerP3DIR+0xc1c>
30005834:	01cc2683          	lw	a3,28(s8)
30005838:	001c4503          	lbu	a0,1(s8)
3000583c:	00dd8db3          	add	s11,s11,a3
30005840:	00080593          	mv	a1,a6
30005844:	00100693          	li	a3,1
30005848:	000d8613          	mv	a2,s11
3000584c:	00e12a23          	sw	a4,20(sp)
30005850:	00f12823          	sw	a5,16(sp)
30005854:	01012623          	sw	a6,12(sp)
30005858:	c70fc0ef          	jal	ra,30001cc8 <disk_write>
3000585c:	01412703          	lw	a4,20(sp)
30005860:	00c12803          	lw	a6,12(sp)
30005864:	01012783          	lw	a5,16(sp)
30005868:	fff70713          	addi	a4,a4,-1
3000586c:	0ff77713          	andi	a4,a4,255
30005870:	fd4712e3          	bne	a4,s4,30005834 <_ZL12dir_registerP3DIR+0xbdc>
30005874:	000d2703          	lw	a4,0(s10)
30005878:	03070813          	addi	a6,a4,48
3000587c:	c9dff06f          	j	30005518 <_ZL12dir_registerP3DIR+0x8c0>

30005880 <_Z10clust2sectP5FATFSm>:
30005880:	01852703          	lw	a4,24(a0)
30005884:	ffe58593          	addi	a1,a1,-2
30005888:	ffe70713          	addi	a4,a4,-2
3000588c:	00e5fc63          	bgeu	a1,a4,300058a4 <_Z10clust2sectP5FATFSm+0x24>
30005890:	00254783          	lbu	a5,2(a0)
30005894:	02852703          	lw	a4,40(a0)
30005898:	02b78533          	mul	a0,a5,a1
3000589c:	00e50533          	add	a0,a0,a4
300058a0:	00008067          	ret
300058a4:	00000513          	li	a0,0
300058a8:	00008067          	ret

300058ac <_Z7get_fatP5FATFSm>:
300058ac:	00100713          	li	a4,1
300058b0:	06b77663          	bgeu	a4,a1,3000591c <_Z7get_fatP5FATFSm+0x70>
300058b4:	fe010113          	addi	sp,sp,-32
300058b8:	00912a23          	sw	s1,20(sp)
300058bc:	00112e23          	sw	ra,28(sp)
300058c0:	00812c23          	sw	s0,24(sp)
300058c4:	01212823          	sw	s2,16(sp)
300058c8:	01312623          	sw	s3,12(sp)
300058cc:	01852683          	lw	a3,24(a0)
300058d0:	00050493          	mv	s1,a0
300058d4:	00100793          	li	a5,1
300058d8:	02d5f263          	bgeu	a1,a3,300058fc <_Z7get_fatP5FATFSm+0x50>
300058dc:	00054683          	lbu	a3,0(a0)
300058e0:	00200793          	li	a5,2
300058e4:	00058413          	mv	s0,a1
300058e8:	12f68663          	beq	a3,a5,30005a14 <_Z7get_fatP5FATFSm+0x168>
300058ec:	00300793          	li	a5,3
300058f0:	0cf68463          	beq	a3,a5,300059b8 <_Z7get_fatP5FATFSm+0x10c>
300058f4:	fff00793          	li	a5,-1
300058f8:	02e68863          	beq	a3,a4,30005928 <_Z7get_fatP5FATFSm+0x7c>
300058fc:	01c12083          	lw	ra,28(sp)
30005900:	01812403          	lw	s0,24(sp)
30005904:	01412483          	lw	s1,20(sp)
30005908:	01012903          	lw	s2,16(sp)
3000590c:	00c12983          	lw	s3,12(sp)
30005910:	00078513          	mv	a0,a5
30005914:	02010113          	addi	sp,sp,32
30005918:	00008067          	ret
3000591c:	00100793          	li	a5,1
30005920:	00078513          	mv	a0,a5
30005924:	00008067          	ret
30005928:	0015d913          	srli	s2,a1,0x1
3000592c:	02052783          	lw	a5,32(a0)
30005930:	00b90933          	add	s2,s2,a1
30005934:	00995593          	srli	a1,s2,0x9
30005938:	00f585b3          	add	a1,a1,a5
3000593c:	874fd0ef          	jal	ra,300029b0 <_ZL11move_windowP5FATFSm>
30005940:	04051a63          	bnez	a0,30005994 <_Z7get_fatP5FATFSm+0xe8>
30005944:	0204a783          	lw	a5,32(s1)
30005948:	00190993          	addi	s3,s2,1
3000594c:	0099d593          	srli	a1,s3,0x9
30005950:	1ff97913          	andi	s2,s2,511
30005954:	01248933          	add	s2,s1,s2
30005958:	00f585b3          	add	a1,a1,a5
3000595c:	00048513          	mv	a0,s1
30005960:	03094903          	lbu	s2,48(s2)
30005964:	84cfd0ef          	jal	ra,300029b0 <_ZL11move_windowP5FATFSm>
30005968:	02051663          	bnez	a0,30005994 <_Z7get_fatP5FATFSm+0xe8>
3000596c:	1ff9f593          	andi	a1,s3,511
30005970:	00b485b3          	add	a1,s1,a1
30005974:	0305c783          	lbu	a5,48(a1)
30005978:	00147593          	andi	a1,s0,1
3000597c:	00879793          	slli	a5,a5,0x8
30005980:	0127e7b3          	or	a5,a5,s2
30005984:	08059463          	bnez	a1,30005a0c <_Z7get_fatP5FATFSm+0x160>
30005988:	01479793          	slli	a5,a5,0x14
3000598c:	0147d793          	srli	a5,a5,0x14
30005990:	f6dff06f          	j	300058fc <_Z7get_fatP5FATFSm+0x50>
30005994:	01c12083          	lw	ra,28(sp)
30005998:	01812403          	lw	s0,24(sp)
3000599c:	fff00793          	li	a5,-1
300059a0:	01412483          	lw	s1,20(sp)
300059a4:	01012903          	lw	s2,16(sp)
300059a8:	00c12983          	lw	s3,12(sp)
300059ac:	00078513          	mv	a0,a5
300059b0:	02010113          	addi	sp,sp,32
300059b4:	00008067          	ret
300059b8:	02052783          	lw	a5,32(a0)
300059bc:	0075d593          	srli	a1,a1,0x7
300059c0:	00f585b3          	add	a1,a1,a5
300059c4:	fedfc0ef          	jal	ra,300029b0 <_ZL11move_windowP5FATFSm>
300059c8:	fc0516e3          	bnez	a0,30005994 <_Z7get_fatP5FATFSm+0xe8>
300059cc:	00241593          	slli	a1,s0,0x2
300059d0:	1fc5f593          	andi	a1,a1,508
300059d4:	03058713          	addi	a4,a1,48
300059d8:	00e48733          	add	a4,s1,a4
300059dc:	00374783          	lbu	a5,3(a4)
300059e0:	00274683          	lbu	a3,2(a4)
300059e4:	00b485b3          	add	a1,s1,a1
300059e8:	0305c603          	lbu	a2,48(a1)
300059ec:	00174703          	lbu	a4,1(a4)
300059f0:	01879793          	slli	a5,a5,0x18
300059f4:	01069693          	slli	a3,a3,0x10
300059f8:	00d7e7b3          	or	a5,a5,a3
300059fc:	00c7e7b3          	or	a5,a5,a2
30005a00:	00871713          	slli	a4,a4,0x8
30005a04:	00e7e7b3          	or	a5,a5,a4
30005a08:	00479793          	slli	a5,a5,0x4
30005a0c:	0047d793          	srli	a5,a5,0x4
30005a10:	eedff06f          	j	300058fc <_Z7get_fatP5FATFSm+0x50>
30005a14:	02052783          	lw	a5,32(a0)
30005a18:	0085d593          	srli	a1,a1,0x8
30005a1c:	00f585b3          	add	a1,a1,a5
30005a20:	f91fc0ef          	jal	ra,300029b0 <_ZL11move_windowP5FATFSm>
30005a24:	f60518e3          	bnez	a0,30005994 <_Z7get_fatP5FATFSm+0xe8>
30005a28:	00141593          	slli	a1,s0,0x1
30005a2c:	1fe5f593          	andi	a1,a1,510
30005a30:	00b485b3          	add	a1,s1,a1
30005a34:	0315c783          	lbu	a5,49(a1)
30005a38:	0305c703          	lbu	a4,48(a1)
30005a3c:	00879793          	slli	a5,a5,0x8
30005a40:	00e7e7b3          	or	a5,a5,a4
30005a44:	eb9ff06f          	j	300058fc <_Z7get_fatP5FATFSm+0x50>

30005a48 <_Z7put_fatP5FATFSmm>:
30005a48:	fe010113          	addi	sp,sp,-32
30005a4c:	01312623          	sw	s3,12(sp)
30005a50:	00112e23          	sw	ra,28(sp)
30005a54:	00812c23          	sw	s0,24(sp)
30005a58:	00912a23          	sw	s1,20(sp)
30005a5c:	01212823          	sw	s2,16(sp)
30005a60:	01412423          	sw	s4,8(sp)
30005a64:	01512223          	sw	s5,4(sp)
30005a68:	01612023          	sw	s6,0(sp)
30005a6c:	00100793          	li	a5,1
30005a70:	00200993          	li	s3,2
30005a74:	02b7fc63          	bgeu	a5,a1,30005aac <_Z7put_fatP5FATFSmm+0x64>
30005a78:	01852703          	lw	a4,24(a0)
30005a7c:	00050493          	mv	s1,a0
30005a80:	00200993          	li	s3,2
30005a84:	02e5f463          	bgeu	a1,a4,30005aac <_Z7put_fatP5FATFSmm+0x64>
30005a88:	00054a03          	lbu	s4,0(a0)
30005a8c:	00060913          	mv	s2,a2
30005a90:	00058413          	mv	s0,a1
30005a94:	053a0263          	beq	s4,s3,30005ad8 <_Z7put_fatP5FATFSmm+0x90>
30005a98:	00300713          	li	a4,3
30005a9c:	0eea0c63          	beq	s4,a4,30005b94 <_Z7put_fatP5FATFSmm+0x14c>
30005aa0:	06fa0663          	beq	s4,a5,30005b0c <_Z7put_fatP5FATFSmm+0xc4>
30005aa4:	00100793          	li	a5,1
30005aa8:	00f48223          	sb	a5,4(s1)
30005aac:	01c12083          	lw	ra,28(sp)
30005ab0:	01812403          	lw	s0,24(sp)
30005ab4:	00098513          	mv	a0,s3
30005ab8:	01412483          	lw	s1,20(sp)
30005abc:	01012903          	lw	s2,16(sp)
30005ac0:	00c12983          	lw	s3,12(sp)
30005ac4:	00812a03          	lw	s4,8(sp)
30005ac8:	00412a83          	lw	s5,4(sp)
30005acc:	00012b03          	lw	s6,0(sp)
30005ad0:	02010113          	addi	sp,sp,32
30005ad4:	00008067          	ret
30005ad8:	02052783          	lw	a5,32(a0)
30005adc:	0085d593          	srli	a1,a1,0x8
30005ae0:	00f585b3          	add	a1,a1,a5
30005ae4:	ecdfc0ef          	jal	ra,300029b0 <_ZL11move_windowP5FATFSm>
30005ae8:	00050993          	mv	s3,a0
30005aec:	fa051ce3          	bnez	a0,30005aa4 <_Z7put_fatP5FATFSmm+0x5c>
30005af0:	00141793          	slli	a5,s0,0x1
30005af4:	1fe7f793          	andi	a5,a5,510
30005af8:	00f487b3          	add	a5,s1,a5
30005afc:	40895713          	srai	a4,s2,0x8
30005b00:	03278823          	sb	s2,48(a5)
30005b04:	02e788a3          	sb	a4,49(a5)
30005b08:	f9dff06f          	j	30005aa4 <_Z7put_fatP5FATFSmm+0x5c>
30005b0c:	02052783          	lw	a5,32(a0)
30005b10:	0015da93          	srli	s5,a1,0x1
30005b14:	00ba8ab3          	add	s5,s5,a1
30005b18:	009ad593          	srli	a1,s5,0x9
30005b1c:	00f585b3          	add	a1,a1,a5
30005b20:	e91fc0ef          	jal	ra,300029b0 <_ZL11move_windowP5FATFSm>
30005b24:	00050993          	mv	s3,a0
30005b28:	f6051ee3          	bnez	a0,30005aa4 <_Z7put_fatP5FATFSmm+0x5c>
30005b2c:	0204a783          	lw	a5,32(s1)
30005b30:	001a8b13          	addi	s6,s5,1
30005b34:	009b5593          	srli	a1,s6,0x9
30005b38:	1ffafa93          	andi	s5,s5,511
30005b3c:	00147413          	andi	s0,s0,1
30005b40:	00f585b3          	add	a1,a1,a5
30005b44:	01548ab3          	add	s5,s1,s5
30005b48:	0a040663          	beqz	s0,30005bf4 <_Z7put_fatP5FATFSmm+0x1ac>
30005b4c:	030ac783          	lbu	a5,48(s5)
30005b50:	000016b7          	lui	a3,0x1
30005b54:	00491713          	slli	a4,s2,0x4
30005b58:	ff068693          	addi	a3,a3,-16 # ff0 <stackPointer-0x5d50>
30005b5c:	00f7f793          	andi	a5,a5,15
30005b60:	00d77733          	and	a4,a4,a3
30005b64:	00e7e7b3          	or	a5,a5,a4
30005b68:	02fa8823          	sb	a5,48(s5)
30005b6c:	01448223          	sb	s4,4(s1)
30005b70:	00048513          	mv	a0,s1
30005b74:	e3dfc0ef          	jal	ra,300029b0 <_ZL11move_windowP5FATFSm>
30005b78:	0a051a63          	bnez	a0,30005c2c <_Z7put_fatP5FATFSmm+0x1e4>
30005b7c:	1ffb7b13          	andi	s6,s6,511
30005b80:	00495793          	srli	a5,s2,0x4
30005b84:	0ff7f793          	andi	a5,a5,255
30005b88:	01648b33          	add	s6,s1,s6
30005b8c:	02fb0823          	sb	a5,48(s6)
30005b90:	f15ff06f          	j	30005aa4 <_Z7put_fatP5FATFSmm+0x5c>
30005b94:	02052783          	lw	a5,32(a0)
30005b98:	0075d593          	srli	a1,a1,0x7
30005b9c:	00f585b3          	add	a1,a1,a5
30005ba0:	e11fc0ef          	jal	ra,300029b0 <_ZL11move_windowP5FATFSm>
30005ba4:	00050993          	mv	s3,a0
30005ba8:	ee051ee3          	bnez	a0,30005aa4 <_Z7put_fatP5FATFSmm+0x5c>
30005bac:	00241593          	slli	a1,s0,0x2
30005bb0:	1fc5f593          	andi	a1,a1,508
30005bb4:	03058713          	addi	a4,a1,48
30005bb8:	00e48733          	add	a4,s1,a4
30005bbc:	00374783          	lbu	a5,3(a4)
30005bc0:	f00006b7          	lui	a3,0xf0000
30005bc4:	00b485b3          	add	a1,s1,a1
30005bc8:	01879793          	slli	a5,a5,0x18
30005bcc:	00d7f7b3          	and	a5,a5,a3
30005bd0:	0127e933          	or	s2,a5,s2
30005bd4:	03258823          	sb	s2,48(a1)
30005bd8:	40895693          	srai	a3,s2,0x8
30005bdc:	01095793          	srli	a5,s2,0x10
30005be0:	01895913          	srli	s2,s2,0x18
30005be4:	00d700a3          	sb	a3,1(a4)
30005be8:	00f70123          	sb	a5,2(a4)
30005bec:	012701a3          	sb	s2,3(a4)
30005bf0:	eb5ff06f          	j	30005aa4 <_Z7put_fatP5FATFSmm+0x5c>
30005bf4:	032a8823          	sb	s2,48(s5)
30005bf8:	01448223          	sb	s4,4(s1)
30005bfc:	00048513          	mv	a0,s1
30005c00:	db1fc0ef          	jal	ra,300029b0 <_ZL11move_windowP5FATFSm>
30005c04:	02051463          	bnez	a0,30005c2c <_Z7put_fatP5FATFSmm+0x1e4>
30005c08:	1ffb7b13          	andi	s6,s6,511
30005c0c:	01648b33          	add	s6,s1,s6
30005c10:	030b4703          	lbu	a4,48(s6)
30005c14:	00895793          	srli	a5,s2,0x8
30005c18:	00f7f793          	andi	a5,a5,15
30005c1c:	ff077713          	andi	a4,a4,-16
30005c20:	00f767b3          	or	a5,a4,a5
30005c24:	02fb0823          	sb	a5,48(s6)
30005c28:	e7dff06f          	j	30005aa4 <_Z7put_fatP5FATFSmm+0x5c>
30005c2c:	00050993          	mv	s3,a0
30005c30:	e75ff06f          	j	30005aa4 <_Z7put_fatP5FATFSmm+0x5c>

30005c34 <_Z11gen_numnamePhPKhPKtt>:
30005c34:	00458793          	addi	a5,a1,4
30005c38:	00450713          	addi	a4,a0,4
30005c3c:	00f537b3          	sltu	a5,a0,a5
30005c40:	00e5b733          	sltu	a4,a1,a4
30005c44:	0017c793          	xori	a5,a5,1
30005c48:	00174713          	xori	a4,a4,1
30005c4c:	00e7e7b3          	or	a5,a5,a4
30005c50:	ff010113          	addi	sp,sp,-16
30005c54:	24078c63          	beqz	a5,30005eac <_Z11gen_numnamePhPKhPKtt+0x278>
30005c58:	00b567b3          	or	a5,a0,a1
30005c5c:	0037f793          	andi	a5,a5,3
30005c60:	24079663          	bnez	a5,30005eac <_Z11gen_numnamePhPKhPKtt+0x278>
30005c64:	0005a783          	lw	a5,0(a1)
30005c68:	00f52023          	sw	a5,0(a0)
30005c6c:	0045a783          	lw	a5,4(a1)
30005c70:	00f52223          	sw	a5,4(a0)
30005c74:	0085c783          	lbu	a5,8(a1)
30005c78:	00f50423          	sb	a5,8(a0)
30005c7c:	0095c783          	lbu	a5,9(a1)
30005c80:	00f504a3          	sb	a5,9(a0)
30005c84:	00a5c783          	lbu	a5,10(a1)
30005c88:	00f50523          	sb	a5,10(a0)
30005c8c:	00500793          	li	a5,5
30005c90:	02d7f663          	bgeu	a5,a3,30005cbc <_Z11gen_numnamePhPKhPKtt+0x88>
30005c94:	00065703          	lhu	a4,0(a2)
30005c98:	00f69793          	slli	a5,a3,0xf
30005c9c:	00260613          	addi	a2,a2,2
30005ca0:	00f707b3          	add	a5,a4,a5
30005ca4:	0016d693          	srli	a3,a3,0x1
30005ca8:	00065703          	lhu	a4,0(a2)
30005cac:	00d786b3          	add	a3,a5,a3
30005cb0:	01069693          	slli	a3,a3,0x10
30005cb4:	0106d693          	srli	a3,a3,0x10
30005cb8:	fe0710e3          	bnez	a4,30005c98 <_Z11gen_numnamePhPKhPKtt+0x64>
30005cbc:	00f6f713          	andi	a4,a3,15
30005cc0:	03070793          	addi	a5,a4,48
30005cc4:	03900613          	li	a2,57
30005cc8:	00f67463          	bgeu	a2,a5,30005cd0 <_Z11gen_numnamePhPKhPKtt+0x9c>
30005ccc:	03770793          	addi	a5,a4,55
30005cd0:	00f107a3          	sb	a5,15(sp)
30005cd4:	00f00793          	li	a5,15
30005cd8:	0046d713          	srli	a4,a3,0x4
30005cdc:	20d7fa63          	bgeu	a5,a3,30005ef0 <_Z11gen_numnamePhPKhPKtt+0x2bc>
30005ce0:	00f77613          	andi	a2,a4,15
30005ce4:	03060793          	addi	a5,a2,48
30005ce8:	03900593          	li	a1,57
30005cec:	16f5e063          	bltu	a1,a5,30005e4c <_Z11gen_numnamePhPKhPKtt+0x218>
30005cf0:	00f10723          	sb	a5,14(sp)
30005cf4:	00f00793          	li	a5,15
30005cf8:	0086d613          	srli	a2,a3,0x8
30005cfc:	16e7f263          	bgeu	a5,a4,30005e60 <_Z11gen_numnamePhPKhPKtt+0x22c>
30005d00:	00f67713          	andi	a4,a2,15
30005d04:	03070793          	addi	a5,a4,48
30005d08:	03900593          	li	a1,57
30005d0c:	16f5e863          	bltu	a1,a5,30005e7c <_Z11gen_numnamePhPKhPKtt+0x248>
30005d10:	00f106a3          	sb	a5,13(sp)
30005d14:	00f00793          	li	a5,15
30005d18:	00c6d693          	srli	a3,a3,0xc
30005d1c:	1ec7f463          	bgeu	a5,a2,30005f04 <_Z11gen_numnamePhPKhPKtt+0x2d0>
30005d20:	0ff6f693          	andi	a3,a3,255
30005d24:	03068793          	addi	a5,a3,48 # f0000030 <__bss_end__+0xbff00030>
30005d28:	0ff7f793          	andi	a5,a5,255
30005d2c:	03900713          	li	a4,57
30005d30:	16f76463          	bltu	a4,a5,30005e98 <_Z11gen_numnamePhPKhPKtt+0x264>
30005d34:	00f10623          	sb	a5,12(sp)
30005d38:	00300613          	li	a2,3
30005d3c:	01010793          	addi	a5,sp,16
30005d40:	00c78833          	add	a6,a5,a2
30005d44:	07e00793          	li	a5,126
30005d48:	fef80c23          	sb	a5,-8(a6)
30005d4c:	00054703          	lbu	a4,0(a0)
30005d50:	02000793          	li	a5,32
30005d54:	1af70c63          	beq	a4,a5,30005f0c <_Z11gen_numnamePhPKhPKtt+0x2d8>
30005d58:	00000793          	li	a5,0
30005d5c:	02000593          	li	a1,32
30005d60:	00c0006f          	j	30005d6c <_Z11gen_numnamePhPKhPKtt+0x138>
30005d64:	00074683          	lbu	a3,0(a4)
30005d68:	00b68863          	beq	a3,a1,30005d78 <_Z11gen_numnamePhPKhPKtt+0x144>
30005d6c:	00178793          	addi	a5,a5,1
30005d70:	00f50733          	add	a4,a0,a5
30005d74:	fec798e3          	bne	a5,a2,30005d64 <_Z11gen_numnamePhPKhPKtt+0x130>
30005d78:	ff884583          	lbu	a1,-8(a6)
30005d7c:	00178793          	addi	a5,a5,1
30005d80:	00700693          	li	a3,7
30005d84:	00b70023          	sb	a1,0(a4)
30005d88:	00160613          	addi	a2,a2,1
30005d8c:	0af6ec63          	bltu	a3,a5,30005e44 <_Z11gen_numnamePhPKhPKtt+0x210>
30005d90:	01010713          	addi	a4,sp,16
30005d94:	00c70733          	add	a4,a4,a2
30005d98:	ff874583          	lbu	a1,-8(a4)
30005d9c:	00f50733          	add	a4,a0,a5
30005da0:	00178693          	addi	a3,a5,1
30005da4:	00b70023          	sb	a1,0(a4)
30005da8:	00800593          	li	a1,8
30005dac:	00160713          	addi	a4,a2,1
30005db0:	08b68a63          	beq	a3,a1,30005e44 <_Z11gen_numnamePhPKhPKtt+0x210>
30005db4:	02000813          	li	a6,32
30005db8:	0ab71863          	bne	a4,a1,30005e68 <_Z11gen_numnamePhPKhPKtt+0x234>
30005dbc:	00d506b3          	add	a3,a0,a3
30005dc0:	01068023          	sb	a6,0(a3)
30005dc4:	00278613          	addi	a2,a5,2
30005dc8:	00800693          	li	a3,8
30005dcc:	06d60c63          	beq	a2,a3,30005e44 <_Z11gen_numnamePhPKhPKtt+0x210>
30005dd0:	02000593          	li	a1,32
30005dd4:	0ad71863          	bne	a4,a3,30005e84 <_Z11gen_numnamePhPKhPKtt+0x250>
30005dd8:	00c50633          	add	a2,a0,a2
30005ddc:	00b60023          	sb	a1,0(a2)
30005de0:	00378693          	addi	a3,a5,3
30005de4:	00800613          	li	a2,8
30005de8:	04c68e63          	beq	a3,a2,30005e44 <_Z11gen_numnamePhPKhPKtt+0x210>
30005dec:	00700593          	li	a1,7
30005df0:	02000613          	li	a2,32
30005df4:	0ab70863          	beq	a4,a1,30005ea4 <_Z11gen_numnamePhPKhPKtt+0x270>
30005df8:	00d506b3          	add	a3,a0,a3
30005dfc:	00478713          	addi	a4,a5,4
30005e00:	00c68023          	sb	a2,0(a3)
30005e04:	00800593          	li	a1,8
30005e08:	02b70e63          	beq	a4,a1,30005e44 <_Z11gen_numnamePhPKhPKtt+0x210>
30005e0c:	00e50733          	add	a4,a0,a4
30005e10:	02000613          	li	a2,32
30005e14:	00578693          	addi	a3,a5,5
30005e18:	00c70023          	sb	a2,0(a4)
30005e1c:	02b68463          	beq	a3,a1,30005e44 <_Z11gen_numnamePhPKhPKtt+0x210>
30005e20:	00d506b3          	add	a3,a0,a3
30005e24:	00678713          	addi	a4,a5,6
30005e28:	00c68023          	sb	a2,0(a3)
30005e2c:	00b70c63          	beq	a4,a1,30005e44 <_Z11gen_numnamePhPKhPKtt+0x210>
30005e30:	00e50733          	add	a4,a0,a4
30005e34:	00c70023          	sb	a2,0(a4)
30005e38:	00100713          	li	a4,1
30005e3c:	00e78463          	beq	a5,a4,30005e44 <_Z11gen_numnamePhPKhPKtt+0x210>
30005e40:	00c503a3          	sb	a2,7(a0)
30005e44:	01010113          	addi	sp,sp,16
30005e48:	00008067          	ret
30005e4c:	03760793          	addi	a5,a2,55
30005e50:	00f10723          	sb	a5,14(sp)
30005e54:	00f00793          	li	a5,15
30005e58:	0086d613          	srli	a2,a3,0x8
30005e5c:	eae7e2e3          	bltu	a5,a4,30005d00 <_Z11gen_numnamePhPKhPKtt+0xcc>
30005e60:	00500613          	li	a2,5
30005e64:	ed9ff06f          	j	30005d3c <_Z11gen_numnamePhPKhPKtt+0x108>
30005e68:	01010593          	addi	a1,sp,16
30005e6c:	00e58733          	add	a4,a1,a4
30005e70:	ff874803          	lbu	a6,-8(a4)
30005e74:	00260713          	addi	a4,a2,2
30005e78:	f45ff06f          	j	30005dbc <_Z11gen_numnamePhPKhPKtt+0x188>
30005e7c:	03770793          	addi	a5,a4,55
30005e80:	e91ff06f          	j	30005d10 <_Z11gen_numnamePhPKhPKtt+0xdc>
30005e84:	01010693          	addi	a3,sp,16
30005e88:	00e686b3          	add	a3,a3,a4
30005e8c:	ff86c583          	lbu	a1,-8(a3)
30005e90:	00170713          	addi	a4,a4,1
30005e94:	f45ff06f          	j	30005dd8 <_Z11gen_numnamePhPKhPKtt+0x1a4>
30005e98:	03768693          	addi	a3,a3,55
30005e9c:	0ff6f793          	andi	a5,a3,255
30005ea0:	e95ff06f          	j	30005d34 <_Z11gen_numnamePhPKhPKtt+0x100>
30005ea4:	00f14603          	lbu	a2,15(sp)
30005ea8:	f51ff06f          	j	30005df8 <_Z11gen_numnamePhPKhPKtt+0x1c4>
30005eac:	0005c783          	lbu	a5,0(a1)
30005eb0:	00f50023          	sb	a5,0(a0)
30005eb4:	0015c783          	lbu	a5,1(a1)
30005eb8:	00f500a3          	sb	a5,1(a0)
30005ebc:	0025c783          	lbu	a5,2(a1)
30005ec0:	00f50123          	sb	a5,2(a0)
30005ec4:	0035c783          	lbu	a5,3(a1)
30005ec8:	00f501a3          	sb	a5,3(a0)
30005ecc:	0045c783          	lbu	a5,4(a1)
30005ed0:	00f50223          	sb	a5,4(a0)
30005ed4:	0055c783          	lbu	a5,5(a1)
30005ed8:	00f502a3          	sb	a5,5(a0)
30005edc:	0065c783          	lbu	a5,6(a1)
30005ee0:	00f50323          	sb	a5,6(a0)
30005ee4:	0075c783          	lbu	a5,7(a1)
30005ee8:	00f503a3          	sb	a5,7(a0)
30005eec:	d89ff06f          	j	30005c74 <_Z11gen_numnamePhPKhPKtt+0x40>
30005ef0:	07e00793          	li	a5,126
30005ef4:	00f10723          	sb	a5,14(sp)
30005ef8:	00600613          	li	a2,6
30005efc:	01610813          	addi	a6,sp,22
30005f00:	e4dff06f          	j	30005d4c <_Z11gen_numnamePhPKhPKtt+0x118>
30005f04:	00400613          	li	a2,4
30005f08:	e35ff06f          	j	30005d3c <_Z11gen_numnamePhPKhPKtt+0x108>
30005f0c:	ff884703          	lbu	a4,-8(a6)
30005f10:	00160613          	addi	a2,a2,1
30005f14:	00100793          	li	a5,1
30005f18:	00e50023          	sb	a4,0(a0)
30005f1c:	e75ff06f          	j	30005d90 <_Z11gen_numnamePhPKhPKtt+0x15c>

30005f20 <f_mount>:
30005f20:	02051463          	bnez	a0,30005f48 <f_mount+0x28>
30005f24:	300107b7          	lui	a5,0x30010
30005f28:	a807a703          	lw	a4,-1408(a5) # 3000fa80 <_ZL5FatFs>
30005f2c:	00070463          	beqz	a4,30005f34 <f_mount+0x14>
30005f30:	00070023          	sb	zero,0(a4)
30005f34:	00058463          	beqz	a1,30005f3c <f_mount+0x1c>
30005f38:	00058023          	sb	zero,0(a1)
30005f3c:	a8b7a023          	sw	a1,-1408(a5)
30005f40:	00000513          	li	a0,0
30005f44:	00008067          	ret
30005f48:	00b00513          	li	a0,11
30005f4c:	00008067          	ret

30005f50 <f_open>:
30005f50:	fa010113          	addi	sp,sp,-96
30005f54:	04912a23          	sw	s1,84(sp)
30005f58:	05212823          	sw	s2,80(sp)
30005f5c:	05312623          	sw	s3,76(sp)
30005f60:	05412423          	sw	s4,72(sp)
30005f64:	04112e23          	sw	ra,92(sp)
30005f68:	04812c23          	sw	s0,88(sp)
30005f6c:	00060913          	mv	s2,a2
30005f70:	00b12623          	sw	a1,12(sp)
30005f74:	00052023          	sw	zero,0(a0)
30005f78:	00050493          	mv	s1,a0
30005f7c:	01e67613          	andi	a2,a2,30
30005f80:	01c10593          	addi	a1,sp,28
30005f84:	00c10513          	addi	a0,sp,12
30005f88:	c11fc0ef          	jal	ra,30002b98 <_ZL11chk_mountedPPKcPP5FATFSh>
30005f8c:	01010793          	addi	a5,sp,16
30005f90:	02f12a23          	sw	a5,52(sp)
30005f94:	3000f7b7          	lui	a5,0x3000f
30005f98:	5e478793          	addi	a5,a5,1508 # 3000f5e4 <_ZL6LfnBuf>
30005f9c:	02f12c23          	sw	a5,56(sp)
30005fa0:	01f97993          	andi	s3,s2,31
30005fa4:	01c97a13          	andi	s4,s2,28
30005fa8:	02050863          	beqz	a0,30005fd8 <f_open+0x88>
30005fac:	000a0663          	beqz	s4,30005fb8 <f_open+0x68>
30005fb0:	00400793          	li	a5,4
30005fb4:	14f50063          	beq	a0,a5,300060f4 <f_open+0x1a4>
30005fb8:	05c12083          	lw	ra,92(sp)
30005fbc:	05812403          	lw	s0,88(sp)
30005fc0:	05412483          	lw	s1,84(sp)
30005fc4:	05012903          	lw	s2,80(sp)
30005fc8:	04c12983          	lw	s3,76(sp)
30005fcc:	04812a03          	lw	s4,72(sp)
30005fd0:	06010113          	addi	sp,sp,96
30005fd4:	00008067          	ret
30005fd8:	00c12583          	lw	a1,12(sp)
30005fdc:	01c10513          	addi	a0,sp,28
30005fe0:	be9fd0ef          	jal	ra,30003bc8 <_ZL11follow_pathP3DIRPKc>
30005fe4:	03012403          	lw	s0,48(sp)
30005fe8:	fc0512e3          	bnez	a0,30005fac <f_open+0x5c>
30005fec:	00600513          	li	a0,6
30005ff0:	fc0404e3          	beqz	s0,30005fb8 <f_open+0x68>
30005ff4:	00b44783          	lbu	a5,11(s0)
30005ff8:	020a0663          	beqz	s4,30006024 <f_open+0xd4>
30005ffc:	0117f793          	andi	a5,a5,17
30006000:	00700513          	li	a0,7
30006004:	fa079ae3          	bnez	a5,30005fb8 <f_open+0x68>
30006008:	00497793          	andi	a5,s2,4
3000600c:	00800513          	li	a0,8
30006010:	fa0794e3          	bnez	a5,30005fb8 <f_open+0x68>
30006014:	00897913          	andi	s2,s2,8
30006018:	0e091863          	bnez	s2,30006108 <f_open+0x1b8>
3000601c:	01c12603          	lw	a2,28(sp)
30006020:	0340006f          	j	30006054 <f_open+0x104>
30006024:	0107f713          	andi	a4,a5,16
30006028:	00400513          	li	a0,4
3000602c:	f80716e3          	bnez	a4,30005fb8 <f_open+0x68>
30006030:	00297713          	andi	a4,s2,2
30006034:	00070863          	beqz	a4,30006044 <f_open+0xf4>
30006038:	0017f793          	andi	a5,a5,1
3000603c:	00700513          	li	a0,7
30006040:	f6079ce3          	bnez	a5,30005fb8 <f_open+0x68>
30006044:	00897913          	andi	s2,s2,8
30006048:	01c12603          	lw	a2,28(sp)
3000604c:	00090463          	beqz	s2,30006054 <f_open+0x104>
30006050:	0209e993          	ori	s3,s3,32
30006054:	02c62783          	lw	a5,44(a2)
30006058:	01348323          	sb	s3,6(s1)
3000605c:	0284a023          	sw	s0,32(s1)
30006060:	00f4ae23          	sw	a5,28(s1)
30006064:	01544783          	lbu	a5,21(s0)
30006068:	01444583          	lbu	a1,20(s0)
3000606c:	01b44703          	lbu	a4,27(s0)
30006070:	01a44683          	lbu	a3,26(s0)
30006074:	00879793          	slli	a5,a5,0x8
30006078:	00b7e7b3          	or	a5,a5,a1
3000607c:	00871713          	slli	a4,a4,0x8
30006080:	00d76733          	or	a4,a4,a3
30006084:	01079793          	slli	a5,a5,0x10
30006088:	00e7e7b3          	or	a5,a5,a4
3000608c:	00f4a823          	sw	a5,16(s1)
30006090:	01d44683          	lbu	a3,29(s0)
30006094:	01c44583          	lbu	a1,28(s0)
30006098:	01e44703          	lbu	a4,30(s0)
3000609c:	01f44783          	lbu	a5,31(s0)
300060a0:	00869693          	slli	a3,a3,0x8
300060a4:	00b6e6b3          	or	a3,a3,a1
300060a8:	01071713          	slli	a4,a4,0x10
300060ac:	00d76733          	or	a4,a4,a3
300060b0:	01879793          	slli	a5,a5,0x18
300060b4:	00e7e7b3          	or	a5,a5,a4
300060b8:	00f4a623          	sw	a5,12(s1)
300060bc:	0004a423          	sw	zero,8(s1)
300060c0:	0004ac23          	sw	zero,24(s1)
300060c4:	00c4a023          	sw	a2,0(s1)
300060c8:	00665783          	lhu	a5,6(a2)
300060cc:	05c12083          	lw	ra,92(sp)
300060d0:	05812403          	lw	s0,88(sp)
300060d4:	00f49223          	sh	a5,4(s1)
300060d8:	05012903          	lw	s2,80(sp)
300060dc:	05412483          	lw	s1,84(sp)
300060e0:	04c12983          	lw	s3,76(sp)
300060e4:	04812a03          	lw	s4,72(sp)
300060e8:	00000513          	li	a0,0
300060ec:	06010113          	addi	sp,sp,96
300060f0:	00008067          	ret
300060f4:	01c10513          	addi	a0,sp,28
300060f8:	b61fe0ef          	jal	ra,30004c58 <_ZL12dir_registerP3DIR>
300060fc:	0089e993          	ori	s3,s3,8
30006100:	03012403          	lw	s0,48(sp)
30006104:	ea051ae3          	bnez	a0,30005fb8 <f_open+0x68>
30006108:	f7cfb0ef          	jal	ra,30001884 <get_fattime>
3000610c:	01544783          	lbu	a5,21(s0)
30006110:	01444883          	lbu	a7,20(s0)
30006114:	01b44903          	lbu	s2,27(s0)
30006118:	01a44703          	lbu	a4,26(s0)
3000611c:	00879793          	slli	a5,a5,0x8
30006120:	01c12603          	lw	a2,28(sp)
30006124:	0117e7b3          	or	a5,a5,a7
30006128:	00891913          	slli	s2,s2,0x8
3000612c:	01079793          	slli	a5,a5,0x10
30006130:	40855813          	srai	a6,a0,0x8
30006134:	01055593          	srli	a1,a0,0x10
30006138:	01855693          	srli	a3,a0,0x18
3000613c:	00e96933          	or	s2,s2,a4
30006140:	00a40723          	sb	a0,14(s0)
30006144:	010407a3          	sb	a6,15(s0)
30006148:	00b40823          	sb	a1,16(s0)
3000614c:	00d408a3          	sb	a3,17(s0)
30006150:	000405a3          	sb	zero,11(s0)
30006154:	00040e23          	sb	zero,28(s0)
30006158:	00040ea3          	sb	zero,29(s0)
3000615c:	00040f23          	sb	zero,30(s0)
30006160:	00040fa3          	sb	zero,31(s0)
30006164:	00040d23          	sb	zero,26(s0)
30006168:	00040da3          	sb	zero,27(s0)
3000616c:	00040a23          	sb	zero,20(s0)
30006170:	00040aa3          	sb	zero,21(s0)
30006174:	0127e933          	or	s2,a5,s2
30006178:	00100793          	li	a5,1
3000617c:	00f60223          	sb	a5,4(a2)
30006180:	ec0908e3          	beqz	s2,30006050 <f_open+0x100>
30006184:	00100793          	li	a5,1
30006188:	00200513          	li	a0,2
3000618c:	e2f906e3          	beq	s2,a5,30005fb8 <f_open+0x68>
30006190:	01862783          	lw	a5,24(a2)
30006194:	e2f972e3          	bgeu	s2,a5,30005fb8 <f_open+0x68>
30006198:	00090593          	mv	a1,s2
3000619c:	00060513          	mv	a0,a2
300061a0:	02c62a03          	lw	s4,44(a2)
300061a4:	8b5fe0ef          	jal	ra,30004a58 <_ZL12remove_chainP5FATFSm.part.8>
300061a8:	e00518e3          	bnez	a0,30005fb8 <f_open+0x68>
300061ac:	01c12503          	lw	a0,28(sp)
300061b0:	fff90913          	addi	s2,s2,-1
300061b4:	000a0593          	mv	a1,s4
300061b8:	01252623          	sw	s2,12(a0)
300061bc:	ff4fc0ef          	jal	ra,300029b0 <_ZL11move_windowP5FATFSm>
300061c0:	de051ce3          	bnez	a0,30005fb8 <f_open+0x68>
300061c4:	01c12603          	lw	a2,28(sp)
300061c8:	e89ff06f          	j	30006050 <f_open+0x100>

300061cc <f_read>:
300061cc:	fb010113          	addi	sp,sp,-80
300061d0:	00052783          	lw	a5,0(a0)
300061d4:	04112623          	sw	ra,76(sp)
300061d8:	04812423          	sw	s0,72(sp)
300061dc:	04912223          	sw	s1,68(sp)
300061e0:	05212023          	sw	s2,64(sp)
300061e4:	03312e23          	sw	s3,60(sp)
300061e8:	03412c23          	sw	s4,56(sp)
300061ec:	03512a23          	sw	s5,52(sp)
300061f0:	03612823          	sw	s6,48(sp)
300061f4:	03712623          	sw	s7,44(sp)
300061f8:	03812423          	sw	s8,40(sp)
300061fc:	03912223          	sw	s9,36(sp)
30006200:	03a12023          	sw	s10,32(sp)
30006204:	01b12e23          	sw	s11,28(sp)
30006208:	0006a023          	sw	zero,0(a3)
3000620c:	00c12623          	sw	a2,12(sp)
30006210:	14078c63          	beqz	a5,30006368 <f_read+0x19c>
30006214:	0007c703          	lbu	a4,0(a5)
30006218:	00050413          	mv	s0,a0
3000621c:	00900513          	li	a0,9
30006220:	00070a63          	beqz	a4,30006234 <f_read+0x68>
30006224:	00068913          	mv	s2,a3
30006228:	0067d703          	lhu	a4,6(a5)
3000622c:	00445683          	lhu	a3,4(s0)
30006230:	04e68063          	beq	a3,a4,30006270 <f_read+0xa4>
30006234:	04c12083          	lw	ra,76(sp)
30006238:	04812403          	lw	s0,72(sp)
3000623c:	04412483          	lw	s1,68(sp)
30006240:	04012903          	lw	s2,64(sp)
30006244:	03c12983          	lw	s3,60(sp)
30006248:	03812a03          	lw	s4,56(sp)
3000624c:	03412a83          	lw	s5,52(sp)
30006250:	03012b03          	lw	s6,48(sp)
30006254:	02c12b83          	lw	s7,44(sp)
30006258:	02812c03          	lw	s8,40(sp)
3000625c:	02412c83          	lw	s9,36(sp)
30006260:	02012d03          	lw	s10,32(sp)
30006264:	01c12d83          	lw	s11,28(sp)
30006268:	05010113          	addi	sp,sp,80
3000626c:	00008067          	ret
30006270:	0017c503          	lbu	a0,1(a5)
30006274:	00058c93          	mv	s9,a1
30006278:	e14fb0ef          	jal	ra,3000188c <disk_status>
3000627c:	00157793          	andi	a5,a0,1
30006280:	00300513          	li	a0,3
30006284:	fa0798e3          	bnez	a5,30006234 <f_read+0x68>
30006288:	00644783          	lbu	a5,6(s0)
3000628c:	01879713          	slli	a4,a5,0x18
30006290:	41875713          	srai	a4,a4,0x18
30006294:	2a074a63          	bltz	a4,30006548 <f_read+0x37c>
30006298:	0017f793          	andi	a5,a5,1
3000629c:	00700513          	li	a0,7
300062a0:	f8078ae3          	beqz	a5,30006234 <f_read+0x68>
300062a4:	00842783          	lw	a5,8(s0)
300062a8:	00c42d03          	lw	s10,12(s0)
300062ac:	00c12603          	lw	a2,12(sp)
300062b0:	40fd0d33          	sub	s10,s10,a5
300062b4:	01a67463          	bgeu	a2,s10,300062bc <f_read+0xf0>
300062b8:	00060d13          	mv	s10,a2
300062bc:	1c0d0c63          	beqz	s10,30006494 <f_read+0x2c8>
300062c0:	20000b13          	li	s6,512
300062c4:	00100a13          	li	s4,1
300062c8:	1ff00a93          	li	s5,511
300062cc:	fff00b93          	li	s7,-1
300062d0:	1ff7f493          	andi	s1,a5,511
300062d4:	00042503          	lw	a0,0(s0)
300062d8:	0c049863          	bnez	s1,300063a8 <f_read+0x1dc>
300062dc:	00254703          	lbu	a4,2(a0)
300062e0:	0097d993          	srli	s3,a5,0x9
300062e4:	fff70713          	addi	a4,a4,-1
300062e8:	013779b3          	and	s3,a4,s3
300062ec:	0ff9f993          	andi	s3,s3,255
300062f0:	08098063          	beqz	s3,30006370 <f_read+0x1a4>
300062f4:	01442783          	lw	a5,20(s0)
300062f8:	01852703          	lw	a4,24(a0)
300062fc:	ffe78793          	addi	a5,a5,-2
30006300:	ffe70713          	addi	a4,a4,-2
30006304:	08e7f863          	bgeu	a5,a4,30006394 <f_read+0x1c8>
30006308:	00254703          	lbu	a4,2(a0)
3000630c:	02852803          	lw	a6,40(a0)
30006310:	02e78c33          	mul	s8,a5,a4
30006314:	010c0db3          	add	s11,s8,a6
30006318:	060d8e63          	beqz	s11,30006394 <f_read+0x1c8>
3000631c:	01b98db3          	add	s11,s3,s11
30006320:	23aaf863          	bgeu	s5,s10,30006550 <f_read+0x384>
30006324:	009d5493          	srli	s1,s10,0x9
30006328:	009987b3          	add	a5,s3,s1
3000632c:	00f77463          	bgeu	a4,a5,30006334 <f_read+0x168>
30006330:	413704b3          	sub	s1,a4,s3
30006334:	00154503          	lbu	a0,1(a0)
30006338:	0ff4f693          	andi	a3,s1,255
3000633c:	000d8613          	mv	a2,s11
30006340:	000c8593          	mv	a1,s9
30006344:	01012623          	sw	a6,12(sp)
30006348:	831fb0ef          	jal	ra,30001b78 <disk_read>
3000634c:	00c12803          	lw	a6,12(sp)
30006350:	14050663          	beqz	a0,3000649c <f_read+0x2d0>
30006354:	00644783          	lbu	a5,6(s0)
30006358:	00100513          	li	a0,1
3000635c:	f807e793          	ori	a5,a5,-128
30006360:	00f40323          	sb	a5,6(s0)
30006364:	ed1ff06f          	j	30006234 <f_read+0x68>
30006368:	00900513          	li	a0,9
3000636c:	ec9ff06f          	j	30006234 <f_read+0x68>
30006370:	00079e63          	bnez	a5,3000638c <f_read+0x1c0>
30006374:	01042783          	lw	a5,16(s0)
30006378:	00fa7e63          	bgeu	s4,a5,30006394 <f_read+0x1c8>
3000637c:	fd778ce3          	beq	a5,s7,30006354 <f_read+0x188>
30006380:	00042503          	lw	a0,0(s0)
30006384:	00f42a23          	sw	a5,20(s0)
30006388:	f71ff06f          	j	300062f8 <f_read+0x12c>
3000638c:	01442583          	lw	a1,20(s0)
30006390:	12ba6663          	bltu	s4,a1,300064bc <f_read+0x2f0>
30006394:	00644783          	lbu	a5,6(s0)
30006398:	00200513          	li	a0,2
3000639c:	f807e793          	ori	a5,a5,-128
300063a0:	00f40323          	sb	a5,6(s0)
300063a4:	e91ff06f          	j	30006234 <f_read+0x68>
300063a8:	01842d83          	lw	s11,24(s0)
300063ac:	409b04b3          	sub	s1,s6,s1
300063b0:	009d7463          	bgeu	s10,s1,300063b8 <f_read+0x1ec>
300063b4:	000d0493          	mv	s1,s10
300063b8:	000d8593          	mv	a1,s11
300063bc:	df4fc0ef          	jal	ra,300029b0 <_ZL11move_windowP5FATFSm>
300063c0:	f8051ae3          	bnez	a0,30006354 <f_read+0x188>
300063c4:	00842703          	lw	a4,8(s0)
300063c8:	00042783          	lw	a5,0(s0)
300063cc:	004c8613          	addi	a2,s9,4
300063d0:	1ff77713          	andi	a4,a4,511
300063d4:	03070693          	addi	a3,a4,48
300063d8:	03470713          	addi	a4,a4,52
300063dc:	00d786b3          	add	a3,a5,a3
300063e0:	00e787b3          	add	a5,a5,a4
300063e4:	00fcb7b3          	sltu	a5,s9,a5
300063e8:	00c6b633          	sltu	a2,a3,a2
300063ec:	0196e733          	or	a4,a3,s9
300063f0:	0017c793          	xori	a5,a5,1
300063f4:	00164613          	xori	a2,a2,1
300063f8:	00377713          	andi	a4,a4,3
300063fc:	00c7e7b3          	or	a5,a5,a2
30006400:	00173713          	seqz	a4,a4
30006404:	00f777b3          	and	a5,a4,a5
30006408:	fff48513          	addi	a0,s1,-1
3000640c:	14078a63          	beqz	a5,30006560 <f_read+0x394>
30006410:	00953793          	sltiu	a5,a0,9
30006414:	14079663          	bnez	a5,30006560 <f_read+0x394>
30006418:	ffc4f593          	andi	a1,s1,-4
3000641c:	00068793          	mv	a5,a3
30006420:	000c8713          	mv	a4,s9
30006424:	00d585b3          	add	a1,a1,a3
30006428:	0007a603          	lw	a2,0(a5)
3000642c:	00470713          	addi	a4,a4,4
30006430:	00478793          	addi	a5,a5,4
30006434:	fec72e23          	sw	a2,-4(a4)
30006438:	feb798e3          	bne	a5,a1,30006428 <f_read+0x25c>
3000643c:	ffc4f793          	andi	a5,s1,-4
30006440:	40f50533          	sub	a0,a0,a5
30006444:	00f686b3          	add	a3,a3,a5
30006448:	00fc8733          	add	a4,s9,a5
3000644c:	02f48263          	beq	s1,a5,30006470 <f_read+0x2a4>
30006450:	0006c783          	lbu	a5,0(a3)
30006454:	00f70023          	sb	a5,0(a4)
30006458:	00050c63          	beqz	a0,30006470 <f_read+0x2a4>
3000645c:	0016c783          	lbu	a5,1(a3)
30006460:	00f700a3          	sb	a5,1(a4)
30006464:	01450663          	beq	a0,s4,30006470 <f_read+0x2a4>
30006468:	0026c783          	lbu	a5,2(a3)
3000646c:	00f70123          	sb	a5,2(a4)
30006470:	00842783          	lw	a5,8(s0)
30006474:	00092703          	lw	a4,0(s2)
30006478:	409d0d33          	sub	s10,s10,s1
3000647c:	00f487b3          	add	a5,s1,a5
30006480:	00f42423          	sw	a5,8(s0)
30006484:	00970733          	add	a4,a4,s1
30006488:	00e92023          	sw	a4,0(s2)
3000648c:	009c8cb3          	add	s9,s9,s1
30006490:	e40d10e3          	bnez	s10,300062d0 <f_read+0x104>
30006494:	00000513          	li	a0,0
30006498:	d9dff06f          	j	30006234 <f_read+0x68>
3000649c:	00042683          	lw	a3,0(s0)
300064a0:	0046c783          	lbu	a5,4(a3)
300064a4:	00078863          	beqz	a5,300064b4 <f_read+0x2e8>
300064a8:	02c6a783          	lw	a5,44(a3)
300064ac:	41b78db3          	sub	s11,a5,s11
300064b0:	029de063          	bltu	s11,s1,300064d0 <f_read+0x304>
300064b4:	00949493          	slli	s1,s1,0x9
300064b8:	fb9ff06f          	j	30006470 <f_read+0x2a4>
300064bc:	01852783          	lw	a5,24(a0)
300064c0:	ecf5fae3          	bgeu	a1,a5,30006394 <f_read+0x1c8>
300064c4:	aa1fc0ef          	jal	ra,30002f64 <_Z7get_fatP5FATFSm.part.5>
300064c8:	00050793          	mv	a5,a0
300064cc:	eadff06f          	j	30006378 <f_read+0x1ac>
300064d0:	413787b3          	sub	a5,a5,s3
300064d4:	410787b3          	sub	a5,a5,a6
300064d8:	418787b3          	sub	a5,a5,s8
300064dc:	00979793          	slli	a5,a5,0x9
300064e0:	00478593          	addi	a1,a5,4
300064e4:	00fc8733          	add	a4,s9,a5
300064e8:	03068613          	addi	a2,a3,48
300064ec:	03468793          	addi	a5,a3,52
300064f0:	00bc85b3          	add	a1,s9,a1
300064f4:	00b636b3          	sltu	a3,a2,a1
300064f8:	00f737b3          	sltu	a5,a4,a5
300064fc:	0017c793          	xori	a5,a5,1
30006500:	0016c693          	xori	a3,a3,1
30006504:	009d9d93          	slli	s11,s11,0x9
30006508:	00f6e6b3          	or	a3,a3,a5
3000650c:	01bc87b3          	add	a5,s9,s11
30006510:	06068863          	beqz	a3,30006580 <f_read+0x3b4>
30006514:	00c766b3          	or	a3,a4,a2
30006518:	0036f693          	andi	a3,a3,3
3000651c:	06069263          	bnez	a3,30006580 <f_read+0x3b4>
30006520:	00070793          	mv	a5,a4
30006524:	00060713          	mv	a4,a2
30006528:	20078613          	addi	a2,a5,512
3000652c:	00072683          	lw	a3,0(a4)
30006530:	00478793          	addi	a5,a5,4
30006534:	00470713          	addi	a4,a4,4
30006538:	fed7ae23          	sw	a3,-4(a5)
3000653c:	fec798e3          	bne	a5,a2,3000652c <f_read+0x360>
30006540:	00949493          	slli	s1,s1,0x9
30006544:	f2dff06f          	j	30006470 <f_read+0x2a4>
30006548:	00200513          	li	a0,2
3000654c:	ce9ff06f          	j	30006234 <f_read+0x68>
30006550:	00842483          	lw	s1,8(s0)
30006554:	01b42c23          	sw	s11,24(s0)
30006558:	1ff4f493          	andi	s1,s1,511
3000655c:	e51ff06f          	j	300063ac <f_read+0x1e0>
30006560:	00968633          	add	a2,a3,s1
30006564:	000c8793          	mv	a5,s9
30006568:	00168693          	addi	a3,a3,1
3000656c:	fff6c703          	lbu	a4,-1(a3)
30006570:	00178793          	addi	a5,a5,1
30006574:	fee78fa3          	sb	a4,-1(a5)
30006578:	fec698e3          	bne	a3,a2,30006568 <f_read+0x39c>
3000657c:	ef5ff06f          	j	30006470 <f_read+0x2a4>
30006580:	20078693          	addi	a3,a5,512
30006584:	00160613          	addi	a2,a2,1
30006588:	fff64703          	lbu	a4,-1(a2)
3000658c:	00178793          	addi	a5,a5,1
30006590:	fee78fa3          	sb	a4,-1(a5)
30006594:	fef698e3          	bne	a3,a5,30006584 <f_read+0x3b8>
30006598:	00949493          	slli	s1,s1,0x9
3000659c:	ed5ff06f          	j	30006470 <f_read+0x2a4>

300065a0 <f_write>:
300065a0:	00052783          	lw	a5,0(a0)
300065a4:	0006a023          	sw	zero,0(a3)
300065a8:	1c078463          	beqz	a5,30006770 <f_write+0x1d0>
300065ac:	fb010113          	addi	sp,sp,-80
300065b0:	04812423          	sw	s0,72(sp)
300065b4:	04112623          	sw	ra,76(sp)
300065b8:	04912223          	sw	s1,68(sp)
300065bc:	05212023          	sw	s2,64(sp)
300065c0:	03312e23          	sw	s3,60(sp)
300065c4:	03412c23          	sw	s4,56(sp)
300065c8:	03512a23          	sw	s5,52(sp)
300065cc:	03612823          	sw	s6,48(sp)
300065d0:	03712623          	sw	s7,44(sp)
300065d4:	03812423          	sw	s8,40(sp)
300065d8:	03912223          	sw	s9,36(sp)
300065dc:	03a12023          	sw	s10,32(sp)
300065e0:	01b12e23          	sw	s11,28(sp)
300065e4:	0007c703          	lbu	a4,0(a5)
300065e8:	00050413          	mv	s0,a0
300065ec:	00900513          	li	a0,9
300065f0:	00070a63          	beqz	a4,30006604 <f_write+0x64>
300065f4:	00068993          	mv	s3,a3
300065f8:	0067d703          	lhu	a4,6(a5)
300065fc:	00445683          	lhu	a3,4(s0)
30006600:	04e68063          	beq	a3,a4,30006640 <f_write+0xa0>
30006604:	04c12083          	lw	ra,76(sp)
30006608:	04812403          	lw	s0,72(sp)
3000660c:	04412483          	lw	s1,68(sp)
30006610:	04012903          	lw	s2,64(sp)
30006614:	03c12983          	lw	s3,60(sp)
30006618:	03812a03          	lw	s4,56(sp)
3000661c:	03412a83          	lw	s5,52(sp)
30006620:	03012b03          	lw	s6,48(sp)
30006624:	02c12b83          	lw	s7,44(sp)
30006628:	02812c03          	lw	s8,40(sp)
3000662c:	02412c83          	lw	s9,36(sp)
30006630:	02012d03          	lw	s10,32(sp)
30006634:	01c12d83          	lw	s11,28(sp)
30006638:	05010113          	addi	sp,sp,80
3000663c:	00008067          	ret
30006640:	0017c503          	lbu	a0,1(a5)
30006644:	00058913          	mv	s2,a1
30006648:	00060c93          	mv	s9,a2
3000664c:	a40fb0ef          	jal	ra,3000188c <disk_status>
30006650:	00157793          	andi	a5,a0,1
30006654:	00300513          	li	a0,3
30006658:	fa0796e3          	bnez	a5,30006604 <f_write+0x64>
3000665c:	00644703          	lbu	a4,6(s0)
30006660:	01871793          	slli	a5,a4,0x18
30006664:	4187d793          	srai	a5,a5,0x18
30006668:	3a07c463          	bltz	a5,30006a10 <f_write+0x470>
3000666c:	00277793          	andi	a5,a4,2
30006670:	00700513          	li	a0,7
30006674:	f80788e3          	beqz	a5,30006604 <f_write+0x64>
30006678:	00c42683          	lw	a3,12(s0)
3000667c:	00842783          	lw	a5,8(s0)
30006680:	01968633          	add	a2,a3,s9
30006684:	1ed66a63          	bltu	a2,a3,30006878 <f_write+0x2d8>
30006688:	1e0c8863          	beqz	s9,30006878 <f_write+0x2d8>
3000668c:	20000a93          	li	s5,512
30006690:	00100b13          	li	s6,1
30006694:	00100a13          	li	s4,1
30006698:	1ff00b93          	li	s7,511
3000669c:	fff00c13          	li	s8,-1
300066a0:	1ff7f493          	andi	s1,a5,511
300066a4:	00042d03          	lw	s10,0(s0)
300066a8:	0c049863          	bnez	s1,30006778 <f_write+0x1d8>
300066ac:	002d4703          	lbu	a4,2(s10)
300066b0:	0097d493          	srli	s1,a5,0x9
300066b4:	fff70713          	addi	a4,a4,-1
300066b8:	009774b3          	and	s1,a4,s1
300066bc:	0ff4f493          	andi	s1,s1,255
300066c0:	02049063          	bnez	s1,300066e0 <f_write+0x140>
300066c4:	34079a63          	bnez	a5,30006a18 <f_write+0x478>
300066c8:	01042503          	lw	a0,16(s0)
300066cc:	20050463          	beqz	a0,300068d4 <f_write+0x334>
300066d0:	1d450063          	beq	a0,s4,30006890 <f_write+0x2f0>
300066d4:	09850463          	beq	a0,s8,3000675c <f_write+0x1bc>
300066d8:	00042d03          	lw	s10,0(s0)
300066dc:	00a42a23          	sw	a0,20(s0)
300066e0:	02cd2783          	lw	a5,44(s10)
300066e4:	01842703          	lw	a4,24(s0)
300066e8:	2ae78063          	beq	a5,a4,30006988 <f_write+0x3e8>
300066ec:	01442783          	lw	a5,20(s0)
300066f0:	018d2703          	lw	a4,24(s10)
300066f4:	ffe78793          	addi	a5,a5,-2
300066f8:	ffe70713          	addi	a4,a4,-2
300066fc:	18e7fa63          	bgeu	a5,a4,30006890 <f_write+0x2f0>
30006700:	002d4703          	lbu	a4,2(s10)
30006704:	028d2803          	lw	a6,40(s10)
30006708:	02e78db3          	mul	s11,a5,a4
3000670c:	010d87b3          	add	a5,s11,a6
30006710:	18078063          	beqz	a5,30006890 <f_write+0x2f0>
30006714:	00f487b3          	add	a5,s1,a5
30006718:	199bf663          	bgeu	s7,s9,300068a4 <f_write+0x304>
3000671c:	009cd893          	srli	a7,s9,0x9
30006720:	011486b3          	add	a3,s1,a7
30006724:	00d77463          	bgeu	a4,a3,3000672c <f_write+0x18c>
30006728:	409708b3          	sub	a7,a4,s1
3000672c:	001d4503          	lbu	a0,1(s10)
30006730:	0ff8f693          	andi	a3,a7,255
30006734:	00078613          	mv	a2,a5
30006738:	00090593          	mv	a1,s2
3000673c:	01012623          	sw	a6,12(sp)
30006740:	01112423          	sw	a7,8(sp)
30006744:	00f12223          	sw	a5,4(sp)
30006748:	d80fb0ef          	jal	ra,30001cc8 <disk_write>
3000674c:	00412783          	lw	a5,4(sp)
30006750:	00812883          	lw	a7,8(sp)
30006754:	00c12803          	lw	a6,12(sp)
30006758:	16050263          	beqz	a0,300068bc <f_write+0x31c>
3000675c:	00644783          	lbu	a5,6(s0)
30006760:	00100513          	li	a0,1
30006764:	f807e793          	ori	a5,a5,-128
30006768:	00f40323          	sb	a5,6(s0)
3000676c:	e99ff06f          	j	30006604 <f_write+0x64>
30006770:	00900513          	li	a0,9
30006774:	00008067          	ret
30006778:	01842783          	lw	a5,24(s0)
3000677c:	409a84b3          	sub	s1,s5,s1
30006780:	009cf463          	bgeu	s9,s1,30006788 <f_write+0x1e8>
30006784:	000c8493          	mv	s1,s9
30006788:	00078593          	mv	a1,a5
3000678c:	000d0513          	mv	a0,s10
30006790:	a20fc0ef          	jal	ra,300029b0 <_ZL11move_windowP5FATFSm>
30006794:	fc0514e3          	bnez	a0,3000675c <f_write+0x1bc>
30006798:	00842683          	lw	a3,8(s0)
3000679c:	00042783          	lw	a5,0(s0)
300067a0:	00490613          	addi	a2,s2,4
300067a4:	1ff6f693          	andi	a3,a3,511
300067a8:	03068713          	addi	a4,a3,48
300067ac:	03468693          	addi	a3,a3,52
300067b0:	00e78733          	add	a4,a5,a4
300067b4:	00d787b3          	add	a5,a5,a3
300067b8:	00f937b3          	sltu	a5,s2,a5
300067bc:	00c73633          	sltu	a2,a4,a2
300067c0:	012766b3          	or	a3,a4,s2
300067c4:	0017c793          	xori	a5,a5,1
300067c8:	00164613          	xori	a2,a2,1
300067cc:	0036f693          	andi	a3,a3,3
300067d0:	00c7e7b3          	or	a5,a5,a2
300067d4:	0016b693          	seqz	a3,a3
300067d8:	00f6f7b3          	and	a5,a3,a5
300067dc:	fff48513          	addi	a0,s1,-1
300067e0:	24078463          	beqz	a5,30006a28 <f_write+0x488>
300067e4:	00953793          	sltiu	a5,a0,9
300067e8:	24079063          	bnez	a5,30006a28 <f_write+0x488>
300067ec:	ffc4f593          	andi	a1,s1,-4
300067f0:	00090793          	mv	a5,s2
300067f4:	00070693          	mv	a3,a4
300067f8:	012585b3          	add	a1,a1,s2
300067fc:	0007a603          	lw	a2,0(a5)
30006800:	00468693          	addi	a3,a3,4
30006804:	00478793          	addi	a5,a5,4
30006808:	fec6ae23          	sw	a2,-4(a3)
3000680c:	feb798e3          	bne	a5,a1,300067fc <f_write+0x25c>
30006810:	ffc4f793          	andi	a5,s1,-4
30006814:	40f50533          	sub	a0,a0,a5
30006818:	00f906b3          	add	a3,s2,a5
3000681c:	00f70733          	add	a4,a4,a5
30006820:	02f48263          	beq	s1,a5,30006844 <f_write+0x2a4>
30006824:	0006c783          	lbu	a5,0(a3)
30006828:	00f70023          	sb	a5,0(a4)
3000682c:	00050c63          	beqz	a0,30006844 <f_write+0x2a4>
30006830:	0016c783          	lbu	a5,1(a3)
30006834:	00f700a3          	sb	a5,1(a4)
30006838:	01450663          	beq	a0,s4,30006844 <f_write+0x2a4>
3000683c:	0026c783          	lbu	a5,2(a3)
30006840:	00f70123          	sb	a5,2(a4)
30006844:	00042783          	lw	a5,0(s0)
30006848:	01678223          	sb	s6,4(a5)
3000684c:	00842783          	lw	a5,8(s0)
30006850:	0009a703          	lw	a4,0(s3)
30006854:	409c8cb3          	sub	s9,s9,s1
30006858:	00f487b3          	add	a5,s1,a5
3000685c:	00f42423          	sw	a5,8(s0)
30006860:	00970733          	add	a4,a4,s1
30006864:	00e9a023          	sw	a4,0(s3)
30006868:	00990933          	add	s2,s2,s1
3000686c:	e20c9ae3          	bnez	s9,300066a0 <f_write+0x100>
30006870:	00c42683          	lw	a3,12(s0)
30006874:	00644703          	lbu	a4,6(s0)
30006878:	00f6f463          	bgeu	a3,a5,30006880 <f_write+0x2e0>
3000687c:	00f42623          	sw	a5,12(s0)
30006880:	02076713          	ori	a4,a4,32
30006884:	00e40323          	sb	a4,6(s0)
30006888:	00000513          	li	a0,0
3000688c:	d79ff06f          	j	30006604 <f_write+0x64>
30006890:	00644783          	lbu	a5,6(s0)
30006894:	00200513          	li	a0,2
30006898:	f807e793          	ori	a5,a5,-128
3000689c:	00f40323          	sb	a5,6(s0)
300068a0:	d65ff06f          	j	30006604 <f_write+0x64>
300068a4:	00842483          	lw	s1,8(s0)
300068a8:	00c42703          	lw	a4,12(s0)
300068ac:	18e4fe63          	bgeu	s1,a4,30006a48 <f_write+0x4a8>
300068b0:	00f42c23          	sw	a5,24(s0)
300068b4:	1ff4f493          	andi	s1,s1,511
300068b8:	ec5ff06f          	j	3000677c <f_write+0x1dc>
300068bc:	00042683          	lw	a3,0(s0)
300068c0:	02c6a703          	lw	a4,44(a3)
300068c4:	40f70633          	sub	a2,a4,a5
300068c8:	03166863          	bltu	a2,a7,300068f8 <f_write+0x358>
300068cc:	00989493          	slli	s1,a7,0x9
300068d0:	f7dff06f          	j	3000684c <f_write+0x2ac>
300068d4:	00000593          	li	a1,0
300068d8:	000d0513          	mv	a0,s10
300068dc:	ec1fd0ef          	jal	ra,3000479c <_ZL12create_chainP5FATFSm>
300068e0:	00a42823          	sw	a0,16(s0)
300068e4:	de0516e3          	bnez	a0,300066d0 <f_write+0x130>
300068e8:	00c42683          	lw	a3,12(s0)
300068ec:	00644703          	lbu	a4,6(s0)
300068f0:	00842783          	lw	a5,8(s0)
300068f4:	f85ff06f          	j	30006878 <f_write+0x2d8>
300068f8:	40970733          	sub	a4,a4,s1
300068fc:	41070733          	sub	a4,a4,a6
30006900:	41b70733          	sub	a4,a4,s11
30006904:	00971713          	slli	a4,a4,0x9
30006908:	00470593          	addi	a1,a4,4
3000690c:	03068793          	addi	a5,a3,48
30006910:	03468513          	addi	a0,a3,52
30006914:	00e90733          	add	a4,s2,a4
30006918:	00b905b3          	add	a1,s2,a1
3000691c:	00b7b5b3          	sltu	a1,a5,a1
30006920:	00a73533          	sltu	a0,a4,a0
30006924:	0015c593          	xori	a1,a1,1
30006928:	00154513          	xori	a0,a0,1
3000692c:	00961613          	slli	a2,a2,0x9
30006930:	00a5e5b3          	or	a1,a1,a0
30006934:	00c90633          	add	a2,s2,a2
30006938:	23068693          	addi	a3,a3,560
3000693c:	02058a63          	beqz	a1,30006970 <f_write+0x3d0>
30006940:	00e7e5b3          	or	a1,a5,a4
30006944:	0035f593          	andi	a1,a1,3
30006948:	02059463          	bnez	a1,30006970 <f_write+0x3d0>
3000694c:	00072603          	lw	a2,0(a4)
30006950:	00478793          	addi	a5,a5,4
30006954:	00470713          	addi	a4,a4,4
30006958:	fec7ae23          	sw	a2,-4(a5)
3000695c:	fed798e3          	bne	a5,a3,3000694c <f_write+0x3ac>
30006960:	00042783          	lw	a5,0(s0)
30006964:	00989493          	slli	s1,a7,0x9
30006968:	00078223          	sb	zero,4(a5)
3000696c:	ee1ff06f          	j	3000684c <f_write+0x2ac>
30006970:	00160613          	addi	a2,a2,1
30006974:	fff64703          	lbu	a4,-1(a2)
30006978:	00178793          	addi	a5,a5,1
3000697c:	fee78fa3          	sb	a4,-1(a5)
30006980:	fef698e3          	bne	a3,a5,30006970 <f_write+0x3d0>
30006984:	fddff06f          	j	30006960 <f_write+0x3c0>
30006988:	d60782e3          	beqz	a5,300066ec <f_write+0x14c>
3000698c:	004d4703          	lbu	a4,4(s10)
30006990:	d4070ee3          	beqz	a4,300066ec <f_write+0x14c>
30006994:	001d4503          	lbu	a0,1(s10)
30006998:	030d0593          	addi	a1,s10,48
3000699c:	00100693          	li	a3,1
300069a0:	00078613          	mv	a2,a5
300069a4:	00b12423          	sw	a1,8(sp)
300069a8:	00f12223          	sw	a5,4(sp)
300069ac:	b1cfb0ef          	jal	ra,30001cc8 <disk_write>
300069b0:	da0516e3          	bnez	a0,3000675c <f_write+0x1bc>
300069b4:	01cd2683          	lw	a3,28(s10)
300069b8:	020d2703          	lw	a4,32(s10)
300069bc:	00412783          	lw	a5,4(sp)
300069c0:	000d0223          	sb	zero,4(s10)
300069c4:	00e68733          	add	a4,a3,a4
300069c8:	04e7f063          	bgeu	a5,a4,30006a08 <f_write+0x468>
300069cc:	003d4d83          	lbu	s11,3(s10)
300069d0:	01ba6663          	bltu	s4,s11,300069dc <f_write+0x43c>
300069d4:	0340006f          	j	30006a08 <f_write+0x468>
300069d8:	01cd2683          	lw	a3,28(s10)
300069dc:	001d4503          	lbu	a0,1(s10)
300069e0:	00812583          	lw	a1,8(sp)
300069e4:	00d787b3          	add	a5,a5,a3
300069e8:	00078613          	mv	a2,a5
300069ec:	00100693          	li	a3,1
300069f0:	00f12223          	sw	a5,4(sp)
300069f4:	ad4fb0ef          	jal	ra,30001cc8 <disk_write>
300069f8:	fffd8713          	addi	a4,s11,-1
300069fc:	0ff77d93          	andi	s11,a4,255
30006a00:	00412783          	lw	a5,4(sp)
30006a04:	fd4d9ae3          	bne	s11,s4,300069d8 <f_write+0x438>
30006a08:	00042d03          	lw	s10,0(s0)
30006a0c:	ce1ff06f          	j	300066ec <f_write+0x14c>
30006a10:	00200513          	li	a0,2
30006a14:	bf1ff06f          	j	30006604 <f_write+0x64>
30006a18:	01442583          	lw	a1,20(s0)
30006a1c:	000d0513          	mv	a0,s10
30006a20:	d7dfd0ef          	jal	ra,3000479c <_ZL12create_chainP5FATFSm>
30006a24:	ec1ff06f          	j	300068e4 <f_write+0x344>
30006a28:	00970633          	add	a2,a4,s1
30006a2c:	00090793          	mv	a5,s2
30006a30:	00178793          	addi	a5,a5,1
30006a34:	fff7c683          	lbu	a3,-1(a5)
30006a38:	00170713          	addi	a4,a4,1
30006a3c:	fed70fa3          	sb	a3,-1(a4)
30006a40:	fec718e3          	bne	a4,a2,30006a30 <f_write+0x490>
30006a44:	e01ff06f          	j	30006844 <f_write+0x2a4>
30006a48:	02cd2d83          	lw	s11,44(s10)
30006a4c:	000d8663          	beqz	s11,30006a58 <f_write+0x4b8>
30006a50:	004d4703          	lbu	a4,4(s10)
30006a54:	00071a63          	bnez	a4,30006a68 <f_write+0x4c8>
30006a58:	02fd2623          	sw	a5,44(s10)
30006a5c:	00842483          	lw	s1,8(s0)
30006a60:	00042d03          	lw	s10,0(s0)
30006a64:	e4dff06f          	j	300068b0 <f_write+0x310>
30006a68:	001d4503          	lbu	a0,1(s10)
30006a6c:	00f12223          	sw	a5,4(sp)
30006a70:	030d0793          	addi	a5,s10,48
30006a74:	00100693          	li	a3,1
30006a78:	000d8613          	mv	a2,s11
30006a7c:	00078593          	mv	a1,a5
30006a80:	00f12423          	sw	a5,8(sp)
30006a84:	a44fb0ef          	jal	ra,30001cc8 <disk_write>
30006a88:	cc051ae3          	bnez	a0,3000675c <f_write+0x1bc>
30006a8c:	01cd2683          	lw	a3,28(s10)
30006a90:	020d2703          	lw	a4,32(s10)
30006a94:	000d0223          	sb	zero,4(s10)
30006a98:	00412783          	lw	a5,4(sp)
30006a9c:	00e68733          	add	a4,a3,a4
30006aa0:	04edf063          	bgeu	s11,a4,30006ae0 <f_write+0x540>
30006aa4:	003d4483          	lbu	s1,3(s10)
30006aa8:	009a6663          	bltu	s4,s1,30006ab4 <f_write+0x514>
30006aac:	0340006f          	j	30006ae0 <f_write+0x540>
30006ab0:	01cd2683          	lw	a3,28(s10)
30006ab4:	001d4503          	lbu	a0,1(s10)
30006ab8:	00812583          	lw	a1,8(sp)
30006abc:	00dd8db3          	add	s11,s11,a3
30006ac0:	000d8613          	mv	a2,s11
30006ac4:	00100693          	li	a3,1
30006ac8:	00f12223          	sw	a5,4(sp)
30006acc:	9fcfb0ef          	jal	ra,30001cc8 <disk_write>
30006ad0:	fff48713          	addi	a4,s1,-1
30006ad4:	0ff77493          	andi	s1,a4,255
30006ad8:	00412783          	lw	a5,4(sp)
30006adc:	fd449ae3          	bne	s1,s4,30006ab0 <f_write+0x510>
30006ae0:	00042d03          	lw	s10,0(s0)
30006ae4:	f75ff06f          	j	30006a58 <f_write+0x4b8>

30006ae8 <f_sync>:
30006ae8:	00052783          	lw	a5,0(a0)
30006aec:	10078e63          	beqz	a5,30006c08 <f_sync+0x120>
30006af0:	0007c683          	lbu	a3,0(a5)
30006af4:	10068a63          	beqz	a3,30006c08 <f_sync+0x120>
30006af8:	ff010113          	addi	sp,sp,-16
30006afc:	00812423          	sw	s0,8(sp)
30006b00:	00112623          	sw	ra,12(sp)
30006b04:	00912223          	sw	s1,4(sp)
30006b08:	00455603          	lhu	a2,4(a0)
30006b0c:	0067d683          	lhu	a3,6(a5)
30006b10:	00050413          	mv	s0,a0
30006b14:	00900513          	li	a0,9
30006b18:	00d60c63          	beq	a2,a3,30006b30 <f_sync+0x48>
30006b1c:	00c12083          	lw	ra,12(sp)
30006b20:	00812403          	lw	s0,8(sp)
30006b24:	00412483          	lw	s1,4(sp)
30006b28:	01010113          	addi	sp,sp,16
30006b2c:	00008067          	ret
30006b30:	0017c503          	lbu	a0,1(a5)
30006b34:	d59fa0ef          	jal	ra,3000188c <disk_status>
30006b38:	00157513          	andi	a0,a0,1
30006b3c:	0c051a63          	bnez	a0,30006c10 <f_sync+0x128>
30006b40:	00644783          	lbu	a5,6(s0)
30006b44:	0207f793          	andi	a5,a5,32
30006b48:	fc078ae3          	beqz	a5,30006b1c <f_sync+0x34>
30006b4c:	01c42583          	lw	a1,28(s0)
30006b50:	00042503          	lw	a0,0(s0)
30006b54:	e5dfb0ef          	jal	ra,300029b0 <_ZL11move_windowP5FATFSm>
30006b58:	fc0512e3          	bnez	a0,30006b1c <f_sync+0x34>
30006b5c:	02042483          	lw	s1,32(s0)
30006b60:	00b4c783          	lbu	a5,11(s1)
30006b64:	0207e793          	ori	a5,a5,32
30006b68:	00f485a3          	sb	a5,11(s1)
30006b6c:	00c42783          	lw	a5,12(s0)
30006b70:	00f48e23          	sb	a5,28(s1)
30006b74:	00c42783          	lw	a5,12(s0)
30006b78:	4087d793          	srai	a5,a5,0x8
30006b7c:	00f48ea3          	sb	a5,29(s1)
30006b80:	00e45783          	lhu	a5,14(s0)
30006b84:	00f48f23          	sb	a5,30(s1)
30006b88:	00f44783          	lbu	a5,15(s0)
30006b8c:	00f48fa3          	sb	a5,31(s1)
30006b90:	01042783          	lw	a5,16(s0)
30006b94:	00f48d23          	sb	a5,26(s1)
30006b98:	01042783          	lw	a5,16(s0)
30006b9c:	4087d793          	srai	a5,a5,0x8
30006ba0:	00f48da3          	sb	a5,27(s1)
30006ba4:	01245783          	lhu	a5,18(s0)
30006ba8:	00f48a23          	sb	a5,20(s1)
30006bac:	01245783          	lhu	a5,18(s0)
30006bb0:	4087d793          	srai	a5,a5,0x8
30006bb4:	00f48aa3          	sb	a5,21(s1)
30006bb8:	ccdfa0ef          	jal	ra,30001884 <get_fattime>
30006bbc:	01055713          	srli	a4,a0,0x10
30006bc0:	01855793          	srli	a5,a0,0x18
30006bc4:	40855693          	srai	a3,a0,0x8
30006bc8:	00a48b23          	sb	a0,22(s1)
30006bcc:	00d48ba3          	sb	a3,23(s1)
30006bd0:	00e48c23          	sb	a4,24(s1)
30006bd4:	00f48ca3          	sb	a5,25(s1)
30006bd8:	00644783          	lbu	a5,6(s0)
30006bdc:	00042703          	lw	a4,0(s0)
30006be0:	fdf7f793          	andi	a5,a5,-33
30006be4:	00f40323          	sb	a5,6(s0)
30006be8:	00100793          	li	a5,1
30006bec:	00f70223          	sb	a5,4(a4)
30006bf0:	00042503          	lw	a0,0(s0)
30006bf4:	00812403          	lw	s0,8(sp)
30006bf8:	00c12083          	lw	ra,12(sp)
30006bfc:	00412483          	lw	s1,4(sp)
30006c00:	01010113          	addi	sp,sp,16
30006c04:	991fc06f          	j	30003594 <_ZL4syncP5FATFS>
30006c08:	00900513          	li	a0,9
30006c0c:	00008067          	ret
30006c10:	00300513          	li	a0,3
30006c14:	f09ff06f          	j	30006b1c <f_sync+0x34>

30006c18 <f_close>:
30006c18:	00052783          	lw	a5,0(a0)
30006c1c:	12078e63          	beqz	a5,30006d58 <f_close+0x140>
30006c20:	ff010113          	addi	sp,sp,-16
30006c24:	00812423          	sw	s0,8(sp)
30006c28:	00112623          	sw	ra,12(sp)
30006c2c:	00912223          	sw	s1,4(sp)
30006c30:	0007c703          	lbu	a4,0(a5)
30006c34:	00050413          	mv	s0,a0
30006c38:	00900513          	li	a0,9
30006c3c:	00070863          	beqz	a4,30006c4c <f_close+0x34>
30006c40:	00445683          	lhu	a3,4(s0)
30006c44:	0067d703          	lhu	a4,6(a5)
30006c48:	00e68c63          	beq	a3,a4,30006c60 <f_close+0x48>
30006c4c:	00c12083          	lw	ra,12(sp)
30006c50:	00812403          	lw	s0,8(sp)
30006c54:	00412483          	lw	s1,4(sp)
30006c58:	01010113          	addi	sp,sp,16
30006c5c:	00008067          	ret
30006c60:	0017c503          	lbu	a0,1(a5)
30006c64:	c29fa0ef          	jal	ra,3000188c <disk_status>
30006c68:	00157793          	andi	a5,a0,1
30006c6c:	00300513          	li	a0,3
30006c70:	fc079ee3          	bnez	a5,30006c4c <f_close+0x34>
30006c74:	00644783          	lbu	a5,6(s0)
30006c78:	0207f793          	andi	a5,a5,32
30006c7c:	02079063          	bnez	a5,30006c9c <f_close+0x84>
30006c80:	00042023          	sw	zero,0(s0)
30006c84:	00000513          	li	a0,0
30006c88:	00c12083          	lw	ra,12(sp)
30006c8c:	00812403          	lw	s0,8(sp)
30006c90:	00412483          	lw	s1,4(sp)
30006c94:	01010113          	addi	sp,sp,16
30006c98:	00008067          	ret
30006c9c:	01c42583          	lw	a1,28(s0)
30006ca0:	00042503          	lw	a0,0(s0)
30006ca4:	d0dfb0ef          	jal	ra,300029b0 <_ZL11move_windowP5FATFSm>
30006ca8:	fa0512e3          	bnez	a0,30006c4c <f_close+0x34>
30006cac:	02042483          	lw	s1,32(s0)
30006cb0:	00b4c783          	lbu	a5,11(s1)
30006cb4:	0207e793          	ori	a5,a5,32
30006cb8:	00f485a3          	sb	a5,11(s1)
30006cbc:	00c42783          	lw	a5,12(s0)
30006cc0:	00f48e23          	sb	a5,28(s1)
30006cc4:	00c42783          	lw	a5,12(s0)
30006cc8:	4087d793          	srai	a5,a5,0x8
30006ccc:	00f48ea3          	sb	a5,29(s1)
30006cd0:	00e45783          	lhu	a5,14(s0)
30006cd4:	00f48f23          	sb	a5,30(s1)
30006cd8:	00f44783          	lbu	a5,15(s0)
30006cdc:	00f48fa3          	sb	a5,31(s1)
30006ce0:	01042783          	lw	a5,16(s0)
30006ce4:	00f48d23          	sb	a5,26(s1)
30006ce8:	01042783          	lw	a5,16(s0)
30006cec:	4087d793          	srai	a5,a5,0x8
30006cf0:	00f48da3          	sb	a5,27(s1)
30006cf4:	01245783          	lhu	a5,18(s0)
30006cf8:	00f48a23          	sb	a5,20(s1)
30006cfc:	01245783          	lhu	a5,18(s0)
30006d00:	4087d793          	srai	a5,a5,0x8
30006d04:	00f48aa3          	sb	a5,21(s1)
30006d08:	b7dfa0ef          	jal	ra,30001884 <get_fattime>
30006d0c:	01055713          	srli	a4,a0,0x10
30006d10:	01855793          	srli	a5,a0,0x18
30006d14:	40855693          	srai	a3,a0,0x8
30006d18:	00a48b23          	sb	a0,22(s1)
30006d1c:	00d48ba3          	sb	a3,23(s1)
30006d20:	00e48c23          	sb	a4,24(s1)
30006d24:	00f48ca3          	sb	a5,25(s1)
30006d28:	00644783          	lbu	a5,6(s0)
30006d2c:	00042703          	lw	a4,0(s0)
30006d30:	fdf7f793          	andi	a5,a5,-33
30006d34:	00f40323          	sb	a5,6(s0)
30006d38:	00100793          	li	a5,1
30006d3c:	00f70223          	sb	a5,4(a4)
30006d40:	00042503          	lw	a0,0(s0)
30006d44:	851fc0ef          	jal	ra,30003594 <_ZL4syncP5FATFS>
30006d48:	f00512e3          	bnez	a0,30006c4c <f_close+0x34>
30006d4c:	00042023          	sw	zero,0(s0)
30006d50:	00000513          	li	a0,0
30006d54:	f35ff06f          	j	30006c88 <f_close+0x70>
30006d58:	00900513          	li	a0,9
30006d5c:	00008067          	ret

30006d60 <f_lseek>:
30006d60:	00052783          	lw	a5,0(a0)
30006d64:	1a078a63          	beqz	a5,30006f18 <f_lseek+0x1b8>
30006d68:	fe010113          	addi	sp,sp,-32
30006d6c:	00812c23          	sw	s0,24(sp)
30006d70:	00112e23          	sw	ra,28(sp)
30006d74:	00912a23          	sw	s1,20(sp)
30006d78:	01212823          	sw	s2,16(sp)
30006d7c:	01312623          	sw	s3,12(sp)
30006d80:	01412423          	sw	s4,8(sp)
30006d84:	0007c703          	lbu	a4,0(a5)
30006d88:	00050413          	mv	s0,a0
30006d8c:	00900513          	li	a0,9
30006d90:	00070863          	beqz	a4,30006da0 <f_lseek+0x40>
30006d94:	00445683          	lhu	a3,4(s0)
30006d98:	0067d703          	lhu	a4,6(a5)
30006d9c:	02e68263          	beq	a3,a4,30006dc0 <f_lseek+0x60>
30006da0:	01c12083          	lw	ra,28(sp)
30006da4:	01812403          	lw	s0,24(sp)
30006da8:	01412483          	lw	s1,20(sp)
30006dac:	01012903          	lw	s2,16(sp)
30006db0:	00c12983          	lw	s3,12(sp)
30006db4:	00812a03          	lw	s4,8(sp)
30006db8:	02010113          	addi	sp,sp,32
30006dbc:	00008067          	ret
30006dc0:	0017c503          	lbu	a0,1(a5)
30006dc4:	00058493          	mv	s1,a1
30006dc8:	ac5fa0ef          	jal	ra,3000188c <disk_status>
30006dcc:	00157793          	andi	a5,a0,1
30006dd0:	00300513          	li	a0,3
30006dd4:	fc0796e3          	bnez	a5,30006da0 <f_lseek+0x40>
30006dd8:	00644783          	lbu	a5,6(s0)
30006ddc:	01879713          	slli	a4,a5,0x18
30006de0:	41875713          	srai	a4,a4,0x18
30006de4:	1a074a63          	bltz	a4,30006f98 <f_lseek+0x238>
30006de8:	00c42703          	lw	a4,12(s0)
30006dec:	10976463          	bltu	a4,s1,30006ef4 <f_lseek+0x194>
30006df0:	00842783          	lw	a5,8(s0)
30006df4:	00042423          	sw	zero,8(s0)
30006df8:	00000513          	li	a0,0
30006dfc:	fa0482e3          	beqz	s1,30006da0 <f_lseek+0x40>
30006e00:	00042503          	lw	a0,0(s0)
30006e04:	00254903          	lbu	s2,2(a0)
30006e08:	00991913          	slli	s2,s2,0x9
30006e0c:	0e078c63          	beqz	a5,30006f04 <f_lseek+0x1a4>
30006e10:	fff78793          	addi	a5,a5,-1
30006e14:	fff48713          	addi	a4,s1,-1
30006e18:	03275733          	divu	a4,a4,s2
30006e1c:	0327d6b3          	divu	a3,a5,s2
30006e20:	0ed76263          	bltu	a4,a3,30006f04 <f_lseek+0x1a4>
30006e24:	41200733          	neg	a4,s2
30006e28:	00f777b3          	and	a5,a4,a5
30006e2c:	00f42423          	sw	a5,8(s0)
30006e30:	40f484b3          	sub	s1,s1,a5
30006e34:	01442783          	lw	a5,20(s0)
30006e38:	0e078463          	beqz	a5,30006f20 <f_lseek+0x1c0>
30006e3c:	18997a63          	bgeu	s2,s1,30006fd0 <f_lseek+0x270>
30006e40:	00042683          	lw	a3,0(s0)
30006e44:	00100993          	li	s3,1
30006e48:	fff00a13          	li	s4,-1
30006e4c:	00644703          	lbu	a4,6(s0)
30006e50:	412484b3          	sub	s1,s1,s2
30006e54:	00068513          	mv	a0,a3
30006e58:	00277613          	andi	a2,a4,2
30006e5c:	00078593          	mv	a1,a5
30006e60:	12061063          	bnez	a2,30006f80 <f_lseek+0x220>
30006e64:	14f9f063          	bgeu	s3,a5,30006fa4 <f_lseek+0x244>
30006e68:	0186a683          	lw	a3,24(a3)
30006e6c:	12d7fc63          	bgeu	a5,a3,30006fa4 <f_lseek+0x244>
30006e70:	8f4fc0ef          	jal	ra,30002f64 <_Z7get_fatP5FATFSm.part.5>
30006e74:	00050793          	mv	a5,a0
30006e78:	13478e63          	beq	a5,s4,30006fb4 <f_lseek+0x254>
30006e7c:	12f9f263          	bgeu	s3,a5,30006fa0 <f_lseek+0x240>
30006e80:	00042683          	lw	a3,0(s0)
30006e84:	0186a703          	lw	a4,24(a3)
30006e88:	10e7fc63          	bgeu	a5,a4,30006fa0 <f_lseek+0x240>
30006e8c:	00842703          	lw	a4,8(s0)
30006e90:	00f42a23          	sw	a5,20(s0)
30006e94:	00e90733          	add	a4,s2,a4
30006e98:	00e42423          	sw	a4,8(s0)
30006e9c:	fa9968e3          	bltu	s2,s1,30006e4c <f_lseek+0xec>
30006ea0:	00e48733          	add	a4,s1,a4
30006ea4:	00e42423          	sw	a4,8(s0)
30006ea8:	1ff4f693          	andi	a3,s1,511
30006eac:	10068e63          	beqz	a3,30006fc8 <f_lseek+0x268>
30006eb0:	00042603          	lw	a2,0(s0)
30006eb4:	ffe78793          	addi	a5,a5,-2
30006eb8:	01862683          	lw	a3,24(a2)
30006ebc:	ffe68693          	addi	a3,a3,-2
30006ec0:	02d7f063          	bgeu	a5,a3,30006ee0 <f_lseek+0x180>
30006ec4:	00264683          	lbu	a3,2(a2)
30006ec8:	02862603          	lw	a2,40(a2)
30006ecc:	0094d493          	srli	s1,s1,0x9
30006ed0:	02f687b3          	mul	a5,a3,a5
30006ed4:	00c786b3          	add	a3,a5,a2
30006ed8:	00d487b3          	add	a5,s1,a3
30006edc:	04069463          	bnez	a3,30006f24 <f_lseek+0x1c4>
30006ee0:	00644783          	lbu	a5,6(s0)
30006ee4:	00200513          	li	a0,2
30006ee8:	f807e793          	ori	a5,a5,-128
30006eec:	00f40323          	sb	a5,6(s0)
30006ef0:	eb1ff06f          	j	30006da0 <f_lseek+0x40>
30006ef4:	0027f793          	andi	a5,a5,2
30006ef8:	ee079ce3          	bnez	a5,30006df0 <f_lseek+0x90>
30006efc:	00070493          	mv	s1,a4
30006f00:	ef1ff06f          	j	30006df0 <f_lseek+0x90>
30006f04:	01042783          	lw	a5,16(s0)
30006f08:	04078863          	beqz	a5,30006f58 <f_lseek+0x1f8>
30006f0c:	00f42a23          	sw	a5,20(s0)
30006f10:	f20796e3          	bnez	a5,30006e3c <f_lseek+0xdc>
30006f14:	00c0006f          	j	30006f20 <f_lseek+0x1c0>
30006f18:	00900513          	li	a0,9
30006f1c:	00008067          	ret
30006f20:	00842703          	lw	a4,8(s0)
30006f24:	1ff77693          	andi	a3,a4,511
30006f28:	00c42603          	lw	a2,12(s0)
30006f2c:	00068863          	beqz	a3,30006f3c <f_lseek+0x1dc>
30006f30:	01842683          	lw	a3,24(s0)
30006f34:	00f68463          	beq	a3,a5,30006f3c <f_lseek+0x1dc>
30006f38:	00f42c23          	sw	a5,24(s0)
30006f3c:	08e67e63          	bgeu	a2,a4,30006fd8 <f_lseek+0x278>
30006f40:	00644783          	lbu	a5,6(s0)
30006f44:	00e42623          	sw	a4,12(s0)
30006f48:	00000513          	li	a0,0
30006f4c:	0207e793          	ori	a5,a5,32
30006f50:	00f40323          	sb	a5,6(s0)
30006f54:	e4dff06f          	j	30006da0 <f_lseek+0x40>
30006f58:	00000593          	li	a1,0
30006f5c:	841fd0ef          	jal	ra,3000479c <_ZL12create_chainP5FATFSm>
30006f60:	00100713          	li	a4,1
30006f64:	00050793          	mv	a5,a0
30006f68:	f6e50ce3          	beq	a0,a4,30006ee0 <f_lseek+0x180>
30006f6c:	fff00713          	li	a4,-1
30006f70:	04e50263          	beq	a0,a4,30006fb4 <f_lseek+0x254>
30006f74:	00a42823          	sw	a0,16(s0)
30006f78:	00f42a23          	sw	a5,20(s0)
30006f7c:	f95ff06f          	j	30006f10 <f_lseek+0x1b0>
30006f80:	81dfd0ef          	jal	ra,3000479c <_ZL12create_chainP5FATFSm>
30006f84:	00050793          	mv	a5,a0
30006f88:	ee0518e3          	bnez	a0,30006e78 <f_lseek+0x118>
30006f8c:	00842703          	lw	a4,8(s0)
30006f90:	00090493          	mv	s1,s2
30006f94:	f0dff06f          	j	30006ea0 <f_lseek+0x140>
30006f98:	00200513          	li	a0,2
30006f9c:	e05ff06f          	j	30006da0 <f_lseek+0x40>
30006fa0:	00644703          	lbu	a4,6(s0)
30006fa4:	f8076713          	ori	a4,a4,-128
30006fa8:	00e40323          	sb	a4,6(s0)
30006fac:	00200513          	li	a0,2
30006fb0:	df1ff06f          	j	30006da0 <f_lseek+0x40>
30006fb4:	00644783          	lbu	a5,6(s0)
30006fb8:	00100513          	li	a0,1
30006fbc:	f807e793          	ori	a5,a5,-128
30006fc0:	00f40323          	sb	a5,6(s0)
30006fc4:	dddff06f          	j	30006da0 <f_lseek+0x40>
30006fc8:	00000793          	li	a5,0
30006fcc:	f59ff06f          	j	30006f24 <f_lseek+0x1c4>
30006fd0:	00842703          	lw	a4,8(s0)
30006fd4:	ecdff06f          	j	30006ea0 <f_lseek+0x140>
30006fd8:	00000513          	li	a0,0
30006fdc:	dc5ff06f          	j	30006da0 <f_lseek+0x40>

30006fe0 <f_opendir>:
30006fe0:	fd010113          	addi	sp,sp,-48
30006fe4:	02812423          	sw	s0,40(sp)
30006fe8:	00b12623          	sw	a1,12(sp)
30006fec:	00050413          	mv	s0,a0
30006ff0:	00050593          	mv	a1,a0
30006ff4:	00000613          	li	a2,0
30006ff8:	00c10513          	addi	a0,sp,12
30006ffc:	02112623          	sw	ra,44(sp)
30007000:	b99fb0ef          	jal	ra,30002b98 <_ZL11chk_mountedPPKcPP5FATFSh>
30007004:	00050a63          	beqz	a0,30007018 <f_opendir+0x38>
30007008:	02c12083          	lw	ra,44(sp)
3000700c:	02812403          	lw	s0,40(sp)
30007010:	03010113          	addi	sp,sp,48
30007014:	00008067          	ret
30007018:	01410793          	addi	a5,sp,20
3000701c:	00f42c23          	sw	a5,24(s0)
30007020:	00c12583          	lw	a1,12(sp)
30007024:	3000f7b7          	lui	a5,0x3000f
30007028:	5e478793          	addi	a5,a5,1508 # 3000f5e4 <_ZL6LfnBuf>
3000702c:	00f42e23          	sw	a5,28(s0)
30007030:	00040513          	mv	a0,s0
30007034:	b95fc0ef          	jal	ra,30003bc8 <_ZL11follow_pathP3DIRPKc>
30007038:	04051e63          	bnez	a0,30007094 <f_opendir+0xb4>
3000703c:	01442783          	lw	a5,20(s0)
30007040:	02078e63          	beqz	a5,3000707c <f_opendir+0x9c>
30007044:	00b7c703          	lbu	a4,11(a5)
30007048:	01077713          	andi	a4,a4,16
3000704c:	04070863          	beqz	a4,3000709c <f_opendir+0xbc>
30007050:	0157c703          	lbu	a4,21(a5)
30007054:	0147c583          	lbu	a1,20(a5)
30007058:	01b7c683          	lbu	a3,27(a5)
3000705c:	01a7c603          	lbu	a2,26(a5)
30007060:	00871793          	slli	a5,a4,0x8
30007064:	00b7e7b3          	or	a5,a5,a1
30007068:	00869713          	slli	a4,a3,0x8
3000706c:	01079793          	slli	a5,a5,0x10
30007070:	00c76733          	or	a4,a4,a2
30007074:	00e7e7b3          	or	a5,a5,a4
30007078:	00f42423          	sw	a5,8(s0)
3000707c:	00042783          	lw	a5,0(s0)
30007080:	00000593          	li	a1,0
30007084:	00040513          	mv	a0,s0
30007088:	0067d783          	lhu	a5,6(a5)
3000708c:	00f41223          	sh	a5,4(s0)
30007090:	88cfc0ef          	jal	ra,3000311c <_ZL7dir_sdiP3DIRt>
30007094:	00400793          	li	a5,4
30007098:	f6f518e3          	bne	a0,a5,30007008 <f_opendir+0x28>
3000709c:	02c12083          	lw	ra,44(sp)
300070a0:	02812403          	lw	s0,40(sp)
300070a4:	00500513          	li	a0,5
300070a8:	03010113          	addi	sp,sp,48
300070ac:	00008067          	ret

300070b0 <f_readdir>:
300070b0:	00052703          	lw	a4,0(a0)
300070b4:	0c070063          	beqz	a4,30007174 <f_readdir+0xc4>
300070b8:	fe010113          	addi	sp,sp,-32
300070bc:	00812c23          	sw	s0,24(sp)
300070c0:	00112e23          	sw	ra,28(sp)
300070c4:	00912a23          	sw	s1,20(sp)
300070c8:	00074683          	lbu	a3,0(a4)
300070cc:	00050413          	mv	s0,a0
300070d0:	00900513          	li	a0,9
300070d4:	00068863          	beqz	a3,300070e4 <f_readdir+0x34>
300070d8:	00445603          	lhu	a2,4(s0)
300070dc:	00675683          	lhu	a3,6(a4)
300070e0:	00d60c63          	beq	a2,a3,300070f8 <f_readdir+0x48>
300070e4:	01c12083          	lw	ra,28(sp)
300070e8:	01812403          	lw	s0,24(sp)
300070ec:	01412483          	lw	s1,20(sp)
300070f0:	02010113          	addi	sp,sp,32
300070f4:	00008067          	ret
300070f8:	00174503          	lbu	a0,1(a4)
300070fc:	00058493          	mv	s1,a1
30007100:	f8cfa0ef          	jal	ra,3000188c <disk_status>
30007104:	00157793          	andi	a5,a0,1
30007108:	00300513          	li	a0,3
3000710c:	fc079ce3          	bnez	a5,300070e4 <f_readdir+0x34>
30007110:	04048a63          	beqz	s1,30007164 <f_readdir+0xb4>
30007114:	00410793          	addi	a5,sp,4
30007118:	00f42c23          	sw	a5,24(s0)
3000711c:	3000f7b7          	lui	a5,0x3000f
30007120:	5e478793          	addi	a5,a5,1508 # 3000f5e4 <_ZL6LfnBuf>
30007124:	00f42e23          	sw	a5,28(s0)
30007128:	00040513          	mv	a0,s0
3000712c:	f99fc0ef          	jal	ra,300040c4 <_ZL8dir_readP3DIR>
30007130:	00400793          	li	a5,4
30007134:	04f50463          	beq	a0,a5,3000717c <f_readdir+0xcc>
30007138:	fa0516e3          	bnez	a0,300070e4 <f_readdir+0x34>
3000713c:	00048593          	mv	a1,s1
30007140:	00040513          	mv	a0,s0
30007144:	b78fb0ef          	jal	ra,300024bc <_ZL12get_fileinfoP3DIRP7FILINFO>
30007148:	00040513          	mv	a0,s0
3000714c:	b18fc0ef          	jal	ra,30003464 <_ZL8dir_nextP3DIRi.constprop.11>
30007150:	00400793          	li	a5,4
30007154:	f8f518e3          	bne	a0,a5,300070e4 <f_readdir+0x34>
30007158:	00042823          	sw	zero,16(s0)
3000715c:	00000513          	li	a0,0
30007160:	f85ff06f          	j	300070e4 <f_readdir+0x34>
30007164:	00000593          	li	a1,0
30007168:	00040513          	mv	a0,s0
3000716c:	fb1fb0ef          	jal	ra,3000311c <_ZL7dir_sdiP3DIRt>
30007170:	f75ff06f          	j	300070e4 <f_readdir+0x34>
30007174:	00900513          	li	a0,9
30007178:	00008067          	ret
3000717c:	00042823          	sw	zero,16(s0)
30007180:	fbdff06f          	j	3000713c <f_readdir+0x8c>

30007184 <f_stat>:
30007184:	fb010113          	addi	sp,sp,-80
30007188:	04912223          	sw	s1,68(sp)
3000718c:	00a12623          	sw	a0,12(sp)
30007190:	00058493          	mv	s1,a1
30007194:	00000613          	li	a2,0
30007198:	01c10593          	addi	a1,sp,28
3000719c:	00c10513          	addi	a0,sp,12
300071a0:	04812423          	sw	s0,72(sp)
300071a4:	04112623          	sw	ra,76(sp)
300071a8:	9f1fb0ef          	jal	ra,30002b98 <_ZL11chk_mountedPPKcPP5FATFSh>
300071ac:	00050413          	mv	s0,a0
300071b0:	00050e63          	beqz	a0,300071cc <f_stat+0x48>
300071b4:	00040513          	mv	a0,s0
300071b8:	04c12083          	lw	ra,76(sp)
300071bc:	04812403          	lw	s0,72(sp)
300071c0:	04412483          	lw	s1,68(sp)
300071c4:	05010113          	addi	sp,sp,80
300071c8:	00008067          	ret
300071cc:	01010793          	addi	a5,sp,16
300071d0:	00c12583          	lw	a1,12(sp)
300071d4:	02f12a23          	sw	a5,52(sp)
300071d8:	3000f7b7          	lui	a5,0x3000f
300071dc:	5e478793          	addi	a5,a5,1508 # 3000f5e4 <_ZL6LfnBuf>
300071e0:	01c10513          	addi	a0,sp,28
300071e4:	02f12c23          	sw	a5,56(sp)
300071e8:	9e1fc0ef          	jal	ra,30003bc8 <_ZL11follow_pathP3DIRPKc>
300071ec:	00050413          	mv	s0,a0
300071f0:	fc0512e3          	bnez	a0,300071b4 <f_stat+0x30>
300071f4:	03012783          	lw	a5,48(sp)
300071f8:	02078463          	beqz	a5,30007220 <f_stat+0x9c>
300071fc:	01c10513          	addi	a0,sp,28
30007200:	00048593          	mv	a1,s1
30007204:	ab8fb0ef          	jal	ra,300024bc <_ZL12get_fileinfoP3DIRP7FILINFO>
30007208:	00040513          	mv	a0,s0
3000720c:	04c12083          	lw	ra,76(sp)
30007210:	04812403          	lw	s0,72(sp)
30007214:	04412483          	lw	s1,68(sp)
30007218:	05010113          	addi	sp,sp,80
3000721c:	00008067          	ret
30007220:	00600413          	li	s0,6
30007224:	f91ff06f          	j	300071b4 <f_stat+0x30>

30007228 <f_getfree>:
30007228:	fc010113          	addi	sp,sp,-64
3000722c:	02812c23          	sw	s0,56(sp)
30007230:	00060413          	mv	s0,a2
30007234:	02912a23          	sw	s1,52(sp)
30007238:	00a12623          	sw	a0,12(sp)
3000723c:	00058493          	mv	s1,a1
30007240:	00000613          	li	a2,0
30007244:	00040593          	mv	a1,s0
30007248:	00c10513          	addi	a0,sp,12
3000724c:	03512223          	sw	s5,36(sp)
30007250:	02112e23          	sw	ra,60(sp)
30007254:	03212823          	sw	s2,48(sp)
30007258:	03312623          	sw	s3,44(sp)
3000725c:	03412423          	sw	s4,40(sp)
30007260:	03612023          	sw	s6,32(sp)
30007264:	01712e23          	sw	s7,28(sp)
30007268:	931fb0ef          	jal	ra,30002b98 <_ZL11chk_mountedPPKcPP5FATFSh>
3000726c:	00050a93          	mv	s5,a0
30007270:	00051e63          	bnez	a0,3000728c <f_getfree+0x64>
30007274:	00042503          	lw	a0,0(s0)
30007278:	01852983          	lw	s3,24(a0)
3000727c:	01052783          	lw	a5,16(a0)
30007280:	ffe98713          	addi	a4,s3,-2
30007284:	02f76c63          	bltu	a4,a5,300072bc <f_getfree+0x94>
30007288:	00f4a023          	sw	a5,0(s1)
3000728c:	03c12083          	lw	ra,60(sp)
30007290:	03812403          	lw	s0,56(sp)
30007294:	000a8513          	mv	a0,s5
30007298:	03412483          	lw	s1,52(sp)
3000729c:	03012903          	lw	s2,48(sp)
300072a0:	02c12983          	lw	s3,44(sp)
300072a4:	02812a03          	lw	s4,40(sp)
300072a8:	02412a83          	lw	s5,36(sp)
300072ac:	02012b03          	lw	s6,32(sp)
300072b0:	01c12b83          	lw	s7,28(sp)
300072b4:	04010113          	addi	sp,sp,64
300072b8:	00008067          	ret
300072bc:	00054903          	lbu	s2,0(a0)
300072c0:	00100793          	li	a5,1
300072c4:	08f90a63          	beq	s2,a5,30007358 <f_getfree+0x130>
300072c8:	00200793          	li	a5,2
300072cc:	02052b83          	lw	s7,32(a0)
300072d0:	00000713          	li	a4,0
300072d4:	0ef90e63          	beq	s2,a5,300073d0 <f_getfree+0x1a8>
300072d8:	10000b37          	lui	s6,0x10000
300072dc:	00000813          	li	a6,0
300072e0:	00000a13          	li	s4,0
300072e4:	fffb0b13          	addi	s6,s6,-1 # fffffff <stackPointer+0xfff92bf>
300072e8:	0440006f          	j	3000732c <f_getfree+0x104>
300072ec:	00174603          	lbu	a2,1(a4)
300072f0:	00074583          	lbu	a1,0(a4)
300072f4:	00274683          	lbu	a3,2(a4)
300072f8:	00374783          	lbu	a5,3(a4)
300072fc:	00861613          	slli	a2,a2,0x8
30007300:	00b66633          	or	a2,a2,a1
30007304:	01069693          	slli	a3,a3,0x10
30007308:	00c6e6b3          	or	a3,a3,a2
3000730c:	01879793          	slli	a5,a5,0x18
30007310:	00d7e7b3          	or	a5,a5,a3
30007314:	0167f7b3          	and	a5,a5,s6
30007318:	0017b793          	seqz	a5,a5
3000731c:	00fa0a33          	add	s4,s4,a5
30007320:	00470713          	addi	a4,a4,4
30007324:	ffc80813          	addi	a6,a6,-4
30007328:	08098463          	beqz	s3,300073b0 <f_getfree+0x188>
3000732c:	fff98993          	addi	s3,s3,-1
30007330:	fa081ee3          	bnez	a6,300072ec <f_getfree+0xc4>
30007334:	000b8593          	mv	a1,s7
30007338:	e78fb0ef          	jal	ra,300029b0 <_ZL11move_windowP5FATFSm>
3000733c:	001b8b93          	addi	s7,s7,1
30007340:	00050793          	mv	a5,a0
30007344:	06051263          	bnez	a0,300073a8 <f_getfree+0x180>
30007348:	00042503          	lw	a0,0(s0)
3000734c:	20000813          	li	a6,512
30007350:	03050713          	addi	a4,a0,48
30007354:	f99ff06f          	j	300072ec <f_getfree+0xc4>
30007358:	00200793          	li	a5,2
3000735c:	0d37f863          	bgeu	a5,s3,3000742c <f_getfree+0x204>
30007360:	00300913          	li	s2,3
30007364:	00000a13          	li	s4,0
30007368:	fff00993          	li	s3,-1
3000736c:	00100b13          	li	s6,1
30007370:	0080006f          	j	30007378 <f_getfree+0x150>
30007374:	00190913          	addi	s2,s2,1
30007378:	fff90593          	addi	a1,s2,-1
3000737c:	be9fb0ef          	jal	ra,30002f64 <_Z7get_fatP5FATFSm.part.5>
30007380:	00153793          	seqz	a5,a0
30007384:	0b350c63          	beq	a0,s3,3000743c <f_getfree+0x214>
30007388:	0d650263          	beq	a0,s6,3000744c <f_getfree+0x224>
3000738c:	00042503          	lw	a0,0(s0)
30007390:	00fa0a33          	add	s4,s4,a5
30007394:	01852783          	lw	a5,24(a0)
30007398:	fcf96ee3          	bltu	s2,a5,30007374 <f_getfree+0x14c>
3000739c:	01452823          	sw	s4,16(a0)
300073a0:	0144a023          	sw	s4,0(s1)
300073a4:	ee9ff06f          	j	3000728c <f_getfree+0x64>
300073a8:	00042503          	lw	a0,0(s0)
300073ac:	00078a93          	mv	s5,a5
300073b0:	01452823          	sw	s4,16(a0)
300073b4:	00300793          	li	a5,3
300073b8:	fef914e3          	bne	s2,a5,300073a0 <f_getfree+0x178>
300073bc:	00042783          	lw	a5,0(s0)
300073c0:	00100713          	li	a4,1
300073c4:	00e782a3          	sb	a4,5(a5)
300073c8:	0144a023          	sw	s4,0(s1)
300073cc:	ec1ff06f          	j	3000728c <f_getfree+0x64>
300073d0:	00000693          	li	a3,0
300073d4:	00000a13          	li	s4,0
300073d8:	0280006f          	j	30007400 <f_getfree+0x1d8>
300073dc:	00174783          	lbu	a5,1(a4)
300073e0:	00074603          	lbu	a2,0(a4)
300073e4:	ffe68693          	addi	a3,a3,-2
300073e8:	00879793          	slli	a5,a5,0x8
300073ec:	00c7e7b3          	or	a5,a5,a2
300073f0:	0017b793          	seqz	a5,a5
300073f4:	00fa0a33          	add	s4,s4,a5
300073f8:	00270713          	addi	a4,a4,2
300073fc:	fa0980e3          	beqz	s3,3000739c <f_getfree+0x174>
30007400:	fff98993          	addi	s3,s3,-1
30007404:	fc069ce3          	bnez	a3,300073dc <f_getfree+0x1b4>
30007408:	000b8593          	mv	a1,s7
3000740c:	da4fb0ef          	jal	ra,300029b0 <_ZL11move_windowP5FATFSm>
30007410:	001b8b93          	addi	s7,s7,1
30007414:	00050793          	mv	a5,a0
30007418:	f80518e3          	bnez	a0,300073a8 <f_getfree+0x180>
3000741c:	00042503          	lw	a0,0(s0)
30007420:	20000693          	li	a3,512
30007424:	03050713          	addi	a4,a0,48
30007428:	fb5ff06f          	j	300073dc <f_getfree+0x1b4>
3000742c:	00000a13          	li	s4,0
30007430:	00200a93          	li	s5,2
30007434:	01452823          	sw	s4,16(a0)
30007438:	f69ff06f          	j	300073a0 <f_getfree+0x178>
3000743c:	00042503          	lw	a0,0(s0)
30007440:	00100a93          	li	s5,1
30007444:	01452823          	sw	s4,16(a0)
30007448:	f59ff06f          	j	300073a0 <f_getfree+0x178>
3000744c:	00042503          	lw	a0,0(s0)
30007450:	00200a93          	li	s5,2
30007454:	01452823          	sw	s4,16(a0)
30007458:	f49ff06f          	j	300073a0 <f_getfree+0x178>

3000745c <f_truncate>:
3000745c:	00052783          	lw	a5,0(a0)
30007460:	1a078863          	beqz	a5,30007610 <f_truncate+0x1b4>
30007464:	fe010113          	addi	sp,sp,-32
30007468:	00812c23          	sw	s0,24(sp)
3000746c:	00112e23          	sw	ra,28(sp)
30007470:	00912a23          	sw	s1,20(sp)
30007474:	01212823          	sw	s2,16(sp)
30007478:	01312623          	sw	s3,12(sp)
3000747c:	01412423          	sw	s4,8(sp)
30007480:	01512223          	sw	s5,4(sp)
30007484:	0007c683          	lbu	a3,0(a5)
30007488:	00050413          	mv	s0,a0
3000748c:	00900513          	li	a0,9
30007490:	00068863          	beqz	a3,300074a0 <f_truncate+0x44>
30007494:	00445603          	lhu	a2,4(s0)
30007498:	0067d683          	lhu	a3,6(a5)
3000749c:	02d60463          	beq	a2,a3,300074c4 <f_truncate+0x68>
300074a0:	01c12083          	lw	ra,28(sp)
300074a4:	01812403          	lw	s0,24(sp)
300074a8:	01412483          	lw	s1,20(sp)
300074ac:	01012903          	lw	s2,16(sp)
300074b0:	00c12983          	lw	s3,12(sp)
300074b4:	00812a03          	lw	s4,8(sp)
300074b8:	00412a83          	lw	s5,4(sp)
300074bc:	02010113          	addi	sp,sp,32
300074c0:	00008067          	ret
300074c4:	0017c503          	lbu	a0,1(a5)
300074c8:	bc4fa0ef          	jal	ra,3000188c <disk_status>
300074cc:	00157793          	andi	a5,a0,1
300074d0:	00300513          	li	a0,3
300074d4:	fc0796e3          	bnez	a5,300074a0 <f_truncate+0x44>
300074d8:	00644783          	lbu	a5,6(s0)
300074dc:	00200513          	li	a0,2
300074e0:	01879713          	slli	a4,a5,0x18
300074e4:	41875713          	srai	a4,a4,0x18
300074e8:	fa074ce3          	bltz	a4,300074a0 <f_truncate+0x44>
300074ec:	0027f713          	andi	a4,a5,2
300074f0:	00700513          	li	a0,7
300074f4:	fa0706e3          	beqz	a4,300074a0 <f_truncate+0x44>
300074f8:	00842703          	lw	a4,8(s0)
300074fc:	00c42683          	lw	a3,12(s0)
30007500:	08d77663          	bgeu	a4,a3,3000758c <f_truncate+0x130>
30007504:	0207e793          	ori	a5,a5,32
30007508:	00e42623          	sw	a4,12(s0)
3000750c:	00f40323          	sb	a5,6(s0)
30007510:	00042483          	lw	s1,0(s0)
30007514:	08071063          	bnez	a4,30007594 <f_truncate+0x138>
30007518:	01042903          	lw	s2,16(s0)
3000751c:	00100713          	li	a4,1
30007520:	0f277c63          	bgeu	a4,s2,30007618 <f_truncate+0x1bc>
30007524:	0184a703          	lw	a4,24(s1)
30007528:	0ee97863          	bgeu	s2,a4,30007618 <f_truncate+0x1bc>
3000752c:	00100a93          	li	s5,1
30007530:	fff00a13          	li	s4,-1
30007534:	00090593          	mv	a1,s2
30007538:	00048513          	mv	a0,s1
3000753c:	a29fb0ef          	jal	ra,30002f64 <_Z7get_fatP5FATFSm.part.5>
30007540:	00050993          	mv	s3,a0
30007544:	00090593          	mv	a1,s2
30007548:	00000613          	li	a2,0
3000754c:	00048513          	mv	a0,s1
30007550:	02098c63          	beqz	s3,30007588 <f_truncate+0x12c>
30007554:	0f598063          	beq	s3,s5,30007634 <f_truncate+0x1d8>
30007558:	11498663          	beq	s3,s4,30007664 <f_truncate+0x208>
3000755c:	0184a783          	lw	a5,24(s1)
30007560:	0cf97a63          	bgeu	s2,a5,30007634 <f_truncate+0x1d8>
30007564:	d21fb0ef          	jal	ra,30003284 <_Z7put_fatP5FATFSmm.part.6>
30007568:	10051063          	bnez	a0,30007668 <f_truncate+0x20c>
3000756c:	0104a783          	lw	a5,16(s1)
30007570:	00178713          	addi	a4,a5,1
30007574:	01478663          	beq	a5,s4,30007580 <f_truncate+0x124>
30007578:	00e4a823          	sw	a4,16(s1)
3000757c:	015482a3          	sb	s5,5(s1)
30007580:	0184a783          	lw	a5,24(s1)
30007584:	0cf9e663          	bltu	s3,a5,30007650 <f_truncate+0x1f4>
30007588:	00042823          	sw	zero,16(s0)
3000758c:	00000513          	li	a0,0
30007590:	f11ff06f          	j	300074a0 <f_truncate+0x44>
30007594:	01442583          	lw	a1,20(s0)
30007598:	00100713          	li	a4,1
3000759c:	08b77863          	bgeu	a4,a1,3000762c <f_truncate+0x1d0>
300075a0:	0184a703          	lw	a4,24(s1)
300075a4:	08e5f463          	bgeu	a1,a4,3000762c <f_truncate+0x1d0>
300075a8:	00048513          	mv	a0,s1
300075ac:	9b9fb0ef          	jal	ra,30002f64 <_Z7get_fatP5FATFSm.part.5>
300075b0:	fff00793          	li	a5,-1
300075b4:	00050493          	mv	s1,a0
300075b8:	08f50663          	beq	a0,a5,30007644 <f_truncate+0x1e8>
300075bc:	00100913          	li	s2,1
300075c0:	09250c63          	beq	a0,s2,30007658 <f_truncate+0x1fc>
300075c4:	00042503          	lw	a0,0(s0)
300075c8:	01852783          	lw	a5,24(a0)
300075cc:	fcf4f0e3          	bgeu	s1,a5,3000758c <f_truncate+0x130>
300075d0:	01442583          	lw	a1,20(s0)
300075d4:	08b97263          	bgeu	s2,a1,30007658 <f_truncate+0x1fc>
300075d8:	08f5f063          	bgeu	a1,a5,30007658 <f_truncate+0x1fc>
300075dc:	10000637          	lui	a2,0x10000
300075e0:	fff60613          	addi	a2,a2,-1 # fffffff <stackPointer+0xfff92bf>
300075e4:	ca1fb0ef          	jal	ra,30003284 <_Z7put_fatP5FATFSmm.part.6>
300075e8:	02051063          	bnez	a0,30007608 <f_truncate+0x1ac>
300075ec:	06997663          	bgeu	s2,s1,30007658 <f_truncate+0x1fc>
300075f0:	00042503          	lw	a0,0(s0)
300075f4:	01852783          	lw	a5,24(a0)
300075f8:	06f4f063          	bgeu	s1,a5,30007658 <f_truncate+0x1fc>
300075fc:	00048593          	mv	a1,s1
30007600:	c58fd0ef          	jal	ra,30004a58 <_ZL12remove_chainP5FATFSm.part.8>
30007604:	f80504e3          	beqz	a0,3000758c <f_truncate+0x130>
30007608:	00644783          	lbu	a5,6(s0)
3000760c:	0140006f          	j	30007620 <f_truncate+0x1c4>
30007610:	00900513          	li	a0,9
30007614:	00008067          	ret
30007618:	00042823          	sw	zero,16(s0)
3000761c:	00200513          	li	a0,2
30007620:	f807e793          	ori	a5,a5,-128
30007624:	00f40323          	sb	a5,6(s0)
30007628:	e79ff06f          	j	300074a0 <f_truncate+0x44>
3000762c:	00200513          	li	a0,2
30007630:	ff1ff06f          	j	30007620 <f_truncate+0x1c4>
30007634:	00042823          	sw	zero,16(s0)
30007638:	00200513          	li	a0,2
3000763c:	00644783          	lbu	a5,6(s0)
30007640:	fe1ff06f          	j	30007620 <f_truncate+0x1c4>
30007644:	00644783          	lbu	a5,6(s0)
30007648:	00100513          	li	a0,1
3000764c:	fd5ff06f          	j	30007620 <f_truncate+0x1c4>
30007650:	00098913          	mv	s2,s3
30007654:	ee1ff06f          	j	30007534 <f_truncate+0xd8>
30007658:	00644783          	lbu	a5,6(s0)
3000765c:	00200513          	li	a0,2
30007660:	fc1ff06f          	j	30007620 <f_truncate+0x1c4>
30007664:	00100513          	li	a0,1
30007668:	00042823          	sw	zero,16(s0)
3000766c:	00644783          	lbu	a5,6(s0)
30007670:	fb1ff06f          	j	30007620 <f_truncate+0x1c4>

30007674 <f_unlink>:
30007674:	f7010113          	addi	sp,sp,-144
30007678:	00a12623          	sw	a0,12(sp)
3000767c:	00100613          	li	a2,1
30007680:	02810593          	addi	a1,sp,40
30007684:	00c10513          	addi	a0,sp,12
30007688:	08112623          	sw	ra,140(sp)
3000768c:	08812423          	sw	s0,136(sp)
30007690:	08912223          	sw	s1,132(sp)
30007694:	09212023          	sw	s2,128(sp)
30007698:	07312e23          	sw	s3,124(sp)
3000769c:	cfcfb0ef          	jal	ra,30002b98 <_ZL11chk_mountedPPKcPP5FATFSh>
300076a0:	00050793          	mv	a5,a0
300076a4:	02050263          	beqz	a0,300076c8 <f_unlink+0x54>
300076a8:	08c12083          	lw	ra,140(sp)
300076ac:	08812403          	lw	s0,136(sp)
300076b0:	08412483          	lw	s1,132(sp)
300076b4:	08012903          	lw	s2,128(sp)
300076b8:	07c12983          	lw	s3,124(sp)
300076bc:	00078513          	mv	a0,a5
300076c0:	09010113          	addi	sp,sp,144
300076c4:	00008067          	ret
300076c8:	01c10793          	addi	a5,sp,28
300076cc:	00c12583          	lw	a1,12(sp)
300076d0:	04f12023          	sw	a5,64(sp)
300076d4:	3000f7b7          	lui	a5,0x3000f
300076d8:	5e478793          	addi	a5,a5,1508 # 3000f5e4 <_ZL6LfnBuf>
300076dc:	02810513          	addi	a0,sp,40
300076e0:	04f12223          	sw	a5,68(sp)
300076e4:	ce4fc0ef          	jal	ra,30003bc8 <_ZL11follow_pathP3DIRPKc>
300076e8:	00050793          	mv	a5,a0
300076ec:	fa051ee3          	bnez	a0,300076a8 <f_unlink+0x34>
300076f0:	03c12703          	lw	a4,60(sp)
300076f4:	00600793          	li	a5,6
300076f8:	fa0708e3          	beqz	a4,300076a8 <f_unlink+0x34>
300076fc:	00b74683          	lbu	a3,11(a4)
30007700:	00700793          	li	a5,7
30007704:	0016f613          	andi	a2,a3,1
30007708:	fa0610e3          	bnez	a2,300076a8 <f_unlink+0x34>
3000770c:	01574403          	lbu	s0,21(a4)
30007710:	01474583          	lbu	a1,20(a4)
30007714:	01b74783          	lbu	a5,27(a4)
30007718:	01a74603          	lbu	a2,26(a4)
3000771c:	00841413          	slli	s0,s0,0x8
30007720:	00b46433          	or	s0,s0,a1
30007724:	00879793          	slli	a5,a5,0x8
30007728:	01041413          	slli	s0,s0,0x10
3000772c:	00c7e7b3          	or	a5,a5,a2
30007730:	0106f693          	andi	a3,a3,16
30007734:	00f46433          	or	s0,s0,a5
30007738:	06068c63          	beqz	a3,300077b0 <f_unlink+0x13c>
3000773c:	00100793          	li	a5,1
30007740:	0e87f463          	bgeu	a5,s0,30007828 <f_unlink+0x1b4>
30007744:	02812783          	lw	a5,40(sp)
30007748:	00200593          	li	a1,2
3000774c:	04c10513          	addi	a0,sp,76
30007750:	04f12623          	sw	a5,76(sp)
30007754:	02c12783          	lw	a5,44(sp)
30007758:	06e12023          	sw	a4,96(sp)
3000775c:	04812a23          	sw	s0,84(sp)
30007760:	04f12823          	sw	a5,80(sp)
30007764:	03412783          	lw	a5,52(sp)
30007768:	04f12c23          	sw	a5,88(sp)
3000776c:	03812783          	lw	a5,56(sp)
30007770:	04f12e23          	sw	a5,92(sp)
30007774:	04012783          	lw	a5,64(sp)
30007778:	06f12223          	sw	a5,100(sp)
3000777c:	04412783          	lw	a5,68(sp)
30007780:	06f12423          	sw	a5,104(sp)
30007784:	04812783          	lw	a5,72(sp)
30007788:	06f12623          	sw	a5,108(sp)
3000778c:	991fb0ef          	jal	ra,3000311c <_ZL7dir_sdiP3DIRt>
30007790:	00050793          	mv	a5,a0
30007794:	f0051ae3          	bnez	a0,300076a8 <f_unlink+0x34>
30007798:	04c10513          	addi	a0,sp,76
3000779c:	929fc0ef          	jal	ra,300040c4 <_ZL8dir_readP3DIR>
300077a0:	00050793          	mv	a5,a0
300077a4:	0c050663          	beqz	a0,30007870 <f_unlink+0x1fc>
300077a8:	00400713          	li	a4,4
300077ac:	eee51ee3          	bne	a0,a4,300076a8 <f_unlink+0x34>
300077b0:	04815583          	lhu	a1,72(sp)
300077b4:	000107b7          	lui	a5,0x10
300077b8:	fff78793          	addi	a5,a5,-1 # ffff <stackPointer+0x92bf>
300077bc:	02e15483          	lhu	s1,46(sp)
300077c0:	00f59463          	bne	a1,a5,300077c8 <f_unlink+0x154>
300077c4:	00048593          	mv	a1,s1
300077c8:	02810513          	addi	a0,sp,40
300077cc:	951fb0ef          	jal	ra,3000311c <_ZL7dir_sdiP3DIRt>
300077d0:	00050793          	mv	a5,a0
300077d4:	ec051ae3          	bnez	a0,300076a8 <f_unlink+0x34>
300077d8:	fe500993          	li	s3,-27
300077dc:	00100913          	li	s2,1
300077e0:	0280006f          	j	30007808 <f_unlink+0x194>
300077e4:	03c12783          	lw	a5,60(sp)
300077e8:	01378023          	sb	s3,0(a5)
300077ec:	02812783          	lw	a5,40(sp)
300077f0:	01278223          	sb	s2,4(a5)
300077f4:	02e15703          	lhu	a4,46(sp)
300077f8:	02977c63          	bgeu	a4,s1,30007830 <f_unlink+0x1bc>
300077fc:	c69fb0ef          	jal	ra,30003464 <_ZL8dir_nextP3DIRi.constprop.11>
30007800:	00050793          	mv	a5,a0
30007804:	00051e63          	bnez	a0,30007820 <f_unlink+0x1ac>
30007808:	03812583          	lw	a1,56(sp)
3000780c:	02812503          	lw	a0,40(sp)
30007810:	9a0fb0ef          	jal	ra,300029b0 <_ZL11move_windowP5FATFSm>
30007814:	00050793          	mv	a5,a0
30007818:	02810513          	addi	a0,sp,40
3000781c:	fc0784e3          	beqz	a5,300077e4 <f_unlink+0x170>
30007820:	00400713          	li	a4,4
30007824:	e8e792e3          	bne	a5,a4,300076a8 <f_unlink+0x34>
30007828:	00200793          	li	a5,2
3000782c:	e7dff06f          	j	300076a8 <f_unlink+0x34>
30007830:	00041a63          	bnez	s0,30007844 <f_unlink+0x1d0>
30007834:	00078513          	mv	a0,a5
30007838:	d5dfb0ef          	jal	ra,30003594 <_ZL4syncP5FATFS>
3000783c:	00050793          	mv	a5,a0
30007840:	e69ff06f          	j	300076a8 <f_unlink+0x34>
30007844:	00100713          	li	a4,1
30007848:	fee400e3          	beq	s0,a4,30007828 <f_unlink+0x1b4>
3000784c:	0187a703          	lw	a4,24(a5)
30007850:	fce47ce3          	bgeu	s0,a4,30007828 <f_unlink+0x1b4>
30007854:	00078513          	mv	a0,a5
30007858:	00040593          	mv	a1,s0
3000785c:	9fcfd0ef          	jal	ra,30004a58 <_ZL12remove_chainP5FATFSm.part.8>
30007860:	00050793          	mv	a5,a0
30007864:	e40512e3          	bnez	a0,300076a8 <f_unlink+0x34>
30007868:	02812783          	lw	a5,40(sp)
3000786c:	fc9ff06f          	j	30007834 <f_unlink+0x1c0>
30007870:	00700793          	li	a5,7
30007874:	e35ff06f          	j	300076a8 <f_unlink+0x34>

30007878 <f_mkdir>:
30007878:	f7010113          	addi	sp,sp,-144
3000787c:	08112623          	sw	ra,140(sp)
30007880:	08812423          	sw	s0,136(sp)
30007884:	08912223          	sw	s1,132(sp)
30007888:	09212023          	sw	s2,128(sp)
3000788c:	07312e23          	sw	s3,124(sp)
30007890:	07412c23          	sw	s4,120(sp)
30007894:	07512a23          	sw	s5,116(sp)
30007898:	07612823          	sw	s6,112(sp)
3000789c:	07712623          	sw	s7,108(sp)
300078a0:	07812423          	sw	s8,104(sp)
300078a4:	07912223          	sw	s9,100(sp)
300078a8:	07a12023          	sw	s10,96(sp)
300078ac:	05b12e23          	sw	s11,92(sp)
300078b0:	00a12e23          	sw	a0,28(sp)
300078b4:	fd1f90ef          	jal	ra,30001884 <get_fattime>
300078b8:	00050493          	mv	s1,a0
300078bc:	00100613          	li	a2,1
300078c0:	02c10593          	addi	a1,sp,44
300078c4:	01c10513          	addi	a0,sp,28
300078c8:	ad0fb0ef          	jal	ra,30002b98 <_ZL11chk_mountedPPKcPP5FATFSh>
300078cc:	00050413          	mv	s0,a0
300078d0:	04050263          	beqz	a0,30007914 <f_mkdir+0x9c>
300078d4:	00040513          	mv	a0,s0
300078d8:	08c12083          	lw	ra,140(sp)
300078dc:	08812403          	lw	s0,136(sp)
300078e0:	08412483          	lw	s1,132(sp)
300078e4:	08012903          	lw	s2,128(sp)
300078e8:	07c12983          	lw	s3,124(sp)
300078ec:	07812a03          	lw	s4,120(sp)
300078f0:	07412a83          	lw	s5,116(sp)
300078f4:	07012b03          	lw	s6,112(sp)
300078f8:	06c12b83          	lw	s7,108(sp)
300078fc:	06812c03          	lw	s8,104(sp)
30007900:	06412c83          	lw	s9,100(sp)
30007904:	06012d03          	lw	s10,96(sp)
30007908:	05c12d83          	lw	s11,92(sp)
3000790c:	09010113          	addi	sp,sp,144
30007910:	00008067          	ret
30007914:	02010793          	addi	a5,sp,32
30007918:	01c12583          	lw	a1,28(sp)
3000791c:	04f12223          	sw	a5,68(sp)
30007920:	3000f7b7          	lui	a5,0x3000f
30007924:	5e478793          	addi	a5,a5,1508 # 3000f5e4 <_ZL6LfnBuf>
30007928:	02c10513          	addi	a0,sp,44
3000792c:	04f12423          	sw	a5,72(sp)
30007930:	a98fc0ef          	jal	ra,30003bc8 <_ZL11follow_pathP3DIRPKc>
30007934:	00050413          	mv	s0,a0
30007938:	28050c63          	beqz	a0,30007bd0 <f_mkdir+0x358>
3000793c:	00400793          	li	a5,4
30007940:	f8f51ae3          	bne	a0,a5,300078d4 <f_mkdir+0x5c>
30007944:	02c12503          	lw	a0,44(sp)
30007948:	00000593          	li	a1,0
3000794c:	00700413          	li	s0,7
30007950:	e4dfc0ef          	jal	ra,3000479c <_ZL12create_chainP5FATFSm>
30007954:	00050913          	mv	s2,a0
30007958:	f6050ee3          	beqz	a0,300078d4 <f_mkdir+0x5c>
3000795c:	00100793          	li	a5,1
30007960:	00200413          	li	s0,2
30007964:	f6f508e3          	beq	a0,a5,300078d4 <f_mkdir+0x5c>
30007968:	fff00793          	li	a5,-1
3000796c:	02c12983          	lw	s3,44(sp)
30007970:	00100413          	li	s0,1
30007974:	f6f500e3          	beq	a0,a5,300078d4 <f_mkdir+0x5c>
30007978:	02c9aa03          	lw	s4,44(s3)
3000797c:	03098c13          	addi	s8,s3,48
30007980:	000a0663          	beqz	s4,3000798c <f_mkdir+0x114>
30007984:	0049c783          	lbu	a5,4(s3)
30007988:	30079c63          	bnez	a5,30007ca0 <f_mkdir+0x428>
3000798c:	0189a703          	lw	a4,24(s3)
30007990:	ffe90693          	addi	a3,s2,-2
30007994:	00000c93          	li	s9,0
30007998:	ffe70713          	addi	a4,a4,-2
3000799c:	00e6fa63          	bgeu	a3,a4,300079b0 <f_mkdir+0x138>
300079a0:	0029c783          	lbu	a5,2(s3)
300079a4:	0289a703          	lw	a4,40(s3)
300079a8:	02d787b3          	mul	a5,a5,a3
300079ac:	00e78cb3          	add	s9,a5,a4
300079b0:	20000613          	li	a2,512
300079b4:	00000593          	li	a1,0
300079b8:	000c0513          	mv	a0,s8
300079bc:	5e0040ef          	jal	ra,3000bf9c <memset>
300079c0:	05098593          	addi	a1,s3,80
300079c4:	004c0693          	addi	a3,s8,4
300079c8:	05498613          	addi	a2,s3,84
300079cc:	02000713          	li	a4,32
300079d0:	00d5b6b3          	sltu	a3,a1,a3
300079d4:	00cc3633          	sltu	a2,s8,a2
300079d8:	00ec0023          	sb	a4,0(s8)
300079dc:	00ec00a3          	sb	a4,1(s8)
300079e0:	00ec0123          	sb	a4,2(s8)
300079e4:	00ec01a3          	sb	a4,3(s8)
300079e8:	00ec0223          	sb	a4,4(s8)
300079ec:	00ec02a3          	sb	a4,5(s8)
300079f0:	00ec0323          	sb	a4,6(s8)
300079f4:	00ec03a3          	sb	a4,7(s8)
300079f8:	00ec0423          	sb	a4,8(s8)
300079fc:	00ec04a3          	sb	a4,9(s8)
30007a00:	00ec0523          	sb	a4,10(s8)
30007a04:	01095a13          	srli	s4,s2,0x10
30007a08:	0016c713          	xori	a4,a3,1
30007a0c:	4084db13          	srai	s6,s1,0x8
30007a10:	00164693          	xori	a3,a2,1
30007a14:	0104db93          	srli	s7,s1,0x10
30007a18:	02e00613          	li	a2,46
30007a1c:	40895a93          	srai	s5,s2,0x8
30007a20:	0ff4f793          	andi	a5,s1,255
30007a24:	0184d513          	srli	a0,s1,0x18
30007a28:	0ff97813          	andi	a6,s2,255
30007a2c:	0ffa7893          	andi	a7,s4,255
30007a30:	008a5313          	srli	t1,s4,0x8
30007a34:	0ffb7b13          	andi	s6,s6,255
30007a38:	0ffbfb93          	andi	s7,s7,255
30007a3c:	0ffafa93          	andi	s5,s5,255
30007a40:	02c98823          	sb	a2,48(s3)
30007a44:	01000613          	li	a2,16
30007a48:	00f12423          	sw	a5,8(sp)
30007a4c:	00a12623          	sw	a0,12(sp)
30007a50:	01012823          	sw	a6,16(sp)
30007a54:	01112a23          	sw	a7,20(sp)
30007a58:	00612c23          	sw	t1,24(sp)
30007a5c:	02c98da3          	sb	a2,59(s3)
30007a60:	04f98323          	sb	a5,70(s3)
30007a64:	056983a3          	sb	s6,71(s3)
30007a68:	05798423          	sb	s7,72(s3)
30007a6c:	04a984a3          	sb	a0,73(s3)
30007a70:	05098523          	sb	a6,74(s3)
30007a74:	055985a3          	sb	s5,75(s3)
30007a78:	05198223          	sb	a7,68(s3)
30007a7c:	046982a3          	sb	t1,69(s3)
30007a80:	00d76733          	or	a4,a4,a3
30007a84:	1e070a63          	beqz	a4,30007c78 <f_mkdir+0x400>
30007a88:	00bc6733          	or	a4,s8,a1
30007a8c:	00377713          	andi	a4,a4,3
30007a90:	1e071463          	bnez	a4,30007c78 <f_mkdir+0x400>
30007a94:	000c2703          	lw	a4,0(s8)
30007a98:	04e9a823          	sw	a4,80(s3)
30007a9c:	004c2703          	lw	a4,4(s8)
30007aa0:	04e9aa23          	sw	a4,84(s3)
30007aa4:	008c2703          	lw	a4,8(s8)
30007aa8:	04e9ac23          	sw	a4,88(s3)
30007aac:	00cc2703          	lw	a4,12(s8)
30007ab0:	04e9ae23          	sw	a4,92(s3)
30007ab4:	010c2703          	lw	a4,16(s8)
30007ab8:	06e9a023          	sw	a4,96(s3)
30007abc:	014c2703          	lw	a4,20(s8)
30007ac0:	06e9a223          	sw	a4,100(s3)
30007ac4:	018c2703          	lw	a4,24(s8)
30007ac8:	06e9a423          	sw	a4,104(s3)
30007acc:	01cc2703          	lw	a4,28(s8)
30007ad0:	06e9a623          	sw	a4,108(s3)
30007ad4:	02c12d03          	lw	s10,44(sp)
30007ad8:	02e00693          	li	a3,46
30007adc:	04d988a3          	sb	a3,81(s3)
30007ae0:	000d4583          	lbu	a1,0(s10)
30007ae4:	00300613          	li	a2,3
30007ae8:	03412683          	lw	a3,52(sp)
30007aec:	16c58863          	beq	a1,a2,30007c5c <f_mkdir+0x3e4>
30007af0:	0106d613          	srli	a2,a3,0x10
30007af4:	4086d593          	srai	a1,a3,0x8
30007af8:	0ff67513          	andi	a0,a2,255
30007afc:	0ff6f693          	andi	a3,a3,255
30007b00:	0ff5f593          	andi	a1,a1,255
30007b04:	00865613          	srli	a2,a2,0x8
30007b08:	06d98523          	sb	a3,106(s3)
30007b0c:	06b985a3          	sb	a1,107(s3)
30007b10:	06a98223          	sb	a0,100(s3)
30007b14:	06c982a3          	sb	a2,101(s3)
30007b18:	002d4683          	lbu	a3,2(s10)
30007b1c:	0a068e63          	beqz	a3,30007bd8 <f_mkdir+0x360>
30007b20:	fff68413          	addi	s0,a3,-1
30007b24:	0ff47413          	andi	s0,s0,255
30007b28:	00140413          	addi	s0,s0,1
30007b2c:	01940433          	add	s0,s0,s9
30007b30:	00100993          	li	s3,1
30007b34:	039d2623          	sw	s9,44(s10)
30007b38:	013d0223          	sb	s3,4(s10)
30007b3c:	060c8a63          	beqz	s9,30007bb0 <f_mkdir+0x338>
30007b40:	001d4503          	lbu	a0,1(s10)
30007b44:	030d0d93          	addi	s11,s10,48
30007b48:	00100693          	li	a3,1
30007b4c:	000c8613          	mv	a2,s9
30007b50:	000d8593          	mv	a1,s11
30007b54:	974fa0ef          	jal	ra,30001cc8 <disk_write>
30007b58:	0e051463          	bnez	a0,30007c40 <f_mkdir+0x3c8>
30007b5c:	01cd2683          	lw	a3,28(s10)
30007b60:	020d2603          	lw	a2,32(s10)
30007b64:	000d0223          	sb	zero,4(s10)
30007b68:	00c68633          	add	a2,a3,a2
30007b6c:	04ccf263          	bgeu	s9,a2,30007bb0 <f_mkdir+0x338>
30007b70:	003d4a03          	lbu	s4,3(s10)
30007b74:	00100613          	li	a2,1
30007b78:	03467c63          	bgeu	a2,s4,30007bb0 <f_mkdir+0x338>
30007b7c:	000c8493          	mv	s1,s9
30007b80:	0080006f          	j	30007b88 <f_mkdir+0x310>
30007b84:	01cd2683          	lw	a3,28(s10)
30007b88:	001d4503          	lbu	a0,1(s10)
30007b8c:	00d484b3          	add	s1,s1,a3
30007b90:	00048613          	mv	a2,s1
30007b94:	00100693          	li	a3,1
30007b98:	000d8593          	mv	a1,s11
30007b9c:	92cfa0ef          	jal	ra,30001cc8 <disk_write>
30007ba0:	fffa0893          	addi	a7,s4,-1
30007ba4:	0ff8fa13          	andi	s4,a7,255
30007ba8:	00100693          	li	a3,1
30007bac:	fcda1ce3          	bne	s4,a3,30007b84 <f_mkdir+0x30c>
30007bb0:	001c8c93          	addi	s9,s9,1
30007bb4:	20000613          	li	a2,512
30007bb8:	00000593          	li	a1,0
30007bbc:	000c0513          	mv	a0,s8
30007bc0:	3dc040ef          	jal	ra,3000bf9c <memset>
30007bc4:	008c8a63          	beq	s9,s0,30007bd8 <f_mkdir+0x360>
30007bc8:	02c12d03          	lw	s10,44(sp)
30007bcc:	f69ff06f          	j	30007b34 <f_mkdir+0x2bc>
30007bd0:	00800413          	li	s0,8
30007bd4:	d01ff06f          	j	300078d4 <f_mkdir+0x5c>
30007bd8:	02c10513          	addi	a0,sp,44
30007bdc:	87cfd0ef          	jal	ra,30004c58 <_ZL12dir_registerP3DIR>
30007be0:	00050413          	mv	s0,a0
30007be4:	0a051a63          	bnez	a0,30007c98 <f_mkdir+0x420>
30007be8:	04012783          	lw	a5,64(sp)
30007bec:	01000713          	li	a4,16
30007bf0:	02c12503          	lw	a0,44(sp)
30007bf4:	00e785a3          	sb	a4,11(a5)
30007bf8:	00812703          	lw	a4,8(sp)
30007bfc:	01678ba3          	sb	s6,23(a5)
30007c00:	01778c23          	sb	s7,24(a5)
30007c04:	00e78b23          	sb	a4,22(a5)
30007c08:	00c12703          	lw	a4,12(sp)
30007c0c:	01578da3          	sb	s5,27(a5)
30007c10:	00e78ca3          	sb	a4,25(a5)
30007c14:	01012703          	lw	a4,16(sp)
30007c18:	00e78d23          	sb	a4,26(a5)
30007c1c:	01412703          	lw	a4,20(sp)
30007c20:	00e78a23          	sb	a4,20(a5)
30007c24:	01812703          	lw	a4,24(sp)
30007c28:	00e78aa3          	sb	a4,21(a5)
30007c2c:	00100793          	li	a5,1
30007c30:	00f50223          	sb	a5,4(a0)
30007c34:	961fb0ef          	jal	ra,30003594 <_ZL4syncP5FATFS>
30007c38:	00050413          	mv	s0,a0
30007c3c:	c99ff06f          	j	300078d4 <f_mkdir+0x5c>
30007c40:	02c12503          	lw	a0,44(sp)
30007c44:	00100413          	li	s0,1
30007c48:	01852783          	lw	a5,24(a0)
30007c4c:	c8f974e3          	bgeu	s2,a5,300078d4 <f_mkdir+0x5c>
30007c50:	00090593          	mv	a1,s2
30007c54:	e05fc0ef          	jal	ra,30004a58 <_ZL12remove_chainP5FATFSm.part.8>
30007c58:	c7dff06f          	j	300078d4 <f_mkdir+0x5c>
30007c5c:	024d2603          	lw	a2,36(s10)
30007c60:	e8c698e3          	bne	a3,a2,30007af0 <f_mkdir+0x278>
30007c64:	00000613          	li	a2,0
30007c68:	00000513          	li	a0,0
30007c6c:	00000593          	li	a1,0
30007c70:	00000693          	li	a3,0
30007c74:	e95ff06f          	j	30007b08 <f_mkdir+0x290>
30007c78:	020c0613          	addi	a2,s8,32
30007c7c:	000c0713          	mv	a4,s8
30007c80:	00170713          	addi	a4,a4,1
30007c84:	fff74683          	lbu	a3,-1(a4)
30007c88:	00158593          	addi	a1,a1,1
30007c8c:	fed58fa3          	sb	a3,-1(a1)
30007c90:	fec718e3          	bne	a4,a2,30007c80 <f_mkdir+0x408>
30007c94:	e41ff06f          	j	30007ad4 <f_mkdir+0x25c>
30007c98:	02c12503          	lw	a0,44(sp)
30007c9c:	fadff06f          	j	30007c48 <f_mkdir+0x3d0>
30007ca0:	0019c503          	lbu	a0,1(s3)
30007ca4:	00100693          	li	a3,1
30007ca8:	000a0613          	mv	a2,s4
30007cac:	000c0593          	mv	a1,s8
30007cb0:	818fa0ef          	jal	ra,30001cc8 <disk_write>
30007cb4:	fe0512e3          	bnez	a0,30007c98 <f_mkdir+0x420>
30007cb8:	0209a703          	lw	a4,32(s3)
30007cbc:	01c9a783          	lw	a5,28(s3)
30007cc0:	00098223          	sb	zero,4(s3)
30007cc4:	00f70733          	add	a4,a4,a5
30007cc8:	04ea7063          	bgeu	s4,a4,30007d08 <f_mkdir+0x490>
30007ccc:	0039c403          	lbu	s0,3(s3)
30007cd0:	00100713          	li	a4,1
30007cd4:	00876663          	bltu	a4,s0,30007ce0 <f_mkdir+0x468>
30007cd8:	0300006f          	j	30007d08 <f_mkdir+0x490>
30007cdc:	01c9a783          	lw	a5,28(s3)
30007ce0:	0019c503          	lbu	a0,1(s3)
30007ce4:	00fa0a33          	add	s4,s4,a5
30007ce8:	00100693          	li	a3,1
30007cec:	000a0613          	mv	a2,s4
30007cf0:	000c0593          	mv	a1,s8
30007cf4:	fd5f90ef          	jal	ra,30001cc8 <disk_write>
30007cf8:	fff40413          	addi	s0,s0,-1
30007cfc:	0ff47413          	andi	s0,s0,255
30007d00:	00100793          	li	a5,1
30007d04:	fcf41ce3          	bne	s0,a5,30007cdc <f_mkdir+0x464>
30007d08:	02c12983          	lw	s3,44(sp)
30007d0c:	03098c13          	addi	s8,s3,48
30007d10:	c7dff06f          	j	3000798c <f_mkdir+0x114>

30007d14 <f_chmod>:
30007d14:	fb010113          	addi	sp,sp,-80
30007d18:	04812423          	sw	s0,72(sp)
30007d1c:	04912223          	sw	s1,68(sp)
30007d20:	00a12623          	sw	a0,12(sp)
30007d24:	00058493          	mv	s1,a1
30007d28:	00060413          	mv	s0,a2
30007d2c:	01c10593          	addi	a1,sp,28
30007d30:	00100613          	li	a2,1
30007d34:	00c10513          	addi	a0,sp,12
30007d38:	04112623          	sw	ra,76(sp)
30007d3c:	e5dfa0ef          	jal	ra,30002b98 <_ZL11chk_mountedPPKcPP5FATFSh>
30007d40:	00050c63          	beqz	a0,30007d58 <f_chmod+0x44>
30007d44:	04c12083          	lw	ra,76(sp)
30007d48:	04812403          	lw	s0,72(sp)
30007d4c:	04412483          	lw	s1,68(sp)
30007d50:	05010113          	addi	sp,sp,80
30007d54:	00008067          	ret
30007d58:	01010793          	addi	a5,sp,16
30007d5c:	00c12583          	lw	a1,12(sp)
30007d60:	02f12a23          	sw	a5,52(sp)
30007d64:	3000f7b7          	lui	a5,0x3000f
30007d68:	5e478793          	addi	a5,a5,1508 # 3000f5e4 <_ZL6LfnBuf>
30007d6c:	01c10513          	addi	a0,sp,28
30007d70:	02f12c23          	sw	a5,56(sp)
30007d74:	e55fb0ef          	jal	ra,30003bc8 <_ZL11follow_pathP3DIRPKc>
30007d78:	fc0516e3          	bnez	a0,30007d44 <f_chmod+0x30>
30007d7c:	03012703          	lw	a4,48(sp)
30007d80:	00600513          	li	a0,6
30007d84:	fc0700e3          	beqz	a4,30007d44 <f_chmod+0x30>
30007d88:	00b74783          	lbu	a5,11(a4)
30007d8c:	01c12503          	lw	a0,28(sp)
30007d90:	0097c4b3          	xor	s1,a5,s1
30007d94:	00947433          	and	s0,s0,s1
30007d98:	02747413          	andi	s0,s0,39
30007d9c:	0087c433          	xor	s0,a5,s0
30007da0:	008705a3          	sb	s0,11(a4)
30007da4:	00100793          	li	a5,1
30007da8:	00f50223          	sb	a5,4(a0)
30007dac:	fe8fb0ef          	jal	ra,30003594 <_ZL4syncP5FATFS>
30007db0:	04c12083          	lw	ra,76(sp)
30007db4:	04812403          	lw	s0,72(sp)
30007db8:	04412483          	lw	s1,68(sp)
30007dbc:	05010113          	addi	sp,sp,80
30007dc0:	00008067          	ret

30007dc4 <f_utime>:
30007dc4:	fb010113          	addi	sp,sp,-80
30007dc8:	04812423          	sw	s0,72(sp)
30007dcc:	00a12623          	sw	a0,12(sp)
30007dd0:	00058413          	mv	s0,a1
30007dd4:	00100613          	li	a2,1
30007dd8:	01c10593          	addi	a1,sp,28
30007ddc:	00c10513          	addi	a0,sp,12
30007de0:	04112623          	sw	ra,76(sp)
30007de4:	db5fa0ef          	jal	ra,30002b98 <_ZL11chk_mountedPPKcPP5FATFSh>
30007de8:	00050a63          	beqz	a0,30007dfc <f_utime+0x38>
30007dec:	04c12083          	lw	ra,76(sp)
30007df0:	04812403          	lw	s0,72(sp)
30007df4:	05010113          	addi	sp,sp,80
30007df8:	00008067          	ret
30007dfc:	01010793          	addi	a5,sp,16
30007e00:	00c12583          	lw	a1,12(sp)
30007e04:	02f12a23          	sw	a5,52(sp)
30007e08:	3000f7b7          	lui	a5,0x3000f
30007e0c:	5e478793          	addi	a5,a5,1508 # 3000f5e4 <_ZL6LfnBuf>
30007e10:	01c10513          	addi	a0,sp,28
30007e14:	02f12c23          	sw	a5,56(sp)
30007e18:	db1fb0ef          	jal	ra,30003bc8 <_ZL11follow_pathP3DIRPKc>
30007e1c:	fc0518e3          	bnez	a0,30007dec <f_utime+0x28>
30007e20:	03012783          	lw	a5,48(sp)
30007e24:	00600513          	li	a0,6
30007e28:	fc0782e3          	beqz	a5,30007dec <f_utime+0x28>
30007e2c:	00645703          	lhu	a4,6(s0)
30007e30:	01c12683          	lw	a3,28(sp)
30007e34:	00e78b23          	sb	a4,22(a5)
30007e38:	00645703          	lhu	a4,6(s0)
30007e3c:	00068513          	mv	a0,a3
30007e40:	40875713          	srai	a4,a4,0x8
30007e44:	00e78ba3          	sb	a4,23(a5)
30007e48:	00445703          	lhu	a4,4(s0)
30007e4c:	00e78c23          	sb	a4,24(a5)
30007e50:	00445703          	lhu	a4,4(s0)
30007e54:	40875713          	srai	a4,a4,0x8
30007e58:	00e78ca3          	sb	a4,25(a5)
30007e5c:	00100793          	li	a5,1
30007e60:	00f68223          	sb	a5,4(a3)
30007e64:	f30fb0ef          	jal	ra,30003594 <_ZL4syncP5FATFS>
30007e68:	04c12083          	lw	ra,76(sp)
30007e6c:	04812403          	lw	s0,72(sp)
30007e70:	05010113          	addi	sp,sp,80
30007e74:	00008067          	ret

30007e78 <f_rename>:
30007e78:	f5010113          	addi	sp,sp,-176
30007e7c:	0a812423          	sw	s0,168(sp)
30007e80:	00a12623          	sw	a0,12(sp)
30007e84:	00058413          	mv	s0,a1
30007e88:	00100613          	li	a2,1
30007e8c:	03810593          	addi	a1,sp,56
30007e90:	00c10513          	addi	a0,sp,12
30007e94:	0a112623          	sw	ra,172(sp)
30007e98:	0a912223          	sw	s1,164(sp)
30007e9c:	0b212023          	sw	s2,160(sp)
30007ea0:	09312e23          	sw	s3,156(sp)
30007ea4:	09412c23          	sw	s4,152(sp)
30007ea8:	09512a23          	sw	s5,148(sp)
30007eac:	09612823          	sw	s6,144(sp)
30007eb0:	09712623          	sw	s7,140(sp)
30007eb4:	09812423          	sw	s8,136(sp)
30007eb8:	ce1fa0ef          	jal	ra,30002b98 <_ZL11chk_mountedPPKcPP5FATFSh>
30007ebc:	02050a63          	beqz	a0,30007ef0 <f_rename+0x78>
30007ec0:	0ac12083          	lw	ra,172(sp)
30007ec4:	0a812403          	lw	s0,168(sp)
30007ec8:	0a412483          	lw	s1,164(sp)
30007ecc:	0a012903          	lw	s2,160(sp)
30007ed0:	09c12983          	lw	s3,156(sp)
30007ed4:	09812a03          	lw	s4,152(sp)
30007ed8:	09412a83          	lw	s5,148(sp)
30007edc:	09012b03          	lw	s6,144(sp)
30007ee0:	08c12b83          	lw	s7,140(sp)
30007ee4:	08812c03          	lw	s8,136(sp)
30007ee8:	0b010113          	addi	sp,sp,176
30007eec:	00008067          	ret
30007ef0:	03812783          	lw	a5,56(sp)
30007ef4:	00c12583          	lw	a1,12(sp)
30007ef8:	03810513          	addi	a0,sp,56
30007efc:	04f12e23          	sw	a5,92(sp)
30007f00:	01410793          	addi	a5,sp,20
30007f04:	04f12823          	sw	a5,80(sp)
30007f08:	3000f7b7          	lui	a5,0x3000f
30007f0c:	5e478793          	addi	a5,a5,1508 # 3000f5e4 <_ZL6LfnBuf>
30007f10:	04f12a23          	sw	a5,84(sp)
30007f14:	cb5fb0ef          	jal	ra,30003bc8 <_ZL11follow_pathP3DIRPKc>
30007f18:	fa0514e3          	bnez	a0,30007ec0 <f_rename+0x48>
30007f1c:	04c12583          	lw	a1,76(sp)
30007f20:	1e058863          	beqz	a1,30008110 <f_rename+0x298>
30007f24:	00b58593          	addi	a1,a1,11
30007f28:	01500613          	li	a2,21
30007f2c:	02010513          	addi	a0,sp,32
30007f30:	215040ef          	jal	ra,3000c944 <memcpy>
30007f34:	03812783          	lw	a5,56(sp)
30007f38:	00040593          	mv	a1,s0
30007f3c:	05c10513          	addi	a0,sp,92
30007f40:	04f12e23          	sw	a5,92(sp)
30007f44:	03c12783          	lw	a5,60(sp)
30007f48:	06f12023          	sw	a5,96(sp)
30007f4c:	04012783          	lw	a5,64(sp)
30007f50:	06f12223          	sw	a5,100(sp)
30007f54:	04412783          	lw	a5,68(sp)
30007f58:	06f12423          	sw	a5,104(sp)
30007f5c:	04812783          	lw	a5,72(sp)
30007f60:	06f12623          	sw	a5,108(sp)
30007f64:	04c12783          	lw	a5,76(sp)
30007f68:	06f12823          	sw	a5,112(sp)
30007f6c:	05012783          	lw	a5,80(sp)
30007f70:	06f12a23          	sw	a5,116(sp)
30007f74:	05412783          	lw	a5,84(sp)
30007f78:	06f12c23          	sw	a5,120(sp)
30007f7c:	05812783          	lw	a5,88(sp)
30007f80:	06f12e23          	sw	a5,124(sp)
30007f84:	c45fb0ef          	jal	ra,30003bc8 <_ZL11follow_pathP3DIRPKc>
30007f88:	18050063          	beqz	a0,30008108 <f_rename+0x290>
30007f8c:	00400793          	li	a5,4
30007f90:	f2f518e3          	bne	a0,a5,30007ec0 <f_rename+0x48>
30007f94:	05c10513          	addi	a0,sp,92
30007f98:	cc1fc0ef          	jal	ra,30004c58 <_ZL12dir_registerP3DIR>
30007f9c:	f20512e3          	bnez	a0,30007ec0 <f_rename+0x48>
30007fa0:	07012403          	lw	s0,112(sp)
30007fa4:	01300613          	li	a2,19
30007fa8:	02210593          	addi	a1,sp,34
30007fac:	00d40513          	addi	a0,s0,13
30007fb0:	195040ef          	jal	ra,3000c944 <memcpy>
30007fb4:	02014783          	lbu	a5,32(sp)
30007fb8:	00100713          	li	a4,1
30007fbc:	0207e793          	ori	a5,a5,32
30007fc0:	00f405a3          	sb	a5,11(s0)
30007fc4:	03812783          	lw	a5,56(sp)
30007fc8:	00e78223          	sb	a4,4(a5)
30007fcc:	04012703          	lw	a4,64(sp)
30007fd0:	06412783          	lw	a5,100(sp)
30007fd4:	00f70863          	beq	a4,a5,30007fe4 <f_rename+0x16c>
30007fd8:	00b44783          	lbu	a5,11(s0)
30007fdc:	0107f793          	andi	a5,a5,16
30007fe0:	14079063          	bnez	a5,30008120 <f_rename+0x2a8>
30007fe4:	05815583          	lhu	a1,88(sp)
30007fe8:	000107b7          	lui	a5,0x10
30007fec:	fff78793          	addi	a5,a5,-1 # ffff <stackPointer+0x92bf>
30007ff0:	03e15a03          	lhu	s4,62(sp)
30007ff4:	00f59463          	bne	a1,a5,30007ffc <f_rename+0x184>
30007ff8:	000a0593          	mv	a1,s4
30007ffc:	03810513          	addi	a0,sp,56
30008000:	91cfb0ef          	jal	ra,3000311c <_ZL7dir_sdiP3DIRt>
30008004:	ea051ee3          	bnez	a0,30007ec0 <f_rename+0x48>
30008008:	03812483          	lw	s1,56(sp)
3000800c:	04812903          	lw	s2,72(sp)
30008010:	fe500b13          	li	s6,-27
30008014:	00100a93          	li	s5,1
30008018:	fff00b93          	li	s7,-1
3000801c:	02c4a403          	lw	s0,44(s1)
30008020:	00890863          	beq	s2,s0,30008030 <f_rename+0x1b8>
30008024:	0044c783          	lbu	a5,4(s1)
30008028:	06079863          	bnez	a5,30008098 <f_rename+0x220>
3000802c:	18091a63          	bnez	s2,300081c0 <f_rename+0x348>
30008030:	04c12783          	lw	a5,76(sp)
30008034:	01678023          	sb	s6,0(a5)
30008038:	03812483          	lw	s1,56(sp)
3000803c:	01548223          	sb	s5,4(s1)
30008040:	03e15783          	lhu	a5,62(sp)
30008044:	2147f663          	bgeu	a5,s4,30008250 <f_rename+0x3d8>
30008048:	00178793          	addi	a5,a5,1
3000804c:	01079413          	slli	s0,a5,0x10
30008050:	01045413          	srli	s0,s0,0x10
30008054:	0c040263          	beqz	s0,30008118 <f_rename+0x2a0>
30008058:	04812903          	lw	s2,72(sp)
3000805c:	0a090e63          	beqz	s2,30008118 <f_rename+0x2a0>
30008060:	00f47993          	andi	s3,s0,15
30008064:	00099e63          	bnez	s3,30008080 <f_rename+0x208>
30008068:	04412583          	lw	a1,68(sp)
3000806c:	00190913          	addi	s2,s2,1
30008070:	05212423          	sw	s2,72(sp)
30008074:	16059a63          	bnez	a1,300081e8 <f_rename+0x370>
30008078:	0084d783          	lhu	a5,8(s1)
3000807c:	08f47e63          	bgeu	s0,a5,30008118 <f_rename+0x2a0>
30008080:	03048793          	addi	a5,s1,48
30008084:	00599993          	slli	s3,s3,0x5
30008088:	013787b3          	add	a5,a5,s3
3000808c:	02811f23          	sh	s0,62(sp)
30008090:	04f12623          	sw	a5,76(sp)
30008094:	f89ff06f          	j	3000801c <f_rename+0x1a4>
30008098:	0014c503          	lbu	a0,1(s1)
3000809c:	03048c13          	addi	s8,s1,48
300080a0:	00100693          	li	a3,1
300080a4:	00040613          	mv	a2,s0
300080a8:	000c0593          	mv	a1,s8
300080ac:	c1df90ef          	jal	ra,30001cc8 <disk_write>
300080b0:	12051863          	bnez	a0,300081e0 <f_rename+0x368>
300080b4:	0204a703          	lw	a4,32(s1)
300080b8:	01c4a783          	lw	a5,28(s1)
300080bc:	00048223          	sb	zero,4(s1)
300080c0:	00f70733          	add	a4,a4,a5
300080c4:	f6e474e3          	bgeu	s0,a4,3000802c <f_rename+0x1b4>
300080c8:	0034c983          	lbu	s3,3(s1)
300080cc:	00100713          	li	a4,1
300080d0:	01376663          	bltu	a4,s3,300080dc <f_rename+0x264>
300080d4:	f59ff06f          	j	3000802c <f_rename+0x1b4>
300080d8:	01c4a783          	lw	a5,28(s1)
300080dc:	0014c503          	lbu	a0,1(s1)
300080e0:	00f40433          	add	s0,s0,a5
300080e4:	00100693          	li	a3,1
300080e8:	00040613          	mv	a2,s0
300080ec:	000c0593          	mv	a1,s8
300080f0:	bd9f90ef          	jal	ra,30001cc8 <disk_write>
300080f4:	fff98993          	addi	s3,s3,-1
300080f8:	0ff9f993          	andi	s3,s3,255
300080fc:	00100793          	li	a5,1
30008100:	fcf99ce3          	bne	s3,a5,300080d8 <f_rename+0x260>
30008104:	f29ff06f          	j	3000802c <f_rename+0x1b4>
30008108:	00800513          	li	a0,8
3000810c:	db5ff06f          	j	30007ec0 <f_rename+0x48>
30008110:	00400513          	li	a0,4
30008114:	dadff06f          	j	30007ec0 <f_rename+0x48>
30008118:	00200513          	li	a0,2
3000811c:	da5ff06f          	j	30007ec0 <f_rename+0x48>
30008120:	01544783          	lbu	a5,21(s0)
30008124:	01444683          	lbu	a3,20(s0)
30008128:	05c12503          	lw	a0,92(sp)
3000812c:	01b44703          	lbu	a4,27(s0)
30008130:	01a44603          	lbu	a2,26(s0)
30008134:	00879793          	slli	a5,a5,0x8
30008138:	00d7e7b3          	or	a5,a5,a3
3000813c:	00871713          	slli	a4,a4,0x8
30008140:	01852683          	lw	a3,24(a0)
30008144:	00c76733          	or	a4,a4,a2
30008148:	01079793          	slli	a5,a5,0x10
3000814c:	00e7e7b3          	or	a5,a5,a4
30008150:	ffe78793          	addi	a5,a5,-2
30008154:	ffe68713          	addi	a4,a3,-2
30008158:	fce7f0e3          	bgeu	a5,a4,30008118 <f_rename+0x2a0>
3000815c:	00254583          	lbu	a1,2(a0)
30008160:	02852703          	lw	a4,40(a0)
30008164:	02f587b3          	mul	a5,a1,a5
30008168:	00e785b3          	add	a1,a5,a4
3000816c:	fa0586e3          	beqz	a1,30008118 <f_rename+0x2a0>
30008170:	841fa0ef          	jal	ra,300029b0 <_ZL11move_windowP5FATFSm>
30008174:	d40516e3          	bnez	a0,30007ec0 <f_rename+0x48>
30008178:	05c12783          	lw	a5,92(sp)
3000817c:	02e00713          	li	a4,46
30008180:	0517c683          	lbu	a3,81(a5)
30008184:	e6e690e3          	bne	a3,a4,30007fe4 <f_rename+0x16c>
30008188:	0007c603          	lbu	a2,0(a5)
3000818c:	00300693          	li	a3,3
30008190:	06412703          	lw	a4,100(sp)
30008194:	0cd60a63          	beq	a2,a3,30008268 <f_rename+0x3f0>
30008198:	01075693          	srli	a3,a4,0x10
3000819c:	40875593          	srai	a1,a4,0x8
300081a0:	4086d613          	srai	a2,a3,0x8
300081a4:	06e78523          	sb	a4,106(a5)
300081a8:	00100713          	li	a4,1
300081ac:	06b785a3          	sb	a1,107(a5)
300081b0:	06d78223          	sb	a3,100(a5)
300081b4:	06c782a3          	sb	a2,101(a5)
300081b8:	00e78223          	sb	a4,4(a5)
300081bc:	e29ff06f          	j	30007fe4 <f_rename+0x16c>
300081c0:	0014c503          	lbu	a0,1(s1)
300081c4:	00100693          	li	a3,1
300081c8:	00090613          	mv	a2,s2
300081cc:	03048593          	addi	a1,s1,48
300081d0:	9a9f90ef          	jal	ra,30001b78 <disk_read>
300081d4:	00051663          	bnez	a0,300081e0 <f_rename+0x368>
300081d8:	0324a623          	sw	s2,44(s1)
300081dc:	e55ff06f          	j	30008030 <f_rename+0x1b8>
300081e0:	00100513          	li	a0,1
300081e4:	cddff06f          	j	30007ec0 <f_rename+0x48>
300081e8:	0024c783          	lbu	a5,2(s1)
300081ec:	00445713          	srli	a4,s0,0x4
300081f0:	fff78793          	addi	a5,a5,-1
300081f4:	00e7f7b3          	and	a5,a5,a4
300081f8:	e80794e3          	bnez	a5,30008080 <f_rename+0x208>
300081fc:	00100913          	li	s2,1
30008200:	f0b97ce3          	bgeu	s2,a1,30008118 <f_rename+0x2a0>
30008204:	0184a783          	lw	a5,24(s1)
30008208:	f0f5f8e3          	bgeu	a1,a5,30008118 <f_rename+0x2a0>
3000820c:	00048513          	mv	a0,s1
30008210:	d55fa0ef          	jal	ra,30002f64 <_Z7get_fatP5FATFSm.part.5>
30008214:	f0a972e3          	bgeu	s2,a0,30008118 <f_rename+0x2a0>
30008218:	fd7504e3          	beq	a0,s7,300081e0 <f_rename+0x368>
3000821c:	03812483          	lw	s1,56(sp)
30008220:	0184a783          	lw	a5,24(s1)
30008224:	eef57ae3          	bgeu	a0,a5,30008118 <f_rename+0x2a0>
30008228:	04a12223          	sw	a0,68(sp)
3000822c:	ffe78793          	addi	a5,a5,-2
30008230:	ffe50513          	addi	a0,a0,-2
30008234:	02f57463          	bgeu	a0,a5,3000825c <f_rename+0x3e4>
30008238:	0024c903          	lbu	s2,2(s1)
3000823c:	0284a783          	lw	a5,40(s1)
30008240:	02a90533          	mul	a0,s2,a0
30008244:	00f50933          	add	s2,a0,a5
30008248:	05212423          	sw	s2,72(sp)
3000824c:	e35ff06f          	j	30008080 <f_rename+0x208>
30008250:	00048513          	mv	a0,s1
30008254:	b40fb0ef          	jal	ra,30003594 <_ZL4syncP5FATFS>
30008258:	c69ff06f          	j	30007ec0 <f_rename+0x48>
3000825c:	00000913          	li	s2,0
30008260:	05212423          	sw	s2,72(sp)
30008264:	e1dff06f          	j	30008080 <f_rename+0x208>
30008268:	0247a683          	lw	a3,36(a5)
3000826c:	f2e696e3          	bne	a3,a4,30008198 <f_rename+0x320>
30008270:	00000713          	li	a4,0
30008274:	f25ff06f          	j	30008198 <f_rename+0x320>

30008278 <f_mkfs>:
30008278:	5c051463          	bnez	a0,30008840 <f_mkfs+0x5c8>
3000827c:	fa010113          	addi	sp,sp,-96
30008280:	300107b7          	lui	a5,0x30010
30008284:	04812c23          	sw	s0,88(sp)
30008288:	a807a403          	lw	s0,-1408(a5) # 3000fa80 <_ZL5FatFs>
3000828c:	04112e23          	sw	ra,92(sp)
30008290:	04912a23          	sw	s1,84(sp)
30008294:	05212823          	sw	s2,80(sp)
30008298:	05312623          	sw	s3,76(sp)
3000829c:	05412423          	sw	s4,72(sp)
300082a0:	05512223          	sw	s5,68(sp)
300082a4:	05612023          	sw	s6,64(sp)
300082a8:	03712e23          	sw	s7,60(sp)
300082ac:	03812c23          	sw	s8,56(sp)
300082b0:	03912a23          	sw	s9,52(sp)
300082b4:	03a12823          	sw	s10,48(sp)
300082b8:	03b12623          	sw	s11,44(sp)
300082bc:	58040663          	beqz	s0,30008848 <f_mkfs+0x5d0>
300082c0:	00040023          	sb	zero,0(s0)
300082c4:	00060493          	mv	s1,a2
300082c8:	00058c93          	mv	s9,a1
300082cc:	de4f90ef          	jal	ra,300018b0 <disk_initialize>
300082d0:	00157713          	andi	a4,a0,1
300082d4:	00050d13          	mv	s10,a0
300082d8:	00300513          	li	a0,3
300082dc:	52071463          	bnez	a4,30008804 <f_mkfs+0x58c>
300082e0:	004d7d13          	andi	s10,s10,4
300082e4:	00a00513          	li	a0,10
300082e8:	500d1e63          	bnez	s10,30008804 <f_mkfs+0x58c>
300082ec:	01c10613          	addi	a2,sp,28
300082f0:	00100593          	li	a1,1
300082f4:	00000513          	li	a0,0
300082f8:	c99f90ef          	jal	ra,30001f90 <disk_ioctl>
300082fc:	50051263          	bnez	a0,30008800 <f_mkfs+0x588>
30008300:	01c12783          	lw	a5,28(sp)
30008304:	07f00713          	li	a4,127
30008308:	4ef77c63          	bgeu	a4,a5,30008800 <f_mkfs+0x588>
3000830c:	00000b93          	li	s7,0
30008310:	000c9663          	bnez	s9,3000831c <f_mkfs+0xa4>
30008314:	fc178793          	addi	a5,a5,-63
30008318:	03f00b93          	li	s7,63
3000831c:	fff48713          	addi	a4,s1,-1
30008320:	00f12e23          	sw	a5,28(sp)
30008324:	00977733          	and	a4,a4,s1
30008328:	00071463          	bnez	a4,30008330 <f_mkfs+0xb8>
3000832c:	52049263          	bnez	s1,30008850 <f_mkfs+0x5d8>
30008330:	001f4737          	lui	a4,0x1f4
30008334:	5ee7fa63          	bgeu	a5,a4,30008928 <f_mkfs+0x6b0>
30008338:	000fa737          	lui	a4,0xfa
3000833c:	00e7f0e3          	bgeu	a5,a4,30008b3c <f_mkfs+0x8c4>
30008340:	0007d737          	lui	a4,0x7d
30008344:	00e7f0e3          	bgeu	a5,a4,30008b44 <f_mkfs+0x8cc>
30008348:	0003e737          	lui	a4,0x3e
3000834c:	7ff70713          	addi	a4,a4,2047 # 3e7ff <stackPointer+0x37abf>
30008350:	02f762e3          	bltu	a4,a5,30008b74 <f_mkfs+0x8fc>
30008354:	0001f737          	lui	a4,0x1f
30008358:	3ff70713          	addi	a4,a4,1023 # 1f3ff <stackPointer+0x186bf>
3000835c:	02f760e3          	bltu	a4,a5,30008b7c <f_mkfs+0x904>
30008360:	00010737          	lui	a4,0x10
30008364:	9ff70713          	addi	a4,a4,-1537 # f9ff <stackPointer+0x8cbf>
30008368:	00f76ee3          	bltu	a4,a5,30008b84 <f_mkfs+0x90c>
3000836c:	00008737          	lui	a4,0x8
30008370:	cff70713          	addi	a4,a4,-769 # 7cff <stackPointer+0xfbf>
30008374:	50f76063          	bltu	a4,a5,30008874 <f_mkfs+0x5fc>
30008378:	00004737          	lui	a4,0x4
3000837c:	e7f70713          	addi	a4,a4,-385 # 3e7f <stackPointer-0x2ec1>
30008380:	00f766e3          	bltu	a4,a5,30008b8c <f_mkfs+0x914>
30008384:	00002737          	lui	a4,0x2
30008388:	f3f70713          	addi	a4,a4,-193 # 1f3f <stackPointer-0x4e01>
3000838c:	00f764e3          	bltu	a4,a5,30008b94 <f_mkfs+0x91c>
30008390:	00001737          	lui	a4,0x1
30008394:	f9f70713          	addi	a4,a4,-97 # f9f <stackPointer-0x5da1>
30008398:	00f73733          	sltu	a4,a4,a5
3000839c:	00174713          	xori	a4,a4,1
300083a0:	00970713          	addi	a4,a4,9
300083a4:	3000f6b7          	lui	a3,0x3000f
300083a8:	f0c68693          	addi	a3,a3,-244 # 3000ef0c <_ZL6LfnOfs>
300083ac:	00171713          	slli	a4,a4,0x1
300083b0:	00e68733          	add	a4,a3,a4
300083b4:	09075703          	lhu	a4,144(a4)
300083b8:	1ff00693          	li	a3,511
300083bc:	00975a93          	srli	s5,a4,0x9
300083c0:	56e6e663          	bltu	a3,a4,3000892c <f_mkfs+0x6b4>
300083c4:	00078913          	mv	s2,a5
300083c8:	00100a93          	li	s5,1
300083cc:	00001737          	lui	a4,0x1
300083d0:	ff570713          	addi	a4,a4,-11 # ff5 <stackPointer-0x5d4b>
300083d4:	4b276463          	bltu	a4,s2,3000887c <f_mkfs+0x604>
300083d8:	00191713          	slli	a4,s2,0x1
300083dc:	01270933          	add	s2,a4,s2
300083e0:	00190913          	addi	s2,s2,1
300083e4:	00195913          	srli	s2,s2,0x1
300083e8:	00390913          	addi	s2,s2,3
300083ec:	00100b13          	li	s6,1
300083f0:	1ff90913          	addi	s2,s2,511
300083f4:	00995913          	srli	s2,s2,0x9
300083f8:	02090993          	addi	s3,s2,32
300083fc:	00100d93          	li	s11,1
30008400:	02000c13          	li	s8,32
30008404:	01bb84b3          	add	s1,s7,s11
30008408:	01348a33          	add	s4,s1,s3
3000840c:	014a8733          	add	a4,s5,s4
30008410:	4ce7e463          	bltu	a5,a4,300088d8 <f_mkfs+0x660>
30008414:	01810613          	addi	a2,sp,24
30008418:	00300593          	li	a1,3
3000841c:	00000513          	li	a0,0
30008420:	b71f90ef          	jal	ra,30001f90 <disk_ioctl>
30008424:	00000713          	li	a4,0
30008428:	02051263          	bnez	a0,3000844c <f_mkfs+0x1d4>
3000842c:	01812683          	lw	a3,24(sp)
30008430:	00008637          	lui	a2,0x8
30008434:	fff68793          	addi	a5,a3,-1
30008438:	00c7fa63          	bgeu	a5,a2,3000844c <f_mkfs+0x1d4>
3000843c:	00fa0733          	add	a4,s4,a5
30008440:	40d006b3          	neg	a3,a3
30008444:	00d77733          	and	a4,a4,a3
30008448:	41470733          	sub	a4,a4,s4
3000844c:	00e12c23          	sw	a4,24(sp)
30008450:	00300693          	li	a3,3
30008454:	01c12783          	lw	a5,28(sp)
30008458:	46db0063          	beq	s6,a3,300088b8 <f_mkfs+0x640>
3000845c:	01bc0a33          	add	s4,s8,s11
30008460:	00e90933          	add	s2,s2,a4
30008464:	41478a33          	sub	s4,a5,s4
30008468:	412a0a33          	sub	s4,s4,s2
3000846c:	00200713          	li	a4,2
30008470:	035a5a33          	divu	s4,s4,s5
30008474:	00eb1863          	bne	s6,a4,30008484 <f_mkfs+0x20c>
30008478:	00001737          	lui	a4,0x1
3000847c:	ff570713          	addi	a4,a4,-11 # ff5 <stackPointer-0x5d4b>
30008480:	45477c63          	bgeu	a4,s4,300088d8 <f_mkfs+0x660>
30008484:	00f12623          	sw	a5,12(sp)
30008488:	03040993          	addi	s3,s0,48
3000848c:	440c9a63          	bnez	s9,300088e0 <f_mkfs+0x668>
30008490:	20000613          	li	a2,512
30008494:	00000593          	li	a1,0
30008498:	00098513          	mv	a0,s3
3000849c:	301030ef          	jal	ra,3000bf9c <memset>
300084a0:	00c12783          	lw	a5,12(sp)
300084a4:	00100693          	li	a3,1
300084a8:	f8000613          	li	a2,-128
300084ac:	1ed407a3          	sb	a3,495(s0)
300084b0:	1ed40823          	sb	a3,496(s0)
300084b4:	00fb06b7          	lui	a3,0xfb0
300084b8:	00fb8733          	add	a4,s7,a5
300084bc:	1ec40723          	sb	a2,494(s0)
300084c0:	1e0408a3          	sb	zero,497(s0)
300084c4:	3ff68693          	addi	a3,a3,1023 # fb03ff <stackPointer+0xfa96bf>
300084c8:	5ee6ee63          	bltu	a3,a4,30008ac4 <f_mkfs+0x84c>
300084cc:	000046b7          	lui	a3,0x4
300084d0:	ec168693          	addi	a3,a3,-319 # 3ec1 <stackPointer-0x2e7f>
300084d4:	02d75733          	divu	a4,a4,a3
300084d8:	00275693          	srli	a3,a4,0x2
300084dc:	03f6e693          	ori	a3,a3,63
300084e0:	0ff77713          	andi	a4,a4,255
300084e4:	0ff6f693          	andi	a3,a3,255
300084e8:	1ee40aa3          	sb	a4,501(s0)
300084ec:	ffe00713          	li	a4,-2
300084f0:	1ee409a3          	sb	a4,499(s0)
300084f4:	1ed40a23          	sb	a3,500(s0)
300084f8:	00300713          	li	a4,3
300084fc:	5eeb0063          	beq	s6,a4,30008adc <f_mkfs+0x864>
30008500:	000106b7          	lui	a3,0x10
30008504:	00600713          	li	a4,6
30008508:	00d7f463          	bgeu	a5,a3,30008510 <f_mkfs+0x298>
3000850c:	00400713          	li	a4,4
30008510:	4087d613          	srai	a2,a5,0x8
30008514:	0107d693          	srli	a3,a5,0x10
30008518:	1ee40923          	sb	a4,498(s0)
3000851c:	1ef40d23          	sb	a5,506(s0)
30008520:	0187d713          	srli	a4,a5,0x18
30008524:	ffffb7b7          	lui	a5,0xffffb
30008528:	03f00593          	li	a1,63
3000852c:	a5578793          	addi	a5,a5,-1451 # ffffaa55 <__bss_end__+0xcfefaa55>
30008530:	1eb40b23          	sb	a1,502(s0)
30008534:	1ec40da3          	sb	a2,507(s0)
30008538:	1ed40e23          	sb	a3,508(s0)
3000853c:	1e040ba3          	sb	zero,503(s0)
30008540:	1e040c23          	sb	zero,504(s0)
30008544:	1e040ca3          	sb	zero,505(s0)
30008548:	1ee40ea3          	sb	a4,509(s0)
3000854c:	22f41723          	sh	a5,558(s0)
30008550:	00100693          	li	a3,1
30008554:	00000613          	li	a2,0
30008558:	00098593          	mv	a1,s3
3000855c:	00000513          	li	a0,0
30008560:	f68f90ef          	jal	ra,30001cc8 <disk_write>
30008564:	0f800c93          	li	s9,248
30008568:	28051c63          	bnez	a0,30008800 <f_mkfs+0x588>
3000856c:	20000613          	li	a2,512
30008570:	00000593          	li	a1,0
30008574:	00098513          	mv	a0,s3
30008578:	225030ef          	jal	ra,3000bf9c <memset>
3000857c:	3000d737          	lui	a4,0x3000d
30008580:	63870713          	addi	a4,a4,1592 # 3000d638 <__clzsi2+0x148>
30008584:	03440793          	addi	a5,s0,52
30008588:	00f737b3          	sltu	a5,a4,a5
3000858c:	3000d737          	lui	a4,0x3000d
30008590:	63c70713          	addi	a4,a4,1596 # 3000d63c <__clzsi2+0x14c>
30008594:	00e9b733          	sltu	a4,s3,a4
30008598:	0017c793          	xori	a5,a5,1
3000859c:	00174713          	xori	a4,a4,1
300085a0:	00e7e7b3          	or	a5,a5,a4
300085a4:	54078063          	beqz	a5,30008ae4 <f_mkfs+0x86c>
300085a8:	0039f793          	andi	a5,s3,3
300085ac:	52079c63          	bnez	a5,30008ae4 <f_mkfs+0x86c>
300085b0:	4d9107b7          	lui	a5,0x4d910
300085b4:	eeb78793          	addi	a5,a5,-277 # 4d90feeb <__bss_end__+0x1d80feeb>
300085b8:	02f42823          	sw	a5,48(s0)
300085bc:	534f47b7          	lui	a5,0x534f4
300085c0:	45378793          	addi	a5,a5,1107 # 534f4453 <__bss_end__+0x233f4453>
300085c4:	02f42a23          	sw	a5,52(s0)
300085c8:	000037b7          	lui	a5,0x3
300085cc:	e3578793          	addi	a5,a5,-459 # 2e35 <stackPointer-0x3f0b>
300085d0:	02f41c23          	sh	a5,56(s0)
300085d4:	03000793          	li	a5,48
300085d8:	02f40d23          	sb	a5,58(s0)
300085dc:	408dd793          	srai	a5,s11,0x8
300085e0:	00200713          	li	a4,2
300085e4:	02f40fa3          	sb	a5,63(s0)
300085e8:	00100793          	li	a5,1
300085ec:	04f40023          	sb	a5,64(s0)
300085f0:	02040da3          	sb	zero,59(s0)
300085f4:	02e40e23          	sb	a4,60(s0)
300085f8:	03540ea3          	sb	s5,61(s0)
300085fc:	03b40f23          	sb	s11,62(s0)
30008600:	00300793          	li	a5,3
30008604:	00fb0463          	beq	s6,a5,3000860c <f_mkfs+0x394>
30008608:	00200d13          	li	s10,2
3000860c:	01c12783          	lw	a5,28(sp)
30008610:	040400a3          	sb	zero,65(s0)
30008614:	05a40123          	sb	s10,66(s0)
30008618:	4087d713          	srai	a4,a5,0x8
3000861c:	00010637          	lui	a2,0x10
30008620:	0ff7f693          	andi	a3,a5,255
30008624:	0ff77713          	andi	a4,a4,255
30008628:	30c7f663          	bgeu	a5,a2,30008934 <f_mkfs+0x6bc>
3000862c:	04d401a3          	sb	a3,67(s0)
30008630:	04e40223          	sb	a4,68(s0)
30008634:	03f00793          	li	a5,63
30008638:	04f40423          	sb	a5,72(s0)
3000863c:	fff00793          	li	a5,-1
30008640:	04f40523          	sb	a5,74(s0)
30008644:	059402a3          	sb	s9,69(s0)
30008648:	040404a3          	sb	zero,73(s0)
3000864c:	040405a3          	sb	zero,75(s0)
30008650:	05740623          	sb	s7,76(s0)
30008654:	040406a3          	sb	zero,77(s0)
30008658:	04040723          	sb	zero,78(s0)
3000865c:	040407a3          	sb	zero,79(s0)
30008660:	a24f90ef          	jal	ra,30001884 <get_fattime>
30008664:	40855813          	srai	a6,a0,0x8
30008668:	40895693          	srai	a3,s2,0x8
3000866c:	00a12c23          	sw	a0,24(sp)
30008670:	00300793          	li	a5,3
30008674:	0ff87813          	andi	a6,a6,255
30008678:	0ff97893          	andi	a7,s2,255
3000867c:	0ff6f693          	andi	a3,a3,255
30008680:	2cfb0863          	beq	s6,a5,30008950 <f_mkfs+0x6d8>
30008684:	3000d737          	lui	a4,0x3000d
30008688:	3000d5b7          	lui	a1,0x3000d
3000868c:	05b40613          	addi	a2,s0,91
30008690:	05f40793          	addi	a5,s0,95
30008694:	62470713          	addi	a4,a4,1572 # 3000d624 <__clzsi2+0x134>
30008698:	62858593          	addi	a1,a1,1576 # 3000d628 <__clzsi2+0x138>
3000869c:	00f737b3          	sltu	a5,a4,a5
300086a0:	00b635b3          	sltu	a1,a2,a1
300086a4:	04d403a3          	sb	a3,71(s0)
300086a8:	f8000693          	li	a3,-128
300086ac:	01055e13          	srli	t3,a0,0x10
300086b0:	01855313          	srli	t1,a0,0x18
300086b4:	0017c793          	xori	a5,a5,1
300086b8:	0015c593          	xori	a1,a1,1
300086bc:	04d40a23          	sb	a3,84(s0)
300086c0:	02900693          	li	a3,41
300086c4:	04a40ba3          	sb	a0,87(s0)
300086c8:	05040c23          	sb	a6,88(s0)
300086cc:	05c40ca3          	sb	t3,89(s0)
300086d0:	04640d23          	sb	t1,90(s0)
300086d4:	05140323          	sb	a7,70(s0)
300086d8:	04d40b23          	sb	a3,86(s0)
300086dc:	00b7e7b3          	or	a5,a5,a1
300086e0:	46078663          	beqz	a5,30008b4c <f_mkfs+0x8d4>
300086e4:	00367793          	andi	a5,a2,3
300086e8:	46079263          	bnez	a5,30008b4c <f_mkfs+0x8d4>
300086ec:	4e2057b7          	lui	a5,0x4e205
300086f0:	f4e78793          	addi	a5,a5,-178 # 4e204f4e <__bss_end__+0x1e104f4e>
300086f4:	04f42da3          	sw	a5,91(s0)
300086f8:	204557b7          	lui	a5,0x20455
300086fc:	d4178793          	addi	a5,a5,-703 # 20454d41 <stackPointer+0x2044e001>
30008700:	04f42fa3          	sw	a5,95(s0)
30008704:	462027b7          	lui	a5,0x46202
30008708:	02078793          	addi	a5,a5,32 # 46202020 <__bss_end__+0x16102020>
3000870c:	06f421a3          	sw	a5,99(s0)
30008710:	202057b7          	lui	a5,0x20205
30008714:	44178793          	addi	a5,a5,1089 # 20205441 <stackPointer+0x201fe701>
30008718:	06f423a3          	sw	a5,103(s0)
3000871c:	000027b7          	lui	a5,0x2
30008720:	02078793          	addi	a5,a5,32 # 2020 <stackPointer-0x4d20>
30008724:	06f415a3          	sh	a5,107(s0)
30008728:	02000793          	li	a5,32
3000872c:	06f406a3          	sb	a5,109(s0)
30008730:	05500793          	li	a5,85
30008734:	22f40723          	sb	a5,558(s0)
30008738:	faa00793          	li	a5,-86
3000873c:	22f407a3          	sb	a5,559(s0)
30008740:	00100693          	li	a3,1
30008744:	000b8613          	mv	a2,s7
30008748:	00098593          	mv	a1,s3
3000874c:	00000513          	li	a0,0
30008750:	d78f90ef          	jal	ra,30001cc8 <disk_write>
30008754:	0a051663          	bnez	a0,30008800 <f_mkfs+0x588>
30008758:	20000613          	li	a2,512
3000875c:	00000593          	li	a1,0
30008760:	00098513          	mv	a0,s3
30008764:	039030ef          	jal	ra,3000bf9c <memset>
30008768:	00100793          	li	a5,1
3000876c:	36fb0263          	beq	s6,a5,30008ad0 <f_mkfs+0x858>
30008770:	f0000793          	li	a5,-256
30008774:	0197ecb3          	or	s9,a5,s9
30008778:	018cd713          	srli	a4,s9,0x18
3000877c:	fff00793          	li	a5,-1
30008780:	01912c23          	sw	s9,24(sp)
30008784:	03940823          	sb	s9,48(s0)
30008788:	02f408a3          	sb	a5,49(s0)
3000878c:	02f40923          	sb	a5,50(s0)
30008790:	02e409a3          	sb	a4,51(s0)
30008794:	00048613          	mv	a2,s1
30008798:	00100693          	li	a3,1
3000879c:	00098593          	mv	a1,s3
300087a0:	00000513          	li	a0,0
300087a4:	00148493          	addi	s1,s1,1
300087a8:	d20f90ef          	jal	ra,30001cc8 <disk_write>
300087ac:	04051a63          	bnez	a0,30008800 <f_mkfs+0x588>
300087b0:	20000613          	li	a2,512
300087b4:	00000593          	li	a1,0
300087b8:	00098513          	mv	a0,s3
300087bc:	7e0030ef          	jal	ra,3000bf9c <memset>
300087c0:	00100793          	li	a5,1
300087c4:	00f12c23          	sw	a5,24(sp)
300087c8:	0127ee63          	bltu	a5,s2,300087e4 <f_mkfs+0x56c>
300087cc:	11c0006f          	j	300088e8 <f_mkfs+0x670>
300087d0:	01812783          	lw	a5,24(sp)
300087d4:	000c8493          	mv	s1,s9
300087d8:	00178793          	addi	a5,a5,1
300087dc:	00f12c23          	sw	a5,24(sp)
300087e0:	1127f663          	bgeu	a5,s2,300088ec <f_mkfs+0x674>
300087e4:	00048613          	mv	a2,s1
300087e8:	00100693          	li	a3,1
300087ec:	00098593          	mv	a1,s3
300087f0:	00000513          	li	a0,0
300087f4:	00148c93          	addi	s9,s1,1
300087f8:	cd0f90ef          	jal	ra,30001cc8 <disk_write>
300087fc:	fc050ae3          	beqz	a0,300087d0 <f_mkfs+0x558>
30008800:	00100513          	li	a0,1
30008804:	05c12083          	lw	ra,92(sp)
30008808:	05812403          	lw	s0,88(sp)
3000880c:	05412483          	lw	s1,84(sp)
30008810:	05012903          	lw	s2,80(sp)
30008814:	04c12983          	lw	s3,76(sp)
30008818:	04812a03          	lw	s4,72(sp)
3000881c:	04412a83          	lw	s5,68(sp)
30008820:	04012b03          	lw	s6,64(sp)
30008824:	03c12b83          	lw	s7,60(sp)
30008828:	03812c03          	lw	s8,56(sp)
3000882c:	03412c83          	lw	s9,52(sp)
30008830:	03012d03          	lw	s10,48(sp)
30008834:	02c12d83          	lw	s11,44(sp)
30008838:	06010113          	addi	sp,sp,96
3000883c:	00008067          	ret
30008840:	00b00513          	li	a0,11
30008844:	00008067          	ret
30008848:	00c00513          	li	a0,12
3000884c:	fb9ff06f          	j	30008804 <f_mkfs+0x58c>
30008850:	1ff00713          	li	a4,511
30008854:	0094da93          	srli	s5,s1,0x9
30008858:	b69776e3          	bgeu	a4,s1,300083c4 <f_mkfs+0x14c>
3000885c:	00010737          	lui	a4,0x10
30008860:	1ff70713          	addi	a4,a4,511 # 101ff <stackPointer+0x94bf>
30008864:	0c977463          	bgeu	a4,s1,3000892c <f_mkfs+0x6b4>
30008868:	0077d913          	srli	s2,a5,0x7
3000886c:	08000a93          	li	s5,128
30008870:	b5dff06f          	j	300083cc <f_mkfs+0x154>
30008874:	00600713          	li	a4,6
30008878:	b2dff06f          	j	300083a4 <f_mkfs+0x12c>
3000887c:	00010737          	lui	a4,0x10
30008880:	ff570713          	addi	a4,a4,-11 # fff5 <stackPointer+0x92b5>
30008884:	01276a63          	bltu	a4,s2,30008898 <f_mkfs+0x620>
30008888:	00290913          	addi	s2,s2,2
3000888c:	00191913          	slli	s2,s2,0x1
30008890:	00200b13          	li	s6,2
30008894:	b5dff06f          	j	300083f0 <f_mkfs+0x178>
30008898:	00291913          	slli	s2,s2,0x2
3000889c:	20790913          	addi	s2,s2,519
300088a0:	00995913          	srli	s2,s2,0x9
300088a4:	00090993          	mv	s3,s2
300088a8:	00300b13          	li	s6,3
300088ac:	02000d93          	li	s11,32
300088b0:	00000c13          	li	s8,0
300088b4:	b51ff06f          	j	30008404 <f_mkfs+0x18c>
300088b8:	00ed8db3          	add	s11,s11,a4
300088bc:	41378a33          	sub	s4,a5,s3
300088c0:	41ba0a33          	sub	s4,s4,s11
300088c4:	035a5a33          	divu	s4,s4,s5
300088c8:	000106b7          	lui	a3,0x10
300088cc:	ff568693          	addi	a3,a3,-11 # fff5 <stackPointer+0x92b5>
300088d0:	00e484b3          	add	s1,s1,a4
300088d4:	bb46e8e3          	bltu	a3,s4,30008484 <f_mkfs+0x20c>
300088d8:	00e00513          	li	a0,14
300088dc:	f29ff06f          	j	30008804 <f_mkfs+0x58c>
300088e0:	0f000c93          	li	s9,240
300088e4:	c89ff06f          	j	3000856c <f_mkfs+0x2f4>
300088e8:	00048c93          	mv	s9,s1
300088ec:	00300793          	li	a5,3
300088f0:	00fb0463          	beq	s6,a5,300088f8 <f_mkfs+0x680>
300088f4:	000c0a93          	mv	s5,s8
300088f8:	019a8ab3          	add	s5,s5,s9
300088fc:	0080006f          	j	30008904 <f_mkfs+0x68c>
30008900:	2d9a8263          	beq	s5,s9,30008bc4 <f_mkfs+0x94c>
30008904:	000c8613          	mv	a2,s9
30008908:	00100693          	li	a3,1
3000890c:	00098593          	mv	a1,s3
30008910:	00000513          	li	a0,0
30008914:	001c8c93          	addi	s9,s9,1
30008918:	bb0f90ef          	jal	ra,30001cc8 <disk_write>
3000891c:	fe0502e3          	beqz	a0,30008900 <f_mkfs+0x688>
30008920:	00100513          	li	a0,1
30008924:	ee1ff06f          	j	30008804 <f_mkfs+0x58c>
30008928:	04000a93          	li	s5,64
3000892c:	0357d933          	divu	s2,a5,s5
30008930:	a9dff06f          	j	300083cc <f_mkfs+0x154>
30008934:	0107d613          	srli	a2,a5,0x10
30008938:	0187d793          	srli	a5,a5,0x18
3000893c:	04d40823          	sb	a3,80(s0)
30008940:	04e408a3          	sb	a4,81(s0)
30008944:	04c40923          	sb	a2,82(s0)
30008948:	04f409a3          	sb	a5,83(s0)
3000894c:	ce9ff06f          	j	30008634 <f_mkfs+0x3bc>
30008950:	3000d7b7          	lui	a5,0x3000d
30008954:	04d40aa3          	sb	a3,85(s0)
30008958:	00200693          	li	a3,2
3000895c:	61078713          	addi	a4,a5,1552 # 3000d610 <__clzsi2+0x120>
30008960:	04d40e23          	sb	a3,92(s0)
30008964:	3000d7b7          	lui	a5,0x3000d
30008968:	00100693          	li	a3,1
3000896c:	07740593          	addi	a1,s0,119
30008970:	07b40613          	addi	a2,s0,123
30008974:	61478793          	addi	a5,a5,1556 # 3000d614 <__clzsi2+0x124>
30008978:	06d40023          	sb	a3,96(s0)
3000897c:	00600693          	li	a3,6
30008980:	00f5b7b3          	sltu	a5,a1,a5
30008984:	00c73633          	sltu	a2,a4,a2
30008988:	06d40123          	sb	a3,98(s0)
3000898c:	f8000693          	li	a3,-128
30008990:	01055f13          	srli	t5,a0,0x10
30008994:	01855e93          	srli	t4,a0,0x18
30008998:	01095e13          	srli	t3,s2,0x10
3000899c:	01895313          	srli	t1,s2,0x18
300089a0:	0017c793          	xori	a5,a5,1
300089a4:	00164613          	xori	a2,a2,1
300089a8:	06d40823          	sb	a3,112(s0)
300089ac:	02900693          	li	a3,41
300089b0:	06a409a3          	sb	a0,115(s0)
300089b4:	07040a23          	sb	a6,116(s0)
300089b8:	07e40aa3          	sb	t5,117(s0)
300089bc:	07d40b23          	sb	t4,118(s0)
300089c0:	05140a23          	sb	a7,84(s0)
300089c4:	05c40b23          	sb	t3,86(s0)
300089c8:	04640ba3          	sb	t1,87(s0)
300089cc:	04040ea3          	sb	zero,93(s0)
300089d0:	04040f23          	sb	zero,94(s0)
300089d4:	04040fa3          	sb	zero,95(s0)
300089d8:	060400a3          	sb	zero,97(s0)
300089dc:	060401a3          	sb	zero,99(s0)
300089e0:	06d40923          	sb	a3,114(s0)
300089e4:	00c7e7b3          	or	a5,a5,a2
300089e8:	1a078a63          	beqz	a5,30008b9c <f_mkfs+0x924>
300089ec:	0035f793          	andi	a5,a1,3
300089f0:	1a079663          	bnez	a5,30008b9c <f_mkfs+0x924>
300089f4:	4e2057b7          	lui	a5,0x4e205
300089f8:	f4e78793          	addi	a5,a5,-178 # 4e204f4e <__bss_end__+0x1e104f4e>
300089fc:	06f42ba3          	sw	a5,119(s0)
30008a00:	204557b7          	lui	a5,0x20455
30008a04:	d4178793          	addi	a5,a5,-703 # 20454d41 <stackPointer+0x2044e001>
30008a08:	06f42da3          	sw	a5,123(s0)
30008a0c:	462027b7          	lui	a5,0x46202
30008a10:	02078793          	addi	a5,a5,32 # 46202020 <__bss_end__+0x16102020>
30008a14:	06f42fa3          	sw	a5,127(s0)
30008a18:	323357b7          	lui	a5,0x32335
30008a1c:	44178793          	addi	a5,a5,1089 # 32335441 <__bss_end__+0x2235441>
30008a20:	08f421a3          	sw	a5,131(s0)
30008a24:	000027b7          	lui	a5,0x2
30008a28:	02078793          	addi	a5,a5,32 # 2020 <stackPointer-0x4d20>
30008a2c:	08f413a3          	sh	a5,135(s0)
30008a30:	02000793          	li	a5,32
30008a34:	08f404a3          	sb	a5,137(s0)
30008a38:	05500793          	li	a5,85
30008a3c:	22f40723          	sb	a5,558(s0)
30008a40:	faa00793          	li	a5,-86
30008a44:	22f407a3          	sb	a5,559(s0)
30008a48:	00100693          	li	a3,1
30008a4c:	000b8613          	mv	a2,s7
30008a50:	00098593          	mv	a1,s3
30008a54:	00000513          	li	a0,0
30008a58:	a70f90ef          	jal	ra,30001cc8 <disk_write>
30008a5c:	da0512e3          	bnez	a0,30008800 <f_mkfs+0x588>
30008a60:	00100693          	li	a3,1
30008a64:	006b8613          	addi	a2,s7,6
30008a68:	00098593          	mv	a1,s3
30008a6c:	a5cf90ef          	jal	ra,30001cc8 <disk_write>
30008a70:	20000613          	li	a2,512
30008a74:	00000593          	li	a1,0
30008a78:	00098513          	mv	a0,s3
30008a7c:	520030ef          	jal	ra,3000bf9c <memset>
30008a80:	fff00793          	li	a5,-1
30008a84:	f00cec93          	ori	s9,s9,-256
30008a88:	02f408a3          	sb	a5,49(s0)
30008a8c:	02f40923          	sb	a5,50(s0)
30008a90:	02f409a3          	sb	a5,51(s0)
30008a94:	02f40a23          	sb	a5,52(s0)
30008a98:	02f40aa3          	sb	a5,53(s0)
30008a9c:	02f40b23          	sb	a5,54(s0)
30008aa0:	02f40ba3          	sb	a5,55(s0)
30008aa4:	02f40c23          	sb	a5,56(s0)
30008aa8:	02f40ca3          	sb	a5,57(s0)
30008aac:	02f40d23          	sb	a5,58(s0)
30008ab0:	00f00793          	li	a5,15
30008ab4:	01912c23          	sw	s9,24(sp)
30008ab8:	03940823          	sb	s9,48(s0)
30008abc:	02f40da3          	sb	a5,59(s0)
30008ac0:	cd5ff06f          	j	30008794 <f_mkfs+0x51c>
30008ac4:	0ff00693          	li	a3,255
30008ac8:	0ff00713          	li	a4,255
30008acc:	a1dff06f          	j	300084e8 <f_mkfs+0x270>
30008ad0:	010007b7          	lui	a5,0x1000
30008ad4:	f0078793          	addi	a5,a5,-256 # ffff00 <stackPointer+0xff91c0>
30008ad8:	c9dff06f          	j	30008774 <f_mkfs+0x4fc>
30008adc:	00c00713          	li	a4,12
30008ae0:	a31ff06f          	j	30008510 <f_mkfs+0x298>
30008ae4:	feb00713          	li	a4,-21
30008ae8:	02e40823          	sb	a4,48(s0)
30008aec:	ffe00713          	li	a4,-2
30008af0:	05300793          	li	a5,83
30008af4:	02e408a3          	sb	a4,49(s0)
30008af8:	f9000713          	li	a4,-112
30008afc:	02e40923          	sb	a4,50(s0)
30008b00:	02f40a23          	sb	a5,52(s0)
30008b04:	04d00713          	li	a4,77
30008b08:	02f40ba3          	sb	a5,55(s0)
30008b0c:	03500793          	li	a5,53
30008b10:	02e409a3          	sb	a4,51(s0)
30008b14:	02f40c23          	sb	a5,56(s0)
30008b18:	04400713          	li	a4,68
30008b1c:	02e00793          	li	a5,46
30008b20:	02e40aa3          	sb	a4,53(s0)
30008b24:	02f40ca3          	sb	a5,57(s0)
30008b28:	04f00713          	li	a4,79
30008b2c:	03000793          	li	a5,48
30008b30:	02e40b23          	sb	a4,54(s0)
30008b34:	02f40d23          	sb	a5,58(s0)
30008b38:	aa5ff06f          	j	300085dc <f_mkfs+0x364>
30008b3c:	00100713          	li	a4,1
30008b40:	865ff06f          	j	300083a4 <f_mkfs+0x12c>
30008b44:	00200713          	li	a4,2
30008b48:	85dff06f          	j	300083a4 <f_mkfs+0x12c>
30008b4c:	00060693          	mv	a3,a2
30008b50:	3000d637          	lui	a2,0x3000d
30008b54:	00070793          	mv	a5,a4
30008b58:	63760613          	addi	a2,a2,1591 # 3000d637 <__clzsi2+0x147>
30008b5c:	00178793          	addi	a5,a5,1
30008b60:	fff7c703          	lbu	a4,-1(a5)
30008b64:	00168693          	addi	a3,a3,1
30008b68:	fee68fa3          	sb	a4,-1(a3)
30008b6c:	fec798e3          	bne	a5,a2,30008b5c <f_mkfs+0x8e4>
30008b70:	bc1ff06f          	j	30008730 <f_mkfs+0x4b8>
30008b74:	00300713          	li	a4,3
30008b78:	82dff06f          	j	300083a4 <f_mkfs+0x12c>
30008b7c:	00400713          	li	a4,4
30008b80:	825ff06f          	j	300083a4 <f_mkfs+0x12c>
30008b84:	00500713          	li	a4,5
30008b88:	81dff06f          	j	300083a4 <f_mkfs+0x12c>
30008b8c:	00700713          	li	a4,7
30008b90:	815ff06f          	j	300083a4 <f_mkfs+0x12c>
30008b94:	00800713          	li	a4,8
30008b98:	80dff06f          	j	300083a4 <f_mkfs+0x12c>
30008b9c:	3000d637          	lui	a2,0x3000d
30008ba0:	00058693          	mv	a3,a1
30008ba4:	00070793          	mv	a5,a4
30008ba8:	62360613          	addi	a2,a2,1571 # 3000d623 <__clzsi2+0x133>
30008bac:	00178793          	addi	a5,a5,1
30008bb0:	fff7c703          	lbu	a4,-1(a5)
30008bb4:	00168693          	addi	a3,a3,1
30008bb8:	fee68fa3          	sb	a4,-1(a3)
30008bbc:	fec798e3          	bne	a5,a2,30008bac <f_mkfs+0x934>
30008bc0:	e79ff06f          	j	30008a38 <f_mkfs+0x7c0>
30008bc4:	00300793          	li	a5,3
30008bc8:	00fb0e63          	beq	s6,a5,30008be4 <f_mkfs+0x96c>
30008bcc:	00000613          	li	a2,0
30008bd0:	00000593          	li	a1,0
30008bd4:	00000513          	li	a0,0
30008bd8:	bb8f90ef          	jal	ra,30001f90 <disk_ioctl>
30008bdc:	00a03533          	snez	a0,a0
30008be0:	c25ff06f          	j	30008804 <f_mkfs+0x58c>
30008be4:	fffa0a13          	addi	s4,s4,-1
30008be8:	010a1793          	slli	a5,s4,0x10
30008bec:	0107d793          	srli	a5,a5,0x10
30008bf0:	4087d793          	srai	a5,a5,0x8
30008bf4:	20f40ca3          	sb	a5,537(s0)
30008bf8:	00200793          	li	a5,2
30008bfc:	20f40e23          	sb	a5,540(s0)
30008c00:	05500793          	li	a5,85
30008c04:	05200313          	li	t1,82
30008c08:	06100713          	li	a4,97
30008c0c:	04100813          	li	a6,65
30008c10:	07200893          	li	a7,114
30008c14:	010a5e93          	srli	t4,s4,0x10
30008c18:	018a5e13          	srli	t3,s4,0x18
30008c1c:	22f40723          	sb	a5,558(s0)
30008c20:	faa00793          	li	a5,-86
30008c24:	001b8613          	addi	a2,s7,1
30008c28:	00098593          	mv	a1,s3
30008c2c:	00100693          	li	a3,1
30008c30:	02640823          	sb	t1,48(s0)
30008c34:	026408a3          	sb	t1,49(s0)
30008c38:	02e40923          	sb	a4,50(s0)
30008c3c:	030409a3          	sb	a6,51(s0)
30008c40:	21140a23          	sb	a7,532(s0)
30008c44:	21140aa3          	sb	a7,533(s0)
30008c48:	21040b23          	sb	a6,534(s0)
30008c4c:	20e40ba3          	sb	a4,535(s0)
30008c50:	21440c23          	sb	s4,536(s0)
30008c54:	21d40d23          	sb	t4,538(s0)
30008c58:	21c40da3          	sb	t3,539(s0)
30008c5c:	20040ea3          	sb	zero,541(s0)
30008c60:	20040f23          	sb	zero,542(s0)
30008c64:	20040fa3          	sb	zero,543(s0)
30008c68:	22f407a3          	sb	a5,559(s0)
30008c6c:	85cf90ef          	jal	ra,30001cc8 <disk_write>
30008c70:	00100693          	li	a3,1
30008c74:	007b8613          	addi	a2,s7,7
30008c78:	00098593          	mv	a1,s3
30008c7c:	00000513          	li	a0,0
30008c80:	848f90ef          	jal	ra,30001cc8 <disk_write>
30008c84:	f49ff06f          	j	30008bcc <f_mkfs+0x954>

30008c88 <_Z11osAllocInitv>:
30008c88:	3000f7b7          	lui	a5,0x3000f
30008c8c:	7e478793          	addi	a5,a5,2020 # 3000f7e4 <osAllocMemoryNodes>
30008c90:	0007a023          	sw	zero,0(a5)
30008c94:	0007a223          	sw	zero,4(a5)
30008c98:	0007a423          	sw	zero,8(a5)
30008c9c:	0007a623          	sw	zero,12(a5)
30008ca0:	0007a823          	sw	zero,16(a5)
30008ca4:	0007aa23          	sw	zero,20(a5)
30008ca8:	0007ac23          	sw	zero,24(a5)
30008cac:	0007ae23          	sw	zero,28(a5)
30008cb0:	0207a023          	sw	zero,32(a5)
30008cb4:	0207a223          	sw	zero,36(a5)
30008cb8:	0207a423          	sw	zero,40(a5)
30008cbc:	0207a623          	sw	zero,44(a5)
30008cc0:	00000513          	li	a0,0
30008cc4:	00008067          	ret

30008cc8 <_Z14osAllocAddNodemPvmm>:
30008cc8:	00100793          	li	a5,1
30008ccc:	0aa7ee63          	bltu	a5,a0,30008d88 <_Z14osAllocAddNodemPvmm+0xc0>
30008cd0:	00151813          	slli	a6,a0,0x1
30008cd4:	00a808b3          	add	a7,a6,a0
30008cd8:	3000f6b7          	lui	a3,0x3000f
30008cdc:	00865793          	srli	a5,a2,0x8
30008ce0:	7e468693          	addi	a3,a3,2020 # 3000f7e4 <osAllocMemoryNodes>
30008ce4:	00389893          	slli	a7,a7,0x3
30008ce8:	011688b3          	add	a7,a3,a7
30008cec:	00f58333          	add	t1,a1,a5
30008cf0:	00f8a423          	sw	a5,8(a7)
30008cf4:	00b8a223          	sw	a1,4(a7)
30008cf8:	0ff37793          	andi	a5,t1,255
30008cfc:	41f35713          	srai	a4,t1,0x1f
30008d00:	06079a63          	bnez	a5,30008d74 <_Z14osAllocAddNodemPvmm+0xac>
30008d04:	41f75793          	srai	a5,a4,0x1f
30008d08:	0ff7f793          	andi	a5,a5,255
30008d0c:	006787b3          	add	a5,a5,t1
30008d10:	f007f793          	andi	a5,a5,-256
30008d14:	00c585b3          	add	a1,a1,a2
30008d18:	40f585b3          	sub	a1,a1,a5
30008d1c:	41f5d713          	srai	a4,a1,0x1f
30008d20:	0ff77713          	andi	a4,a4,255
30008d24:	00b70733          	add	a4,a4,a1
30008d28:	40875713          	srai	a4,a4,0x8
30008d2c:	00a80833          	add	a6,a6,a0
30008d30:	00381813          	slli	a6,a6,0x3
30008d34:	00871613          	slli	a2,a4,0x8
30008d38:	010686b3          	add	a3,a3,a6
30008d3c:	00c78633          	add	a2,a5,a2
30008d40:	00f6a623          	sw	a5,12(a3)
30008d44:	00e6aa23          	sw	a4,20(a3)
30008d48:	00c6a823          	sw	a2,16(a3)
30008d4c:	00000793          	li	a5,0
30008d50:	00070e63          	beqz	a4,30008d6c <_Z14osAllocAddNodemPvmm+0xa4>
30008d54:	0046a703          	lw	a4,4(a3)
30008d58:	00f70733          	add	a4,a4,a5
30008d5c:	00070023          	sb	zero,0(a4)
30008d60:	0146a703          	lw	a4,20(a3)
30008d64:	00178793          	addi	a5,a5,1
30008d68:	fee7e6e3          	bltu	a5,a4,30008d54 <_Z14osAllocAddNodemPvmm+0x8c>
30008d6c:	00000513          	li	a0,0
30008d70:	00008067          	ret
30008d74:	10030893          	addi	a7,t1,256
30008d78:	0068b7b3          	sltu	a5,a7,t1
30008d7c:	00e78733          	add	a4,a5,a4
30008d80:	00088313          	mv	t1,a7
30008d84:	f81ff06f          	j	30008d04 <_Z14osAllocAddNodemPvmm+0x3c>
30008d88:	00100513          	li	a0,1
30008d8c:	00008067          	ret

30008d90 <_Z7osAllocmm>:
30008d90:	0025f593          	andi	a1,a1,2
30008d94:	0c059063          	bnez	a1,30008e54 <_Z7osAllocmm+0xc4>
30008d98:	3000feb7          	lui	t4,0x3000f
30008d9c:	7e4e8e93          	addi	t4,t4,2020 # 3000f7e4 <osAllocMemoryNodes>
30008da0:	0ff57793          	andi	a5,a0,255
30008da4:	00078463          	beqz	a5,30008dac <_Z7osAllocmm+0x1c>
30008da8:	10050513          	addi	a0,a0,256
30008dac:	014ea803          	lw	a6,20(t4)
30008db0:	00855513          	srli	a0,a0,0x8
30008db4:	04080663          	beqz	a6,30008e00 <_Z7osAllocmm+0x70>
30008db8:	004ea583          	lw	a1,4(t4)
30008dbc:	00000713          	li	a4,0
30008dc0:	fff00893          	li	a7,-1
30008dc4:	00e586b3          	add	a3,a1,a4
30008dc8:	fff00313          	li	t1,-1
30008dcc:	0006c603          	lbu	a2,0(a3)
30008dd0:	00170793          	addi	a5,a4,1
30008dd4:	06688063          	beq	a7,t1,30008e34 <_Z7osAllocmm+0xa4>
30008dd8:	02060863          	beqz	a2,30008e08 <_Z7osAllocmm+0x78>
30008ddc:	0307f263          	bgeu	a5,a6,30008e00 <_Z7osAllocmm+0x70>
30008de0:	00f58633          	add	a2,a1,a5
30008de4:	00064883          	lbu	a7,0(a2)
30008de8:	00060693          	mv	a3,a2
30008dec:	00178713          	addi	a4,a5,1
30008df0:	04088663          	beqz	a7,30008e3c <_Z7osAllocmm+0xac>
30008df4:	00070793          	mv	a5,a4
30008df8:	00160613          	addi	a2,a2,1
30008dfc:	ff0764e3          	bltu	a4,a6,30008de4 <_Z7osAllocmm+0x54>
30008e00:	00000513          	li	a0,0
30008e04:	00008067          	ret
30008e08:	00078e13          	mv	t3,a5
30008e0c:	00088613          	mv	a2,a7
30008e10:	00070793          	mv	a5,a4
30008e14:	000e0713          	mv	a4,t3
30008e18:	40c70e33          	sub	t3,a4,a2
30008e1c:	04ae7263          	bgeu	t3,a0,30008e60 <_Z7osAllocmm+0xd0>
30008e20:	ff0770e3          	bgeu	a4,a6,30008e00 <_Z7osAllocmm+0x70>
30008e24:	00e586b3          	add	a3,a1,a4
30008e28:	0006c603          	lbu	a2,0(a3)
30008e2c:	00170793          	addi	a5,a4,1
30008e30:	fa6894e3          	bne	a7,t1,30008dd8 <_Z7osAllocmm+0x48>
30008e34:	00070793          	mv	a5,a4
30008e38:	fa9ff06f          	j	30008de0 <_Z7osAllocmm+0x50>
30008e3c:	00078893          	mv	a7,a5
30008e40:	00078613          	mv	a2,a5
30008e44:	fc679ae3          	bne	a5,t1,30008e18 <_Z7osAllocmm+0x88>
30008e48:	00070793          	mv	a5,a4
30008e4c:	f907eae3          	bltu	a5,a6,30008de0 <_Z7osAllocmm+0x50>
30008e50:	fb1ff06f          	j	30008e00 <_Z7osAllocmm+0x70>
30008e54:	3000feb7          	lui	t4,0x3000f
30008e58:	7fce8e93          	addi	t4,t4,2044 # 3000f7fc <osAllocMemoryNodes+0x18>
30008e5c:	f45ff06f          	j	30008da0 <_Z7osAllocmm+0x10>
30008e60:	02f67c63          	bgeu	a2,a5,30008e98 <_Z7osAllocmm+0x108>
30008e64:	00c585b3          	add	a1,a1,a2
30008e68:	f8100713          	li	a4,-127
30008e6c:	00e58023          	sb	a4,0(a1)
30008e70:	00160613          	addi	a2,a2,1
30008e74:	f8100693          	li	a3,-127
30008e78:	00f67c63          	bgeu	a2,a5,30008e90 <_Z7osAllocmm+0x100>
30008e7c:	004ea703          	lw	a4,4(t4)
30008e80:	00c70733          	add	a4,a4,a2
30008e84:	00d70023          	sb	a3,0(a4)
30008e88:	00160613          	addi	a2,a2,1
30008e8c:	fef618e3          	bne	a2,a5,30008e7c <_Z7osAllocmm+0xec>
30008e90:	004ea683          	lw	a3,4(t4)
30008e94:	00f686b3          	add	a3,a3,a5
30008e98:	f8000793          	li	a5,-128
30008e9c:	00f68023          	sb	a5,0(a3)
30008ea0:	00cea503          	lw	a0,12(t4)
30008ea4:	00889893          	slli	a7,a7,0x8
30008ea8:	01150533          	add	a0,a0,a7
30008eac:	00008067          	ret

30008eb0 <_Z6osFreePv>:
30008eb0:	3000f637          	lui	a2,0x3000f
30008eb4:	7e460693          	addi	a3,a2,2020 # 3000f7e4 <osAllocMemoryNodes>
30008eb8:	00c6a703          	lw	a4,12(a3)
30008ebc:	00050793          	mv	a5,a0
30008ec0:	00e56663          	bltu	a0,a4,30008ecc <_Z6osFreePv+0x1c>
30008ec4:	0106a583          	lw	a1,16(a3)
30008ec8:	00a5fe63          	bgeu	a1,a0,30008ee4 <_Z6osFreePv+0x34>
30008ecc:	0246a703          	lw	a4,36(a3)
30008ed0:	00100513          	li	a0,1
30008ed4:	00e7e663          	bltu	a5,a4,30008ee0 <_Z6osFreePv+0x30>
30008ed8:	0286a603          	lw	a2,40(a3)
30008edc:	06f67a63          	bgeu	a2,a5,30008f50 <_Z6osFreePv+0xa0>
30008ee0:	00008067          	ret
30008ee4:	7e460613          	addi	a2,a2,2020
30008ee8:	40e78533          	sub	a0,a5,a4
30008eec:	41f55793          	srai	a5,a0,0x1f
30008ef0:	0ff7f793          	andi	a5,a5,255
30008ef4:	01462703          	lw	a4,20(a2)
30008ef8:	00a787b3          	add	a5,a5,a0
30008efc:	4087d793          	srai	a5,a5,0x8
30008f00:	00100513          	li	a0,1
30008f04:	fce7fee3          	bgeu	a5,a4,30008ee0 <_Z6osFreePv+0x30>
30008f08:	00462703          	lw	a4,4(a2)
30008f0c:	00f70733          	add	a4,a4,a5
30008f10:	00074683          	lbu	a3,0(a4)
30008f14:	04068263          	beqz	a3,30008f58 <_Z6osFreePv+0xa8>
30008f18:	08000593          	li	a1,128
30008f1c:	00b69e63          	bne	a3,a1,30008f38 <_Z6osFreePv+0x88>
30008f20:	0400006f          	j	30008f60 <_Z6osFreePv+0xb0>
30008f24:	00462703          	lw	a4,4(a2)
30008f28:	00f70733          	add	a4,a4,a5
30008f2c:	00074683          	lbu	a3,0(a4)
30008f30:	02068463          	beqz	a3,30008f58 <_Z6osFreePv+0xa8>
30008f34:	02b68663          	beq	a3,a1,30008f60 <_Z6osFreePv+0xb0>
30008f38:	00070023          	sb	zero,0(a4)
30008f3c:	01462703          	lw	a4,20(a2)
30008f40:	00178793          	addi	a5,a5,1
30008f44:	fee7e0e3          	bltu	a5,a4,30008f24 <_Z6osFreePv+0x74>
30008f48:	00000513          	li	a0,0
30008f4c:	00008067          	ret
30008f50:	01868613          	addi	a2,a3,24
30008f54:	f95ff06f          	j	30008ee8 <_Z6osFreePv+0x38>
30008f58:	00200513          	li	a0,2
30008f5c:	00008067          	ret
30008f60:	00070023          	sb	zero,0(a4)
30008f64:	00000513          	li	a0,0
30008f68:	00008067          	ret

30008f6c <_Z7osFInitv>:
30008f6c:	ff010113          	addi	sp,sp,-16
30008f70:	00000513          	li	a0,0
30008f74:	00112623          	sw	ra,12(sp)
30008f78:	00812423          	sw	s0,8(sp)
30008f7c:	935f80ef          	jal	ra,300018b0 <disk_initialize>
30008f80:	04050863          	beqz	a0,30008fd0 <_Z7osFInitv+0x64>
30008f84:	3e800513          	li	a0,1000
30008f88:	bf5f70ef          	jal	ra,30000b7c <_Z7delayMsm>
30008f8c:	00000513          	li	a0,0
30008f90:	921f80ef          	jal	ra,300018b0 <disk_initialize>
30008f94:	00050793          	mv	a5,a0
30008f98:	00a00413          	li	s0,10
30008f9c:	3e800513          	li	a0,1000
30008fa0:	fff40413          	addi	s0,s0,-1
30008fa4:	02078663          	beqz	a5,30008fd0 <_Z7osFInitv+0x64>
30008fa8:	bd5f70ef          	jal	ra,30000b7c <_Z7delayMsm>
30008fac:	00000513          	li	a0,0
30008fb0:	901f80ef          	jal	ra,300018b0 <disk_initialize>
30008fb4:	00050793          	mv	a5,a0
30008fb8:	fe0412e3          	bnez	s0,30008f9c <_Z7osFInitv+0x30>
30008fbc:	00c12083          	lw	ra,12(sp)
30008fc0:	00812403          	lw	s0,8(sp)
30008fc4:	00100513          	li	a0,1
30008fc8:	01010113          	addi	sp,sp,16
30008fcc:	00008067          	ret
30008fd0:	300105b7          	lui	a1,0x30010
30008fd4:	81458593          	addi	a1,a1,-2028 # 3000f814 <fatfs>
30008fd8:	00000513          	li	a0,0
30008fdc:	f45fc0ef          	jal	ra,30005f20 <f_mount>
30008fe0:	00c12083          	lw	ra,12(sp)
30008fe4:	00812403          	lw	s0,8(sp)
30008fe8:	00000513          	li	a0,0
30008fec:	01010113          	addi	sp,sp,16
30008ff0:	00008067          	ret

30008ff4 <_Z7osFOpenP8_tosFilePcm>:
30008ff4:	00100793          	li	a5,1
30008ff8:	04050663          	beqz	a0,30009044 <_Z7osFOpenP8_tosFilePcm+0x50>
30008ffc:	04f60063          	beq	a2,a5,3000903c <_Z7osFOpenP8_tosFilePcm+0x48>
30009000:	00200713          	li	a4,2
30009004:	00200793          	li	a5,2
30009008:	02e61e63          	bne	a2,a4,30009044 <_Z7osFOpenP8_tosFilePcm+0x50>
3000900c:	00a00613          	li	a2,10
30009010:	ff010113          	addi	sp,sp,-16
30009014:	00112623          	sw	ra,12(sp)
30009018:	f39fc0ef          	jal	ra,30005f50 <f_open>
3000901c:	00153793          	seqz	a5,a0
30009020:	00c12083          	lw	ra,12(sp)
30009024:	40f007b3          	neg	a5,a5
30009028:	ffd7f793          	andi	a5,a5,-3
3000902c:	00378793          	addi	a5,a5,3
30009030:	00078513          	mv	a0,a5
30009034:	01010113          	addi	sp,sp,16
30009038:	00008067          	ret
3000903c:	00100613          	li	a2,1
30009040:	fd1ff06f          	j	30009010 <_Z7osFOpenP8_tosFilePcm+0x1c>
30009044:	00078513          	mv	a0,a5
30009048:	00008067          	ret

3000904c <_Z8osFCloseP8_tosFile>:
3000904c:	02050063          	beqz	a0,3000906c <_Z8osFCloseP8_tosFile+0x20>
30009050:	ff010113          	addi	sp,sp,-16
30009054:	00112623          	sw	ra,12(sp)
30009058:	bc1fd0ef          	jal	ra,30006c18 <f_close>
3000905c:	00c12083          	lw	ra,12(sp)
30009060:	00000513          	li	a0,0
30009064:	01010113          	addi	sp,sp,16
30009068:	00008067          	ret
3000906c:	00100513          	li	a0,1
30009070:	00008067          	ret

30009074 <_Z8osFWriteP8_tosFilePhm>:
30009074:	02050a63          	beqz	a0,300090a8 <_Z8osFWriteP8_tosFilePhm+0x34>
30009078:	00100793          	li	a5,1
3000907c:	02058863          	beqz	a1,300090ac <_Z8osFWriteP8_tosFilePhm+0x38>
30009080:	fe010113          	addi	sp,sp,-32
30009084:	00c10693          	addi	a3,sp,12
30009088:	00112e23          	sw	ra,28(sp)
3000908c:	d14fd0ef          	jal	ra,300065a0 <f_write>
30009090:	01c12083          	lw	ra,28(sp)
30009094:	00a037b3          	snez	a5,a0
30009098:	00179793          	slli	a5,a5,0x1
3000909c:	00078513          	mv	a0,a5
300090a0:	02010113          	addi	sp,sp,32
300090a4:	00008067          	ret
300090a8:	00100793          	li	a5,1
300090ac:	00078513          	mv	a0,a5
300090b0:	00008067          	ret

300090b4 <_Z7osFReadP8_tosFilePhmPm>:
300090b4:	fe010113          	addi	sp,sp,-32
300090b8:	00112e23          	sw	ra,28(sp)
300090bc:	00812c23          	sw	s0,24(sp)
300090c0:	00912a23          	sw	s1,20(sp)
300090c4:	04050663          	beqz	a0,30009110 <_Z7osFReadP8_tosFilePhmPm+0x5c>
300090c8:	00100413          	li	s0,1
300090cc:	02058663          	beqz	a1,300090f8 <_Z7osFReadP8_tosFilePhmPm+0x44>
300090d0:	00068493          	mv	s1,a3
300090d4:	00c10693          	addi	a3,sp,12
300090d8:	00060413          	mv	s0,a2
300090dc:	8f0fd0ef          	jal	ra,300061cc <f_read>
300090e0:	00c12783          	lw	a5,12(sp)
300090e4:	00048463          	beqz	s1,300090ec <_Z7osFReadP8_tosFilePhmPm+0x38>
300090e8:	00f4a023          	sw	a5,0(s1)
300090ec:	40f407b3          	sub	a5,s0,a5
300090f0:	00f037b3          	snez	a5,a5
300090f4:	00179413          	slli	s0,a5,0x1
300090f8:	00040513          	mv	a0,s0
300090fc:	01c12083          	lw	ra,28(sp)
30009100:	01812403          	lw	s0,24(sp)
30009104:	01412483          	lw	s1,20(sp)
30009108:	02010113          	addi	sp,sp,32
3000910c:	00008067          	ret
30009110:	00100413          	li	s0,1
30009114:	00040513          	mv	a0,s0
30009118:	01c12083          	lw	ra,28(sp)
3000911c:	01812403          	lw	s0,24(sp)
30009120:	01412483          	lw	s1,20(sp)
30009124:	02010113          	addi	sp,sp,32
30009128:	00008067          	ret

3000912c <_Z7osFGetSP8_tosFilePhm>:
3000912c:	00058023          	sb	zero,0(a1)
30009130:	0e050e63          	beqz	a0,3000922c <_Z7osFGetSP8_tosFilePhm+0x100>
30009134:	fd010113          	addi	sp,sp,-48
30009138:	02912223          	sw	s1,36(sp)
3000913c:	01412c23          	sw	s4,24(sp)
30009140:	02112623          	sw	ra,44(sp)
30009144:	02812423          	sw	s0,40(sp)
30009148:	03212023          	sw	s2,32(sp)
3000914c:	01312e23          	sw	s3,28(sp)
30009150:	01512a23          	sw	s5,20(sp)
30009154:	01612823          	sw	s6,16(sp)
30009158:	fff60a13          	addi	s4,a2,-1
3000915c:	00050493          	mv	s1,a0
30009160:	0a0a0c63          	beqz	s4,30009218 <_Z7osFGetSP8_tosFilePhm+0xec>
30009164:	00058413          	mv	s0,a1
30009168:	01458a33          	add	s4,a1,s4
3000916c:	00c10993          	addi	s3,sp,12
30009170:	00810913          	addi	s2,sp,8
30009174:	00a00a93          	li	s5,10
30009178:	00d00b13          	li	s6,13
3000917c:	00098693          	mv	a3,s3
30009180:	00100613          	li	a2,1
30009184:	00090593          	mv	a1,s2
30009188:	00048513          	mv	a0,s1
3000918c:	840fd0ef          	jal	ra,300061cc <f_read>
30009190:	00c12703          	lw	a4,12(sp)
30009194:	00100793          	li	a5,1
30009198:	08f71663          	bne	a4,a5,30009224 <_Z7osFGetSP8_tosFilePhm+0xf8>
3000919c:	00814783          	lbu	a5,8(sp)
300091a0:	05578663          	beq	a5,s5,300091ec <_Z7osFGetSP8_tosFilePhm+0xc0>
300091a4:	05678463          	beq	a5,s6,300091ec <_Z7osFGetSP8_tosFilePhm+0xc0>
300091a8:	00f40023          	sb	a5,0(s0)
300091ac:	000400a3          	sb	zero,1(s0)
300091b0:	00140413          	addi	s0,s0,1
300091b4:	fd4414e3          	bne	s0,s4,3000917c <_Z7osFGetSP8_tosFilePhm+0x50>
300091b8:	00a00413          	li	s0,10
300091bc:	00d00a13          	li	s4,13
300091c0:	00098693          	mv	a3,s3
300091c4:	00100613          	li	a2,1
300091c8:	00090593          	mv	a1,s2
300091cc:	00048513          	mv	a0,s1
300091d0:	ffdfc0ef          	jal	ra,300061cc <f_read>
300091d4:	00c12703          	lw	a4,12(sp)
300091d8:	00100793          	li	a5,1
300091dc:	04f71463          	bne	a4,a5,30009224 <_Z7osFGetSP8_tosFilePhm+0xf8>
300091e0:	00814783          	lbu	a5,8(sp)
300091e4:	00878463          	beq	a5,s0,300091ec <_Z7osFGetSP8_tosFilePhm+0xc0>
300091e8:	fd479ce3          	bne	a5,s4,300091c0 <_Z7osFGetSP8_tosFilePhm+0x94>
300091ec:	00000513          	li	a0,0
300091f0:	02c12083          	lw	ra,44(sp)
300091f4:	02812403          	lw	s0,40(sp)
300091f8:	02412483          	lw	s1,36(sp)
300091fc:	02012903          	lw	s2,32(sp)
30009200:	01c12983          	lw	s3,28(sp)
30009204:	01812a03          	lw	s4,24(sp)
30009208:	01412a83          	lw	s5,20(sp)
3000920c:	01012b03          	lw	s6,16(sp)
30009210:	03010113          	addi	sp,sp,48
30009214:	00008067          	ret
30009218:	00c10993          	addi	s3,sp,12
3000921c:	00810913          	addi	s2,sp,8
30009220:	f99ff06f          	j	300091b8 <_Z7osFGetSP8_tosFilePhm+0x8c>
30009224:	00200513          	li	a0,2
30009228:	fc9ff06f          	j	300091f0 <_Z7osFGetSP8_tosFilePhm+0xc4>
3000922c:	00100513          	li	a0,1
30009230:	00008067          	ret

30009234 <_Z9osDirOpenP7_tosDirPc>:
30009234:	02050263          	beqz	a0,30009258 <_Z9osDirOpenP7_tosDirPc+0x24>
30009238:	ff010113          	addi	sp,sp,-16
3000923c:	10050513          	addi	a0,a0,256
30009240:	00112623          	sw	ra,12(sp)
30009244:	d9dfd0ef          	jal	ra,30006fe0 <f_opendir>
30009248:	00c12083          	lw	ra,12(sp)
3000924c:	00a03533          	snez	a0,a0
30009250:	01010113          	addi	sp,sp,16
30009254:	00008067          	ret
30009258:	00100513          	li	a0,1
3000925c:	00008067          	ret

30009260 <_Z10osDirCloseP7_tosDir>:
30009260:	00153513          	seqz	a0,a0
30009264:	00008067          	ret

30009268 <_Z9osDirReadP7_tosDirP11_tosDirItem>:
30009268:	00100793          	li	a5,1
3000926c:	08058263          	beqz	a1,300092f0 <_Z9osDirReadP7_tosDirP11_tosDirItem+0x88>
30009270:	08050063          	beqz	a0,300092f0 <_Z9osDirReadP7_tosDirP11_tosDirItem+0x88>
30009274:	ff010113          	addi	sp,sp,-16
30009278:	00912223          	sw	s1,4(sp)
3000927c:	300104b7          	lui	s1,0x30010
30009280:	81448493          	addi	s1,s1,-2028 # 3000f814 <fatfs>
30009284:	0ff00793          	li	a5,255
30009288:	00812423          	sw	s0,8(sp)
3000928c:	00112623          	sw	ra,12(sp)
30009290:	24b4a423          	sw	a1,584(s1)
30009294:	24f4a623          	sw	a5,588(s1)
30009298:	00058413          	mv	s0,a1
3000929c:	00058023          	sb	zero,0(a1)
300092a0:	10050513          	addi	a0,a0,256
300092a4:	23048593          	addi	a1,s1,560
300092a8:	e09fd0ef          	jal	ra,300070b0 <f_readdir>
300092ac:	06051c63          	bnez	a0,30009324 <_Z9osDirReadP7_tosDirP11_tosDirItem+0xbc>
300092b0:	2384c783          	lbu	a5,568(s1)
300092b4:	0107f793          	andi	a5,a5,16
300092b8:	04079063          	bnez	a5,300092f8 <_Z9osDirReadP7_tosDirP11_tosDirItem+0x90>
300092bc:	2304a683          	lw	a3,560(s1)
300092c0:	00044783          	lbu	a5,0(s0)
300092c4:	00100713          	li	a4,1
300092c8:	10d42223          	sw	a3,260(s0)
300092cc:	10e40023          	sb	a4,256(s0)
300092d0:	04078063          	beqz	a5,30009310 <_Z9osDirReadP7_tosDirP11_tosDirItem+0xa8>
300092d4:	0017b793          	seqz	a5,a5
300092d8:	00c12083          	lw	ra,12(sp)
300092dc:	00812403          	lw	s0,8(sp)
300092e0:	00412483          	lw	s1,4(sp)
300092e4:	00078513          	mv	a0,a5
300092e8:	01010113          	addi	sp,sp,16
300092ec:	00008067          	ret
300092f0:	00078513          	mv	a0,a5
300092f4:	00008067          	ret
300092f8:	00044783          	lbu	a5,0(s0)
300092fc:	00000693          	li	a3,0
30009300:	00200713          	li	a4,2
30009304:	10d42223          	sw	a3,260(s0)
30009308:	10e40023          	sb	a4,256(s0)
3000930c:	fc0794e3          	bnez	a5,300092d4 <_Z9osDirReadP7_tosDirP11_tosDirItem+0x6c>
30009310:	23948593          	addi	a1,s1,569
30009314:	00040513          	mv	a0,s0
30009318:	748030ef          	jal	ra,3000ca60 <strcpy>
3000931c:	00044783          	lbu	a5,0(s0)
30009320:	fb5ff06f          	j	300092d4 <_Z9osDirReadP7_tosDirP11_tosDirItem+0x6c>
30009324:	00040023          	sb	zero,0(s0)
30009328:	10040023          	sb	zero,256(s0)
3000932c:	10042223          	sw	zero,260(s0)
30009330:	00200793          	li	a5,2
30009334:	fa5ff06f          	j	300092d8 <_Z9osDirReadP7_tosDirP11_tosDirItem+0x70>

30009338 <_Z7osFSizePc>:
30009338:	fd010113          	addi	sp,sp,-48
3000933c:	00010593          	mv	a1,sp
30009340:	02112623          	sw	ra,44(sp)
30009344:	00012e23          	sw	zero,28(sp)
30009348:	00012c23          	sw	zero,24(sp)
3000934c:	e39fd0ef          	jal	ra,30007184 <f_stat>
30009350:	00051a63          	bnez	a0,30009364 <_Z7osFSizePc+0x2c>
30009354:	02c12083          	lw	ra,44(sp)
30009358:	00012503          	lw	a0,0(sp)
3000935c:	03010113          	addi	sp,sp,48
30009360:	00008067          	ret
30009364:	02c12083          	lw	ra,44(sp)
30009368:	00000513          	li	a0,0
3000936c:	03010113          	addi	sp,sp,48
30009370:	00008067          	ret

30009374 <_Z9osFDeletePc>:
30009374:	ff010113          	addi	sp,sp,-16
30009378:	00112623          	sw	ra,12(sp)
3000937c:	af8fe0ef          	jal	ra,30007674 <f_unlink>
30009380:	00c12083          	lw	ra,12(sp)
30009384:	00a03533          	snez	a0,a0
30009388:	01010113          	addi	sp,sp,16
3000938c:	00008067          	ret

30009390 <_Z7osMkDirPc>:
30009390:	ff010113          	addi	sp,sp,-16
30009394:	00112623          	sw	ra,12(sp)
30009398:	ce0fe0ef          	jal	ra,30007878 <f_mkdir>
3000939c:	00c12083          	lw	ra,12(sp)
300093a0:	00a03533          	snez	a0,a0
300093a4:	01010113          	addi	sp,sp,16
300093a8:	00008067          	ret

300093ac <_Z8osRenamePcS_>:
300093ac:	acdfe06f          	j	30007e78 <f_rename>

300093b0 <_Z15gfDisplayBitmapP10_tgfBitmap>:
300093b0:	00c52783          	lw	a5,12(a0)
300093b4:	3000f737          	lui	a4,0x3000f
300093b8:	1d472703          	lw	a4,468(a4) # 3000f1d4 <sdrdma>
300093bc:	e00006b7          	lui	a3,0xe0000
300093c0:	00d787b3          	add	a5,a5,a3
300093c4:	0027d793          	srli	a5,a5,0x2
300093c8:	00f72423          	sw	a5,8(a4)
300093cc:	00000513          	li	a0,0
300093d0:	00008067          	ret

300093d4 <_Z14gfLoadBitmapFSP10_tgfBitmapPc>:
300093d4:	1c050c63          	beqz	a0,300095ac <_Z14gfLoadBitmapFSP10_tgfBitmapPc+0x1d8>
300093d8:	fc010113          	addi	sp,sp,-64
300093dc:	02812c23          	sw	s0,56(sp)
300093e0:	00100613          	li	a2,1
300093e4:	00050413          	mv	s0,a0
300093e8:	00c10513          	addi	a0,sp,12
300093ec:	02112e23          	sw	ra,60(sp)
300093f0:	c05ff0ef          	jal	ra,30008ff4 <_Z7osFOpenP8_tosFilePcm>
300093f4:	00050c63          	beqz	a0,3000940c <_Z14gfLoadBitmapFSP10_tgfBitmapPc+0x38>
300093f8:	00100513          	li	a0,1
300093fc:	03c12083          	lw	ra,60(sp)
30009400:	03812403          	lw	s0,56(sp)
30009404:	04010113          	addi	sp,sp,64
30009408:	00008067          	ret
3000940c:	00000693          	li	a3,0
30009410:	00200613          	li	a2,2
30009414:	00810593          	addi	a1,sp,8
30009418:	00c10513          	addi	a0,sp,12
3000941c:	c99ff0ef          	jal	ra,300090b4 <_Z7osFReadP8_tosFilePhmPm>
30009420:	00914783          	lbu	a5,9(sp)
30009424:	00814703          	lbu	a4,8(sp)
30009428:	00000693          	li	a3,0
3000942c:	00879793          	slli	a5,a5,0x8
30009430:	00e7e7b3          	or	a5,a5,a4
30009434:	01079713          	slli	a4,a5,0x10
30009438:	00e7e7b3          	or	a5,a5,a4
3000943c:	00200613          	li	a2,2
30009440:	00810593          	addi	a1,sp,8
30009444:	00f42023          	sw	a5,0(s0)
30009448:	00c10513          	addi	a0,sp,12
3000944c:	c69ff0ef          	jal	ra,300090b4 <_Z7osFReadP8_tosFilePhmPm>
30009450:	00914783          	lbu	a5,9(sp)
30009454:	00814703          	lbu	a4,8(sp)
30009458:	00000693          	li	a3,0
3000945c:	00879793          	slli	a5,a5,0x8
30009460:	00e7e7b3          	or	a5,a5,a4
30009464:	00200613          	li	a2,2
30009468:	00810593          	addi	a1,sp,8
3000946c:	00f41223          	sh	a5,4(s0)
30009470:	00c10513          	addi	a0,sp,12
30009474:	c41ff0ef          	jal	ra,300090b4 <_Z7osFReadP8_tosFilePhmPm>
30009478:	00914783          	lbu	a5,9(sp)
3000947c:	00814703          	lbu	a4,8(sp)
30009480:	00000693          	li	a3,0
30009484:	00879793          	slli	a5,a5,0x8
30009488:	00e7e7b3          	or	a5,a5,a4
3000948c:	00200613          	li	a2,2
30009490:	00810593          	addi	a1,sp,8
30009494:	00f41323          	sh	a5,6(s0)
30009498:	00c10513          	addi	a0,sp,12
3000949c:	c19ff0ef          	jal	ra,300090b4 <_Z7osFReadP8_tosFilePhmPm>
300094a0:	00914783          	lbu	a5,9(sp)
300094a4:	00814703          	lbu	a4,8(sp)
300094a8:	00000693          	li	a3,0
300094ac:	00879793          	slli	a5,a5,0x8
300094b0:	00e7e7b3          	or	a5,a5,a4
300094b4:	00f41423          	sh	a5,8(s0)
300094b8:	00100613          	li	a2,1
300094bc:	00810593          	addi	a1,sp,8
300094c0:	00c10513          	addi	a0,sp,12
300094c4:	bf1ff0ef          	jal	ra,300090b4 <_Z7osFReadP8_tosFilePhmPm>
300094c8:	00814703          	lbu	a4,8(sp)
300094cc:	00c00793          	li	a5,12
300094d0:	0ef71263          	bne	a4,a5,300095b4 <_Z14gfLoadBitmapFSP10_tgfBitmapPc+0x1e0>
300094d4:	00000693          	li	a3,0
300094d8:	00300613          	li	a2,3
300094dc:	00810593          	addi	a1,sp,8
300094e0:	00c10513          	addi	a0,sp,12
300094e4:	bd1ff0ef          	jal	ra,300090b4 <_Z7osFReadP8_tosFilePhmPm>
300094e8:	00814783          	lbu	a5,8(sp)
300094ec:	00914683          	lbu	a3,9(sp)
300094f0:	00a14703          	lbu	a4,10(sp)
300094f4:	00d7e7b3          	or	a5,a5,a3
300094f8:	00e7e7b3          	or	a5,a5,a4
300094fc:	0a079c63          	bnez	a5,300095b4 <_Z14gfLoadBitmapFSP10_tgfBitmapPc+0x1e0>
30009500:	00245503          	lhu	a0,2(s0)
30009504:	00445783          	lhu	a5,4(s0)
30009508:	00100593          	li	a1,1
3000950c:	02f50533          	mul	a0,a0,a5
30009510:	00151513          	slli	a0,a0,0x1
30009514:	87dff0ef          	jal	ra,30008d90 <_Z7osAllocmm>
30009518:	00a42623          	sw	a0,12(s0)
3000951c:	0a050a63          	beqz	a0,300095d0 <_Z14gfLoadBitmapFSP10_tgfBitmapPc+0x1fc>
30009520:	00445783          	lhu	a5,4(s0)
30009524:	00245603          	lhu	a2,2(s0)
30009528:	00050593          	mv	a1,a0
3000952c:	00000693          	li	a3,0
30009530:	02f60633          	mul	a2,a2,a5
30009534:	00c10513          	addi	a0,sp,12
30009538:	00161613          	slli	a2,a2,0x1
3000953c:	b79ff0ef          	jal	ra,300090b4 <_Z7osFReadP8_tosFilePhmPm>
30009540:	00645783          	lhu	a5,6(s0)
30009544:	0027f793          	andi	a5,a5,2
30009548:	04078463          	beqz	a5,30009590 <_Z14gfLoadBitmapFSP10_tgfBitmapPc+0x1bc>
3000954c:	00245783          	lhu	a5,2(s0)
30009550:	00445683          	lhu	a3,4(s0)
30009554:	00c42703          	lw	a4,12(s0)
30009558:	02d787b3          	mul	a5,a5,a3
3000955c:	02078a63          	beqz	a5,30009590 <_Z14gfLoadBitmapFSP10_tgfBitmapPc+0x1bc>
30009560:	00000613          	li	a2,0
30009564:	00075783          	lhu	a5,0(a4)
30009568:	00270713          	addi	a4,a4,2
3000956c:	00160613          	addi	a2,a2,1
30009570:	0087d693          	srli	a3,a5,0x8
30009574:	00879793          	slli	a5,a5,0x8
30009578:	00f6e7b3          	or	a5,a3,a5
3000957c:	fef71f23          	sh	a5,-2(a4)
30009580:	00245783          	lhu	a5,2(s0)
30009584:	00445683          	lhu	a3,4(s0)
30009588:	02d787b3          	mul	a5,a5,a3
3000958c:	fcf64ce3          	blt	a2,a5,30009564 <_Z14gfLoadBitmapFSP10_tgfBitmapPc+0x190>
30009590:	00c10513          	addi	a0,sp,12
30009594:	ab9ff0ef          	jal	ra,3000904c <_Z8osFCloseP8_tosFile>
30009598:	03c12083          	lw	ra,60(sp)
3000959c:	03812403          	lw	s0,56(sp)
300095a0:	00000513          	li	a0,0
300095a4:	04010113          	addi	sp,sp,64
300095a8:	00008067          	ret
300095ac:	00100513          	li	a0,1
300095b0:	00008067          	ret
300095b4:	00c10513          	addi	a0,sp,12
300095b8:	a95ff0ef          	jal	ra,3000904c <_Z8osFCloseP8_tosFile>
300095bc:	03c12083          	lw	ra,60(sp)
300095c0:	03812403          	lw	s0,56(sp)
300095c4:	00200513          	li	a0,2
300095c8:	04010113          	addi	sp,sp,64
300095cc:	00008067          	ret
300095d0:	00c10513          	addi	a0,sp,12
300095d4:	a79ff0ef          	jal	ra,3000904c <_Z8osFCloseP8_tosFile>
300095d8:	00300513          	li	a0,3
300095dc:	e21ff06f          	j	300093fc <_Z14gfLoadBitmapFSP10_tgfBitmapPc+0x28>

300095e0 <_Z12gfBlitBitmapP10_tgfBitmapS0_ss>:
300095e0:	14050863          	beqz	a0,30009730 <_Z12gfBlitBitmapP10_tgfBitmapS0_ss+0x150>
300095e4:	14058663          	beqz	a1,30009730 <_Z12gfBlitBitmapP10_tgfBitmapS0_ss+0x150>
300095e8:	0005d703          	lhu	a4,0(a1)
300095ec:	0045d803          	lhu	a6,4(a1)
300095f0:	0e064663          	bltz	a2,300096dc <_Z12gfBlitBitmapP10_tgfBitmapS0_ss+0xfc>
300095f4:	01071713          	slli	a4,a4,0x10
300095f8:	41075713          	srai	a4,a4,0x10
300095fc:	00060793          	mv	a5,a2
30009600:	00000313          	li	t1,0
30009604:	1006c263          	bltz	a3,30009708 <_Z12gfBlitBitmapP10_tgfBitmapS0_ss+0x128>
30009608:	01081813          	slli	a6,a6,0x10
3000960c:	41085813          	srai	a6,a6,0x10
30009610:	00000e93          	li	t4,0
30009614:	00055883          	lhu	a7,0(a0)
30009618:	00f70e33          	add	t3,a4,a5
3000961c:	011e4863          	blt	t3,a7,3000962c <_Z12gfBlitBitmapP10_tgfBitmapS0_ss+0x4c>
30009620:	40c88633          	sub	a2,a7,a2
30009624:	01061713          	slli	a4,a2,0x10
30009628:	41075713          	srai	a4,a4,0x10
3000962c:	0ae05463          	blez	a4,300096d4 <_Z12gfBlitBitmapP10_tgfBitmapS0_ss+0xf4>
30009630:	00455603          	lhu	a2,4(a0)
30009634:	00d808b3          	add	a7,a6,a3
30009638:	00c8c863          	blt	a7,a2,30009648 <_Z12gfBlitBitmapP10_tgfBitmapS0_ss+0x68>
3000963c:	40d60833          	sub	a6,a2,a3
30009640:	01081813          	slli	a6,a6,0x10
30009644:	41085813          	srai	a6,a6,0x10
30009648:	09005663          	blez	a6,300096d4 <_Z12gfBlitBitmapP10_tgfBitmapS0_ss+0xf4>
3000964c:	0025d283          	lhu	t0,2(a1)
30009650:	00255f83          	lhu	t6,2(a0)
30009654:	00179613          	slli	a2,a5,0x1
30009658:	00129e13          	slli	t3,t0,0x1
3000965c:	03de0e33          	mul	t3,t3,t4
30009660:	001f9893          	slli	a7,t6,0x1
30009664:	00c5ae83          	lw	t4,12(a1)
30009668:	3000f7b7          	lui	a5,0x3000f
3000966c:	1f07a783          	lw	a5,496(a5) # 3000f1f0 <blt>
30009670:	00131313          	slli	t1,t1,0x1
30009674:	0065df03          	lhu	t5,6(a1)
30009678:	00c52503          	lw	a0,12(a0)
3000967c:	001f7f13          	andi	t5,t5,1
30009680:	02d888b3          	mul	a7,a7,a3
30009684:	006e0e33          	add	t3,t3,t1
30009688:	01ce8e33          	add	t3,t4,t3
3000968c:	01c7ae23          	sw	t3,28(a5)
30009690:	0257a023          	sw	t0,32(a5)
30009694:	02e7a223          	sw	a4,36(a5)
30009698:	0307a423          	sw	a6,40(a5)
3000969c:	00c88633          	add	a2,a7,a2
300096a0:	00c50633          	add	a2,a0,a2
300096a4:	02c7ae23          	sw	a2,60(a5)
300096a8:	05f7a023          	sw	t6,64(a5)
300096ac:	080f0663          	beqz	t5,30009738 <_Z12gfBlitBitmapP10_tgfBitmapS0_ss+0x158>
300096b0:	0085d683          	lhu	a3,8(a1)
300096b4:	04e7a223          	sw	a4,68(a5)
300096b8:	0507a423          	sw	a6,72(a5)
300096bc:	00d7a623          	sw	a3,12(a5)
300096c0:	20100713          	li	a4,513
300096c4:	00e7a423          	sw	a4,8(a5)
300096c8:	0087a703          	lw	a4,8(a5)
300096cc:	00177713          	andi	a4,a4,1
300096d0:	fe070ce3          	beqz	a4,300096c8 <_Z12gfBlitBitmapP10_tgfBitmapS0_ss+0xe8>
300096d4:	00000513          	li	a0,0
300096d8:	00008067          	ret
300096dc:	01061613          	slli	a2,a2,0x10
300096e0:	01065613          	srli	a2,a2,0x10
300096e4:	40c00333          	neg	t1,a2
300096e8:	00c70733          	add	a4,a4,a2
300096ec:	01031313          	slli	t1,t1,0x10
300096f0:	01071713          	slli	a4,a4,0x10
300096f4:	41035313          	srai	t1,t1,0x10
300096f8:	41075713          	srai	a4,a4,0x10
300096fc:	00000793          	li	a5,0
30009700:	00000613          	li	a2,0
30009704:	f006d2e3          	bgez	a3,30009608 <_Z12gfBlitBitmapP10_tgfBitmapS0_ss+0x28>
30009708:	01069893          	slli	a7,a3,0x10
3000970c:	0108d893          	srli	a7,a7,0x10
30009710:	41100e33          	neg	t3,a7
30009714:	01180833          	add	a6,a6,a7
30009718:	010e1e93          	slli	t4,t3,0x10
3000971c:	01081813          	slli	a6,a6,0x10
30009720:	410ede93          	srai	t4,t4,0x10
30009724:	41085813          	srai	a6,a6,0x10
30009728:	00000693          	li	a3,0
3000972c:	ee9ff06f          	j	30009614 <_Z12gfBlitBitmapP10_tgfBitmapS0_ss+0x34>
30009730:	00100513          	li	a0,1
30009734:	00008067          	ret
30009738:	04e7a223          	sw	a4,68(a5)
3000973c:	0507a423          	sw	a6,72(a5)
30009740:	20000713          	li	a4,512
30009744:	00e7a423          	sw	a4,8(a5)
30009748:	0087a703          	lw	a4,8(a5)
3000974c:	00177713          	andi	a4,a4,1
30009750:	fe070ce3          	beqz	a4,30009748 <_Z12gfBlitBitmapP10_tgfBitmapS0_ss+0x168>
30009754:	00000513          	li	a0,0
30009758:	00008067          	ret

3000975c <_Z19gfBlitBitmapSrcRectP10_tgfBitmapS0_ssssss>:
3000975c:	12050e63          	beqz	a0,30009898 <_Z19gfBlitBitmapSrcRectP10_tgfBitmapS0_ssssss+0x13c>
30009760:	12058c63          	beqz	a1,30009898 <_Z19gfBlitBitmapSrcRectP10_tgfBitmapS0_ssssss+0x13c>
30009764:	00080313          	mv	t1,a6
30009768:	0c084863          	bltz	a6,30009838 <_Z19gfBlitBitmapSrcRectP10_tgfBitmapS0_ssssss+0xdc>
3000976c:	0e08cc63          	bltz	a7,30009864 <_Z19gfBlitBitmapSrcRectP10_tgfBitmapS0_ssssss+0x108>
30009770:	00055e03          	lhu	t3,0(a0)
30009774:	00670eb3          	add	t4,a4,t1
30009778:	01cec863          	blt	t4,t3,30009788 <_Z19gfBlitBitmapSrcRectP10_tgfBitmapS0_ssssss+0x2c>
3000977c:	410e0833          	sub	a6,t3,a6
30009780:	01081713          	slli	a4,a6,0x10
30009784:	41075713          	srai	a4,a4,0x10
30009788:	0ae05463          	blez	a4,30009830 <_Z19gfBlitBitmapSrcRectP10_tgfBitmapS0_ssssss+0xd4>
3000978c:	00455803          	lhu	a6,4(a0)
30009790:	01178e33          	add	t3,a5,a7
30009794:	010e4863          	blt	t3,a6,300097a4 <_Z19gfBlitBitmapSrcRectP10_tgfBitmapS0_ssssss+0x48>
30009798:	411807b3          	sub	a5,a6,a7
3000979c:	01079793          	slli	a5,a5,0x10
300097a0:	4107d793          	srai	a5,a5,0x10
300097a4:	08f05663          	blez	a5,30009830 <_Z19gfBlitBitmapSrcRectP10_tgfBitmapS0_ssssss+0xd4>
300097a8:	0025d283          	lhu	t0,2(a1)
300097ac:	00255f83          	lhu	t6,2(a0)
300097b0:	00c52e83          	lw	t4,12(a0)
300097b4:	00129e13          	slli	t3,t0,0x1
300097b8:	02de06b3          	mul	a3,t3,a3
300097bc:	001f9813          	slli	a6,t6,0x1
300097c0:	00c5ae03          	lw	t3,12(a1)
300097c4:	3000f537          	lui	a0,0x3000f
300097c8:	1f052503          	lw	a0,496(a0) # 3000f1f0 <blt>
300097cc:	00161613          	slli	a2,a2,0x1
300097d0:	0065df03          	lhu	t5,6(a1)
300097d4:	00131313          	slli	t1,t1,0x1
300097d8:	001f7f13          	andi	t5,t5,1
300097dc:	031808b3          	mul	a7,a6,a7
300097e0:	00c686b3          	add	a3,a3,a2
300097e4:	00de06b3          	add	a3,t3,a3
300097e8:	00d52e23          	sw	a3,28(a0)
300097ec:	02552023          	sw	t0,32(a0)
300097f0:	02e52223          	sw	a4,36(a0)
300097f4:	02f52423          	sw	a5,40(a0)
300097f8:	00688333          	add	t1,a7,t1
300097fc:	006e8333          	add	t1,t4,t1
30009800:	02652e23          	sw	t1,60(a0)
30009804:	05f52023          	sw	t6,64(a0)
30009808:	080f0c63          	beqz	t5,300098a0 <_Z19gfBlitBitmapSrcRectP10_tgfBitmapS0_ssssss+0x144>
3000980c:	0085d683          	lhu	a3,8(a1)
30009810:	04e52223          	sw	a4,68(a0)
30009814:	04f52423          	sw	a5,72(a0)
30009818:	00d52623          	sw	a3,12(a0)
3000981c:	20100793          	li	a5,513
30009820:	00f52423          	sw	a5,8(a0)
30009824:	00852783          	lw	a5,8(a0)
30009828:	0017f793          	andi	a5,a5,1
3000982c:	fe078ce3          	beqz	a5,30009824 <_Z19gfBlitBitmapSrcRectP10_tgfBitmapS0_ssssss+0xc8>
30009830:	00000513          	li	a0,0
30009834:	00008067          	ret
30009838:	01081813          	slli	a6,a6,0x10
3000983c:	01085813          	srli	a6,a6,0x10
30009840:	41060633          	sub	a2,a2,a6
30009844:	00e80833          	add	a6,a6,a4
30009848:	01081713          	slli	a4,a6,0x10
3000984c:	01061613          	slli	a2,a2,0x10
30009850:	41065613          	srai	a2,a2,0x10
30009854:	41075713          	srai	a4,a4,0x10
30009858:	00000313          	li	t1,0
3000985c:	00000813          	li	a6,0
30009860:	f008d8e3          	bgez	a7,30009770 <_Z19gfBlitBitmapSrcRectP10_tgfBitmapS0_ssssss+0x14>
30009864:	01089893          	slli	a7,a7,0x10
30009868:	0108d893          	srli	a7,a7,0x10
3000986c:	00055e03          	lhu	t3,0(a0)
30009870:	411686b3          	sub	a3,a3,a7
30009874:	00f887b3          	add	a5,a7,a5
30009878:	01069693          	slli	a3,a3,0x10
3000987c:	01079793          	slli	a5,a5,0x10
30009880:	00670eb3          	add	t4,a4,t1
30009884:	4106d693          	srai	a3,a3,0x10
30009888:	4107d793          	srai	a5,a5,0x10
3000988c:	00000893          	li	a7,0
30009890:	efcecce3          	blt	t4,t3,30009788 <_Z19gfBlitBitmapSrcRectP10_tgfBitmapS0_ssssss+0x2c>
30009894:	ee9ff06f          	j	3000977c <_Z19gfBlitBitmapSrcRectP10_tgfBitmapS0_ssssss+0x20>
30009898:	00100513          	li	a0,1
3000989c:	00008067          	ret
300098a0:	04e52223          	sw	a4,68(a0)
300098a4:	04f52423          	sw	a5,72(a0)
300098a8:	20000793          	li	a5,512
300098ac:	00f52423          	sw	a5,8(a0)
300098b0:	00852783          	lw	a5,8(a0)
300098b4:	0017f793          	andi	a5,a5,1
300098b8:	fe078ce3          	beqz	a5,300098b0 <_Z19gfBlitBitmapSrcRectP10_tgfBitmapS0_ssssss+0x154>
300098bc:	00000513          	li	a0,0
300098c0:	00008067          	ret

300098c4 <_Z13gfBlitBitmapAP10_tgfBitmapS0_ssh>:
300098c4:	16050063          	beqz	a0,30009a24 <_Z13gfBlitBitmapAP10_tgfBitmapS0_ssh+0x160>
300098c8:	14058e63          	beqz	a1,30009a24 <_Z13gfBlitBitmapAP10_tgfBitmapS0_ssh+0x160>
300098cc:	0005d803          	lhu	a6,0(a1)
300098d0:	0045d883          	lhu	a7,4(a1)
300098d4:	0e064e63          	bltz	a2,300099d0 <_Z13gfBlitBitmapAP10_tgfBitmapS0_ssh+0x10c>
300098d8:	01081813          	slli	a6,a6,0x10
300098dc:	41085813          	srai	a6,a6,0x10
300098e0:	00060793          	mv	a5,a2
300098e4:	00000e13          	li	t3,0
300098e8:	1006ca63          	bltz	a3,300099fc <_Z13gfBlitBitmapAP10_tgfBitmapS0_ssh+0x138>
300098ec:	01089893          	slli	a7,a7,0x10
300098f0:	4108d893          	srai	a7,a7,0x10
300098f4:	00000f13          	li	t5,0
300098f8:	00055303          	lhu	t1,0(a0)
300098fc:	00f80eb3          	add	t4,a6,a5
30009900:	006ec863          	blt	t4,t1,30009910 <_Z13gfBlitBitmapAP10_tgfBitmapS0_ssh+0x4c>
30009904:	40c30633          	sub	a2,t1,a2
30009908:	01061813          	slli	a6,a2,0x10
3000990c:	41085813          	srai	a6,a6,0x10
30009910:	0b005c63          	blez	a6,300099c8 <_Z13gfBlitBitmapAP10_tgfBitmapS0_ssh+0x104>
30009914:	00455603          	lhu	a2,4(a0)
30009918:	00d88333          	add	t1,a7,a3
3000991c:	00c34863          	blt	t1,a2,3000992c <_Z13gfBlitBitmapAP10_tgfBitmapS0_ssh+0x68>
30009920:	40d608b3          	sub	a7,a2,a3
30009924:	01089893          	slli	a7,a7,0x10
30009928:	4108d893          	srai	a7,a7,0x10
3000992c:	09105e63          	blez	a7,300099c8 <_Z13gfBlitBitmapAP10_tgfBitmapS0_ssh+0x104>
30009930:	0025d383          	lhu	t2,2(a1)
30009934:	00255f83          	lhu	t6,2(a0)
30009938:	00179613          	slli	a2,a5,0x1
3000993c:	00139e93          	slli	t4,t2,0x1
30009940:	03ee8eb3          	mul	t4,t4,t5
30009944:	001f9313          	slli	t1,t6,0x1
30009948:	00c5af03          	lw	t5,12(a1)
3000994c:	3000f7b7          	lui	a5,0x3000f
30009950:	1f07a783          	lw	a5,496(a5) # 3000f1f0 <blt>
30009954:	001e1e13          	slli	t3,t3,0x1
30009958:	0065d283          	lhu	t0,6(a1)
3000995c:	00c52503          	lw	a0,12(a0)
30009960:	40375713          	srai	a4,a4,0x3
30009964:	0012f293          	andi	t0,t0,1
30009968:	02d30333          	mul	t1,t1,a3
3000996c:	01ce8eb3          	add	t4,t4,t3
30009970:	01df0eb3          	add	t4,t5,t4
30009974:	01d7ae23          	sw	t4,28(a5)
30009978:	0277a023          	sw	t2,32(a5)
3000997c:	0307a223          	sw	a6,36(a5)
30009980:	0317a423          	sw	a7,40(a5)
30009984:	00c30633          	add	a2,t1,a2
30009988:	00c50633          	add	a2,a0,a2
3000998c:	02c7a623          	sw	a2,44(a5)
30009990:	03f7a823          	sw	t6,48(a5)
30009994:	02c7ae23          	sw	a2,60(a5)
30009998:	05f7a023          	sw	t6,64(a5)
3000999c:	0507a223          	sw	a6,68(a5)
300099a0:	08028663          	beqz	t0,30009a2c <_Z13gfBlitBitmapAP10_tgfBitmapS0_ssh+0x168>
300099a4:	0085d683          	lhu	a3,8(a1)
300099a8:	0517a423          	sw	a7,72(a5)
300099ac:	00e7a623          	sw	a4,12(a5)
300099b0:	00d7a823          	sw	a3,16(a5)
300099b4:	30100713          	li	a4,769
300099b8:	00e7a423          	sw	a4,8(a5)
300099bc:	0087a703          	lw	a4,8(a5)
300099c0:	00177713          	andi	a4,a4,1
300099c4:	fe070ce3          	beqz	a4,300099bc <_Z13gfBlitBitmapAP10_tgfBitmapS0_ssh+0xf8>
300099c8:	00000513          	li	a0,0
300099cc:	00008067          	ret
300099d0:	01061613          	slli	a2,a2,0x10
300099d4:	01065613          	srli	a2,a2,0x10
300099d8:	40c00e33          	neg	t3,a2
300099dc:	00c80833          	add	a6,a6,a2
300099e0:	010e1e13          	slli	t3,t3,0x10
300099e4:	01081813          	slli	a6,a6,0x10
300099e8:	410e5e13          	srai	t3,t3,0x10
300099ec:	41085813          	srai	a6,a6,0x10
300099f0:	00000793          	li	a5,0
300099f4:	00000613          	li	a2,0
300099f8:	ee06dae3          	bgez	a3,300098ec <_Z13gfBlitBitmapAP10_tgfBitmapS0_ssh+0x28>
300099fc:	01069313          	slli	t1,a3,0x10
30009a00:	01035313          	srli	t1,t1,0x10
30009a04:	40600eb3          	neg	t4,t1
30009a08:	006888b3          	add	a7,a7,t1
30009a0c:	010e9f13          	slli	t5,t4,0x10
30009a10:	01089893          	slli	a7,a7,0x10
30009a14:	410f5f13          	srai	t5,t5,0x10
30009a18:	4108d893          	srai	a7,a7,0x10
30009a1c:	00000693          	li	a3,0
30009a20:	ed9ff06f          	j	300098f8 <_Z13gfBlitBitmapAP10_tgfBitmapS0_ssh+0x34>
30009a24:	00100513          	li	a0,1
30009a28:	00008067          	ret
30009a2c:	0517a423          	sw	a7,72(a5)
30009a30:	00e7a623          	sw	a4,12(a5)
30009a34:	30000713          	li	a4,768
30009a38:	00e7a423          	sw	a4,8(a5)
30009a3c:	0087a703          	lw	a4,8(a5)
30009a40:	00177713          	andi	a4,a4,1
30009a44:	fe070ce3          	beqz	a4,30009a3c <_Z13gfBlitBitmapAP10_tgfBitmapS0_ssh+0x178>
30009a48:	00000513          	li	a0,0
30009a4c:	00008067          	ret

30009a50 <_Z17gfBlitBitmapA2SrcP10_tgfBitmapS0_S0_ssh>:
30009a50:	18050e63          	beqz	a0,30009bec <_Z17gfBlitBitmapA2SrcP10_tgfBitmapS0_S0_ssh+0x19c>
30009a54:	18058c63          	beqz	a1,30009bec <_Z17gfBlitBitmapA2SrcP10_tgfBitmapS0_S0_ssh+0x19c>
30009a58:	18060a63          	beqz	a2,30009bec <_Z17gfBlitBitmapA2SrcP10_tgfBitmapS0_S0_ssh+0x19c>
30009a5c:	0005d803          	lhu	a6,0(a1)
30009a60:	0045d883          	lhu	a7,4(a1)
30009a64:	1206ca63          	bltz	a3,30009b98 <_Z17gfBlitBitmapA2SrcP10_tgfBitmapS0_S0_ssh+0x148>
30009a68:	01081813          	slli	a6,a6,0x10
30009a6c:	41085813          	srai	a6,a6,0x10
30009a70:	00068313          	mv	t1,a3
30009a74:	00000f93          	li	t6,0
30009a78:	14074663          	bltz	a4,30009bc4 <_Z17gfBlitBitmapA2SrcP10_tgfBitmapS0_S0_ssh+0x174>
30009a7c:	01089893          	slli	a7,a7,0x10
30009a80:	4108d893          	srai	a7,a7,0x10
30009a84:	00000293          	li	t0,0
30009a88:	00055e03          	lhu	t3,0(a0)
30009a8c:	00680eb3          	add	t4,a6,t1
30009a90:	01cec863          	blt	t4,t3,30009aa0 <_Z17gfBlitBitmapA2SrcP10_tgfBitmapS0_S0_ssh+0x50>
30009a94:	40de06b3          	sub	a3,t3,a3
30009a98:	01069813          	slli	a6,a3,0x10
30009a9c:	41085813          	srai	a6,a6,0x10
30009aa0:	19005463          	blez	a6,30009c28 <_Z17gfBlitBitmapA2SrcP10_tgfBitmapS0_S0_ssh+0x1d8>
30009aa4:	00455683          	lhu	a3,4(a0)
30009aa8:	00e88e33          	add	t3,a7,a4
30009aac:	00de4863          	blt	t3,a3,30009abc <_Z17gfBlitBitmapA2SrcP10_tgfBitmapS0_S0_ssh+0x6c>
30009ab0:	40e688b3          	sub	a7,a3,a4
30009ab4:	01089893          	slli	a7,a7,0x10
30009ab8:	4108d893          	srai	a7,a7,0x10
30009abc:	17105663          	blez	a7,30009c28 <_Z17gfBlitBitmapA2SrcP10_tgfBitmapS0_S0_ssh+0x1d8>
30009ac0:	ff010113          	addi	sp,sp,-16
30009ac4:	00912423          	sw	s1,8(sp)
30009ac8:	0025d483          	lhu	s1,2(a1)
30009acc:	00812623          	sw	s0,12(sp)
30009ad0:	00265403          	lhu	s0,2(a2)
30009ad4:	00149f13          	slli	t5,s1,0x1
30009ad8:	025f0f33          	mul	t5,t5,t0
30009adc:	00255383          	lhu	t2,2(a0)
30009ae0:	00141e93          	slli	t4,s0,0x1
30009ae4:	0065d683          	lhu	a3,6(a1)
30009ae8:	00139e13          	slli	t3,t2,0x1
30009aec:	01212223          	sw	s2,4(sp)
30009af0:	00c62903          	lw	s2,12(a2)
30009af4:	001f9613          	slli	a2,t6,0x1
30009af8:	0016ff93          	andi	t6,a3,1
30009afc:	3000f6b7          	lui	a3,0x3000f
30009b00:	025e8eb3          	mul	t4,t4,t0
30009b04:	00c5a283          	lw	t0,12(a1)
30009b08:	1f06a683          	lw	a3,496(a3) # 3000f1f0 <blt>
30009b0c:	00cf0f33          	add	t5,t5,a2
30009b10:	01e28f33          	add	t5,t0,t5
30009b14:	00c52503          	lw	a0,12(a0)
30009b18:	01e6ae23          	sw	t5,28(a3)
30009b1c:	0296a023          	sw	s1,32(a3)
30009b20:	0306a223          	sw	a6,36(a3)
30009b24:	0316a423          	sw	a7,40(a3)
30009b28:	02ee0e33          	mul	t3,t3,a4
30009b2c:	00ce8eb3          	add	t4,t4,a2
30009b30:	00131313          	slli	t1,t1,0x1
30009b34:	01d90eb3          	add	t4,s2,t4
30009b38:	03d6a623          	sw	t4,44(a3)
30009b3c:	0286a823          	sw	s0,48(a3)
30009b40:	4037d793          	srai	a5,a5,0x3
30009b44:	006e0333          	add	t1,t3,t1
30009b48:	00650333          	add	t1,a0,t1
30009b4c:	0266ae23          	sw	t1,60(a3)
30009b50:	0476a023          	sw	t2,64(a3)
30009b54:	0506a223          	sw	a6,68(a3)
30009b58:	080f8e63          	beqz	t6,30009bf4 <_Z17gfBlitBitmapA2SrcP10_tgfBitmapS0_S0_ssh+0x1a4>
30009b5c:	0085d703          	lhu	a4,8(a1)
30009b60:	0516a423          	sw	a7,72(a3)
30009b64:	00f6a623          	sw	a5,12(a3)
30009b68:	00e6a823          	sw	a4,16(a3)
30009b6c:	30100793          	li	a5,769
30009b70:	00f6a423          	sw	a5,8(a3)
30009b74:	0086a783          	lw	a5,8(a3)
30009b78:	0017f793          	andi	a5,a5,1
30009b7c:	fe078ce3          	beqz	a5,30009b74 <_Z17gfBlitBitmapA2SrcP10_tgfBitmapS0_S0_ssh+0x124>
30009b80:	00c12403          	lw	s0,12(sp)
30009b84:	00812483          	lw	s1,8(sp)
30009b88:	00412903          	lw	s2,4(sp)
30009b8c:	00000513          	li	a0,0
30009b90:	01010113          	addi	sp,sp,16
30009b94:	00008067          	ret
30009b98:	01069693          	slli	a3,a3,0x10
30009b9c:	0106d693          	srli	a3,a3,0x10
30009ba0:	40d00fb3          	neg	t6,a3
30009ba4:	00d80833          	add	a6,a6,a3
30009ba8:	010f9f93          	slli	t6,t6,0x10
30009bac:	01081813          	slli	a6,a6,0x10
30009bb0:	410fdf93          	srai	t6,t6,0x10
30009bb4:	41085813          	srai	a6,a6,0x10
30009bb8:	00000313          	li	t1,0
30009bbc:	00000693          	li	a3,0
30009bc0:	ea075ee3          	bgez	a4,30009a7c <_Z17gfBlitBitmapA2SrcP10_tgfBitmapS0_S0_ssh+0x2c>
30009bc4:	01071e13          	slli	t3,a4,0x10
30009bc8:	010e5e13          	srli	t3,t3,0x10
30009bcc:	41c00eb3          	neg	t4,t3
30009bd0:	01c888b3          	add	a7,a7,t3
30009bd4:	010e9293          	slli	t0,t4,0x10
30009bd8:	01089893          	slli	a7,a7,0x10
30009bdc:	4102d293          	srai	t0,t0,0x10
30009be0:	4108d893          	srai	a7,a7,0x10
30009be4:	00000713          	li	a4,0
30009be8:	ea1ff06f          	j	30009a88 <_Z17gfBlitBitmapA2SrcP10_tgfBitmapS0_S0_ssh+0x38>
30009bec:	00100513          	li	a0,1
30009bf0:	00008067          	ret
30009bf4:	0516a423          	sw	a7,72(a3)
30009bf8:	00f6a623          	sw	a5,12(a3)
30009bfc:	30000793          	li	a5,768
30009c00:	00f6a423          	sw	a5,8(a3)
30009c04:	0086a783          	lw	a5,8(a3)
30009c08:	0017f793          	andi	a5,a5,1
30009c0c:	fe078ce3          	beqz	a5,30009c04 <_Z17gfBlitBitmapA2SrcP10_tgfBitmapS0_S0_ssh+0x1b4>
30009c10:	00c12403          	lw	s0,12(sp)
30009c14:	00812483          	lw	s1,8(sp)
30009c18:	00412903          	lw	s2,4(sp)
30009c1c:	00000513          	li	a0,0
30009c20:	01010113          	addi	sp,sp,16
30009c24:	00008067          	ret
30009c28:	00000513          	li	a0,0
30009c2c:	00008067          	ret

30009c30 <_Z18gfBlitScaledBitmapP10_tgfBitmapS0_ssss>:
30009c30:	16050663          	beqz	a0,30009d9c <_Z18gfBlitScaledBitmapP10_tgfBitmapS0_ssss+0x16c>
30009c34:	16058463          	beqz	a1,30009d9c <_Z18gfBlitScaledBitmapP10_tgfBitmapS0_ssss+0x16c>
30009c38:	0005d283          	lhu	t0,0(a1)
30009c3c:	0045df83          	lhu	t6,4(a1)
30009c40:	00060e13          	mv	t3,a2
30009c44:	01029f13          	slli	t5,t0,0x10
30009c48:	010f9e93          	slli	t4,t6,0x10
30009c4c:	02ef5f33          	divu	t5,t5,a4
30009c50:	00000893          	li	a7,0
30009c54:	02fedeb3          	divu	t4,t4,a5
30009c58:	0e064c63          	bltz	a2,30009d50 <_Z18gfBlitScaledBitmapP10_tgfBitmapS0_ssss+0x120>
30009c5c:	00000813          	li	a6,0
30009c60:	1006ca63          	bltz	a3,30009d74 <_Z18gfBlitScaledBitmapP10_tgfBitmapS0_ssss+0x144>
30009c64:	00055303          	lhu	t1,0(a0)
30009c68:	01c703b3          	add	t2,a4,t3
30009c6c:	0063c863          	blt	t2,t1,30009c7c <_Z18gfBlitScaledBitmapP10_tgfBitmapS0_ssss+0x4c>
30009c70:	40c30733          	sub	a4,t1,a2
30009c74:	01071713          	slli	a4,a4,0x10
30009c78:	41075713          	srai	a4,a4,0x10
30009c7c:	12e05a63          	blez	a4,30009db0 <_Z18gfBlitScaledBitmapP10_tgfBitmapS0_ssss+0x180>
30009c80:	00455603          	lhu	a2,4(a0)
30009c84:	00d78333          	add	t1,a5,a3
30009c88:	00c34863          	blt	t1,a2,30009c98 <_Z18gfBlitScaledBitmapP10_tgfBitmapS0_ssss+0x68>
30009c8c:	40d607b3          	sub	a5,a2,a3
30009c90:	01079793          	slli	a5,a5,0x10
30009c94:	4107d793          	srai	a5,a5,0x10
30009c98:	10f05c63          	blez	a5,30009db0 <_Z18gfBlitScaledBitmapP10_tgfBitmapS0_ssss+0x180>
30009c9c:	ff010113          	addi	sp,sp,-16
30009ca0:	00912423          	sw	s1,8(sp)
30009ca4:	0025d483          	lhu	s1,2(a1)
30009ca8:	00812623          	sw	s0,12(sp)
30009cac:	01085813          	srli	a6,a6,0x10
30009cb0:	00255403          	lhu	s0,2(a0)
30009cb4:	00149613          	slli	a2,s1,0x1
30009cb8:	00c5a383          	lw	t2,12(a1)
30009cbc:	00141313          	slli	t1,s0,0x1
30009cc0:	00f8d893          	srli	a7,a7,0xf
30009cc4:	011388b3          	add	a7,t2,a7
30009cc8:	00c52383          	lw	t2,12(a0)
30009ccc:	001e1513          	slli	a0,t3,0x1
30009cd0:	0085de03          	lhu	t3,8(a1)
30009cd4:	02c80833          	mul	a6,a6,a2
30009cd8:	3000f637          	lui	a2,0x3000f
30009cdc:	1f062603          	lw	a2,496(a2) # 3000f1f0 <blt>
30009ce0:	0065d583          	lhu	a1,6(a1)
30009ce4:	0015f593          	andi	a1,a1,1
30009ce8:	02d306b3          	mul	a3,t1,a3
30009cec:	01180833          	add	a6,a6,a7
30009cf0:	01062e23          	sw	a6,28(a2)
30009cf4:	02962023          	sw	s1,32(a2)
30009cf8:	02562223          	sw	t0,36(a2)
30009cfc:	03f62423          	sw	t6,40(a2)
30009d00:	00a686b3          	add	a3,a3,a0
30009d04:	00d386b3          	add	a3,t2,a3
30009d08:	02d62e23          	sw	a3,60(a2)
30009d0c:	04862023          	sw	s0,64(a2)
30009d10:	04e62223          	sw	a4,68(a2)
30009d14:	04f62423          	sw	a5,72(a2)
30009d18:	01e62623          	sw	t5,12(a2)
30009d1c:	01d62823          	sw	t4,16(a2)
30009d20:	01c62a23          	sw	t3,20(a2)
30009d24:	08059063          	bnez	a1,30009da4 <_Z18gfBlitScaledBitmapP10_tgfBitmapS0_ssss+0x174>
30009d28:	40000793          	li	a5,1024
30009d2c:	00f62423          	sw	a5,8(a2)
30009d30:	00862783          	lw	a5,8(a2)
30009d34:	0017f793          	andi	a5,a5,1
30009d38:	fe078ce3          	beqz	a5,30009d30 <_Z18gfBlitScaledBitmapP10_tgfBitmapS0_ssss+0x100>
30009d3c:	00c12403          	lw	s0,12(sp)
30009d40:	00812483          	lw	s1,8(sp)
30009d44:	00000513          	li	a0,0
30009d48:	01010113          	addi	sp,sp,16
30009d4c:	00008067          	ret
30009d50:	40c008b3          	neg	a7,a2
30009d54:	41170733          	sub	a4,a4,a7
30009d58:	01071713          	slli	a4,a4,0x10
30009d5c:	41075713          	srai	a4,a4,0x10
30009d60:	00000e13          	li	t3,0
30009d64:	00000613          	li	a2,0
30009d68:	031f08b3          	mul	a7,t5,a7
30009d6c:	00000813          	li	a6,0
30009d70:	ee06dae3          	bgez	a3,30009c64 <_Z18gfBlitScaledBitmapP10_tgfBitmapS0_ssss+0x34>
30009d74:	40d00833          	neg	a6,a3
30009d78:	00055303          	lhu	t1,0(a0)
30009d7c:	410787b3          	sub	a5,a5,a6
30009d80:	01079793          	slli	a5,a5,0x10
30009d84:	01c703b3          	add	t2,a4,t3
30009d88:	4107d793          	srai	a5,a5,0x10
30009d8c:	00000693          	li	a3,0
30009d90:	030e8833          	mul	a6,t4,a6
30009d94:	ee63c4e3          	blt	t2,t1,30009c7c <_Z18gfBlitScaledBitmapP10_tgfBitmapS0_ssss+0x4c>
30009d98:	ed9ff06f          	j	30009c70 <_Z18gfBlitScaledBitmapP10_tgfBitmapS0_ssss+0x40>
30009d9c:	00100513          	li	a0,1
30009da0:	00008067          	ret
30009da4:	40100793          	li	a5,1025
30009da8:	00f62423          	sw	a5,8(a2)
30009dac:	f85ff06f          	j	30009d30 <_Z18gfBlitScaledBitmapP10_tgfBitmapS0_ssss+0x100>
30009db0:	00000513          	li	a0,0
30009db4:	00008067          	ret

30009db8 <_Z6gfPlotP10_tgfBitmapsst>:
30009db8:	00050793          	mv	a5,a0
30009dbc:	00100513          	li	a0,1
30009dc0:	04078063          	beqz	a5,30009e00 <_Z6gfPlotP10_tgfBitmapsst+0x48>
30009dc4:	0205ce63          	bltz	a1,30009e00 <_Z6gfPlotP10_tgfBitmapsst+0x48>
30009dc8:	02064c63          	bltz	a2,30009e00 <_Z6gfPlotP10_tgfBitmapsst+0x48>
30009dcc:	0007d703          	lhu	a4,0(a5)
30009dd0:	02e5d863          	bge	a1,a4,30009e00 <_Z6gfPlotP10_tgfBitmapsst+0x48>
30009dd4:	0047d703          	lhu	a4,4(a5)
30009dd8:	02e65463          	bge	a2,a4,30009e00 <_Z6gfPlotP10_tgfBitmapsst+0x48>
30009ddc:	0027d703          	lhu	a4,2(a5)
30009de0:	00c7a783          	lw	a5,12(a5)
30009de4:	00000513          	li	a0,0
30009de8:	02c70633          	mul	a2,a4,a2
30009dec:	00b60633          	add	a2,a2,a1
30009df0:	00161613          	slli	a2,a2,0x1
30009df4:	00c78633          	add	a2,a5,a2
30009df8:	00d61023          	sh	a3,0(a2)
30009dfc:	00008067          	ret
30009e00:	00008067          	ret

30009e04 <_Z10gfGetPixelP10_tgfBitmapss>:
30009e04:	00050793          	mv	a5,a0
30009e08:	00000513          	li	a0,0
30009e0c:	02078e63          	beqz	a5,30009e48 <_Z10gfGetPixelP10_tgfBitmapss+0x44>
30009e10:	0205cc63          	bltz	a1,30009e48 <_Z10gfGetPixelP10_tgfBitmapss+0x44>
30009e14:	02064a63          	bltz	a2,30009e48 <_Z10gfGetPixelP10_tgfBitmapss+0x44>
30009e18:	0007d703          	lhu	a4,0(a5)
30009e1c:	02e5d663          	bge	a1,a4,30009e48 <_Z10gfGetPixelP10_tgfBitmapss+0x44>
30009e20:	0047d703          	lhu	a4,4(a5)
30009e24:	02e65263          	bge	a2,a4,30009e48 <_Z10gfGetPixelP10_tgfBitmapss+0x44>
30009e28:	0027d703          	lhu	a4,2(a5)
30009e2c:	00c7a783          	lw	a5,12(a5)
30009e30:	02c70633          	mul	a2,a4,a2
30009e34:	00b60633          	add	a2,a2,a1
30009e38:	00161613          	slli	a2,a2,0x1
30009e3c:	00c78633          	add	a2,a5,a2
30009e40:	00065503          	lhu	a0,0(a2)
30009e44:	00008067          	ret
30009e48:	00008067          	ret

30009e4c <_Z7gfPlotAP10_tgfBitmapssth>:
30009e4c:	00050793          	mv	a5,a0
30009e50:	00100513          	li	a0,1
30009e54:	0a078e63          	beqz	a5,30009f10 <_Z7gfPlotAP10_tgfBitmapssth+0xc4>
30009e58:	0a05cc63          	bltz	a1,30009f10 <_Z7gfPlotAP10_tgfBitmapssth+0xc4>
30009e5c:	0a064a63          	bltz	a2,30009f10 <_Z7gfPlotAP10_tgfBitmapssth+0xc4>
30009e60:	0007d803          	lhu	a6,0(a5)
30009e64:	0b05d663          	bge	a1,a6,30009f10 <_Z7gfPlotAP10_tgfBitmapssth+0xc4>
30009e68:	0047d803          	lhu	a6,4(a5)
30009e6c:	0b065263          	bge	a2,a6,30009f10 <_Z7gfPlotAP10_tgfBitmapssth+0xc4>
30009e70:	0027d503          	lhu	a0,2(a5)
30009e74:	00c7a303          	lw	t1,12(a5)
30009e78:	4036d813          	srai	a6,a3,0x3
30009e7c:	02c50633          	mul	a2,a0,a2
30009e80:	00369793          	slli	a5,a3,0x3
30009e84:	0fc87813          	andi	a6,a6,252
30009e88:	4086d693          	srai	a3,a3,0x8
30009e8c:	0f86f893          	andi	a7,a3,248
30009e90:	0ff00e13          	li	t3,255
30009e94:	40ee0e33          	sub	t3,t3,a4
30009e98:	0ff7f793          	andi	a5,a5,255
30009e9c:	00000513          	li	a0,0
30009ea0:	00b60633          	add	a2,a2,a1
30009ea4:	00161593          	slli	a1,a2,0x1
30009ea8:	00b305b3          	add	a1,t1,a1
30009eac:	0005d603          	lhu	a2,0(a1)
30009eb0:	02e806b3          	mul	a3,a6,a4
30009eb4:	00361313          	slli	t1,a2,0x3
30009eb8:	40365813          	srai	a6,a2,0x3
30009ebc:	0fc87813          	andi	a6,a6,252
30009ec0:	0ff37313          	andi	t1,t1,255
30009ec4:	40865613          	srai	a2,a2,0x8
30009ec8:	0f867613          	andi	a2,a2,248
30009ecc:	03c80833          	mul	a6,a6,t3
30009ed0:	03c30333          	mul	t1,t1,t3
30009ed4:	010686b3          	add	a3,a3,a6
30009ed8:	0056d693          	srli	a3,a3,0x5
30009edc:	7e06f693          	andi	a3,a3,2016
30009ee0:	02e787b3          	mul	a5,a5,a4
30009ee4:	03c60633          	mul	a2,a2,t3
30009ee8:	006787b3          	add	a5,a5,t1
30009eec:	00b7d793          	srli	a5,a5,0xb
30009ef0:	01f7f793          	andi	a5,a5,31
30009ef4:	00d7e7b3          	or	a5,a5,a3
30009ef8:	02e888b3          	mul	a7,a7,a4
30009efc:	00c88633          	add	a2,a7,a2
30009f00:	80067613          	andi	a2,a2,-2048
30009f04:	00c7e7b3          	or	a5,a5,a2
30009f08:	00f59023          	sh	a5,0(a1)
30009f0c:	00008067          	ret
30009f10:	00008067          	ret

30009f14 <_Z9gfPlotA2CP10_tgfBitmapsstth>:
30009f14:	00100e13          	li	t3,1
30009f18:	0a050a63          	beqz	a0,30009fcc <_Z9gfPlotA2CP10_tgfBitmapsstth+0xb8>
30009f1c:	0a05c863          	bltz	a1,30009fcc <_Z9gfPlotA2CP10_tgfBitmapsstth+0xb8>
30009f20:	0a064663          	bltz	a2,30009fcc <_Z9gfPlotA2CP10_tgfBitmapsstth+0xb8>
30009f24:	00055803          	lhu	a6,0(a0)
30009f28:	0b05d263          	bge	a1,a6,30009fcc <_Z9gfPlotA2CP10_tgfBitmapsstth+0xb8>
30009f2c:	00455803          	lhu	a6,4(a0)
30009f30:	09065e63          	bge	a2,a6,30009fcc <_Z9gfPlotA2CP10_tgfBitmapsstth+0xb8>
30009f34:	40375293          	srai	t0,a4,0x3
30009f38:	00371f13          	slli	t5,a4,0x3
30009f3c:	4036d313          	srai	t1,a3,0x3
30009f40:	00369813          	slli	a6,a3,0x3
30009f44:	0ff00893          	li	a7,255
30009f48:	40f88fb3          	sub	t6,a7,a5
30009f4c:	00255e83          	lhu	t4,2(a0)
30009f50:	40875713          	srai	a4,a4,0x8
30009f54:	0fc2f293          	andi	t0,t0,252
30009f58:	0fff7f13          	andi	t5,t5,255
30009f5c:	0fc37313          	andi	t1,t1,252
30009f60:	0ff87813          	andi	a6,a6,255
30009f64:	0f877893          	andi	a7,a4,248
30009f68:	03f282b3          	mul	t0,t0,t6
30009f6c:	4086d693          	srai	a3,a3,0x8
30009f70:	0f86f693          	andi	a3,a3,248
30009f74:	00c52503          	lw	a0,12(a0)
30009f78:	00000e13          	li	t3,0
30009f7c:	03ff0f33          	mul	t5,t5,t6
30009f80:	02f30333          	mul	t1,t1,a5
30009f84:	02f80733          	mul	a4,a6,a5
30009f88:	00530333          	add	t1,t1,t0
30009f8c:	00535313          	srli	t1,t1,0x5
30009f90:	7e037313          	andi	t1,t1,2016
30009f94:	03f888b3          	mul	a7,a7,t6
30009f98:	01e70733          	add	a4,a4,t5
30009f9c:	00b75713          	srli	a4,a4,0xb
30009fa0:	01f77713          	andi	a4,a4,31
30009fa4:	00676733          	or	a4,a4,t1
30009fa8:	02f686b3          	mul	a3,a3,a5
30009fac:	02ce8633          	mul	a2,t4,a2
30009fb0:	011686b3          	add	a3,a3,a7
30009fb4:	8006f693          	andi	a3,a3,-2048
30009fb8:	00d766b3          	or	a3,a4,a3
30009fbc:	00b60633          	add	a2,a2,a1
30009fc0:	00161613          	slli	a2,a2,0x1
30009fc4:	00c50633          	add	a2,a0,a2
30009fc8:	00d61023          	sh	a3,0(a2)
30009fcc:	000e0513          	mv	a0,t3
30009fd0:	00008067          	ret

30009fd4 <_Z6gfLineP10_tgfBitmapsssst>:
30009fd4:	40b68fb3          	sub	t6,a3,a1
30009fd8:	41ffd813          	srai	a6,t6,0x1f
30009fdc:	01f84fb3          	xor	t6,a6,t6
30009fe0:	410f8fb3          	sub	t6,t6,a6
30009fe4:	010f9e93          	slli	t4,t6,0x10
30009fe8:	410ede93          	srai	t4,t4,0x10
30009fec:	00100293          	li	t0,1
30009ff0:	00d5c663          	blt	a1,a3,30009ffc <_Z6gfLineP10_tgfBitmapsssst+0x28>
30009ff4:	000102b7          	lui	t0,0x10
30009ff8:	fff28293          	addi	t0,t0,-1 # ffff <stackPointer+0x92bf>
30009ffc:	40c70833          	sub	a6,a4,a2
3000a000:	41f85893          	srai	a7,a6,0x1f
3000a004:	0108cf33          	xor	t5,a7,a6
3000a008:	411f0f33          	sub	t5,t5,a7
3000a00c:	010f1f13          	slli	t5,t5,0x10
3000a010:	010f5f13          	srli	t5,t5,0x10
3000a014:	41e00e33          	neg	t3,t5
3000a018:	010e1e13          	slli	t3,t3,0x10
3000a01c:	410e5e13          	srai	t3,t3,0x10
3000a020:	00100393          	li	t2,1
3000a024:	00e64663          	blt	a2,a4,3000a030 <_Z6gfLineP10_tgfBitmapsssst+0x5c>
3000a028:	000103b7          	lui	t2,0x10
3000a02c:	fff38393          	addi	t2,t2,-1 # ffff <stackPointer+0x92bf>
3000a030:	010f9f93          	slli	t6,t6,0x10
3000a034:	010fdf93          	srli	t6,t6,0x10
3000a038:	41ef8833          	sub	a6,t6,t5
3000a03c:	01081313          	slli	t1,a6,0x10
3000a040:	41035313          	srai	t1,t1,0x10
3000a044:	0a050063          	beqz	a0,3000a0e4 <_Z6gfLineP10_tgfBitmapsssst+0x110>
3000a048:	0205ca63          	bltz	a1,3000a07c <_Z6gfLineP10_tgfBitmapsssst+0xa8>
3000a04c:	02064863          	bltz	a2,3000a07c <_Z6gfLineP10_tgfBitmapsssst+0xa8>
3000a050:	00055803          	lhu	a6,0(a0)
3000a054:	0305d463          	bge	a1,a6,3000a07c <_Z6gfLineP10_tgfBitmapsssst+0xa8>
3000a058:	00455803          	lhu	a6,4(a0)
3000a05c:	03065063          	bge	a2,a6,3000a07c <_Z6gfLineP10_tgfBitmapsssst+0xa8>
3000a060:	00255803          	lhu	a6,2(a0)
3000a064:	00c52883          	lw	a7,12(a0)
3000a068:	02c80833          	mul	a6,a6,a2
3000a06c:	00b80833          	add	a6,a6,a1
3000a070:	00181813          	slli	a6,a6,0x1
3000a074:	01088833          	add	a6,a7,a6
3000a078:	00f81023          	sh	a5,0(a6)
3000a07c:	04d58e63          	beq	a1,a3,3000a0d8 <_Z6gfLineP10_tgfBitmapsssst+0x104>
3000a080:	01031813          	slli	a6,t1,0x10
3000a084:	01085813          	srli	a6,a6,0x10
3000a088:	00181893          	slli	a7,a6,0x1
3000a08c:	01089893          	slli	a7,a7,0x10
3000a090:	4108d893          	srai	a7,a7,0x10
3000a094:	03c8c263          	blt	a7,t3,3000a0b8 <_Z6gfLineP10_tgfBitmapsssst+0xe4>
3000a098:	41e80833          	sub	a6,a6,t5
3000a09c:	01081813          	slli	a6,a6,0x10
3000a0a0:	01085813          	srli	a6,a6,0x10
3000a0a4:	00b285b3          	add	a1,t0,a1
3000a0a8:	01081313          	slli	t1,a6,0x10
3000a0ac:	01059593          	slli	a1,a1,0x10
3000a0b0:	41035313          	srai	t1,t1,0x10
3000a0b4:	4105d593          	srai	a1,a1,0x10
3000a0b8:	f91ec8e3          	blt	t4,a7,3000a048 <_Z6gfLineP10_tgfBitmapsssst+0x74>
3000a0bc:	010f8833          	add	a6,t6,a6
3000a0c0:	00c38633          	add	a2,t2,a2
3000a0c4:	01081313          	slli	t1,a6,0x10
3000a0c8:	01061613          	slli	a2,a2,0x10
3000a0cc:	41035313          	srai	t1,t1,0x10
3000a0d0:	41065613          	srai	a2,a2,0x10
3000a0d4:	f75ff06f          	j	3000a048 <_Z6gfLineP10_tgfBitmapsssst+0x74>
3000a0d8:	fae614e3          	bne	a2,a4,3000a080 <_Z6gfLineP10_tgfBitmapsssst+0xac>
3000a0dc:	00000513          	li	a0,0
3000a0e0:	00008067          	ret
3000a0e4:	ff010113          	addi	sp,sp,-16
3000a0e8:	00812623          	sw	s0,12(sp)
3000a0ec:	01031793          	slli	a5,t1,0x10
3000a0f0:	0107d793          	srli	a5,a5,0x10
3000a0f4:	00179513          	slli	a0,a5,0x1
3000a0f8:	01051513          	slli	a0,a0,0x10
3000a0fc:	41e78433          	sub	s0,a5,t5
3000a100:	41055513          	srai	a0,a0,0x10
3000a104:	00b288b3          	add	a7,t0,a1
3000a108:	00c38833          	add	a6,t2,a2
3000a10c:	02d58e63          	beq	a1,a3,3000a148 <_Z6gfLineP10_tgfBitmapsssst+0x174>
3000a110:	01c54e63          	blt	a0,t3,3000a12c <_Z6gfLineP10_tgfBitmapsssst+0x158>
3000a114:	01041793          	slli	a5,s0,0x10
3000a118:	0107d793          	srli	a5,a5,0x10
3000a11c:	01079313          	slli	t1,a5,0x10
3000a120:	01089593          	slli	a1,a7,0x10
3000a124:	41035313          	srai	t1,t1,0x10
3000a128:	4105d593          	srai	a1,a1,0x10
3000a12c:	00ff87b3          	add	a5,t6,a5
3000a130:	faaecee3          	blt	t4,a0,3000a0ec <_Z6gfLineP10_tgfBitmapsssst+0x118>
3000a134:	01079313          	slli	t1,a5,0x10
3000a138:	01081613          	slli	a2,a6,0x10
3000a13c:	41035313          	srai	t1,t1,0x10
3000a140:	41065613          	srai	a2,a2,0x10
3000a144:	fa9ff06f          	j	3000a0ec <_Z6gfLineP10_tgfBitmapsssst+0x118>
3000a148:	fce614e3          	bne	a2,a4,3000a110 <_Z6gfLineP10_tgfBitmapsssst+0x13c>
3000a14c:	00c12403          	lw	s0,12(sp)
3000a150:	00000513          	li	a0,0
3000a154:	01010113          	addi	sp,sp,16
3000a158:	00008067          	ret

3000a15c <_Z8gfCircleP10_tgfBitmapssst>:
3000a15c:	00100313          	li	t1,1
3000a160:	40d30333          	sub	t1,t1,a3
3000a164:	40d008b3          	neg	a7,a3
3000a168:	00131693          	slli	a3,t1,0x1
3000a16c:	01089893          	slli	a7,a7,0x10
3000a170:	01069313          	slli	t1,a3,0x10
3000a174:	01059593          	slli	a1,a1,0x10
3000a178:	01061613          	slli	a2,a2,0x10
3000a17c:	4108d893          	srai	a7,a7,0x10
3000a180:	41035313          	srai	t1,t1,0x10
3000a184:	0105d593          	srli	a1,a1,0x10
3000a188:	01065613          	srli	a2,a2,0x10
3000a18c:	00000e13          	li	t3,0
3000a190:	01089793          	slli	a5,a7,0x10
3000a194:	0107d793          	srli	a5,a5,0x10
3000a198:	40f586b3          	sub	a3,a1,a5
3000a19c:	01069693          	slli	a3,a3,0x10
3000a1a0:	010e1813          	slli	a6,t3,0x10
3000a1a4:	4106d693          	srai	a3,a3,0x10
3000a1a8:	01085813          	srli	a6,a6,0x10
3000a1ac:	12050463          	beqz	a0,3000a2d4 <_Z8gfCircleP10_tgfBitmapssst+0x178>
3000a1b0:	0406c063          	bltz	a3,3000a1f0 <_Z8gfCircleP10_tgfBitmapssst+0x94>
3000a1b4:	00c80eb3          	add	t4,a6,a2
3000a1b8:	010e9e93          	slli	t4,t4,0x10
3000a1bc:	410ede93          	srai	t4,t4,0x10
3000a1c0:	020ec863          	bltz	t4,3000a1f0 <_Z8gfCircleP10_tgfBitmapssst+0x94>
3000a1c4:	00055f03          	lhu	t5,0(a0)
3000a1c8:	03e6d463          	bge	a3,t5,3000a1f0 <_Z8gfCircleP10_tgfBitmapssst+0x94>
3000a1cc:	00455f03          	lhu	t5,4(a0)
3000a1d0:	03eed063          	bge	t4,t5,3000a1f0 <_Z8gfCircleP10_tgfBitmapssst+0x94>
3000a1d4:	00255f03          	lhu	t5,2(a0)
3000a1d8:	00c52f83          	lw	t6,12(a0)
3000a1dc:	03df0eb3          	mul	t4,t5,t4
3000a1e0:	00de86b3          	add	a3,t4,a3
3000a1e4:	00169693          	slli	a3,a3,0x1
3000a1e8:	00df86b3          	add	a3,t6,a3
3000a1ec:	00e69023          	sh	a4,0(a3)
3000a1f0:	410586b3          	sub	a3,a1,a6
3000a1f4:	01069693          	slli	a3,a3,0x10
3000a1f8:	4106d693          	srai	a3,a3,0x10
3000a1fc:	0406c063          	bltz	a3,3000a23c <_Z8gfCircleP10_tgfBitmapssst+0xe0>
3000a200:	40f60eb3          	sub	t4,a2,a5
3000a204:	010e9e93          	slli	t4,t4,0x10
3000a208:	410ede93          	srai	t4,t4,0x10
3000a20c:	020ec863          	bltz	t4,3000a23c <_Z8gfCircleP10_tgfBitmapssst+0xe0>
3000a210:	00055f03          	lhu	t5,0(a0)
3000a214:	03e6d463          	bge	a3,t5,3000a23c <_Z8gfCircleP10_tgfBitmapssst+0xe0>
3000a218:	00455f03          	lhu	t5,4(a0)
3000a21c:	03eed063          	bge	t4,t5,3000a23c <_Z8gfCircleP10_tgfBitmapssst+0xe0>
3000a220:	00255f03          	lhu	t5,2(a0)
3000a224:	00c52f83          	lw	t6,12(a0)
3000a228:	03df0eb3          	mul	t4,t5,t4
3000a22c:	00de86b3          	add	a3,t4,a3
3000a230:	00169693          	slli	a3,a3,0x1
3000a234:	00df86b3          	add	a3,t6,a3
3000a238:	00e69023          	sh	a4,0(a3)
3000a23c:	00b786b3          	add	a3,a5,a1
3000a240:	01069693          	slli	a3,a3,0x10
3000a244:	4106d693          	srai	a3,a3,0x10
3000a248:	0406c063          	bltz	a3,3000a288 <_Z8gfCircleP10_tgfBitmapssst+0x12c>
3000a24c:	41060eb3          	sub	t4,a2,a6
3000a250:	010e9e93          	slli	t4,t4,0x10
3000a254:	410ede93          	srai	t4,t4,0x10
3000a258:	020ec863          	bltz	t4,3000a288 <_Z8gfCircleP10_tgfBitmapssst+0x12c>
3000a25c:	00055f03          	lhu	t5,0(a0)
3000a260:	03e6d463          	bge	a3,t5,3000a288 <_Z8gfCircleP10_tgfBitmapssst+0x12c>
3000a264:	00455f03          	lhu	t5,4(a0)
3000a268:	03eed063          	bge	t4,t5,3000a288 <_Z8gfCircleP10_tgfBitmapssst+0x12c>
3000a26c:	00255f03          	lhu	t5,2(a0)
3000a270:	00c52f83          	lw	t6,12(a0)
3000a274:	03df0eb3          	mul	t4,t5,t4
3000a278:	00de86b3          	add	a3,t4,a3
3000a27c:	00169693          	slli	a3,a3,0x1
3000a280:	00df86b3          	add	a3,t6,a3
3000a284:	00e69023          	sh	a4,0(a3)
3000a288:	00b806b3          	add	a3,a6,a1
3000a28c:	01069693          	slli	a3,a3,0x10
3000a290:	4106d693          	srai	a3,a3,0x10
3000a294:	0406c063          	bltz	a3,3000a2d4 <_Z8gfCircleP10_tgfBitmapssst+0x178>
3000a298:	00c78eb3          	add	t4,a5,a2
3000a29c:	010e9e93          	slli	t4,t4,0x10
3000a2a0:	410ede93          	srai	t4,t4,0x10
3000a2a4:	020ec863          	bltz	t4,3000a2d4 <_Z8gfCircleP10_tgfBitmapssst+0x178>
3000a2a8:	00055f03          	lhu	t5,0(a0)
3000a2ac:	03e6d463          	bge	a3,t5,3000a2d4 <_Z8gfCircleP10_tgfBitmapssst+0x178>
3000a2b0:	00455f03          	lhu	t5,4(a0)
3000a2b4:	03eed063          	bge	t4,t5,3000a2d4 <_Z8gfCircleP10_tgfBitmapssst+0x178>
3000a2b8:	00255f03          	lhu	t5,2(a0)
3000a2bc:	00c52f83          	lw	t6,12(a0)
3000a2c0:	03df0eb3          	mul	t4,t5,t4
3000a2c4:	00de86b3          	add	a3,t4,a3
3000a2c8:	00169693          	slli	a3,a3,0x1
3000a2cc:	00df86b3          	add	a3,t6,a3
3000a2d0:	00e69023          	sh	a4,0(a3)
3000a2d4:	01031693          	slli	a3,t1,0x10
3000a2d8:	0106d693          	srli	a3,a3,0x10
3000a2dc:	046e4263          	blt	t3,t1,3000a320 <_Z8gfCircleP10_tgfBitmapssst+0x1c4>
3000a2e0:	00180813          	addi	a6,a6,1
3000a2e4:	01081e13          	slli	t3,a6,0x10
3000a2e8:	410e5e13          	srai	t3,t3,0x10
3000a2ec:	001e1813          	slli	a6,t3,0x1
3000a2f0:	00180813          	addi	a6,a6,1
3000a2f4:	010686b3          	add	a3,a3,a6
3000a2f8:	01069693          	slli	a3,a3,0x10
3000a2fc:	0106d693          	srli	a3,a3,0x10
3000a300:	01069813          	slli	a6,a3,0x10
3000a304:	41085813          	srai	a6,a6,0x10
3000a308:	0068cc63          	blt	a7,t1,3000a320 <_Z8gfCircleP10_tgfBitmapssst+0x1c4>
3000a30c:	00080313          	mv	t1,a6
3000a310:	010e4863          	blt	t3,a6,3000a320 <_Z8gfCircleP10_tgfBitmapssst+0x1c4>
3000a314:	e608cee3          	bltz	a7,3000a190 <_Z8gfCircleP10_tgfBitmapssst+0x34>
3000a318:	00000513          	li	a0,0
3000a31c:	00008067          	ret
3000a320:	00178793          	addi	a5,a5,1
3000a324:	01079893          	slli	a7,a5,0x10
3000a328:	4108d893          	srai	a7,a7,0x10
3000a32c:	00189793          	slli	a5,a7,0x1
3000a330:	00178793          	addi	a5,a5,1
3000a334:	00f686b3          	add	a3,a3,a5
3000a338:	01069313          	slli	t1,a3,0x10
3000a33c:	41035313          	srai	t1,t1,0x10
3000a340:	e408c8e3          	bltz	a7,3000a190 <_Z8gfCircleP10_tgfBitmapssst+0x34>
3000a344:	fd5ff06f          	j	3000a318 <_Z8gfCircleP10_tgfBitmapssst+0x1bc>

3000a348 <_Z9gfEllipseP10_tgfBitmapsssst>:
3000a348:	40c702b3          	sub	t0,a4,a2
3000a34c:	41f2d893          	srai	a7,t0,0x1f
3000a350:	40b683b3          	sub	t2,a3,a1
3000a354:	41f3d813          	srai	a6,t2,0x1f
3000a358:	0058ce33          	xor	t3,a7,t0
3000a35c:	411e0e33          	sub	t3,t3,a7
3000a360:	00784333          	xor	t1,a6,t2
3000a364:	41030333          	sub	t1,t1,a6
3000a368:	00100e93          	li	t4,1
3000a36c:	001e7813          	andi	a6,t3,1
3000a370:	406e8eb3          	sub	t4,t4,t1
3000a374:	00180f13          	addi	t5,a6,1
3000a378:	026f0f33          	mul	t5,t5,t1
3000a37c:	03ce8eb3          	mul	t4,t4,t3
3000a380:	406f08b3          	sub	a7,t5,t1
3000a384:	03ce8eb3          	mul	t4,t4,t3
3000a388:	026f0f33          	mul	t5,t5,t1
3000a38c:	002e9e93          	slli	t4,t4,0x2
3000a390:	026888b3          	mul	a7,a7,t1
3000a394:	002f1f13          	slli	t5,t5,0x2
3000a398:	01ee8fb3          	add	t6,t4,t5
3000a39c:	01f888b3          	add	a7,a7,t6
3000a3a0:	00b6da63          	bge	a3,a1,3000a3b4 <_Z9gfEllipseP10_tgfBitmapsssst+0x6c>
3000a3a4:	00d30333          	add	t1,t1,a3
3000a3a8:	00068593          	mv	a1,a3
3000a3ac:	01031693          	slli	a3,t1,0x10
3000a3b0:	4106d693          	srai	a3,a3,0x10
3000a3b4:	001e0313          	addi	t1,t3,1
3000a3b8:	40135313          	srai	t1,t1,0x1
3000a3bc:	00070f93          	mv	t6,a4
3000a3c0:	00e65463          	bge	a2,a4,3000a3c8 <_Z9gfEllipseP10_tgfBitmapsssst+0x80>
3000a3c4:	00060f93          	mv	t6,a2
3000a3c8:	027383b3          	mul	t2,t2,t2
3000a3cc:	01f30333          	add	t1,t1,t6
3000a3d0:	01031313          	slli	t1,t1,0x10
3000a3d4:	01035313          	srli	t1,t1,0x10
3000a3d8:	41030833          	sub	a6,t1,a6
3000a3dc:	01081813          	slli	a6,a6,0x10
3000a3e0:	01031313          	slli	t1,t1,0x10
3000a3e4:	41035313          	srai	t1,t1,0x10
3000a3e8:	41085813          	srai	a6,a6,0x10
3000a3ec:	025282b3          	mul	t0,t0,t0
3000a3f0:	00339393          	slli	t2,t2,0x3
3000a3f4:	00329293          	slli	t0,t0,0x3
3000a3f8:	0c050463          	beqz	a0,3000a4c0 <_Z9gfEllipseP10_tgfBitmapsssst+0x178>
3000a3fc:	2c06c863          	bltz	a3,3000a6cc <_Z9gfEllipseP10_tgfBitmapsssst+0x384>
3000a400:	2e034263          	bltz	t1,3000a6e4 <_Z9gfEllipseP10_tgfBitmapsssst+0x39c>
3000a404:	00055703          	lhu	a4,0(a0)
3000a408:	02e6d463          	bge	a3,a4,3000a430 <_Z9gfEllipseP10_tgfBitmapsssst+0xe8>
3000a40c:	00455703          	lhu	a4,4(a0)
3000a410:	02e35063          	bge	t1,a4,3000a430 <_Z9gfEllipseP10_tgfBitmapsssst+0xe8>
3000a414:	00255703          	lhu	a4,2(a0)
3000a418:	00c52603          	lw	a2,12(a0)
3000a41c:	02670733          	mul	a4,a4,t1
3000a420:	00d70733          	add	a4,a4,a3
3000a424:	00171713          	slli	a4,a4,0x1
3000a428:	00e60733          	add	a4,a2,a4
3000a42c:	00f71023          	sh	a5,0(a4)
3000a430:	2a05cc63          	bltz	a1,3000a6e8 <_Z9gfEllipseP10_tgfBitmapsssst+0x3a0>
3000a434:	00055703          	lhu	a4,0(a0)
3000a438:	2ae5d263          	bge	a1,a4,3000a6dc <_Z9gfEllipseP10_tgfBitmapsssst+0x394>
3000a43c:	00455703          	lhu	a4,4(a0)
3000a440:	2ae35863          	bge	t1,a4,3000a6f0 <_Z9gfEllipseP10_tgfBitmapsssst+0x3a8>
3000a444:	00255703          	lhu	a4,2(a0)
3000a448:	00c52603          	lw	a2,12(a0)
3000a44c:	02670733          	mul	a4,a4,t1
3000a450:	00b70733          	add	a4,a4,a1
3000a454:	00171713          	slli	a4,a4,0x1
3000a458:	00e60733          	add	a4,a2,a4
3000a45c:	00f71023          	sh	a5,0(a4)
3000a460:	06084063          	bltz	a6,3000a4c0 <_Z9gfEllipseP10_tgfBitmapsssst+0x178>
3000a464:	00055703          	lhu	a4,0(a0)
3000a468:	02e5d463          	bge	a1,a4,3000a490 <_Z9gfEllipseP10_tgfBitmapsssst+0x148>
3000a46c:	00455703          	lhu	a4,4(a0)
3000a470:	02e85063          	bge	a6,a4,3000a490 <_Z9gfEllipseP10_tgfBitmapsssst+0x148>
3000a474:	00255703          	lhu	a4,2(a0)
3000a478:	00c52603          	lw	a2,12(a0)
3000a47c:	03070733          	mul	a4,a4,a6
3000a480:	00b70733          	add	a4,a4,a1
3000a484:	00171713          	slli	a4,a4,0x1
3000a488:	00e60733          	add	a4,a2,a4
3000a48c:	00f71023          	sh	a5,0(a4)
3000a490:	0206c863          	bltz	a3,3000a4c0 <_Z9gfEllipseP10_tgfBitmapsssst+0x178>
3000a494:	00055703          	lhu	a4,0(a0)
3000a498:	02e6d463          	bge	a3,a4,3000a4c0 <_Z9gfEllipseP10_tgfBitmapsssst+0x178>
3000a49c:	00455703          	lhu	a4,4(a0)
3000a4a0:	02e85063          	bge	a6,a4,3000a4c0 <_Z9gfEllipseP10_tgfBitmapsssst+0x178>
3000a4a4:	00255703          	lhu	a4,2(a0)
3000a4a8:	00c52603          	lw	a2,12(a0)
3000a4ac:	03070733          	mul	a4,a4,a6
3000a4b0:	00d70733          	add	a4,a4,a3
3000a4b4:	00171713          	slli	a4,a4,0x1
3000a4b8:	00e60733          	add	a4,a2,a4
3000a4bc:	00f71023          	sh	a5,0(a4)
3000a4c0:	01059613          	slli	a2,a1,0x10
3000a4c4:	01069713          	slli	a4,a3,0x10
3000a4c8:	00189f93          	slli	t6,a7,0x1
3000a4cc:	01065613          	srli	a2,a2,0x10
3000a4d0:	01075713          	srli	a4,a4,0x10
3000a4d4:	1dff4063          	blt	t5,t6,3000a694 <_Z9gfEllipseP10_tgfBitmapsssst+0x34c>
3000a4d8:	00130313          	addi	t1,t1,1
3000a4dc:	fff80813          	addi	a6,a6,-1
3000a4e0:	007f0f33          	add	t5,t5,t2
3000a4e4:	01031313          	slli	t1,t1,0x10
3000a4e8:	01081813          	slli	a6,a6,0x10
3000a4ec:	41035313          	srai	t1,t1,0x10
3000a4f0:	41085813          	srai	a6,a6,0x10
3000a4f4:	01e888b3          	add	a7,a7,t5
3000a4f8:	19dfde63          	bge	t6,t4,3000a694 <_Z9gfEllipseP10_tgfBitmapsssst+0x34c>
3000a4fc:	00189f93          	slli	t6,a7,0x1
3000a500:	19ff4a63          	blt	t5,t6,3000a694 <_Z9gfEllipseP10_tgfBitmapsssst+0x34c>
3000a504:	eeb6dae3          	bge	a3,a1,3000a3f8 <_Z9gfEllipseP10_tgfBitmapsssst+0xb0>
3000a508:	fff60613          	addi	a2,a2,-1
3000a50c:	00170713          	addi	a4,a4,1
3000a510:	01061613          	slli	a2,a2,0x10
3000a514:	01071693          	slli	a3,a4,0x10
3000a518:	410305b3          	sub	a1,t1,a6
3000a51c:	41065613          	srai	a2,a2,0x10
3000a520:	4106d693          	srai	a3,a3,0x10
3000a524:	1dc5da63          	bge	a1,t3,3000a6f8 <_Z9gfEllipseP10_tgfBitmapsssst+0x3b0>
3000a528:	01031293          	slli	t0,t1,0x10
3000a52c:	01081f13          	slli	t5,a6,0x10
3000a530:	ff010113          	addi	sp,sp,-16
3000a534:	0102d293          	srli	t0,t0,0x10
3000a538:	010f5f13          	srli	t5,t5,0x10
3000a53c:	00812623          	sw	s0,12(sp)
3000a540:	00080e93          	mv	t4,a6
3000a544:	005f0fb3          	add	t6,t5,t0
3000a548:	010e9713          	slli	a4,t4,0x10
3000a54c:	01075713          	srli	a4,a4,0x10
3000a550:	fff70593          	addi	a1,a4,-1
3000a554:	01059593          	slli	a1,a1,0x10
3000a558:	0105d593          	srli	a1,a1,0x10
3000a55c:	40bf88b3          	sub	a7,t6,a1
3000a560:	01089893          	slli	a7,a7,0x10
3000a564:	01059593          	slli	a1,a1,0x10
3000a568:	4105d593          	srai	a1,a1,0x10
3000a56c:	4108d893          	srai	a7,a7,0x10
3000a570:	0e050263          	beqz	a0,3000a654 <_Z9gfEllipseP10_tgfBitmapsssst+0x30c>
3000a574:	10064263          	bltz	a2,3000a678 <_Z9gfEllipseP10_tgfBitmapsssst+0x330>
3000a578:	40e28733          	sub	a4,t0,a4
3000a57c:	00ef03b3          	add	t2,t5,a4
3000a580:	01039413          	slli	s0,t2,0x10
3000a584:	02044863          	bltz	s0,3000a5b4 <_Z9gfEllipseP10_tgfBitmapsssst+0x26c>
3000a588:	00055383          	lhu	t2,0(a0)
3000a58c:	02765463          	bge	a2,t2,3000a5b4 <_Z9gfEllipseP10_tgfBitmapsssst+0x26c>
3000a590:	00455383          	lhu	t2,4(a0)
3000a594:	02735063          	bge	t1,t2,3000a5b4 <_Z9gfEllipseP10_tgfBitmapsssst+0x26c>
3000a598:	00255383          	lhu	t2,2(a0)
3000a59c:	00c52403          	lw	s0,12(a0)
3000a5a0:	026383b3          	mul	t2,t2,t1
3000a5a4:	00c383b3          	add	t2,t2,a2
3000a5a8:	00139393          	slli	t2,t2,0x1
3000a5ac:	007403b3          	add	t2,s0,t2
3000a5b0:	00f39023          	sh	a5,0(t2)
3000a5b4:	0406c063          	bltz	a3,3000a5f4 <_Z9gfEllipseP10_tgfBitmapsssst+0x2ac>
3000a5b8:	00ef0733          	add	a4,t5,a4
3000a5bc:	01071393          	slli	t2,a4,0x10
3000a5c0:	0203ca63          	bltz	t2,3000a5f4 <_Z9gfEllipseP10_tgfBitmapsssst+0x2ac>
3000a5c4:	00055703          	lhu	a4,0(a0)
3000a5c8:	02e6d463          	bge	a3,a4,3000a5f0 <_Z9gfEllipseP10_tgfBitmapsssst+0x2a8>
3000a5cc:	00455703          	lhu	a4,4(a0)
3000a5d0:	02e35063          	bge	t1,a4,3000a5f0 <_Z9gfEllipseP10_tgfBitmapsssst+0x2a8>
3000a5d4:	00255703          	lhu	a4,2(a0)
3000a5d8:	00c52383          	lw	t2,12(a0)
3000a5dc:	02670333          	mul	t1,a4,t1
3000a5e0:	00d30333          	add	t1,t1,a3
3000a5e4:	00131313          	slli	t1,t1,0x1
3000a5e8:	00638333          	add	t1,t2,t1
3000a5ec:	00f31023          	sh	a5,0(t1)
3000a5f0:	08064e63          	bltz	a2,3000a68c <_Z9gfEllipseP10_tgfBitmapsssst+0x344>
3000a5f4:	060ec063          	bltz	t4,3000a654 <_Z9gfEllipseP10_tgfBitmapsssst+0x30c>
3000a5f8:	00055703          	lhu	a4,0(a0)
3000a5fc:	02e65463          	bge	a2,a4,3000a624 <_Z9gfEllipseP10_tgfBitmapsssst+0x2dc>
3000a600:	00455703          	lhu	a4,4(a0)
3000a604:	02e85063          	bge	a6,a4,3000a624 <_Z9gfEllipseP10_tgfBitmapsssst+0x2dc>
3000a608:	00255703          	lhu	a4,2(a0)
3000a60c:	00c52303          	lw	t1,12(a0)
3000a610:	03070733          	mul	a4,a4,a6
3000a614:	00c70733          	add	a4,a4,a2
3000a618:	00171713          	slli	a4,a4,0x1
3000a61c:	00e30733          	add	a4,t1,a4
3000a620:	00f71023          	sh	a5,0(a4)
3000a624:	0206c863          	bltz	a3,3000a654 <_Z9gfEllipseP10_tgfBitmapsssst+0x30c>
3000a628:	00055703          	lhu	a4,0(a0)
3000a62c:	02e6d463          	bge	a3,a4,3000a654 <_Z9gfEllipseP10_tgfBitmapsssst+0x30c>
3000a630:	00455703          	lhu	a4,4(a0)
3000a634:	02e85063          	bge	a6,a4,3000a654 <_Z9gfEllipseP10_tgfBitmapsssst+0x30c>
3000a638:	00255703          	lhu	a4,2(a0)
3000a63c:	00c52303          	lw	t1,12(a0)
3000a640:	03070833          	mul	a6,a4,a6
3000a644:	00d80833          	add	a6,a6,a3
3000a648:	00181813          	slli	a6,a6,0x1
3000a64c:	01030833          	add	a6,t1,a6
3000a650:	00f81023          	sh	a5,0(a6)
3000a654:	40b88733          	sub	a4,a7,a1
3000a658:	00058813          	mv	a6,a1
3000a65c:	00088313          	mv	t1,a7
3000a660:	00058e93          	mv	t4,a1
3000a664:	efc742e3          	blt	a4,t3,3000a548 <_Z9gfEllipseP10_tgfBitmapsssst+0x200>
3000a668:	00c12403          	lw	s0,12(sp)
3000a66c:	00000513          	li	a0,0
3000a670:	01010113          	addi	sp,sp,16
3000a674:	00008067          	ret
3000a678:	fc06cee3          	bltz	a3,3000a654 <_Z9gfEllipseP10_tgfBitmapsssst+0x30c>
3000a67c:	40e28733          	sub	a4,t0,a4
3000a680:	00ef0733          	add	a4,t5,a4
3000a684:	01071393          	slli	t2,a4,0x10
3000a688:	f203dee3          	bgez	t2,3000a5c4 <_Z9gfEllipseP10_tgfBitmapsssst+0x27c>
3000a68c:	f80edee3          	bgez	t4,3000a628 <_Z9gfEllipseP10_tgfBitmapsssst+0x2e0>
3000a690:	fc5ff06f          	j	3000a654 <_Z9gfEllipseP10_tgfBitmapsssst+0x30c>
3000a694:	00160613          	addi	a2,a2,1
3000a698:	fff70713          	addi	a4,a4,-1
3000a69c:	01061613          	slli	a2,a2,0x10
3000a6a0:	01071713          	slli	a4,a4,0x10
3000a6a4:	01065613          	srli	a2,a2,0x10
3000a6a8:	01075713          	srli	a4,a4,0x10
3000a6ac:	01061593          	slli	a1,a2,0x10
3000a6b0:	01071693          	slli	a3,a4,0x10
3000a6b4:	005e8eb3          	add	t4,t4,t0
3000a6b8:	4105d593          	srai	a1,a1,0x10
3000a6bc:	4106d693          	srai	a3,a3,0x10
3000a6c0:	01d888b3          	add	a7,a7,t4
3000a6c4:	d2b6dae3          	bge	a3,a1,3000a3f8 <_Z9gfEllipseP10_tgfBitmapsssst+0xb0>
3000a6c8:	e41ff06f          	j	3000a508 <_Z9gfEllipseP10_tgfBitmapsssst+0x1c0>
3000a6cc:	de05cae3          	bltz	a1,3000a4c0 <_Z9gfEllipseP10_tgfBitmapsssst+0x178>
3000a6d0:	d80348e3          	bltz	t1,3000a460 <_Z9gfEllipseP10_tgfBitmapsssst+0x118>
3000a6d4:	00055703          	lhu	a4,0(a0)
3000a6d8:	d6e5c2e3          	blt	a1,a4,3000a43c <_Z9gfEllipseP10_tgfBitmapsssst+0xf4>
3000a6dc:	da085ae3          	bgez	a6,3000a490 <_Z9gfEllipseP10_tgfBitmapsssst+0x148>
3000a6e0:	de1ff06f          	j	3000a4c0 <_Z9gfEllipseP10_tgfBitmapsssst+0x178>
3000a6e4:	d605dee3          	bgez	a1,3000a460 <_Z9gfEllipseP10_tgfBitmapsssst+0x118>
3000a6e8:	da0856e3          	bgez	a6,3000a494 <_Z9gfEllipseP10_tgfBitmapsssst+0x14c>
3000a6ec:	dd5ff06f          	j	3000a4c0 <_Z9gfEllipseP10_tgfBitmapsssst+0x178>
3000a6f0:	d80850e3          	bgez	a6,3000a470 <_Z9gfEllipseP10_tgfBitmapsssst+0x128>
3000a6f4:	dcdff06f          	j	3000a4c0 <_Z9gfEllipseP10_tgfBitmapsssst+0x178>
3000a6f8:	00000513          	li	a0,0
3000a6fc:	00008067          	ret

3000a700 <_Z10gfFillRectP10_tgfBitmapsssst>:
3000a700:	18050663          	beqz	a0,3000a88c <_Z10gfFillRectP10_tgfBitmapsssst+0x18c>
3000a704:	fff5ce93          	not	t4,a1
3000a708:	fff64e13          	not	t3,a2
3000a70c:	fff6c893          	not	a7,a3
3000a710:	fff74313          	not	t1,a4
3000a714:	41fede93          	srai	t4,t4,0x1f
3000a718:	41f8d893          	srai	a7,a7,0x1f
3000a71c:	41f35313          	srai	t1,t1,0x1f
3000a720:	01d5f5b3          	and	a1,a1,t4
3000a724:	41fe5e13          	srai	t3,t3,0x1f
3000a728:	00055803          	lhu	a6,0(a0)
3000a72c:	01c67633          	and	a2,a2,t3
3000a730:	0116f6b3          	and	a3,a3,a7
3000a734:	00677733          	and	a4,a4,t1
3000a738:	01059593          	slli	a1,a1,0x10
3000a73c:	01061613          	slli	a2,a2,0x10
3000a740:	01069893          	slli	a7,a3,0x10
3000a744:	01071313          	slli	t1,a4,0x10
3000a748:	4105d593          	srai	a1,a1,0x10
3000a74c:	41065613          	srai	a2,a2,0x10
3000a750:	4108d893          	srai	a7,a7,0x10
3000a754:	41035313          	srai	t1,t1,0x10
3000a758:	0d05d863          	bge	a1,a6,3000a828 <_Z10gfFillRectP10_tgfBitmapsssst+0x128>
3000a75c:	00455703          	lhu	a4,4(a0)
3000a760:	01059e93          	slli	t4,a1,0x10
3000a764:	010ede93          	srli	t4,t4,0x10
3000a768:	0ce65e63          	bge	a2,a4,3000a844 <_Z10gfFillRectP10_tgfBitmapsssst+0x144>
3000a76c:	01061e13          	slli	t3,a2,0x10
3000a770:	010e5e13          	srli	t3,t3,0x10
3000a774:	0f08d463          	bge	a7,a6,3000a85c <_Z10gfFillRectP10_tgfBitmapsssst+0x15c>
3000a778:	01089813          	slli	a6,a7,0x10
3000a77c:	01085813          	srli	a6,a6,0x10
3000a780:	0ee35a63          	bge	t1,a4,3000a874 <_Z10gfFillRectP10_tgfBitmapsssst+0x174>
3000a784:	01031693          	slli	a3,t1,0x10
3000a788:	0106d693          	srli	a3,a3,0x10
3000a78c:	00c35a63          	bge	t1,a2,3000a7a0 <_Z10gfFillRectP10_tgfBitmapsssst+0xa0>
3000a790:	00068713          	mv	a4,a3
3000a794:	00030613          	mv	a2,t1
3000a798:	000e0693          	mv	a3,t3
3000a79c:	00070e13          	mv	t3,a4
3000a7a0:	00b8da63          	bge	a7,a1,3000a7b4 <_Z10gfFillRectP10_tgfBitmapsssst+0xb4>
3000a7a4:	00080713          	mv	a4,a6
3000a7a8:	00088593          	mv	a1,a7
3000a7ac:	000e8813          	mv	a6,t4
3000a7b0:	00070e93          	mv	t4,a4
3000a7b4:	00255883          	lhu	a7,2(a0)
3000a7b8:	00c52503          	lw	a0,12(a0)
3000a7bc:	00159593          	slli	a1,a1,0x1
3000a7c0:	00189713          	slli	a4,a7,0x1
3000a7c4:	02c70633          	mul	a2,a4,a2
3000a7c8:	3000f737          	lui	a4,0x3000f
3000a7cc:	1f072703          	lw	a4,496(a4) # 3000f1f0 <blt>
3000a7d0:	00180813          	addi	a6,a6,1
3000a7d4:	41d80833          	sub	a6,a6,t4
3000a7d8:	00168693          	addi	a3,a3,1
3000a7dc:	01081813          	slli	a6,a6,0x10
3000a7e0:	41c686b3          	sub	a3,a3,t3
3000a7e4:	41085813          	srai	a6,a6,0x10
3000a7e8:	01069693          	slli	a3,a3,0x10
3000a7ec:	00b605b3          	add	a1,a2,a1
3000a7f0:	00b505b3          	add	a1,a0,a1
3000a7f4:	02b72e23          	sw	a1,60(a4)
3000a7f8:	05172023          	sw	a7,64(a4)
3000a7fc:	05072223          	sw	a6,68(a4)
3000a800:	4106d693          	srai	a3,a3,0x10
3000a804:	04d72423          	sw	a3,72(a4)
3000a808:	00f72623          	sw	a5,12(a4)
3000a80c:	10000793          	li	a5,256
3000a810:	00f72423          	sw	a5,8(a4)
3000a814:	00872783          	lw	a5,8(a4)
3000a818:	0017f793          	andi	a5,a5,1
3000a81c:	fe078ce3          	beqz	a5,3000a814 <_Z10gfFillRectP10_tgfBitmapsssst+0x114>
3000a820:	00000513          	li	a0,0
3000a824:	00008067          	ret
3000a828:	fff80e93          	addi	t4,a6,-1
3000a82c:	010e9e93          	slli	t4,t4,0x10
3000a830:	00455703          	lhu	a4,4(a0)
3000a834:	010ede93          	srli	t4,t4,0x10
3000a838:	010e9593          	slli	a1,t4,0x10
3000a83c:	4105d593          	srai	a1,a1,0x10
3000a840:	f2e646e3          	blt	a2,a4,3000a76c <_Z10gfFillRectP10_tgfBitmapsssst+0x6c>
3000a844:	fff70693          	addi	a3,a4,-1
3000a848:	01069e13          	slli	t3,a3,0x10
3000a84c:	010e5e13          	srli	t3,t3,0x10
3000a850:	010e1613          	slli	a2,t3,0x10
3000a854:	41065613          	srai	a2,a2,0x10
3000a858:	f308c0e3          	blt	a7,a6,3000a778 <_Z10gfFillRectP10_tgfBitmapsssst+0x78>
3000a85c:	fff80813          	addi	a6,a6,-1
3000a860:	01081813          	slli	a6,a6,0x10
3000a864:	01085813          	srli	a6,a6,0x10
3000a868:	01081893          	slli	a7,a6,0x10
3000a86c:	4108d893          	srai	a7,a7,0x10
3000a870:	f0e34ae3          	blt	t1,a4,3000a784 <_Z10gfFillRectP10_tgfBitmapsssst+0x84>
3000a874:	fff70713          	addi	a4,a4,-1
3000a878:	01071693          	slli	a3,a4,0x10
3000a87c:	0106d693          	srli	a3,a3,0x10
3000a880:	01069313          	slli	t1,a3,0x10
3000a884:	41035313          	srai	t1,t1,0x10
3000a888:	f05ff06f          	j	3000a78c <_Z10gfFillRectP10_tgfBitmapsssst+0x8c>
3000a88c:	00100513          	li	a0,1
3000a890:	00008067          	ret

3000a894 <_Z7toPrintP15_tgfTextOverlayPc.part.1>:
3000a894:	0005c683          	lbu	a3,0(a1)
3000a898:	00a00313          	li	t1,10
3000a89c:	00158593          	addi	a1,a1,1
3000a8a0:	06069663          	bnez	a3,3000a90c <_Z7toPrintP15_tgfTextOverlayPc.part.1+0x78>
3000a8a4:	1940006f          	j	3000aa38 <_Z7toPrintP15_tgfTextOverlayPc.part.1+0x1a4>
3000a8a8:	00455703          	lhu	a4,4(a0)
3000a8ac:	00855803          	lhu	a6,8(a0)
3000a8b0:	01452603          	lw	a2,20(a0)
3000a8b4:	02f707b3          	mul	a5,a4,a5
3000a8b8:	010787b3          	add	a5,a5,a6
3000a8bc:	00179793          	slli	a5,a5,0x1
3000a8c0:	00f60733          	add	a4,a2,a5
3000a8c4:	00d70023          	sb	a3,0(a4)
3000a8c8:	01452703          	lw	a4,20(a0)
3000a8cc:	00c54683          	lbu	a3,12(a0)
3000a8d0:	00f707b3          	add	a5,a4,a5
3000a8d4:	00d780a3          	sb	a3,1(a5)
3000a8d8:	00855783          	lhu	a5,8(a0)
3000a8dc:	00455703          	lhu	a4,4(a0)
3000a8e0:	00178793          	addi	a5,a5,1
3000a8e4:	01079793          	slli	a5,a5,0x10
3000a8e8:	0107d793          	srli	a5,a5,0x10
3000a8ec:	00f51423          	sh	a5,8(a0)
3000a8f0:	12e7f663          	bgeu	a5,a4,3000aa1c <_Z7toPrintP15_tgfTextOverlayPc.part.1+0x188>
3000a8f4:	00a55783          	lhu	a5,10(a0)
3000a8f8:	00655683          	lhu	a3,6(a0)
3000a8fc:	02d7fa63          	bgeu	a5,a3,3000a930 <_Z7toPrintP15_tgfTextOverlayPc.part.1+0x9c>
3000a900:	00158593          	addi	a1,a1,1
3000a904:	fff5c683          	lbu	a3,-1(a1)
3000a908:	12068863          	beqz	a3,3000aa38 <_Z7toPrintP15_tgfTextOverlayPc.part.1+0x1a4>
3000a90c:	00a55783          	lhu	a5,10(a0)
3000a910:	f8669ce3          	bne	a3,t1,3000a8a8 <_Z7toPrintP15_tgfTextOverlayPc.part.1+0x14>
3000a914:	00178793          	addi	a5,a5,1
3000a918:	01079793          	slli	a5,a5,0x10
3000a91c:	00655683          	lhu	a3,6(a0)
3000a920:	0107d793          	srli	a5,a5,0x10
3000a924:	00051423          	sh	zero,8(a0)
3000a928:	00f51523          	sh	a5,10(a0)
3000a92c:	fcd7eae3          	bltu	a5,a3,3000a900 <_Z7toPrintP15_tgfTextOverlayPc.part.1+0x6c>
3000a930:	fff68893          	addi	a7,a3,-1
3000a934:	01151523          	sh	a7,10(a0)
3000a938:	fc0684e3          	beqz	a3,3000a900 <_Z7toPrintP15_tgfTextOverlayPc.part.1+0x6c>
3000a93c:	00455783          	lhu	a5,4(a0)
3000a940:	00000613          	li	a2,0
3000a944:	02f60833          	mul	a6,a2,a5
3000a948:	00181713          	slli	a4,a6,0x1
3000a94c:	09165663          	bge	a2,a7,3000a9d8 <_Z7toPrintP15_tgfTextOverlayPc.part.1+0x144>
3000a950:	06078463          	beqz	a5,3000a9b8 <_Z7toPrintP15_tgfTextOverlayPc.part.1+0x124>
3000a954:	010787b3          	add	a5,a5,a6
3000a958:	00179693          	slli	a3,a5,0x1
3000a95c:	00170e93          	addi	t4,a4,1
3000a960:	00000813          	li	a6,0
3000a964:	40d70733          	sub	a4,a4,a3
3000a968:	40de8eb3          	sub	t4,t4,a3
3000a96c:	01452783          	lw	a5,20(a0)
3000a970:	00168893          	addi	a7,a3,1
3000a974:	00de8f33          	add	t5,t4,a3
3000a978:	00d787b3          	add	a5,a5,a3
3000a97c:	0007ce03          	lbu	t3,0(a5)
3000a980:	00e787b3          	add	a5,a5,a4
3000a984:	00180813          	addi	a6,a6,1
3000a988:	01c78023          	sb	t3,0(a5)
3000a98c:	01452e03          	lw	t3,20(a0)
3000a990:	01081813          	slli	a6,a6,0x10
3000a994:	01085813          	srli	a6,a6,0x10
3000a998:	011e07b3          	add	a5,t3,a7
3000a99c:	0007c883          	lbu	a7,0(a5)
3000a9a0:	01ee0e33          	add	t3,t3,t5
3000a9a4:	00268693          	addi	a3,a3,2
3000a9a8:	011e0023          	sb	a7,0(t3)
3000a9ac:	00455783          	lhu	a5,4(a0)
3000a9b0:	faf86ee3          	bltu	a6,a5,3000a96c <_Z7toPrintP15_tgfTextOverlayPc.part.1+0xd8>
3000a9b4:	00655683          	lhu	a3,6(a0)
3000a9b8:	00160613          	addi	a2,a2,1
3000a9bc:	01061613          	slli	a2,a2,0x10
3000a9c0:	01065613          	srli	a2,a2,0x10
3000a9c4:	f2d67ee3          	bgeu	a2,a3,3000a900 <_Z7toPrintP15_tgfTextOverlayPc.part.1+0x6c>
3000a9c8:	02f60833          	mul	a6,a2,a5
3000a9cc:	fff68893          	addi	a7,a3,-1
3000a9d0:	00181713          	slli	a4,a6,0x1
3000a9d4:	f7164ee3          	blt	a2,a7,3000a950 <_Z7toPrintP15_tgfTextOverlayPc.part.1+0xbc>
3000a9d8:	fe0780e3          	beqz	a5,3000a9b8 <_Z7toPrintP15_tgfTextOverlayPc.part.1+0x124>
3000a9dc:	00000693          	li	a3,0
3000a9e0:	01452803          	lw	a6,20(a0)
3000a9e4:	00170893          	addi	a7,a4,1
3000a9e8:	00168693          	addi	a3,a3,1
3000a9ec:	00e80833          	add	a6,a6,a4
3000a9f0:	00080023          	sb	zero,0(a6)
3000a9f4:	01452783          	lw	a5,20(a0)
3000a9f8:	00c54803          	lbu	a6,12(a0)
3000a9fc:	01069693          	slli	a3,a3,0x10
3000aa00:	011787b3          	add	a5,a5,a7
3000aa04:	01078023          	sb	a6,0(a5)
3000aa08:	00455783          	lhu	a5,4(a0)
3000aa0c:	0106d693          	srli	a3,a3,0x10
3000aa10:	00270713          	addi	a4,a4,2
3000aa14:	fcf6e6e3          	bltu	a3,a5,3000a9e0 <_Z7toPrintP15_tgfTextOverlayPc.part.1+0x14c>
3000aa18:	f9dff06f          	j	3000a9b4 <_Z7toPrintP15_tgfTextOverlayPc.part.1+0x120>
3000aa1c:	00a55783          	lhu	a5,10(a0)
3000aa20:	00051423          	sh	zero,8(a0)
3000aa24:	00178793          	addi	a5,a5,1
3000aa28:	01079793          	slli	a5,a5,0x10
3000aa2c:	0107d793          	srli	a5,a5,0x10
3000aa30:	00f51523          	sh	a5,10(a0)
3000aa34:	ec5ff06f          	j	3000a8f8 <_Z7toPrintP15_tgfTextOverlayPc.part.1+0x64>
3000aa38:	00000513          	li	a0,0
3000aa3c:	00008067          	ret

3000aa40 <_Z12gfLoadFontFSP8_tgfFontPc>:
3000aa40:	fc010113          	addi	sp,sp,-64
3000aa44:	02812c23          	sw	s0,56(sp)
3000aa48:	00100613          	li	a2,1
3000aa4c:	00050413          	mv	s0,a0
3000aa50:	00c10513          	addi	a0,sp,12
3000aa54:	02112e23          	sw	ra,60(sp)
3000aa58:	02912a23          	sw	s1,52(sp)
3000aa5c:	03212823          	sw	s2,48(sp)
3000aa60:	d94fe0ef          	jal	ra,30008ff4 <_Z7osFOpenP8_tosFilePcm>
3000aa64:	02050063          	beqz	a0,3000aa84 <_Z12gfLoadFontFSP8_tgfFontPc+0x44>
3000aa68:	03c12083          	lw	ra,60(sp)
3000aa6c:	03812403          	lw	s0,56(sp)
3000aa70:	03412483          	lw	s1,52(sp)
3000aa74:	03012903          	lw	s2,48(sp)
3000aa78:	00000513          	li	a0,0
3000aa7c:	04010113          	addi	sp,sp,64
3000aa80:	00008067          	ret
3000aa84:	00000693          	li	a3,0
3000aa88:	00200613          	li	a2,2
3000aa8c:	00810593          	addi	a1,sp,8
3000aa90:	00c10513          	addi	a0,sp,12
3000aa94:	e20fe0ef          	jal	ra,300090b4 <_Z7osFReadP8_tosFilePhmPm>
3000aa98:	00914783          	lbu	a5,9(sp)
3000aa9c:	00814683          	lbu	a3,8(sp)
3000aaa0:	00400713          	li	a4,4
3000aaa4:	00879793          	slli	a5,a5,0x8
3000aaa8:	00d7e7b3          	or	a5,a5,a3
3000aaac:	01079793          	slli	a5,a5,0x10
3000aab0:	4107d793          	srai	a5,a5,0x10
3000aab4:	10e79663          	bne	a5,a4,3000abc0 <_Z12gfLoadFontFSP8_tgfFontPc+0x180>
3000aab8:	00000693          	li	a3,0
3000aabc:	00200613          	li	a2,2
3000aac0:	00810593          	addi	a1,sp,8
3000aac4:	00f41023          	sh	a5,0(s0)
3000aac8:	00c10513          	addi	a0,sp,12
3000aacc:	de8fe0ef          	jal	ra,300090b4 <_Z7osFReadP8_tosFilePhmPm>
3000aad0:	00914783          	lbu	a5,9(sp)
3000aad4:	00814703          	lbu	a4,8(sp)
3000aad8:	00000693          	li	a3,0
3000aadc:	00879793          	slli	a5,a5,0x8
3000aae0:	00e7e7b3          	or	a5,a5,a4
3000aae4:	00200613          	li	a2,2
3000aae8:	00810593          	addi	a1,sp,8
3000aaec:	00f41123          	sh	a5,2(s0)
3000aaf0:	00c10513          	addi	a0,sp,12
3000aaf4:	dc0fe0ef          	jal	ra,300090b4 <_Z7osFReadP8_tosFilePhmPm>
3000aaf8:	00914783          	lbu	a5,9(sp)
3000aafc:	00814703          	lbu	a4,8(sp)
3000ab00:	00000693          	li	a3,0
3000ab04:	00879793          	slli	a5,a5,0x8
3000ab08:	00e7e7b3          	or	a5,a5,a4
3000ab0c:	00200613          	li	a2,2
3000ab10:	00810593          	addi	a1,sp,8
3000ab14:	00f41223          	sh	a5,4(s0)
3000ab18:	00c10513          	addi	a0,sp,12
3000ab1c:	d98fe0ef          	jal	ra,300090b4 <_Z7osFReadP8_tosFilePhmPm>
3000ab20:	00914783          	lbu	a5,9(sp)
3000ab24:	00814703          	lbu	a4,8(sp)
3000ab28:	00000693          	li	a3,0
3000ab2c:	00879793          	slli	a5,a5,0x8
3000ab30:	00e7e7b3          	or	a5,a5,a4
3000ab34:	00200613          	li	a2,2
3000ab38:	00810593          	addi	a1,sp,8
3000ab3c:	00f41323          	sh	a5,6(s0)
3000ab40:	00c10513          	addi	a0,sp,12
3000ab44:	d70fe0ef          	jal	ra,300090b4 <_Z7osFReadP8_tosFilePhmPm>
3000ab48:	00914783          	lbu	a5,9(sp)
3000ab4c:	00814703          	lbu	a4,8(sp)
3000ab50:	00000693          	li	a3,0
3000ab54:	00879793          	slli	a5,a5,0x8
3000ab58:	00e7e7b3          	or	a5,a5,a4
3000ab5c:	00200613          	li	a2,2
3000ab60:	00810593          	addi	a1,sp,8
3000ab64:	00f41423          	sh	a5,8(s0)
3000ab68:	00c10513          	addi	a0,sp,12
3000ab6c:	d48fe0ef          	jal	ra,300090b4 <_Z7osFReadP8_tosFilePhmPm>
3000ab70:	00914783          	lbu	a5,9(sp)
3000ab74:	00814703          	lbu	a4,8(sp)
3000ab78:	00000693          	li	a3,0
3000ab7c:	00879793          	slli	a5,a5,0x8
3000ab80:	00e7e7b3          	or	a5,a5,a4
3000ab84:	00200613          	li	a2,2
3000ab88:	00810593          	addi	a1,sp,8
3000ab8c:	00f41523          	sh	a5,10(s0)
3000ab90:	00c10513          	addi	a0,sp,12
3000ab94:	d20fe0ef          	jal	ra,300090b4 <_Z7osFReadP8_tosFilePhmPm>
3000ab98:	00815783          	lhu	a5,8(sp)
3000ab9c:	00000693          	li	a3,0
3000aba0:	00400613          	li	a2,4
3000aba4:	00f41623          	sh	a5,12(s0)
3000aba8:	00810593          	addi	a1,sp,8
3000abac:	00c10513          	addi	a0,sp,12
3000abb0:	d04fe0ef          	jal	ra,300090b4 <_Z7osFReadP8_tosFilePhmPm>
3000abb4:	00812703          	lw	a4,8(sp)
3000abb8:	01600793          	li	a5,22
3000abbc:	02f70463          	beq	a4,a5,3000abe4 <_Z12gfLoadFontFSP8_tgfFontPc+0x1a4>
3000abc0:	00c10513          	addi	a0,sp,12
3000abc4:	c88fe0ef          	jal	ra,3000904c <_Z8osFCloseP8_tosFile>
3000abc8:	03c12083          	lw	ra,60(sp)
3000abcc:	03812403          	lw	s0,56(sp)
3000abd0:	03412483          	lw	s1,52(sp)
3000abd4:	03012903          	lw	s2,48(sp)
3000abd8:	00200513          	li	a0,2
3000abdc:	04010113          	addi	sp,sp,64
3000abe0:	00008067          	ret
3000abe4:	00000693          	li	a3,0
3000abe8:	00400613          	li	a2,4
3000abec:	00810593          	addi	a1,sp,8
3000abf0:	00c10513          	addi	a0,sp,12
3000abf4:	cc0fe0ef          	jal	ra,300090b4 <_Z7osFReadP8_tosFilePhmPm>
3000abf8:	00100593          	li	a1,1
3000abfc:	10000513          	li	a0,256
3000ac00:	990fe0ef          	jal	ra,30008d90 <_Z7osAllocmm>
3000ac04:	00a42823          	sw	a0,16(s0)
3000ac08:	00050023          	sb	zero,0(a0)
3000ac0c:	00100793          	li	a5,1
3000ac10:	10000693          	li	a3,256
3000ac14:	01042703          	lw	a4,16(s0)
3000ac18:	00f70733          	add	a4,a4,a5
3000ac1c:	00070023          	sb	zero,0(a4)
3000ac20:	00178793          	addi	a5,a5,1
3000ac24:	fed798e3          	bne	a5,a3,3000ac14 <_Z12gfLoadFontFSP8_tgfFontPc+0x1d4>
3000ac28:	00c44483          	lbu	s1,12(s0)
3000ac2c:	00d44783          	lbu	a5,13(s0)
3000ac30:	0c97e663          	bltu	a5,s1,3000acfc <_Z12gfLoadFontFSP8_tgfFontPc+0x2bc>
3000ac34:	00000913          	li	s2,0
3000ac38:	00000693          	li	a3,0
3000ac3c:	00100613          	li	a2,1
3000ac40:	00810593          	addi	a1,sp,8
3000ac44:	00c10513          	addi	a0,sp,12
3000ac48:	c6cfe0ef          	jal	ra,300090b4 <_Z7osFReadP8_tosFilePhmPm>
3000ac4c:	00c44703          	lbu	a4,12(s0)
3000ac50:	01042783          	lw	a5,16(s0)
3000ac54:	00814683          	lbu	a3,8(sp)
3000ac58:	40e48733          	sub	a4,s1,a4
3000ac5c:	00e787b3          	add	a5,a5,a4
3000ac60:	00d78023          	sb	a3,0(a5)
3000ac64:	00c44703          	lbu	a4,12(s0)
3000ac68:	01042783          	lw	a5,16(s0)
3000ac6c:	00d44683          	lbu	a3,13(s0)
3000ac70:	40e48733          	sub	a4,s1,a4
3000ac74:	00e787b3          	add	a5,a5,a4
3000ac78:	0007c783          	lbu	a5,0(a5)
3000ac7c:	00148493          	addi	s1,s1,1
3000ac80:	00f90933          	add	s2,s2,a5
3000ac84:	fa96dae3          	bge	a3,s1,3000ac38 <_Z12gfLoadFontFSP8_tgfFontPc+0x1f8>
3000ac88:	00645783          	lhu	a5,6(s0)
3000ac8c:	00195913          	srli	s2,s2,0x1
3000ac90:	00100593          	li	a1,1
3000ac94:	03278933          	mul	s2,a5,s2
3000ac98:	00000493          	li	s1,0
3000ac9c:	00090513          	mv	a0,s2
3000aca0:	8f0fe0ef          	jal	ra,30008d90 <_Z7osAllocmm>
3000aca4:	00a42a23          	sw	a0,20(s0)
3000aca8:	02090863          	beqz	s2,3000acd8 <_Z12gfLoadFontFSP8_tgfFontPc+0x298>
3000acac:	00000693          	li	a3,0
3000acb0:	00100613          	li	a2,1
3000acb4:	00810593          	addi	a1,sp,8
3000acb8:	00c10513          	addi	a0,sp,12
3000acbc:	bf8fe0ef          	jal	ra,300090b4 <_Z7osFReadP8_tosFilePhmPm>
3000acc0:	01442783          	lw	a5,20(s0)
3000acc4:	00814703          	lbu	a4,8(sp)
3000acc8:	009787b3          	add	a5,a5,s1
3000accc:	00e78023          	sb	a4,0(a5)
3000acd0:	00148493          	addi	s1,s1,1
3000acd4:	fc991ce3          	bne	s2,s1,3000acac <_Z12gfLoadFontFSP8_tgfFontPc+0x26c>
3000acd8:	00c10513          	addi	a0,sp,12
3000acdc:	b70fe0ef          	jal	ra,3000904c <_Z8osFCloseP8_tosFile>
3000ace0:	03c12083          	lw	ra,60(sp)
3000ace4:	03812403          	lw	s0,56(sp)
3000ace8:	03412483          	lw	s1,52(sp)
3000acec:	03012903          	lw	s2,48(sp)
3000acf0:	00000513          	li	a0,0
3000acf4:	04010113          	addi	sp,sp,64
3000acf8:	00008067          	ret
3000acfc:	00100593          	li	a1,1
3000ad00:	00000513          	li	a0,0
3000ad04:	88cfe0ef          	jal	ra,30008d90 <_Z7osAllocmm>
3000ad08:	00a42a23          	sw	a0,20(s0)
3000ad0c:	fcdff06f          	j	3000acd8 <_Z12gfLoadFontFSP8_tgfFontPc+0x298>

3000ad10 <_Z9gfPutCharP10_tgfBitmapP8_tgfFontssc>:
3000ad10:	fb010113          	addi	sp,sp,-80
3000ad14:	04112623          	sw	ra,76(sp)
3000ad18:	04812423          	sw	s0,72(sp)
3000ad1c:	04912223          	sw	s1,68(sp)
3000ad20:	05212023          	sw	s2,64(sp)
3000ad24:	03312e23          	sw	s3,60(sp)
3000ad28:	03412c23          	sw	s4,56(sp)
3000ad2c:	03512a23          	sw	s5,52(sp)
3000ad30:	03612823          	sw	s6,48(sp)
3000ad34:	03712623          	sw	s7,44(sp)
3000ad38:	03812423          	sw	s8,40(sp)
3000ad3c:	03912223          	sw	s9,36(sp)
3000ad40:	03a12023          	sw	s10,32(sp)
3000ad44:	01b12e23          	sw	s11,28(sp)
3000ad48:	00c5cb03          	lbu	s6,12(a1)
3000ad4c:	00000793          	li	a5,0
3000ad50:	1d676a63          	bltu	a4,s6,3000af24 <_Z9gfPutCharP10_tgfBitmapP8_tgfFontssc+0x214>
3000ad54:	00d5c803          	lbu	a6,13(a1)
3000ad58:	00000793          	li	a5,0
3000ad5c:	1ce86463          	bltu	a6,a4,3000af24 <_Z9gfPutCharP10_tgfBitmapP8_tgfFontssc+0x214>
3000ad60:	00060a93          	mv	s5,a2
3000ad64:	0005d603          	lhu	a2,0(a1)
3000ad68:	00058413          	mv	s0,a1
3000ad6c:	00100593          	li	a1,1
3000ad70:	00050493          	mv	s1,a0
3000ad74:	22b60a63          	beq	a2,a1,3000afa8 <_Z9gfPutCharP10_tgfBitmapP8_tgfFontssc+0x298>
3000ad78:	00400593          	li	a1,4
3000ad7c:	1ab61463          	bne	a2,a1,3000af24 <_Z9gfPutCharP10_tgfBitmapP8_tgfFontssc+0x214>
3000ad80:	41670733          	sub	a4,a4,s6
3000ad84:	0ff77b13          	andi	s6,a4,255
3000ad88:	01042703          	lw	a4,16(s0)
3000ad8c:	320b0c63          	beqz	s6,3000b0c4 <_Z9gfPutCharP10_tgfBitmapP8_tgfFontssc+0x3b4>
3000ad90:	01670833          	add	a6,a4,s6
3000ad94:	00000793          	li	a5,0
3000ad98:	00074603          	lbu	a2,0(a4)
3000ad9c:	00170713          	addi	a4,a4,1
3000ada0:	00167593          	andi	a1,a2,1
3000ada4:	00160513          	addi	a0,a2,1
3000ada8:	1e058a63          	beqz	a1,3000af9c <_Z9gfPutCharP10_tgfBitmapP8_tgfFontssc+0x28c>
3000adac:	00a787b3          	add	a5,a5,a0
3000adb0:	fee814e3          	bne	a6,a4,3000ad98 <_Z9gfPutCharP10_tgfBitmapP8_tgfFontssc+0x88>
3000adb4:	0017d793          	srli	a5,a5,0x1
3000adb8:	00645583          	lhu	a1,6(s0)
3000adbc:	00084703          	lbu	a4,0(a6)
3000adc0:	02f58633          	mul	a2,a1,a5
3000adc4:	14058c63          	beqz	a1,3000af1c <_Z9gfPutCharP10_tgfBitmapP8_tgfFontssc+0x20c>
3000adc8:	010a9c13          	slli	s8,s5,0x10
3000adcc:	010c5c13          	srli	s8,s8,0x10
3000add0:	001c0793          	addi	a5,s8,1
3000add4:	01069a13          	slli	s4,a3,0x10
3000add8:	010a5a13          	srli	s4,s4,0x10
3000addc:	00f12223          	sw	a5,4(sp)
3000ade0:	00100d93          	li	s11,1
3000ade4:	001a8793          	addi	a5,s5,1
3000ade8:	00f12423          	sw	a5,8(sp)
3000adec:	414d87b3          	sub	a5,s11,s4
3000adf0:	0f000b93          	li	s7,240
3000adf4:	00f12623          	sw	a5,12(sp)
3000adf8:	10070263          	beqz	a4,3000aefc <_Z9gfPutCharP10_tgfBitmapP8_tgfFontssc+0x1ec>
3000adfc:	010a1913          	slli	s2,s4,0x10
3000ae00:	00000d93          	li	s11,0
3000ae04:	41095913          	srai	s2,s2,0x10
3000ae08:	01442703          	lw	a4,20(s0)
3000ae0c:	00245683          	lhu	a3,2(s0)
3000ae10:	00160993          	addi	s3,a2,1
3000ae14:	00c70733          	add	a4,a4,a2
3000ae18:	0016f613          	andi	a2,a3,1
3000ae1c:	00074d03          	lbu	s10,0(a4)
3000ae20:	04061e63          	bnez	a2,3000ae7c <_Z9gfPutCharP10_tgfBitmapP8_tgfFontssc+0x16c>
3000ae24:	00412783          	lw	a5,4(sp)
3000ae28:	010d9713          	slli	a4,s11,0x10
3000ae2c:	01075713          	srli	a4,a4,0x10
3000ae30:	00f70633          	add	a2,a4,a5
3000ae34:	018705b3          	add	a1,a4,s8
3000ae38:	01061c93          	slli	s9,a2,0x10
3000ae3c:	0026f713          	andi	a4,a3,2
3000ae40:	01059593          	slli	a1,a1,0x10
3000ae44:	4105d593          	srai	a1,a1,0x10
3000ae48:	410cdc93          	srai	s9,s9,0x10
3000ae4c:	00a45683          	lhu	a3,10(s0)
3000ae50:	00090613          	mv	a2,s2
3000ae54:	10070863          	beqz	a4,3000af64 <_Z9gfPutCharP10_tgfBitmapP8_tgfFontssc+0x254>
3000ae58:	08000713          	li	a4,128
3000ae5c:	00048513          	mv	a0,s1
3000ae60:	fedfe0ef          	jal	ra,30009e4c <_Z7gfPlotAP10_tgfBitmapssth>
3000ae64:	00a45683          	lhu	a3,10(s0)
3000ae68:	08000713          	li	a4,128
3000ae6c:	00090613          	mv	a2,s2
3000ae70:	000c8593          	mv	a1,s9
3000ae74:	00048513          	mv	a0,s1
3000ae78:	fd5fe0ef          	jal	ra,30009e4c <_Z7gfPlotAP10_tgfBitmapssth>
3000ae7c:	004d1c93          	slli	s9,s10,0x4
3000ae80:	0f0d7713          	andi	a4,s10,240
3000ae84:	0f0cfd13          	andi	s10,s9,240
3000ae88:	02070263          	beqz	a4,3000aeac <_Z9gfPutCharP10_tgfBitmapP8_tgfFontssc+0x19c>
3000ae8c:	015d85b3          	add	a1,s11,s5
3000ae90:	01059593          	slli	a1,a1,0x10
3000ae94:	4105d593          	srai	a1,a1,0x10
3000ae98:	00845683          	lhu	a3,8(s0)
3000ae9c:	00090613          	mv	a2,s2
3000aea0:	00048513          	mv	a0,s1
3000aea4:	0f770063          	beq	a4,s7,3000af84 <_Z9gfPutCharP10_tgfBitmapP8_tgfFontssc+0x274>
3000aea8:	fa5fe0ef          	jal	ra,30009e4c <_Z7gfPlotAP10_tgfBitmapssth>
3000aeac:	020d0663          	beqz	s10,3000aed8 <_Z9gfPutCharP10_tgfBitmapP8_tgfFontssc+0x1c8>
3000aeb0:	00812783          	lw	a5,8(sp)
3000aeb4:	00845683          	lhu	a3,8(s0)
3000aeb8:	01b785b3          	add	a1,a5,s11
3000aebc:	01059593          	slli	a1,a1,0x10
3000aec0:	4105d593          	srai	a1,a1,0x10
3000aec4:	0d7d0463          	beq	s10,s7,3000af8c <_Z9gfPutCharP10_tgfBitmapP8_tgfFontssc+0x27c>
3000aec8:	0f0cf713          	andi	a4,s9,240
3000aecc:	00090613          	mv	a2,s2
3000aed0:	00048513          	mv	a0,s1
3000aed4:	f79fe0ef          	jal	ra,30009e4c <_Z7gfPlotAP10_tgfBitmapssth>
3000aed8:	01042703          	lw	a4,16(s0)
3000aedc:	002d8793          	addi	a5,s11,2
3000aee0:	01079d93          	slli	s11,a5,0x10
3000aee4:	01670733          	add	a4,a4,s6
3000aee8:	00074703          	lbu	a4,0(a4)
3000aeec:	410ddd93          	srai	s11,s11,0x10
3000aef0:	00098613          	mv	a2,s3
3000aef4:	f0edcae3          	blt	s11,a4,3000ae08 <_Z9gfPutCharP10_tgfBitmapP8_tgfFontssc+0xf8>
3000aef8:	00645583          	lhu	a1,6(s0)
3000aefc:	00c12783          	lw	a5,12(sp)
3000af00:	00fa07b3          	add	a5,s4,a5
3000af04:	01079793          	slli	a5,a5,0x10
3000af08:	001a0a13          	addi	s4,s4,1
3000af0c:	010a1a13          	slli	s4,s4,0x10
3000af10:	4107d793          	srai	a5,a5,0x10
3000af14:	010a5a13          	srli	s4,s4,0x10
3000af18:	eeb7c0e3          	blt	a5,a1,3000adf8 <_Z9gfPutCharP10_tgfBitmapP8_tgfFontssc+0xe8>
3000af1c:	01071793          	slli	a5,a4,0x10
3000af20:	4107d793          	srai	a5,a5,0x10
3000af24:	04c12083          	lw	ra,76(sp)
3000af28:	04812403          	lw	s0,72(sp)
3000af2c:	04412483          	lw	s1,68(sp)
3000af30:	04012903          	lw	s2,64(sp)
3000af34:	03c12983          	lw	s3,60(sp)
3000af38:	03812a03          	lw	s4,56(sp)
3000af3c:	03412a83          	lw	s5,52(sp)
3000af40:	03012b03          	lw	s6,48(sp)
3000af44:	02c12b83          	lw	s7,44(sp)
3000af48:	02812c03          	lw	s8,40(sp)
3000af4c:	02412c83          	lw	s9,36(sp)
3000af50:	02012d03          	lw	s10,32(sp)
3000af54:	01c12d83          	lw	s11,28(sp)
3000af58:	00078513          	mv	a0,a5
3000af5c:	05010113          	addi	sp,sp,80
3000af60:	00008067          	ret
3000af64:	00048513          	mv	a0,s1
3000af68:	e51fe0ef          	jal	ra,30009db8 <_Z6gfPlotP10_tgfBitmapsst>
3000af6c:	00a45683          	lhu	a3,10(s0)
3000af70:	00090613          	mv	a2,s2
3000af74:	000c8593          	mv	a1,s9
3000af78:	00048513          	mv	a0,s1
3000af7c:	e3dfe0ef          	jal	ra,30009db8 <_Z6gfPlotP10_tgfBitmapsst>
3000af80:	efdff06f          	j	3000ae7c <_Z9gfPutCharP10_tgfBitmapP8_tgfFontssc+0x16c>
3000af84:	e35fe0ef          	jal	ra,30009db8 <_Z6gfPlotP10_tgfBitmapsst>
3000af88:	f25ff06f          	j	3000aeac <_Z9gfPutCharP10_tgfBitmapP8_tgfFontssc+0x19c>
3000af8c:	00090613          	mv	a2,s2
3000af90:	00048513          	mv	a0,s1
3000af94:	e25fe0ef          	jal	ra,30009db8 <_Z6gfPlotP10_tgfBitmapsst>
3000af98:	f41ff06f          	j	3000aed8 <_Z9gfPutCharP10_tgfBitmapP8_tgfFontssc+0x1c8>
3000af9c:	00c787b3          	add	a5,a5,a2
3000afa0:	dee81ce3          	bne	a6,a4,3000ad98 <_Z9gfPutCharP10_tgfBitmapP8_tgfFontssc+0x88>
3000afa4:	e11ff06f          	j	3000adb4 <_Z9gfPutCharP10_tgfBitmapP8_tgfFontssc+0xa4>
3000afa8:	00645603          	lhu	a2,6(s0)
3000afac:	41670733          	sub	a4,a4,s6
3000afb0:	0ff77713          	andi	a4,a4,255
3000afb4:	02c70733          	mul	a4,a4,a2
3000afb8:	01442b83          	lw	s7,20(s0)
3000afbc:	00445783          	lhu	a5,4(s0)
3000afc0:	00eb8bb3          	add	s7,s7,a4
3000afc4:	0e060463          	beqz	a2,3000b0ac <_Z9gfPutCharP10_tgfBitmapP8_tgfFontssc+0x39c>
3000afc8:	01069a13          	slli	s4,a3,0x10
3000afcc:	010a5a13          	srli	s4,s4,0x10
3000afd0:	00100c13          	li	s8,1
3000afd4:	414c0c33          	sub	s8,s8,s4
3000afd8:	001b8b93          	addi	s7,s7,1
3000afdc:	fffbc983          	lbu	s3,-1(s7)
3000afe0:	0a078863          	beqz	a5,3000b090 <_Z9gfPutCharP10_tgfBitmapP8_tgfFontssc+0x380>
3000afe4:	010a1b13          	slli	s6,s4,0x10
3000afe8:	00000913          	li	s2,0
3000afec:	410b5b13          	srai	s6,s6,0x10
3000aff0:	0580006f          	j	3000b048 <_Z9gfPutCharP10_tgfBitmapP8_tgfFontssc+0x338>
3000aff4:	00245703          	lhu	a4,2(s0)
3000aff8:	015905b3          	add	a1,s2,s5
3000affc:	01059893          	slli	a7,a1,0x10
3000b000:	00177693          	andi	a3,a4,1
3000b004:	4108d893          	srai	a7,a7,0x10
3000b008:	00277813          	andi	a6,a4,2
3000b00c:	02069263          	bnez	a3,3000b030 <_Z9gfPutCharP10_tgfBitmapP8_tgfFontssc+0x320>
3000b010:	000b0613          	mv	a2,s6
3000b014:	00088593          	mv	a1,a7
3000b018:	00048513          	mv	a0,s1
3000b01c:	08000713          	li	a4,128
3000b020:	00a45683          	lhu	a3,10(s0)
3000b024:	08080a63          	beqz	a6,3000b0b8 <_Z9gfPutCharP10_tgfBitmapP8_tgfFontssc+0x3a8>
3000b028:	e25fe0ef          	jal	ra,30009e4c <_Z7gfPlotAP10_tgfBitmapssth>
3000b02c:	00445783          	lhu	a5,4(s0)
3000b030:	00190913          	addi	s2,s2,1
3000b034:	01091913          	slli	s2,s2,0x10
3000b038:	00199993          	slli	s3,s3,0x1
3000b03c:	41095913          	srai	s2,s2,0x10
3000b040:	0ff9f993          	andi	s3,s3,255
3000b044:	04f95463          	bge	s2,a5,3000b08c <_Z9gfPutCharP10_tgfBitmapP8_tgfFontssc+0x37c>
3000b048:	01899713          	slli	a4,s3,0x18
3000b04c:	41875713          	srai	a4,a4,0x18
3000b050:	fa0752e3          	bgez	a4,3000aff4 <_Z9gfPutCharP10_tgfBitmapP8_tgfFontssc+0x2e4>
3000b054:	012a85b3          	add	a1,s5,s2
3000b058:	00845683          	lhu	a3,8(s0)
3000b05c:	01059593          	slli	a1,a1,0x10
3000b060:	000b0613          	mv	a2,s6
3000b064:	4105d593          	srai	a1,a1,0x10
3000b068:	00048513          	mv	a0,s1
3000b06c:	d4dfe0ef          	jal	ra,30009db8 <_Z6gfPlotP10_tgfBitmapsst>
3000b070:	00190913          	addi	s2,s2,1
3000b074:	00445783          	lhu	a5,4(s0)
3000b078:	01091913          	slli	s2,s2,0x10
3000b07c:	00199993          	slli	s3,s3,0x1
3000b080:	41095913          	srai	s2,s2,0x10
3000b084:	0ff9f993          	andi	s3,s3,255
3000b088:	fcf940e3          	blt	s2,a5,3000b048 <_Z9gfPutCharP10_tgfBitmapP8_tgfFontssc+0x338>
3000b08c:	00645603          	lhu	a2,6(s0)
3000b090:	018a0733          	add	a4,s4,s8
3000b094:	01071713          	slli	a4,a4,0x10
3000b098:	001a0a13          	addi	s4,s4,1
3000b09c:	010a1a13          	slli	s4,s4,0x10
3000b0a0:	41075713          	srai	a4,a4,0x10
3000b0a4:	010a5a13          	srli	s4,s4,0x10
3000b0a8:	f2c748e3          	blt	a4,a2,3000afd8 <_Z9gfPutCharP10_tgfBitmapP8_tgfFontssc+0x2c8>
3000b0ac:	01079793          	slli	a5,a5,0x10
3000b0b0:	4107d793          	srai	a5,a5,0x10
3000b0b4:	e71ff06f          	j	3000af24 <_Z9gfPutCharP10_tgfBitmapP8_tgfFontssc+0x214>
3000b0b8:	d01fe0ef          	jal	ra,30009db8 <_Z6gfPlotP10_tgfBitmapsst>
3000b0bc:	00445783          	lhu	a5,4(s0)
3000b0c0:	f71ff06f          	j	3000b030 <_Z9gfPutCharP10_tgfBitmapP8_tgfFontssc+0x320>
3000b0c4:	00000793          	li	a5,0
3000b0c8:	00070813          	mv	a6,a4
3000b0cc:	cedff06f          	j	3000adb8 <_Z9gfPutCharP10_tgfBitmapP8_tgfFontssc+0xa8>

3000b0d0 <_Z11gfPutStringP10_tgfBitmapP8_tgfFontssPc>:
3000b0d0:	fe010113          	addi	sp,sp,-32
3000b0d4:	01212823          	sw	s2,16(sp)
3000b0d8:	00112e23          	sw	ra,28(sp)
3000b0dc:	00812c23          	sw	s0,24(sp)
3000b0e0:	00912a23          	sw	s1,20(sp)
3000b0e4:	01312623          	sw	s3,12(sp)
3000b0e8:	01412423          	sw	s4,8(sp)
3000b0ec:	01512223          	sw	s5,4(sp)
3000b0f0:	00070913          	mv	s2,a4
3000b0f4:	00074703          	lbu	a4,0(a4)
3000b0f8:	08070263          	beqz	a4,3000b17c <_Z11gfPutStringP10_tgfBitmapP8_tgfFontssPc+0xac>
3000b0fc:	00050993          	mv	s3,a0
3000b100:	00058a13          	mv	s4,a1
3000b104:	00060413          	mv	s0,a2
3000b108:	00068a93          	mv	s5,a3
3000b10c:	00190913          	addi	s2,s2,1
3000b110:	00000493          	li	s1,0
3000b114:	00040613          	mv	a2,s0
3000b118:	000a8693          	mv	a3,s5
3000b11c:	000a0593          	mv	a1,s4
3000b120:	00098513          	mv	a0,s3
3000b124:	bedff0ef          	jal	ra,3000ad10 <_Z9gfPutCharP10_tgfBitmapP8_tgfFontssc>
3000b128:	00190913          	addi	s2,s2,1
3000b12c:	01051513          	slli	a0,a0,0x10
3000b130:	01055513          	srli	a0,a0,0x10
3000b134:	fff94703          	lbu	a4,-1(s2)
3000b138:	00850433          	add	s0,a0,s0
3000b13c:	009504b3          	add	s1,a0,s1
3000b140:	01041413          	slli	s0,s0,0x10
3000b144:	01049493          	slli	s1,s1,0x10
3000b148:	41045413          	srai	s0,s0,0x10
3000b14c:	4104d493          	srai	s1,s1,0x10
3000b150:	fc0712e3          	bnez	a4,3000b114 <_Z11gfPutStringP10_tgfBitmapP8_tgfFontssPc+0x44>
3000b154:	01c12083          	lw	ra,28(sp)
3000b158:	01812403          	lw	s0,24(sp)
3000b15c:	00048513          	mv	a0,s1
3000b160:	01012903          	lw	s2,16(sp)
3000b164:	01412483          	lw	s1,20(sp)
3000b168:	00c12983          	lw	s3,12(sp)
3000b16c:	00812a03          	lw	s4,8(sp)
3000b170:	00412a83          	lw	s5,4(sp)
3000b174:	02010113          	addi	sp,sp,32
3000b178:	00008067          	ret
3000b17c:	00000493          	li	s1,0
3000b180:	fd5ff06f          	j	3000b154 <_Z11gfPutStringP10_tgfBitmapP8_tgfFontssPc+0x84>

3000b184 <_Z17gfDrawTextOverlayP10_tgfBitmapP15_tgfTextOverlayss>:
3000b184:	0005d703          	lhu	a4,0(a1)
3000b188:	000087b7          	lui	a5,0x8
3000b18c:	2cf70c63          	beq	a4,a5,3000b464 <_Z17gfDrawTextOverlayP10_tgfBitmapP15_tgfTextOverlayss+0x2e0>
3000b190:	fb010113          	addi	sp,sp,-80
3000b194:	03a12023          	sw	s10,32(sp)
3000b198:	0105ad03          	lw	s10,16(a1)
3000b19c:	0065d703          	lhu	a4,6(a1)
3000b1a0:	04112623          	sw	ra,76(sp)
3000b1a4:	04812423          	sw	s0,72(sp)
3000b1a8:	04912223          	sw	s1,68(sp)
3000b1ac:	05212023          	sw	s2,64(sp)
3000b1b0:	03312e23          	sw	s3,60(sp)
3000b1b4:	03412c23          	sw	s4,56(sp)
3000b1b8:	03512a23          	sw	s5,52(sp)
3000b1bc:	03612823          	sw	s6,48(sp)
3000b1c0:	03712623          	sw	s7,44(sp)
3000b1c4:	03812423          	sw	s8,40(sp)
3000b1c8:	03912223          	sw	s9,36(sp)
3000b1cc:	01b12e23          	sw	s11,28(sp)
3000b1d0:	000d1123          	sh	zero,2(s10)
3000b1d4:	18070863          	beqz	a4,3000b364 <_Z17gfDrawTextOverlayP10_tgfBitmapP15_tgfTextOverlayss+0x1e0>
3000b1d8:	00058c93          	mv	s9,a1
3000b1dc:	ffff8bb7          	lui	s7,0xffff8
3000b1e0:	0045d583          	lhu	a1,4(a1)
3000b1e4:	400b8793          	addi	a5,s7,1024 # ffff8400 <__bss_end__+0xcfef8400>
3000b1e8:	00068993          	mv	s3,a3
3000b1ec:	00060913          	mv	s2,a2
3000b1f0:	00050493          	mv	s1,a0
3000b1f4:	00008c37          	lui	s8,0x8
3000b1f8:	00000413          	li	s0,0
3000b1fc:	00000a13          	li	s4,0
3000b200:	00f12623          	sw	a5,12(sp)
3000b204:	034587b3          	mul	a5,a1,s4
3000b208:	014ca803          	lw	a6,20(s9)
3000b20c:	01041413          	slli	s0,s0,0x10
3000b210:	01045413          	srli	s0,s0,0x10
3000b214:	00179793          	slli	a5,a5,0x1
3000b218:	00f80bb3          	add	s7,a6,a5
3000b21c:	12058a63          	beqz	a1,3000b350 <_Z17gfDrawTextOverlayP10_tgfBitmapP15_tgfTextOverlayss+0x1cc>
3000b220:	00000793          	li	a5,0
3000b224:	00000513          	li	a0,0
3000b228:	00700a93          	li	s5,7
3000b22c:	410c0b13          	addi	s6,s8,1040 # 8410 <stackPointer+0x16d0>
3000b230:	002cd683          	lhu	a3,2(s9)
3000b234:	000bc603          	lbu	a2,0(s7)
3000b238:	01079d93          	slli	s11,a5,0x10
3000b23c:	002b8b93          	addi	s7,s7,2
3000b240:	0016f693          	andi	a3,a3,1
3000b244:	fffbc703          	lbu	a4,-1(s7)
3000b248:	010ddd93          	srli	s11,s11,0x10
3000b24c:	00068663          	beqz	a3,3000b258 <_Z17gfDrawTextOverlayP10_tgfBitmapP15_tgfTextOverlayss+0xd4>
3000b250:	008cd783          	lhu	a5,8(s9)
3000b254:	14a78863          	beq	a5,a0,3000b3a4 <_Z17gfDrawTextOverlayP10_tgfBitmapP15_tgfTextOverlayss+0x220>
3000b258:	0e070063          	beqz	a4,3000b338 <_Z17gfDrawTextOverlayP10_tgfBitmapP15_tgfTextOverlayss+0x1b4>
3000b25c:	40465513          	srai	a0,a2,0x4
3000b260:	00867f93          	andi	t6,a2,8
3000b264:	00167f13          	andi	t5,a2,1
3000b268:	00267293          	andi	t0,a2,2
3000b26c:	00857e93          	andi	t4,a0,8
3000b270:	00467613          	andi	a2,a2,4
3000b274:	00157693          	andi	a3,a0,1
3000b278:	00257e13          	andi	t3,a0,2
3000b27c:	00457593          	andi	a1,a0,4
3000b280:	180f8863          	beqz	t6,3000b410 <_Z17gfDrawTextOverlayP10_tgfBitmapP15_tgfTextOverlayss+0x28c>
3000b284:	41e00f33          	neg	t5,t5
3000b288:	005037b3          	snez	a5,t0
3000b28c:	0fff7f13          	andi	t5,t5,255
3000b290:	40f007b3          	neg	a5,a5
3000b294:	008f1f13          	slli	t5,t5,0x8
3000b298:	00c03633          	snez	a2,a2
3000b29c:	7e07f793          	andi	a5,a5,2016
3000b2a0:	800f7f13          	andi	t5,t5,-2048
3000b2a4:	40c00633          	neg	a2,a2
3000b2a8:	01e7e7b3          	or	a5,a5,t5
3000b2ac:	01f67613          	andi	a2,a2,31
3000b2b0:	00c7e7b3          	or	a5,a5,a2
3000b2b4:	01079793          	slli	a5,a5,0x10
3000b2b8:	4107d793          	srai	a5,a5,0x10
3000b2bc:	00fd1423          	sh	a5,8(s10)
3000b2c0:	100e8a63          	beqz	t4,3000b3d4 <_Z17gfDrawTextOverlayP10_tgfBitmapP15_tgfTextOverlayss+0x250>
3000b2c4:	40d006b3          	neg	a3,a3
3000b2c8:	01c037b3          	snez	a5,t3
3000b2cc:	0ff6f693          	andi	a3,a3,255
3000b2d0:	40f007b3          	neg	a5,a5
3000b2d4:	00869693          	slli	a3,a3,0x8
3000b2d8:	00b035b3          	snez	a1,a1
3000b2dc:	7e07f793          	andi	a5,a5,2016
3000b2e0:	8006f693          	andi	a3,a3,-2048
3000b2e4:	40b005b3          	neg	a1,a1
3000b2e8:	01f5f593          	andi	a1,a1,31
3000b2ec:	00d7e7b3          	or	a5,a5,a3
3000b2f0:	00b7e7b3          	or	a5,a5,a1
3000b2f4:	00000593          	li	a1,0
3000b2f8:	006d5683          	lhu	a3,6(s10)
3000b2fc:	004d5603          	lhu	a2,4(s10)
3000b300:	00bd1123          	sh	a1,2(s10)
3000b304:	02d406b3          	mul	a3,s0,a3
3000b308:	000d0593          	mv	a1,s10
3000b30c:	00fd1523          	sh	a5,10(s10)
3000b310:	00048513          	mv	a0,s1
3000b314:	02cd8633          	mul	a2,s11,a2
3000b318:	013686b3          	add	a3,a3,s3
3000b31c:	01069693          	slli	a3,a3,0x10
3000b320:	4106d693          	srai	a3,a3,0x10
3000b324:	01260633          	add	a2,a2,s2
3000b328:	01061613          	slli	a2,a2,0x10
3000b32c:	41065613          	srai	a2,a2,0x10
3000b330:	9e1ff0ef          	jal	ra,3000ad10 <_Z9gfPutCharP10_tgfBitmapP8_tgfFontssc>
3000b334:	004cd583          	lhu	a1,4(s9)
3000b338:	001d8793          	addi	a5,s11,1
3000b33c:	01079793          	slli	a5,a5,0x10
3000b340:	4107d793          	srai	a5,a5,0x10
3000b344:	00078513          	mv	a0,a5
3000b348:	eeb7c4e3          	blt	a5,a1,3000b230 <_Z17gfDrawTextOverlayP10_tgfBitmapP15_tgfTextOverlayss+0xac>
3000b34c:	006cd703          	lhu	a4,6(s9)
3000b350:	00140413          	addi	s0,s0,1
3000b354:	01041413          	slli	s0,s0,0x10
3000b358:	41045413          	srai	s0,s0,0x10
3000b35c:	00040a13          	mv	s4,s0
3000b360:	eae442e3          	blt	s0,a4,3000b204 <_Z17gfDrawTextOverlayP10_tgfBitmapP15_tgfTextOverlayss+0x80>
3000b364:	04c12083          	lw	ra,76(sp)
3000b368:	04812403          	lw	s0,72(sp)
3000b36c:	04412483          	lw	s1,68(sp)
3000b370:	04012903          	lw	s2,64(sp)
3000b374:	03c12983          	lw	s3,60(sp)
3000b378:	03812a03          	lw	s4,56(sp)
3000b37c:	03412a83          	lw	s5,52(sp)
3000b380:	03012b03          	lw	s6,48(sp)
3000b384:	02c12b83          	lw	s7,44(sp)
3000b388:	02812c03          	lw	s8,40(sp)
3000b38c:	02412c83          	lw	s9,36(sp)
3000b390:	02012d03          	lw	s10,32(sp)
3000b394:	01c12d83          	lw	s11,28(sp)
3000b398:	00000513          	li	a0,0
3000b39c:	05010113          	addi	sp,sp,80
3000b3a0:	00008067          	ret
3000b3a4:	00acd783          	lhu	a5,10(s9)
3000b3a8:	eb4798e3          	bne	a5,s4,3000b258 <_Z17gfDrawTextOverlayP10_tgfBitmapP15_tgfTextOverlayss+0xd4>
3000b3ac:	00400593          	li	a1,4
3000b3b0:	00200e13          	li	t3,2
3000b3b4:	00100693          	li	a3,1
3000b3b8:	00800e93          	li	t4,8
3000b3bc:	00f00513          	li	a0,15
3000b3c0:	00000793          	li	a5,0
3000b3c4:	ee071ce3          	bnez	a4,3000b2bc <_Z17gfDrawTextOverlayP10_tgfBitmapP15_tgfTextOverlayss+0x138>
3000b3c8:	00fd1423          	sh	a5,8(s10)
3000b3cc:	02000713          	li	a4,32
3000b3d0:	ee0e9ae3          	bnez	t4,3000b2c4 <_Z17gfDrawTextOverlayP10_tgfBitmapP15_tgfTextOverlayss+0x140>
3000b3d4:	06069463          	bnez	a3,3000b43c <_Z17gfDrawTextOverlayP10_tgfBitmapP15_tgfTextOverlayss+0x2b8>
3000b3d8:	00000e93          	li	t4,0
3000b3dc:	01000613          	li	a2,16
3000b3e0:	40000693          	li	a3,1024
3000b3e4:	41000793          	li	a5,1040
3000b3e8:	000e1663          	bnez	t3,3000b3f4 <_Z17gfDrawTextOverlayP10_tgfBitmapP15_tgfTextOverlayss+0x270>
3000b3ec:	000e8693          	mv	a3,t4
3000b3f0:	00060793          	mv	a5,a2
3000b3f4:	00059463          	bnez	a1,3000b3fc <_Z17gfDrawTextOverlayP10_tgfBitmapP15_tgfTextOverlayss+0x278>
3000b3f8:	00068793          	mv	a5,a3
3000b3fc:	00000593          	li	a1,0
3000b400:	ef551ce3          	bne	a0,s5,3000b2f8 <_Z17gfDrawTextOverlayP10_tgfBitmapP15_tgfTextOverlayss+0x174>
3000b404:	00000793          	li	a5,0
3000b408:	00200593          	li	a1,2
3000b40c:	eedff06f          	j	3000b2f8 <_Z17gfDrawTextOverlayP10_tgfBitmapP15_tgfTextOverlayss+0x174>
3000b410:	040f0263          	beqz	t5,3000b454 <_Z17gfDrawTextOverlayP10_tgfBitmapP15_tgfTextOverlayss+0x2d0>
3000b414:	00c12783          	lw	a5,12(sp)
3000b418:	ffff8f37          	lui	t5,0xffff8
3000b41c:	00028c63          	beqz	t0,3000b434 <_Z17gfDrawTextOverlayP10_tgfBitmapP15_tgfTextOverlayss+0x2b0>
3000b420:	e8060ee3          	beqz	a2,3000b2bc <_Z17gfDrawTextOverlayP10_tgfBitmapP15_tgfTextOverlayss+0x138>
3000b424:	0107e793          	ori	a5,a5,16
3000b428:	01079793          	slli	a5,a5,0x10
3000b42c:	4107d793          	srai	a5,a5,0x10
3000b430:	e8dff06f          	j	3000b2bc <_Z17gfDrawTextOverlayP10_tgfBitmapP15_tgfTextOverlayss+0x138>
3000b434:	000f0793          	mv	a5,t5
3000b438:	fe9ff06f          	j	3000b420 <_Z17gfDrawTextOverlayP10_tgfBitmapP15_tgfTextOverlayss+0x29c>
3000b43c:	000087b7          	lui	a5,0x8
3000b440:	01078613          	addi	a2,a5,16 # 8010 <stackPointer+0x12d0>
3000b444:	40078693          	addi	a3,a5,1024
3000b448:	00008eb7          	lui	t4,0x8
3000b44c:	000b0793          	mv	a5,s6
3000b450:	f99ff06f          	j	3000b3e8 <_Z17gfDrawTextOverlayP10_tgfBitmapP15_tgfTextOverlayss+0x264>
3000b454:	40000793          	li	a5,1024
3000b458:	00000f13          	li	t5,0
3000b45c:	fc0292e3          	bnez	t0,3000b420 <_Z17gfDrawTextOverlayP10_tgfBitmapP15_tgfTextOverlayss+0x29c>
3000b460:	fd5ff06f          	j	3000b434 <_Z17gfDrawTextOverlayP10_tgfBitmapP15_tgfTextOverlayss+0x2b0>
3000b464:	00000513          	li	a0,0
3000b468:	00008067          	ret

3000b46c <_Z14toSetCursorPosP15_tgfTextOverlaytt>:
3000b46c:	00050793          	mv	a5,a0
3000b470:	02050663          	beqz	a0,3000b49c <_Z14toSetCursorPosP15_tgfTextOverlaytt+0x30>
3000b474:	00455703          	lhu	a4,4(a0)
3000b478:	00200513          	li	a0,2
3000b47c:	02e5f263          	bgeu	a1,a4,3000b4a0 <_Z14toSetCursorPosP15_tgfTextOverlaytt+0x34>
3000b480:	0067d703          	lhu	a4,6(a5)
3000b484:	00e67e63          	bgeu	a2,a4,3000b4a0 <_Z14toSetCursorPosP15_tgfTextOverlaytt+0x34>
3000b488:	01061613          	slli	a2,a2,0x10
3000b48c:	00c5e5b3          	or	a1,a1,a2
3000b490:	00b7a423          	sw	a1,8(a5)
3000b494:	00000513          	li	a0,0
3000b498:	00008067          	ret
3000b49c:	00100513          	li	a0,1
3000b4a0:	00008067          	ret

3000b4a4 <_Z5toClsP15_tgfTextOverlay>:
3000b4a4:	04050c63          	beqz	a0,3000b4fc <_Z5toClsP15_tgfTextOverlay+0x58>
3000b4a8:	00455783          	lhu	a5,4(a0)
3000b4ac:	00655703          	lhu	a4,6(a0)
3000b4b0:	02e787b3          	mul	a5,a5,a4
3000b4b4:	02078e63          	beqz	a5,3000b4f0 <_Z5toClsP15_tgfTextOverlay+0x4c>
3000b4b8:	00000713          	li	a4,0
3000b4bc:	01452783          	lw	a5,20(a0)
3000b4c0:	00c54683          	lbu	a3,12(a0)
3000b4c4:	00e787b3          	add	a5,a5,a4
3000b4c8:	00d780a3          	sb	a3,1(a5)
3000b4cc:	01452783          	lw	a5,20(a0)
3000b4d0:	00e787b3          	add	a5,a5,a4
3000b4d4:	00078023          	sb	zero,0(a5)
3000b4d8:	00455783          	lhu	a5,4(a0)
3000b4dc:	00655683          	lhu	a3,6(a0)
3000b4e0:	00270713          	addi	a4,a4,2
3000b4e4:	02d787b3          	mul	a5,a5,a3
3000b4e8:	00179793          	slli	a5,a5,0x1
3000b4ec:	fcf768e3          	bltu	a4,a5,3000b4bc <_Z5toClsP15_tgfTextOverlay+0x18>
3000b4f0:	00052423          	sw	zero,8(a0)
3000b4f4:	00000513          	li	a0,0
3000b4f8:	00008067          	ret
3000b4fc:	00100513          	li	a0,1
3000b500:	00008067          	ret

3000b504 <_Z10toScrollUpP15_tgfTextOverlay>:
3000b504:	0e050463          	beqz	a0,3000b5ec <_Z10toScrollUpP15_tgfTextOverlay+0xe8>
3000b508:	00655683          	lhu	a3,6(a0)
3000b50c:	08068a63          	beqz	a3,3000b5a0 <_Z10toScrollUpP15_tgfTextOverlay+0x9c>
3000b510:	00455803          	lhu	a6,4(a0)
3000b514:	00000313          	li	t1,0
3000b518:	03030633          	mul	a2,t1,a6
3000b51c:	fff68713          	addi	a4,a3,-1
3000b520:	00161793          	slli	a5,a2,0x1
3000b524:	08e35263          	bge	t1,a4,3000b5a8 <_Z10toScrollUpP15_tgfTextOverlay+0xa4>
3000b528:	06080463          	beqz	a6,3000b590 <_Z10toScrollUpP15_tgfTextOverlay+0x8c>
3000b52c:	00c80633          	add	a2,a6,a2
3000b530:	00161613          	slli	a2,a2,0x1
3000b534:	00178e13          	addi	t3,a5,1
3000b538:	00000593          	li	a1,0
3000b53c:	40c786b3          	sub	a3,a5,a2
3000b540:	40ce0e33          	sub	t3,t3,a2
3000b544:	01452783          	lw	a5,20(a0)
3000b548:	00160713          	addi	a4,a2,1
3000b54c:	00ce08b3          	add	a7,t3,a2
3000b550:	00c787b3          	add	a5,a5,a2
3000b554:	0007c803          	lbu	a6,0(a5)
3000b558:	00d787b3          	add	a5,a5,a3
3000b55c:	00158593          	addi	a1,a1,1
3000b560:	01078023          	sb	a6,0(a5)
3000b564:	01452803          	lw	a6,20(a0)
3000b568:	01059593          	slli	a1,a1,0x10
3000b56c:	0105d593          	srli	a1,a1,0x10
3000b570:	00e807b3          	add	a5,a6,a4
3000b574:	0007c703          	lbu	a4,0(a5)
3000b578:	01180833          	add	a6,a6,a7
3000b57c:	00260613          	addi	a2,a2,2
3000b580:	00e80023          	sb	a4,0(a6)
3000b584:	00455803          	lhu	a6,4(a0)
3000b588:	fb05eee3          	bltu	a1,a6,3000b544 <_Z10toScrollUpP15_tgfTextOverlay+0x40>
3000b58c:	00655683          	lhu	a3,6(a0)
3000b590:	00130313          	addi	t1,t1,1
3000b594:	01031313          	slli	t1,t1,0x10
3000b598:	01035313          	srli	t1,t1,0x10
3000b59c:	f6d36ee3          	bltu	t1,a3,3000b518 <_Z10toScrollUpP15_tgfTextOverlay+0x14>
3000b5a0:	00000513          	li	a0,0
3000b5a4:	00008067          	ret
3000b5a8:	fe0804e3          	beqz	a6,3000b590 <_Z10toScrollUpP15_tgfTextOverlay+0x8c>
3000b5ac:	00000713          	li	a4,0
3000b5b0:	01452603          	lw	a2,20(a0)
3000b5b4:	00178593          	addi	a1,a5,1
3000b5b8:	00170713          	addi	a4,a4,1
3000b5bc:	00f60633          	add	a2,a2,a5
3000b5c0:	00060023          	sb	zero,0(a2)
3000b5c4:	01452683          	lw	a3,20(a0)
3000b5c8:	00c54603          	lbu	a2,12(a0)
3000b5cc:	01071713          	slli	a4,a4,0x10
3000b5d0:	00b686b3          	add	a3,a3,a1
3000b5d4:	00c68023          	sb	a2,0(a3)
3000b5d8:	00455803          	lhu	a6,4(a0)
3000b5dc:	01075713          	srli	a4,a4,0x10
3000b5e0:	00278793          	addi	a5,a5,2
3000b5e4:	fd0766e3          	bltu	a4,a6,3000b5b0 <_Z10toScrollUpP15_tgfTextOverlay+0xac>
3000b5e8:	fa5ff06f          	j	3000b58c <_Z10toScrollUpP15_tgfTextOverlay+0x88>
3000b5ec:	00100513          	li	a0,1
3000b5f0:	00008067          	ret

3000b5f4 <_Z7toPrintP15_tgfTextOverlayPc>:
3000b5f4:	00050463          	beqz	a0,3000b5fc <_Z7toPrintP15_tgfTextOverlayPc+0x8>
3000b5f8:	a9cff06f          	j	3000a894 <_Z7toPrintP15_tgfTextOverlayPc.part.1>
3000b5fc:	00100513          	li	a0,1
3000b600:	00008067          	ret

3000b604 <_Z8toPrintFP15_tgfTextOverlayPcz>:
3000b604:	f7010113          	addi	sp,sp,-144
3000b608:	05512a23          	sw	s5,84(sp)
3000b60c:	08f12223          	sw	a5,132(sp)
3000b610:	3000fab7          	lui	s5,0x3000f
3000b614:	07810793          	addi	a5,sp,120
3000b618:	00f12e23          	sw	a5,28(sp)
3000b61c:	fb4a8793          	addi	a5,s5,-76 # 3000efb4 <_ZZ6f_mkfsE3cst+0x18>
3000b620:	06912223          	sw	s1,100(sp)
3000b624:	07212023          	sw	s2,96(sp)
3000b628:	05312e23          	sw	s3,92(sp)
3000b62c:	05412c23          	sw	s4,88(sp)
3000b630:	05612823          	sw	s6,80(sp)
3000b634:	05712623          	sw	s7,76(sp)
3000b638:	06112623          	sw	ra,108(sp)
3000b63c:	06812423          	sw	s0,104(sp)
3000b640:	05812423          	sw	s8,72(sp)
3000b644:	05912223          	sw	s9,68(sp)
3000b648:	05a12023          	sw	s10,64(sp)
3000b64c:	03b12e23          	sw	s11,60(sp)
3000b650:	00050493          	mv	s1,a0
3000b654:	00058b13          	mv	s6,a1
3000b658:	06c12c23          	sw	a2,120(sp)
3000b65c:	06d12e23          	sw	a3,124(sp)
3000b660:	08e12023          	sw	a4,128(sp)
3000b664:	09012423          	sw	a6,136(sp)
3000b668:	09112623          	sw	a7,140(sp)
3000b66c:	00010ca3          	sb	zero,25(sp)
3000b670:	02500a13          	li	s4,37
3000b674:	03000b93          	li	s7,48
3000b678:	00900913          	li	s2,9
3000b67c:	00f12623          	sw	a5,12(sp)
3000b680:	02010993          	addi	s3,sp,32
3000b684:	000b4783          	lbu	a5,0(s6)
3000b688:	001b0413          	addi	s0,s6,1
3000b68c:	02078663          	beqz	a5,3000b6b8 <_Z8toPrintFP15_tgfTextOverlayPcz+0xb4>
3000b690:	07478463          	beq	a5,s4,3000b6f8 <_Z8toPrintFP15_tgfTextOverlayPcz+0xf4>
3000b694:	00f10c23          	sb	a5,24(sp)
3000b698:	5a048063          	beqz	s1,3000bc38 <_Z8toPrintFP15_tgfTextOverlayPcz+0x634>
3000b69c:	01810593          	addi	a1,sp,24
3000b6a0:	00048513          	mv	a0,s1
3000b6a4:	00040b13          	mv	s6,s0
3000b6a8:	9ecff0ef          	jal	ra,3000a894 <_Z7toPrintP15_tgfTextOverlayPc.part.1>
3000b6ac:	000b4783          	lbu	a5,0(s6)
3000b6b0:	001b0413          	addi	s0,s6,1
3000b6b4:	fc079ee3          	bnez	a5,3000b690 <_Z8toPrintFP15_tgfTextOverlayPcz+0x8c>
3000b6b8:	06c12083          	lw	ra,108(sp)
3000b6bc:	06812403          	lw	s0,104(sp)
3000b6c0:	06412483          	lw	s1,100(sp)
3000b6c4:	06012903          	lw	s2,96(sp)
3000b6c8:	05c12983          	lw	s3,92(sp)
3000b6cc:	05812a03          	lw	s4,88(sp)
3000b6d0:	05412a83          	lw	s5,84(sp)
3000b6d4:	05012b03          	lw	s6,80(sp)
3000b6d8:	04c12b83          	lw	s7,76(sp)
3000b6dc:	04812c03          	lw	s8,72(sp)
3000b6e0:	04412c83          	lw	s9,68(sp)
3000b6e4:	04012d03          	lw	s10,64(sp)
3000b6e8:	03c12d83          	lw	s11,60(sp)
3000b6ec:	00000513          	li	a0,0
3000b6f0:	09010113          	addi	sp,sp,144
3000b6f4:	00008067          	ret
3000b6f8:	001b4703          	lbu	a4,1(s6)
3000b6fc:	55770263          	beq	a4,s7,3000bc40 <_Z8toPrintFP15_tgfTextOverlayPcz+0x63c>
3000b700:	02d00793          	li	a5,45
3000b704:	56f70663          	beq	a4,a5,3000bc70 <_Z8toPrintFP15_tgfTextOverlayPcz+0x66c>
3000b708:	002b0b13          	addi	s6,s6,2
3000b70c:	00000c93          	li	s9,0
3000b710:	00000593          	li	a1,0
3000b714:	00400893          	li	a7,4
3000b718:	00000513          	li	a0,0
3000b71c:	fd070793          	addi	a5,a4,-48
3000b720:	0ff7f793          	andi	a5,a5,255
3000b724:	00000a93          	li	s5,0
3000b728:	02f96663          	bltu	s2,a5,3000b754 <_Z8toPrintFP15_tgfTextOverlayPcz+0x150>
3000b72c:	002a9793          	slli	a5,s5,0x2
3000b730:	015787b3          	add	a5,a5,s5
3000b734:	00179793          	slli	a5,a5,0x1
3000b738:	001b0b13          	addi	s6,s6,1
3000b73c:	00e787b3          	add	a5,a5,a4
3000b740:	fffb4703          	lbu	a4,-1(s6)
3000b744:	fd078a93          	addi	s5,a5,-48
3000b748:	fd070693          	addi	a3,a4,-48
3000b74c:	0ff6f693          	andi	a3,a3,255
3000b750:	fcd97ee3          	bgeu	s2,a3,3000b72c <_Z8toPrintFP15_tgfTextOverlayPcz+0x128>
3000b754:	0df77793          	andi	a5,a4,223
3000b758:	04c00693          	li	a3,76
3000b75c:	00000813          	li	a6,0
3000b760:	04d78463          	beq	a5,a3,3000b7a8 <_Z8toPrintFP15_tgfTextOverlayPcz+0x1a4>
3000b764:	f4070ae3          	beqz	a4,3000b6b8 <_Z8toPrintFP15_tgfTextOverlayPcz+0xb4>
3000b768:	f9f70793          	addi	a5,a4,-97
3000b76c:	0ff7f793          	andi	a5,a5,255
3000b770:	01900893          	li	a7,25
3000b774:	00070693          	mv	a3,a4
3000b778:	00f8e663          	bltu	a7,a5,3000b784 <_Z8toPrintFP15_tgfTextOverlayPcz+0x180>
3000b77c:	fe070693          	addi	a3,a4,-32
3000b780:	0ff6f693          	andi	a3,a3,255
3000b784:	fbe68793          	addi	a5,a3,-66
3000b788:	0ff7f793          	andi	a5,a5,255
3000b78c:	01600893          	li	a7,22
3000b790:	48f8e863          	bltu	a7,a5,3000bc20 <_Z8toPrintFP15_tgfTextOverlayPcz+0x61c>
3000b794:	00c12603          	lw	a2,12(sp)
3000b798:	00279793          	slli	a5,a5,0x2
3000b79c:	00c787b3          	add	a5,a5,a2
3000b7a0:	0007a783          	lw	a5,0(a5)
3000b7a4:	00078067          	jr	a5
3000b7a8:	000b4703          	lbu	a4,0(s6)
3000b7ac:	00088513          	mv	a0,a7
3000b7b0:	001b0b13          	addi	s6,s6,1
3000b7b4:	00400813          	li	a6,4
3000b7b8:	fadff06f          	j	3000b764 <_Z8toPrintFP15_tgfTextOverlayPcz+0x160>
3000b7bc:	01c12e03          	lw	t3,28(sp)
3000b7c0:	00a00793          	li	a5,10
3000b7c4:	000e2f03          	lw	t5,0(t3)
3000b7c8:	004e0e93          	addi	t4,t3,4
3000b7cc:	42080c63          	beqz	a6,3000bc04 <_Z8toPrintFP15_tgfTextOverlayPcz+0x600>
3000b7d0:	01d12e23          	sw	t4,28(sp)
3000b7d4:	04400813          	li	a6,68
3000b7d8:	000f0893          	mv	a7,t5
3000b7dc:	3f069263          	bne	a3,a6,3000bbc0 <_Z8toPrintFP15_tgfTextOverlayPcz+0x5bc>
3000b7e0:	00000813          	li	a6,0
3000b7e4:	4e0f4663          	bltz	t5,3000bcd0 <_Z8toPrintFP15_tgfTextOverlayPcz+0x6cc>
3000b7e8:	07800513          	li	a0,120
3000b7ec:	00700693          	li	a3,7
3000b7f0:	00a71463          	bne	a4,a0,3000b7f8 <_Z8toPrintFP15_tgfTextOverlayPcz+0x1f4>
3000b7f4:	02700693          	li	a3,39
3000b7f8:	02f8f533          	remu	a0,a7,a5
3000b7fc:	0ff6f713          	andi	a4,a3,255
3000b800:	02f8de33          	divu	t3,a7,a5
3000b804:	0ff57693          	andi	a3,a0,255
3000b808:	00a97663          	bgeu	s2,a0,3000b814 <_Z8toPrintFP15_tgfTextOverlayPcz+0x210>
3000b80c:	00d706b3          	add	a3,a4,a3
3000b810:	0ff6f693          	andi	a3,a3,255
3000b814:	03068693          	addi	a3,a3,48
3000b818:	02d10023          	sb	a3,32(sp)
3000b81c:	6ef8e263          	bltu	a7,a5,3000bf00 <_Z8toPrintFP15_tgfTextOverlayPcz+0x8fc>
3000b820:	02fe7533          	remu	a0,t3,a5
3000b824:	02fe58b3          	divu	a7,t3,a5
3000b828:	0ff57693          	andi	a3,a0,255
3000b82c:	00a97663          	bgeu	s2,a0,3000b838 <_Z8toPrintFP15_tgfTextOverlayPcz+0x234>
3000b830:	00e686b3          	add	a3,a3,a4
3000b834:	0ff6f693          	andi	a3,a3,255
3000b838:	03068693          	addi	a3,a3,48
3000b83c:	02d100a3          	sb	a3,33(sp)
3000b840:	68fe6063          	bltu	t3,a5,3000bec0 <_Z8toPrintFP15_tgfTextOverlayPcz+0x8bc>
3000b844:	02f8f533          	remu	a0,a7,a5
3000b848:	02f8de33          	divu	t3,a7,a5
3000b84c:	0ff57693          	andi	a3,a0,255
3000b850:	00a97663          	bgeu	s2,a0,3000b85c <_Z8toPrintFP15_tgfTextOverlayPcz+0x258>
3000b854:	00e686b3          	add	a3,a3,a4
3000b858:	0ff6f693          	andi	a3,a3,255
3000b85c:	03068693          	addi	a3,a3,48
3000b860:	02d10123          	sb	a3,34(sp)
3000b864:	66f8e463          	bltu	a7,a5,3000becc <_Z8toPrintFP15_tgfTextOverlayPcz+0x8c8>
3000b868:	02fe7533          	remu	a0,t3,a5
3000b86c:	02fe58b3          	divu	a7,t3,a5
3000b870:	0ff57693          	andi	a3,a0,255
3000b874:	00a97663          	bgeu	s2,a0,3000b880 <_Z8toPrintFP15_tgfTextOverlayPcz+0x27c>
3000b878:	00e686b3          	add	a3,a3,a4
3000b87c:	0ff6f693          	andi	a3,a3,255
3000b880:	03068693          	addi	a3,a3,48
3000b884:	02d101a3          	sb	a3,35(sp)
3000b888:	64fe6863          	bltu	t3,a5,3000bed8 <_Z8toPrintFP15_tgfTextOverlayPcz+0x8d4>
3000b88c:	02f8f533          	remu	a0,a7,a5
3000b890:	02f8de33          	divu	t3,a7,a5
3000b894:	0ff57693          	andi	a3,a0,255
3000b898:	00a97663          	bgeu	s2,a0,3000b8a4 <_Z8toPrintFP15_tgfTextOverlayPcz+0x2a0>
3000b89c:	00e686b3          	add	a3,a3,a4
3000b8a0:	0ff6f693          	andi	a3,a3,255
3000b8a4:	03068693          	addi	a3,a3,48
3000b8a8:	02d10223          	sb	a3,36(sp)
3000b8ac:	64f8e463          	bltu	a7,a5,3000bef4 <_Z8toPrintFP15_tgfTextOverlayPcz+0x8f0>
3000b8b0:	02fe7533          	remu	a0,t3,a5
3000b8b4:	02fe58b3          	divu	a7,t3,a5
3000b8b8:	0ff57693          	andi	a3,a0,255
3000b8bc:	00a97663          	bgeu	s2,a0,3000b8c8 <_Z8toPrintFP15_tgfTextOverlayPcz+0x2c4>
3000b8c0:	00e686b3          	add	a3,a3,a4
3000b8c4:	0ff6f693          	andi	a3,a3,255
3000b8c8:	03068693          	addi	a3,a3,48
3000b8cc:	02d102a3          	sb	a3,37(sp)
3000b8d0:	62fe6e63          	bltu	t3,a5,3000bf0c <_Z8toPrintFP15_tgfTextOverlayPcz+0x908>
3000b8d4:	02f8f533          	remu	a0,a7,a5
3000b8d8:	02f8de33          	divu	t3,a7,a5
3000b8dc:	0ff57693          	andi	a3,a0,255
3000b8e0:	00a97663          	bgeu	s2,a0,3000b8ec <_Z8toPrintFP15_tgfTextOverlayPcz+0x2e8>
3000b8e4:	00e686b3          	add	a3,a3,a4
3000b8e8:	0ff6f693          	andi	a3,a3,255
3000b8ec:	03068693          	addi	a3,a3,48
3000b8f0:	02d10323          	sb	a3,38(sp)
3000b8f4:	62f8e263          	bltu	a7,a5,3000bf18 <_Z8toPrintFP15_tgfTextOverlayPcz+0x914>
3000b8f8:	02fe7533          	remu	a0,t3,a5
3000b8fc:	02fe58b3          	divu	a7,t3,a5
3000b900:	0ff57693          	andi	a3,a0,255
3000b904:	00a97663          	bgeu	s2,a0,3000b910 <_Z8toPrintFP15_tgfTextOverlayPcz+0x30c>
3000b908:	00e686b3          	add	a3,a3,a4
3000b90c:	0ff6f693          	andi	a3,a3,255
3000b910:	03068693          	addi	a3,a3,48
3000b914:	02d103a3          	sb	a3,39(sp)
3000b918:	60fe6663          	bltu	t3,a5,3000bf24 <_Z8toPrintFP15_tgfTextOverlayPcz+0x920>
3000b91c:	02f8f533          	remu	a0,a7,a5
3000b920:	02f8de33          	divu	t3,a7,a5
3000b924:	0ff57693          	andi	a3,a0,255
3000b928:	00a97663          	bgeu	s2,a0,3000b934 <_Z8toPrintFP15_tgfTextOverlayPcz+0x330>
3000b92c:	00e686b3          	add	a3,a3,a4
3000b930:	0ff6f693          	andi	a3,a3,255
3000b934:	03068693          	addi	a3,a3,48
3000b938:	02d10423          	sb	a3,40(sp)
3000b93c:	5ef8ea63          	bltu	a7,a5,3000bf30 <_Z8toPrintFP15_tgfTextOverlayPcz+0x92c>
3000b940:	02fe7533          	remu	a0,t3,a5
3000b944:	02fe58b3          	divu	a7,t3,a5
3000b948:	0ff57693          	andi	a3,a0,255
3000b94c:	00a97663          	bgeu	s2,a0,3000b958 <_Z8toPrintFP15_tgfTextOverlayPcz+0x354>
3000b950:	00e686b3          	add	a3,a3,a4
3000b954:	0ff6f693          	andi	a3,a3,255
3000b958:	03068693          	addi	a3,a3,48
3000b95c:	02d104a3          	sb	a3,41(sp)
3000b960:	5cfe6e63          	bltu	t3,a5,3000bf3c <_Z8toPrintFP15_tgfTextOverlayPcz+0x938>
3000b964:	02f8f533          	remu	a0,a7,a5
3000b968:	02f8de33          	divu	t3,a7,a5
3000b96c:	0ff57693          	andi	a3,a0,255
3000b970:	00a97663          	bgeu	s2,a0,3000b97c <_Z8toPrintFP15_tgfTextOverlayPcz+0x378>
3000b974:	00e686b3          	add	a3,a3,a4
3000b978:	0ff6f693          	andi	a3,a3,255
3000b97c:	03068693          	addi	a3,a3,48
3000b980:	02d10523          	sb	a3,42(sp)
3000b984:	5cf8e263          	bltu	a7,a5,3000bf48 <_Z8toPrintFP15_tgfTextOverlayPcz+0x944>
3000b988:	02fe7533          	remu	a0,t3,a5
3000b98c:	02fe58b3          	divu	a7,t3,a5
3000b990:	0ff57693          	andi	a3,a0,255
3000b994:	00a97663          	bgeu	s2,a0,3000b9a0 <_Z8toPrintFP15_tgfTextOverlayPcz+0x39c>
3000b998:	00e686b3          	add	a3,a3,a4
3000b99c:	0ff6f693          	andi	a3,a3,255
3000b9a0:	03068693          	addi	a3,a3,48
3000b9a4:	02d105a3          	sb	a3,43(sp)
3000b9a8:	5afe6663          	bltu	t3,a5,3000bf54 <_Z8toPrintFP15_tgfTextOverlayPcz+0x950>
3000b9ac:	02f8f533          	remu	a0,a7,a5
3000b9b0:	02f8de33          	divu	t3,a7,a5
3000b9b4:	0ff57693          	andi	a3,a0,255
3000b9b8:	00a97663          	bgeu	s2,a0,3000b9c4 <_Z8toPrintFP15_tgfTextOverlayPcz+0x3c0>
3000b9bc:	00e686b3          	add	a3,a3,a4
3000b9c0:	0ff6f693          	andi	a3,a3,255
3000b9c4:	03068693          	addi	a3,a3,48
3000b9c8:	02d10623          	sb	a3,44(sp)
3000b9cc:	58f8ea63          	bltu	a7,a5,3000bf60 <_Z8toPrintFP15_tgfTextOverlayPcz+0x95c>
3000b9d0:	02fe7533          	remu	a0,t3,a5
3000b9d4:	02fe5eb3          	divu	t4,t3,a5
3000b9d8:	0ff57693          	andi	a3,a0,255
3000b9dc:	2aa96863          	bltu	s2,a0,3000bc8c <_Z8toPrintFP15_tgfTextOverlayPcz+0x688>
3000b9e0:	03068693          	addi	a3,a3,48
3000b9e4:	02d106a3          	sb	a3,45(sp)
3000b9e8:	58fe6263          	bltu	t3,a5,3000bf6c <_Z8toPrintFP15_tgfTextOverlayPcz+0x968>
3000b9ec:	02fef533          	remu	a0,t4,a5
3000b9f0:	02fed8b3          	divu	a7,t4,a5
3000b9f4:	0ff57693          	andi	a3,a0,255
3000b9f8:	2aa96063          	bltu	s2,a0,3000bc98 <_Z8toPrintFP15_tgfTextOverlayPcz+0x694>
3000b9fc:	03068693          	addi	a3,a3,48
3000ba00:	02d10723          	sb	a3,46(sp)
3000ba04:	56feea63          	bltu	t4,a5,3000bf78 <_Z8toPrintFP15_tgfTextOverlayPcz+0x974>
3000ba08:	02f8f7b3          	remu	a5,a7,a5
3000ba0c:	0ff7f693          	andi	a3,a5,255
3000ba10:	00f97663          	bgeu	s2,a5,3000ba1c <_Z8toPrintFP15_tgfTextOverlayPcz+0x418>
3000ba14:	00e686b3          	add	a3,a3,a4
3000ba18:	0ff6f693          	andi	a3,a3,255
3000ba1c:	03068693          	addi	a3,a3,48
3000ba20:	02d107a3          	sb	a3,47(sp)
3000ba24:	01000c13          	li	s8,16
3000ba28:	00f00793          	li	a5,15
3000ba2c:	00080c63          	beqz	a6,3000ba44 <_Z8toPrintFP15_tgfTextOverlayPcz+0x440>
3000ba30:	03010713          	addi	a4,sp,48
3000ba34:	01870c33          	add	s8,a4,s8
3000ba38:	02d00713          	li	a4,45
3000ba3c:	feec0823          	sb	a4,-16(s8)
3000ba40:	00278c13          	addi	s8,a5,2
3000ba44:	fffc8c93          	addi	s9,s9,-1
3000ba48:	ff0cfc93          	andi	s9,s9,-16
3000ba4c:	030c8c93          	addi	s9,s9,48
3000ba50:	20059663          	bnez	a1,3000bc5c <_Z8toPrintFP15_tgfTextOverlayPcz+0x658>
3000ba54:	2a048063          	beqz	s1,3000bcf4 <_Z8toPrintFP15_tgfTextOverlayPcz+0x6f0>
3000ba58:	001c0d13          	addi	s10,s8,1
3000ba5c:	002c0413          	addi	s0,s8,2
3000ba60:	035c7663          	bgeu	s8,s5,3000ba8c <_Z8toPrintFP15_tgfTextOverlayPcz+0x488>
3000ba64:	002c0d13          	addi	s10,s8,2
3000ba68:	002a8d93          	addi	s11,s5,2
3000ba6c:	0080006f          	j	3000ba74 <_Z8toPrintFP15_tgfTextOverlayPcz+0x470>
3000ba70:	00040d13          	mv	s10,s0
3000ba74:	001d0413          	addi	s0,s10,1
3000ba78:	01810593          	addi	a1,sp,24
3000ba7c:	00048513          	mv	a0,s1
3000ba80:	01910c23          	sb	s9,24(sp)
3000ba84:	e11fe0ef          	jal	ra,3000a894 <_Z7toPrintP15_tgfTextOverlayPc.part.1>
3000ba88:	fe8d94e3          	bne	s11,s0,3000ba70 <_Z8toPrintFP15_tgfTextOverlayPcz+0x46c>
3000ba8c:	01898c33          	add	s8,s3,s8
3000ba90:	fffc4783          	lbu	a5,-1(s8)
3000ba94:	01810593          	addi	a1,sp,24
3000ba98:	fffc0c13          	addi	s8,s8,-1
3000ba9c:	00048513          	mv	a0,s1
3000baa0:	00f10c23          	sb	a5,24(sp)
3000baa4:	df1fe0ef          	jal	ra,3000a894 <_Z7toPrintP15_tgfTextOverlayPc.part.1>
3000baa8:	ff8994e3          	bne	s3,s8,3000ba90 <_Z8toPrintFP15_tgfTextOverlayPcz+0x48c>
3000baac:	015d6663          	bltu	s10,s5,3000bab8 <_Z8toPrintFP15_tgfTextOverlayPcz+0x4b4>
3000bab0:	bd5ff06f          	j	3000b684 <_Z8toPrintFP15_tgfTextOverlayPcz+0x80>
3000bab4:	00078413          	mv	s0,a5
3000bab8:	01810593          	addi	a1,sp,24
3000babc:	00048513          	mv	a0,s1
3000bac0:	01910c23          	sb	s9,24(sp)
3000bac4:	dd1fe0ef          	jal	ra,3000a894 <_Z7toPrintP15_tgfTextOverlayPc.part.1>
3000bac8:	00140793          	addi	a5,s0,1
3000bacc:	fe8a94e3          	bne	s5,s0,3000bab4 <_Z8toPrintFP15_tgfTextOverlayPcz+0x4b0>
3000bad0:	bb5ff06f          	j	3000b684 <_Z8toPrintFP15_tgfTextOverlayPcz+0x80>
3000bad4:	01c12783          	lw	a5,28(sp)
3000bad8:	0007a703          	lw	a4,0(a5)
3000badc:	00478793          	addi	a5,a5,4
3000bae0:	00f12e23          	sw	a5,28(sp)
3000bae4:	00e10c23          	sb	a4,24(sp)
3000bae8:	b8048ee3          	beqz	s1,3000b684 <_Z8toPrintFP15_tgfTextOverlayPcz+0x80>
3000baec:	01810593          	addi	a1,sp,24
3000baf0:	00048513          	mv	a0,s1
3000baf4:	da1fe0ef          	jal	ra,3000a894 <_Z7toPrintP15_tgfTextOverlayPc.part.1>
3000baf8:	b8dff06f          	j	3000b684 <_Z8toPrintFP15_tgfTextOverlayPcz+0x80>
3000bafc:	01c12e03          	lw	t3,28(sp)
3000bb00:	01000793          	li	a5,16
3000bb04:	000e2883          	lw	a7,0(t3)
3000bb08:	004e0e93          	addi	t4,t3,4
3000bb0c:	1c081c63          	bnez	a6,3000bce4 <_Z8toPrintFP15_tgfTextOverlayPcz+0x6e0>
3000bb10:	01d12e23          	sw	t4,28(sp)
3000bb14:	000e2883          	lw	a7,0(t3)
3000bb18:	00000813          	li	a6,0
3000bb1c:	ccdff06f          	j	3000b7e8 <_Z8toPrintFP15_tgfTextOverlayPcz+0x1e4>
3000bb20:	01c12783          	lw	a5,28(sp)
3000bb24:	00000c13          	li	s8,0
3000bb28:	0007a403          	lw	s0,0(a5)
3000bb2c:	00478793          	addi	a5,a5,4
3000bb30:	00f12e23          	sw	a5,28(sp)
3000bb34:	00044783          	lbu	a5,0(s0)
3000bb38:	00078a63          	beqz	a5,3000bb4c <_Z8toPrintFP15_tgfTextOverlayPcz+0x548>
3000bb3c:	001c0c13          	addi	s8,s8,1
3000bb40:	01840733          	add	a4,s0,s8
3000bb44:	00074703          	lbu	a4,0(a4)
3000bb48:	fe071ae3          	bnez	a4,3000bb3c <_Z8toPrintFP15_tgfTextOverlayPcz+0x538>
3000bb4c:	32058c63          	beqz	a1,3000be84 <_Z8toPrintFP15_tgfTextOverlayPcz+0x880>
3000bb50:	16048663          	beqz	s1,3000bcbc <_Z8toPrintFP15_tgfTextOverlayPcz+0x6b8>
3000bb54:	02078063          	beqz	a5,3000bb74 <_Z8toPrintFP15_tgfTextOverlayPcz+0x570>
3000bb58:	01810593          	addi	a1,sp,24
3000bb5c:	00048513          	mv	a0,s1
3000bb60:	00f10c23          	sb	a5,24(sp)
3000bb64:	00140413          	addi	s0,s0,1
3000bb68:	d2dfe0ef          	jal	ra,3000a894 <_Z7toPrintP15_tgfTextOverlayPc.part.1>
3000bb6c:	00044783          	lbu	a5,0(s0)
3000bb70:	fe0794e3          	bnez	a5,3000bb58 <_Z8toPrintFP15_tgfTextOverlayPcz+0x554>
3000bb74:	001c0413          	addi	s0,s8,1
3000bb78:	02000c93          	li	s9,32
3000bb7c:	015c6663          	bltu	s8,s5,3000bb88 <_Z8toPrintFP15_tgfTextOverlayPcz+0x584>
3000bb80:	b05ff06f          	j	3000b684 <_Z8toPrintFP15_tgfTextOverlayPcz+0x80>
3000bb84:	00078413          	mv	s0,a5
3000bb88:	01810593          	addi	a1,sp,24
3000bb8c:	00048513          	mv	a0,s1
3000bb90:	01910c23          	sb	s9,24(sp)
3000bb94:	d01fe0ef          	jal	ra,3000a894 <_Z7toPrintP15_tgfTextOverlayPc.part.1>
3000bb98:	00140793          	addi	a5,s0,1
3000bb9c:	fe8a94e3          	bne	s5,s0,3000bb84 <_Z8toPrintFP15_tgfTextOverlayPcz+0x580>
3000bba0:	ae5ff06f          	j	3000b684 <_Z8toPrintFP15_tgfTextOverlayPcz+0x80>
3000bba4:	01c12e03          	lw	t3,28(sp)
3000bba8:	00200793          	li	a5,2
3000bbac:	000e2883          	lw	a7,0(t3)
3000bbb0:	004e0e93          	addi	t4,t3,4
3000bbb4:	f4080ee3          	beqz	a6,3000bb10 <_Z8toPrintFP15_tgfTextOverlayPcz+0x50c>
3000bbb8:	01d12e23          	sw	t4,28(sp)
3000bbbc:	00200793          	li	a5,2
3000bbc0:	07800693          	li	a3,120
3000bbc4:	00700513          	li	a0,7
3000bbc8:	00d71463          	bne	a4,a3,3000bbd0 <_Z8toPrintFP15_tgfTextOverlayPcz+0x5cc>
3000bbcc:	02700513          	li	a0,39
3000bbd0:	02f8f6b3          	remu	a3,a7,a5
3000bbd4:	0ff57713          	andi	a4,a0,255
3000bbd8:	03068693          	addi	a3,a3,48
3000bbdc:	02d10023          	sb	a3,32(sp)
3000bbe0:	02f8de33          	divu	t3,a7,a5
3000bbe4:	3af8e063          	bltu	a7,a5,3000bf84 <_Z8toPrintFP15_tgfTextOverlayPcz+0x980>
3000bbe8:	00000813          	li	a6,0
3000bbec:	c35ff06f          	j	3000b820 <_Z8toPrintFP15_tgfTextOverlayPcz+0x21c>
3000bbf0:	01c12e03          	lw	t3,28(sp)
3000bbf4:	00800793          	li	a5,8
3000bbf8:	000e2f03          	lw	t5,0(t3)
3000bbfc:	004e0e93          	addi	t4,t3,4
3000bc00:	bc0818e3          	bnez	a6,3000b7d0 <_Z8toPrintFP15_tgfTextOverlayPcz+0x1cc>
3000bc04:	04400813          	li	a6,68
3000bc08:	f10694e3          	bne	a3,a6,3000bb10 <_Z8toPrintFP15_tgfTextOverlayPcz+0x50c>
3000bc0c:	01d12e23          	sw	t4,28(sp)
3000bc10:	000f0893          	mv	a7,t5
3000bc14:	00000813          	li	a6,0
3000bc18:	bc0f58e3          	bgez	t5,3000b7e8 <_Z8toPrintFP15_tgfTextOverlayPcz+0x1e4>
3000bc1c:	0b40006f          	j	3000bcd0 <_Z8toPrintFP15_tgfTextOverlayPcz+0x6cc>
3000bc20:	00e10c23          	sb	a4,24(sp)
3000bc24:	a60480e3          	beqz	s1,3000b684 <_Z8toPrintFP15_tgfTextOverlayPcz+0x80>
3000bc28:	01810593          	addi	a1,sp,24
3000bc2c:	00048513          	mv	a0,s1
3000bc30:	c65fe0ef          	jal	ra,3000a894 <_Z7toPrintP15_tgfTextOverlayPc.part.1>
3000bc34:	a51ff06f          	j	3000b684 <_Z8toPrintFP15_tgfTextOverlayPcz+0x80>
3000bc38:	00040b13          	mv	s6,s0
3000bc3c:	a49ff06f          	j	3000b684 <_Z8toPrintFP15_tgfTextOverlayPcz+0x80>
3000bc40:	002b4703          	lbu	a4,2(s6)
3000bc44:	00100c93          	li	s9,1
3000bc48:	003b0b13          	addi	s6,s6,3
3000bc4c:	00000593          	li	a1,0
3000bc50:	00500893          	li	a7,5
3000bc54:	00100513          	li	a0,1
3000bc58:	ac5ff06f          	j	3000b71c <_Z8toPrintFP15_tgfTextOverlayPcz+0x118>
3000bc5c:	000c0d13          	mv	s10,s8
3000bc60:	001c0413          	addi	s0,s8,1
3000bc64:	e20494e3          	bnez	s1,3000ba8c <_Z8toPrintFP15_tgfTextOverlayPcz+0x488>
3000bc68:	000c0793          	mv	a5,s8
3000bc6c:	0940006f          	j	3000bd00 <_Z8toPrintFP15_tgfTextOverlayPcz+0x6fc>
3000bc70:	002b4703          	lbu	a4,2(s6)
3000bc74:	00000c93          	li	s9,0
3000bc78:	003b0b13          	addi	s6,s6,3
3000bc7c:	00200593          	li	a1,2
3000bc80:	00600893          	li	a7,6
3000bc84:	00200513          	li	a0,2
3000bc88:	a95ff06f          	j	3000b71c <_Z8toPrintFP15_tgfTextOverlayPcz+0x118>
3000bc8c:	00e686b3          	add	a3,a3,a4
3000bc90:	0ff6f693          	andi	a3,a3,255
3000bc94:	d4dff06f          	j	3000b9e0 <_Z8toPrintFP15_tgfTextOverlayPcz+0x3dc>
3000bc98:	00e686b3          	add	a3,a3,a4
3000bc9c:	0ff6f693          	andi	a3,a3,255
3000bca0:	d5dff06f          	j	3000b9fc <_Z8toPrintFP15_tgfTextOverlayPcz+0x3f8>
3000bca4:	001c0713          	addi	a4,s8,1
3000bca8:	2f5c7663          	bgeu	s8,s5,3000bf94 <_Z8toPrintFP15_tgfTextOverlayPcz+0x990>
3000bcac:	02000793          	li	a5,32
3000bcb0:	00f10c23          	sb	a5,24(sp)
3000bcb4:	00044783          	lbu	a5,0(s0)
3000bcb8:	001a8c13          	addi	s8,s5,1
3000bcbc:	22078463          	beqz	a5,3000bee4 <_Z8toPrintFP15_tgfTextOverlayPcz+0x8e0>
3000bcc0:	00140413          	addi	s0,s0,1
3000bcc4:	00f10c23          	sb	a5,24(sp)
3000bcc8:	00044783          	lbu	a5,0(s0)
3000bccc:	ff1ff06f          	j	3000bcbc <_Z8toPrintFP15_tgfTextOverlayPcz+0x6b8>
3000bcd0:	41e008b3          	neg	a7,t5
3000bcd4:	00157c93          	andi	s9,a0,1
3000bcd8:	00257593          	andi	a1,a0,2
3000bcdc:	00800813          	li	a6,8
3000bce0:	b09ff06f          	j	3000b7e8 <_Z8toPrintFP15_tgfTextOverlayPcz+0x1e4>
3000bce4:	01d12e23          	sw	t4,28(sp)
3000bce8:	00000813          	li	a6,0
3000bcec:	01000793          	li	a5,16
3000bcf0:	af9ff06f          	j	3000b7e8 <_Z8toPrintFP15_tgfTextOverlayPcz+0x1e4>
3000bcf4:	001c0793          	addi	a5,s8,1
3000bcf8:	015c7463          	bgeu	s8,s5,3000bd00 <_Z8toPrintFP15_tgfTextOverlayPcz+0x6fc>
3000bcfc:	001a8793          	addi	a5,s5,1
3000bd00:	fffc0713          	addi	a4,s8,-1
3000bd04:	03010693          	addi	a3,sp,48
3000bd08:	00e686b3          	add	a3,a3,a4
3000bd0c:	ff06c683          	lbu	a3,-16(a3)
3000bd10:	00d10c23          	sb	a3,24(sp)
3000bd14:	16070263          	beqz	a4,3000be78 <_Z8toPrintFP15_tgfTextOverlayPcz+0x874>
3000bd18:	ffec0713          	addi	a4,s8,-2
3000bd1c:	03010693          	addi	a3,sp,48
3000bd20:	00e686b3          	add	a3,a3,a4
3000bd24:	ff06c683          	lbu	a3,-16(a3)
3000bd28:	00d10c23          	sb	a3,24(sp)
3000bd2c:	14070663          	beqz	a4,3000be78 <_Z8toPrintFP15_tgfTextOverlayPcz+0x874>
3000bd30:	ffdc0713          	addi	a4,s8,-3
3000bd34:	03010693          	addi	a3,sp,48
3000bd38:	00e686b3          	add	a3,a3,a4
3000bd3c:	ff06c683          	lbu	a3,-16(a3)
3000bd40:	00d10c23          	sb	a3,24(sp)
3000bd44:	12070a63          	beqz	a4,3000be78 <_Z8toPrintFP15_tgfTextOverlayPcz+0x874>
3000bd48:	ffcc0713          	addi	a4,s8,-4
3000bd4c:	03010693          	addi	a3,sp,48
3000bd50:	00e686b3          	add	a3,a3,a4
3000bd54:	ff06c683          	lbu	a3,-16(a3)
3000bd58:	00d10c23          	sb	a3,24(sp)
3000bd5c:	10070e63          	beqz	a4,3000be78 <_Z8toPrintFP15_tgfTextOverlayPcz+0x874>
3000bd60:	ffbc0713          	addi	a4,s8,-5
3000bd64:	03010693          	addi	a3,sp,48
3000bd68:	00e686b3          	add	a3,a3,a4
3000bd6c:	ff06c683          	lbu	a3,-16(a3)
3000bd70:	00d10c23          	sb	a3,24(sp)
3000bd74:	10070263          	beqz	a4,3000be78 <_Z8toPrintFP15_tgfTextOverlayPcz+0x874>
3000bd78:	ffac0713          	addi	a4,s8,-6
3000bd7c:	03010693          	addi	a3,sp,48
3000bd80:	00e686b3          	add	a3,a3,a4
3000bd84:	ff06c683          	lbu	a3,-16(a3)
3000bd88:	00d10c23          	sb	a3,24(sp)
3000bd8c:	0e070663          	beqz	a4,3000be78 <_Z8toPrintFP15_tgfTextOverlayPcz+0x874>
3000bd90:	ff9c0713          	addi	a4,s8,-7
3000bd94:	03010693          	addi	a3,sp,48
3000bd98:	00e686b3          	add	a3,a3,a4
3000bd9c:	ff06c683          	lbu	a3,-16(a3)
3000bda0:	00d10c23          	sb	a3,24(sp)
3000bda4:	0c070a63          	beqz	a4,3000be78 <_Z8toPrintFP15_tgfTextOverlayPcz+0x874>
3000bda8:	ff8c0713          	addi	a4,s8,-8
3000bdac:	03010693          	addi	a3,sp,48
3000bdb0:	00e686b3          	add	a3,a3,a4
3000bdb4:	ff06c683          	lbu	a3,-16(a3)
3000bdb8:	00d10c23          	sb	a3,24(sp)
3000bdbc:	0a070e63          	beqz	a4,3000be78 <_Z8toPrintFP15_tgfTextOverlayPcz+0x874>
3000bdc0:	ff7c0713          	addi	a4,s8,-9
3000bdc4:	03010693          	addi	a3,sp,48
3000bdc8:	00e686b3          	add	a3,a3,a4
3000bdcc:	ff06c683          	lbu	a3,-16(a3)
3000bdd0:	00d10c23          	sb	a3,24(sp)
3000bdd4:	0a070263          	beqz	a4,3000be78 <_Z8toPrintFP15_tgfTextOverlayPcz+0x874>
3000bdd8:	ff6c0713          	addi	a4,s8,-10
3000bddc:	03010693          	addi	a3,sp,48
3000bde0:	00e686b3          	add	a3,a3,a4
3000bde4:	ff06c683          	lbu	a3,-16(a3)
3000bde8:	00d10c23          	sb	a3,24(sp)
3000bdec:	08070663          	beqz	a4,3000be78 <_Z8toPrintFP15_tgfTextOverlayPcz+0x874>
3000bdf0:	ff5c0713          	addi	a4,s8,-11
3000bdf4:	03010693          	addi	a3,sp,48
3000bdf8:	00e686b3          	add	a3,a3,a4
3000bdfc:	ff06c683          	lbu	a3,-16(a3)
3000be00:	00d10c23          	sb	a3,24(sp)
3000be04:	06070a63          	beqz	a4,3000be78 <_Z8toPrintFP15_tgfTextOverlayPcz+0x874>
3000be08:	ff4c0713          	addi	a4,s8,-12
3000be0c:	03010693          	addi	a3,sp,48
3000be10:	00e686b3          	add	a3,a3,a4
3000be14:	ff06c683          	lbu	a3,-16(a3)
3000be18:	00d10c23          	sb	a3,24(sp)
3000be1c:	04070e63          	beqz	a4,3000be78 <_Z8toPrintFP15_tgfTextOverlayPcz+0x874>
3000be20:	ff3c0713          	addi	a4,s8,-13
3000be24:	03010693          	addi	a3,sp,48
3000be28:	00e686b3          	add	a3,a3,a4
3000be2c:	ff06c683          	lbu	a3,-16(a3)
3000be30:	00d10c23          	sb	a3,24(sp)
3000be34:	04070263          	beqz	a4,3000be78 <_Z8toPrintFP15_tgfTextOverlayPcz+0x874>
3000be38:	ff2c0713          	addi	a4,s8,-14
3000be3c:	03010693          	addi	a3,sp,48
3000be40:	00e686b3          	add	a3,a3,a4
3000be44:	ff06c683          	lbu	a3,-16(a3)
3000be48:	00d10c23          	sb	a3,24(sp)
3000be4c:	02070663          	beqz	a4,3000be78 <_Z8toPrintFP15_tgfTextOverlayPcz+0x874>
3000be50:	ff1c0713          	addi	a4,s8,-15
3000be54:	03010693          	addi	a3,sp,48
3000be58:	00e686b3          	add	a3,a3,a4
3000be5c:	ff06c683          	lbu	a3,-16(a3)
3000be60:	00d10c23          	sb	a3,24(sp)
3000be64:	00070a63          	beqz	a4,3000be78 <_Z8toPrintFP15_tgfTextOverlayPcz+0x874>
3000be68:	03010713          	addi	a4,sp,48
3000be6c:	01870c33          	add	s8,a4,s8
3000be70:	fe0c4703          	lbu	a4,-32(s8)
3000be74:	00e10c23          	sb	a4,24(sp)
3000be78:	8157f6e3          	bgeu	a5,s5,3000b684 <_Z8toPrintFP15_tgfTextOverlayPcz+0x80>
3000be7c:	01910c23          	sb	s9,24(sp)
3000be80:	805ff06f          	j	3000b684 <_Z8toPrintFP15_tgfTextOverlayPcz+0x80>
3000be84:	e20480e3          	beqz	s1,3000bca4 <_Z8toPrintFP15_tgfTextOverlayPcz+0x6a0>
3000be88:	001c0d13          	addi	s10,s8,1
3000be8c:	115c7063          	bgeu	s8,s5,3000bf8c <_Z8toPrintFP15_tgfTextOverlayPcz+0x988>
3000be90:	001a8c13          	addi	s8,s5,1
3000be94:	02000c93          	li	s9,32
3000be98:	0080006f          	j	3000bea0 <_Z8toPrintFP15_tgfTextOverlayPcz+0x89c>
3000be9c:	00078d13          	mv	s10,a5
3000bea0:	01810593          	addi	a1,sp,24
3000bea4:	00048513          	mv	a0,s1
3000bea8:	01910c23          	sb	s9,24(sp)
3000beac:	9e9fe0ef          	jal	ra,3000a894 <_Z7toPrintP15_tgfTextOverlayPc.part.1>
3000beb0:	001d0793          	addi	a5,s10,1
3000beb4:	ffaa94e3          	bne	s5,s10,3000be9c <_Z8toPrintFP15_tgfTextOverlayPcz+0x898>
3000beb8:	00044783          	lbu	a5,0(s0)
3000bebc:	cb5ff06f          	j	3000bb70 <_Z8toPrintFP15_tgfTextOverlayPcz+0x56c>
3000bec0:	00200c13          	li	s8,2
3000bec4:	00100793          	li	a5,1
3000bec8:	b65ff06f          	j	3000ba2c <_Z8toPrintFP15_tgfTextOverlayPcz+0x428>
3000becc:	00300c13          	li	s8,3
3000bed0:	00200793          	li	a5,2
3000bed4:	b59ff06f          	j	3000ba2c <_Z8toPrintFP15_tgfTextOverlayPcz+0x428>
3000bed8:	00400c13          	li	s8,4
3000bedc:	00300793          	li	a5,3
3000bee0:	b4dff06f          	j	3000ba2c <_Z8toPrintFP15_tgfTextOverlayPcz+0x428>
3000bee4:	fb5c7063          	bgeu	s8,s5,3000b684 <_Z8toPrintFP15_tgfTextOverlayPcz+0x80>
3000bee8:	02000793          	li	a5,32
3000beec:	00f10c23          	sb	a5,24(sp)
3000bef0:	f94ff06f          	j	3000b684 <_Z8toPrintFP15_tgfTextOverlayPcz+0x80>
3000bef4:	00500c13          	li	s8,5
3000bef8:	00400793          	li	a5,4
3000befc:	b31ff06f          	j	3000ba2c <_Z8toPrintFP15_tgfTextOverlayPcz+0x428>
3000bf00:	00100c13          	li	s8,1
3000bf04:	00000793          	li	a5,0
3000bf08:	b25ff06f          	j	3000ba2c <_Z8toPrintFP15_tgfTextOverlayPcz+0x428>
3000bf0c:	00600c13          	li	s8,6
3000bf10:	00500793          	li	a5,5
3000bf14:	b19ff06f          	j	3000ba2c <_Z8toPrintFP15_tgfTextOverlayPcz+0x428>
3000bf18:	00700c13          	li	s8,7
3000bf1c:	00600793          	li	a5,6
3000bf20:	b0dff06f          	j	3000ba2c <_Z8toPrintFP15_tgfTextOverlayPcz+0x428>
3000bf24:	00800c13          	li	s8,8
3000bf28:	00700793          	li	a5,7
3000bf2c:	b01ff06f          	j	3000ba2c <_Z8toPrintFP15_tgfTextOverlayPcz+0x428>
3000bf30:	00900c13          	li	s8,9
3000bf34:	00800793          	li	a5,8
3000bf38:	af5ff06f          	j	3000ba2c <_Z8toPrintFP15_tgfTextOverlayPcz+0x428>
3000bf3c:	00a00c13          	li	s8,10
3000bf40:	00900793          	li	a5,9
3000bf44:	ae9ff06f          	j	3000ba2c <_Z8toPrintFP15_tgfTextOverlayPcz+0x428>
3000bf48:	00b00c13          	li	s8,11
3000bf4c:	00a00793          	li	a5,10
3000bf50:	addff06f          	j	3000ba2c <_Z8toPrintFP15_tgfTextOverlayPcz+0x428>
3000bf54:	00c00c13          	li	s8,12
3000bf58:	00b00793          	li	a5,11
3000bf5c:	ad1ff06f          	j	3000ba2c <_Z8toPrintFP15_tgfTextOverlayPcz+0x428>
3000bf60:	00d00c13          	li	s8,13
3000bf64:	00c00793          	li	a5,12
3000bf68:	ac5ff06f          	j	3000ba2c <_Z8toPrintFP15_tgfTextOverlayPcz+0x428>
3000bf6c:	00e00c13          	li	s8,14
3000bf70:	00d00793          	li	a5,13
3000bf74:	ab9ff06f          	j	3000ba2c <_Z8toPrintFP15_tgfTextOverlayPcz+0x428>
3000bf78:	00f00c13          	li	s8,15
3000bf7c:	00e00793          	li	a5,14
3000bf80:	aadff06f          	j	3000ba2c <_Z8toPrintFP15_tgfTextOverlayPcz+0x428>
3000bf84:	00100c13          	li	s8,1
3000bf88:	abdff06f          	j	3000ba44 <_Z8toPrintFP15_tgfTextOverlayPcz+0x440>
3000bf8c:	000d0c13          	mv	s8,s10
3000bf90:	bc5ff06f          	j	3000bb54 <_Z8toPrintFP15_tgfTextOverlayPcz+0x550>
3000bf94:	00070c13          	mv	s8,a4
3000bf98:	d25ff06f          	j	3000bcbc <_Z8toPrintFP15_tgfTextOverlayPcz+0x6b8>

3000bf9c <memset>:
3000bf9c:	00f00313          	li	t1,15
3000bfa0:	00050713          	mv	a4,a0
3000bfa4:	02c37e63          	bgeu	t1,a2,3000bfe0 <memset+0x44>
3000bfa8:	00f77793          	andi	a5,a4,15
3000bfac:	0a079063          	bnez	a5,3000c04c <memset+0xb0>
3000bfb0:	08059263          	bnez	a1,3000c034 <memset+0x98>
3000bfb4:	ff067693          	andi	a3,a2,-16
3000bfb8:	00f67613          	andi	a2,a2,15
3000bfbc:	00e686b3          	add	a3,a3,a4
3000bfc0:	00b72023          	sw	a1,0(a4)
3000bfc4:	00b72223          	sw	a1,4(a4)
3000bfc8:	00b72423          	sw	a1,8(a4)
3000bfcc:	00b72623          	sw	a1,12(a4)
3000bfd0:	01070713          	addi	a4,a4,16
3000bfd4:	fed766e3          	bltu	a4,a3,3000bfc0 <memset+0x24>
3000bfd8:	00061463          	bnez	a2,3000bfe0 <memset+0x44>
3000bfdc:	00008067          	ret
3000bfe0:	40c306b3          	sub	a3,t1,a2
3000bfe4:	00269693          	slli	a3,a3,0x2
3000bfe8:	00000297          	auipc	t0,0x0
3000bfec:	005686b3          	add	a3,a3,t0
3000bff0:	00c68067          	jr	12(a3)
3000bff4:	00b70723          	sb	a1,14(a4)
3000bff8:	00b706a3          	sb	a1,13(a4)
3000bffc:	00b70623          	sb	a1,12(a4)
3000c000:	00b705a3          	sb	a1,11(a4)
3000c004:	00b70523          	sb	a1,10(a4)
3000c008:	00b704a3          	sb	a1,9(a4)
3000c00c:	00b70423          	sb	a1,8(a4)
3000c010:	00b703a3          	sb	a1,7(a4)
3000c014:	00b70323          	sb	a1,6(a4)
3000c018:	00b702a3          	sb	a1,5(a4)
3000c01c:	00b70223          	sb	a1,4(a4)
3000c020:	00b701a3          	sb	a1,3(a4)
3000c024:	00b70123          	sb	a1,2(a4)
3000c028:	00b700a3          	sb	a1,1(a4)
3000c02c:	00b70023          	sb	a1,0(a4)
3000c030:	00008067          	ret
3000c034:	0ff5f593          	andi	a1,a1,255
3000c038:	00859693          	slli	a3,a1,0x8
3000c03c:	00d5e5b3          	or	a1,a1,a3
3000c040:	01059693          	slli	a3,a1,0x10
3000c044:	00d5e5b3          	or	a1,a1,a3
3000c048:	f6dff06f          	j	3000bfb4 <memset+0x18>
3000c04c:	00279693          	slli	a3,a5,0x2
3000c050:	00000297          	auipc	t0,0x0
3000c054:	005686b3          	add	a3,a3,t0
3000c058:	00008293          	mv	t0,ra
3000c05c:	fa0680e7          	jalr	-96(a3)
3000c060:	00028093          	mv	ra,t0
3000c064:	ff078793          	addi	a5,a5,-16
3000c068:	40f70733          	sub	a4,a4,a5
3000c06c:	00f60633          	add	a2,a2,a5
3000c070:	f6c378e3          	bgeu	t1,a2,3000bfe0 <memset+0x44>
3000c074:	f3dff06f          	j	3000bfb0 <memset+0x14>

Disassembly of section .text.startup:

3000c078 <main>:
3000c078:	fb010113          	addi	sp,sp,-80
3000c07c:	04112623          	sw	ra,76(sp)
3000c080:	04812423          	sw	s0,72(sp)
3000c084:	04912223          	sw	s1,68(sp)
3000c088:	05212023          	sw	s2,64(sp)
3000c08c:	03312e23          	sw	s3,60(sp)
3000c090:	03412c23          	sw	s4,56(sp)
3000c094:	03512a23          	sw	s5,52(sp)
3000c098:	03612823          	sw	s6,48(sp)
3000c09c:	03712623          	sw	s7,44(sp)
3000c0a0:	03812423          	sw	s8,40(sp)
3000c0a4:	3000f9b7          	lui	s3,0x3000f
3000c0a8:	804f40ef          	jal	ra,300000ac <_Z4initv>
3000c0ac:	3000f937          	lui	s2,0x3000f
3000c0b0:	3000fab7          	lui	s5,0x3000f
3000c0b4:	ba8f40ef          	jal	ra,3000045c <_Z8initAnimv>
3000c0b8:	1fc98413          	addi	s0,s3,508 # 3000f1fc <screen1>
3000c0bc:	20c90913          	addi	s2,s2,524 # 3000f20c <screen2>
3000c0c0:	3000fb37          	lui	s6,0x3000f
3000c0c4:	22ca8a93          	addi	s5,s5,556 # 3000f22c <background>
3000c0c8:	014004b7          	lui	s1,0x1400
3000c0cc:	0dc00a13          	li	s4,220
3000c0d0:	10100b93          	li	s7,257
3000c0d4:	09400c13          	li	s8,148
3000c0d8:	00090513          	mv	a0,s2
3000c0dc:	ad4fd0ef          	jal	ra,300093b0 <_Z15gfDisplayBitmapP10_tgfBitmap>
3000c0e0:	1f4b2703          	lw	a4,500(s6) # 3000f1f4 <bsp>
3000c0e4:	00c72783          	lw	a5,12(a4)
3000c0e8:	fe078ee3          	beqz	a5,3000c0e4 <main+0x6c>
3000c0ec:	00000693          	li	a3,0
3000c0f0:	00000613          	li	a2,0
3000c0f4:	000a8593          	mv	a1,s5
3000c0f8:	1fc98513          	addi	a0,s3,508
3000c0fc:	ce4fd0ef          	jal	ra,300095e0 <_Z12gfBlitBitmapP10_tgfBitmapS0_ss>
3000c100:	05445783          	lhu	a5,84(s0)
3000c104:	44079263          	bnez	a5,3000c548 <main+0x4d0>
3000c108:	06c45783          	lhu	a5,108(s0)
3000c10c:	40079e63          	bnez	a5,3000c528 <main+0x4b0>
3000c110:	08445783          	lhu	a5,132(s0)
3000c114:	3e079a63          	bnez	a5,3000c508 <main+0x490>
3000c118:	09c45783          	lhu	a5,156(s0)
3000c11c:	3c079663          	bnez	a5,3000c4e8 <main+0x470>
3000c120:	0b445783          	lhu	a5,180(s0)
3000c124:	3a079263          	bnez	a5,3000c4c8 <main+0x450>
3000c128:	0cc45783          	lhu	a5,204(s0)
3000c12c:	36079e63          	bnez	a5,3000c4a8 <main+0x430>
3000c130:	0e445783          	lhu	a5,228(s0)
3000c134:	2e079463          	bnez	a5,3000c41c <main+0x3a4>
3000c138:	0fc45783          	lhu	a5,252(s0)
3000c13c:	30079263          	bnez	a5,3000c440 <main+0x3c8>
3000c140:	11445783          	lhu	a5,276(s0)
3000c144:	32079063          	bnez	a5,3000c464 <main+0x3ec>
3000c148:	12c45783          	lhu	a5,300(s0)
3000c14c:	32079e63          	bnez	a5,3000c488 <main+0x410>
3000c150:	05445783          	lhu	a5,84(s0)
3000c154:	00078c63          	beqz	a5,3000c16c <main+0xf4>
3000c158:	05c42783          	lw	a5,92(s0)
3000c15c:	06042703          	lw	a4,96(s0)
3000c160:	00e787b3          	add	a5,a5,a4
3000c164:	04f42e23          	sw	a5,92(s0)
3000c168:	58f4ce63          	blt	s1,a5,3000c704 <main+0x68c>
3000c16c:	06c45783          	lhu	a5,108(s0)
3000c170:	00078c63          	beqz	a5,3000c188 <main+0x110>
3000c174:	07442783          	lw	a5,116(s0)
3000c178:	07842703          	lw	a4,120(s0)
3000c17c:	00e787b3          	add	a5,a5,a4
3000c180:	06f42a23          	sw	a5,116(s0)
3000c184:	5af4c063          	blt	s1,a5,3000c724 <main+0x6ac>
3000c188:	08445783          	lhu	a5,132(s0)
3000c18c:	00078c63          	beqz	a5,3000c1a4 <main+0x12c>
3000c190:	08c42783          	lw	a5,140(s0)
3000c194:	09042703          	lw	a4,144(s0)
3000c198:	00e787b3          	add	a5,a5,a4
3000c19c:	08f42623          	sw	a5,140(s0)
3000c1a0:	6af4c263          	blt	s1,a5,3000c844 <main+0x7cc>
3000c1a4:	09c45783          	lhu	a5,156(s0)
3000c1a8:	00078c63          	beqz	a5,3000c1c0 <main+0x148>
3000c1ac:	0a442783          	lw	a5,164(s0)
3000c1b0:	0a842703          	lw	a4,168(s0)
3000c1b4:	00e787b3          	add	a5,a5,a4
3000c1b8:	0af42223          	sw	a5,164(s0)
3000c1bc:	6af4c463          	blt	s1,a5,3000c864 <main+0x7ec>
3000c1c0:	0b445783          	lhu	a5,180(s0)
3000c1c4:	00078c63          	beqz	a5,3000c1dc <main+0x164>
3000c1c8:	0bc42783          	lw	a5,188(s0)
3000c1cc:	0c042703          	lw	a4,192(s0)
3000c1d0:	00e787b3          	add	a5,a5,a4
3000c1d4:	0af42e23          	sw	a5,188(s0)
3000c1d8:	6af4c663          	blt	s1,a5,3000c884 <main+0x80c>
3000c1dc:	0cc45783          	lhu	a5,204(s0)
3000c1e0:	00078c63          	beqz	a5,3000c1f8 <main+0x180>
3000c1e4:	0d442783          	lw	a5,212(s0)
3000c1e8:	0d842703          	lw	a4,216(s0)
3000c1ec:	00e787b3          	add	a5,a5,a4
3000c1f0:	0cf42a23          	sw	a5,212(s0)
3000c1f4:	6af4c863          	blt	s1,a5,3000c8a4 <main+0x82c>
3000c1f8:	0e445783          	lhu	a5,228(s0)
3000c1fc:	00078c63          	beqz	a5,3000c214 <main+0x19c>
3000c200:	0ec42783          	lw	a5,236(s0)
3000c204:	0f042703          	lw	a4,240(s0)
3000c208:	00e787b3          	add	a5,a5,a4
3000c20c:	0ef42623          	sw	a5,236(s0)
3000c210:	6af4ca63          	blt	s1,a5,3000c8c4 <main+0x84c>
3000c214:	0fc45783          	lhu	a5,252(s0)
3000c218:	00078c63          	beqz	a5,3000c230 <main+0x1b8>
3000c21c:	10442783          	lw	a5,260(s0)
3000c220:	10842703          	lw	a4,264(s0)
3000c224:	00e787b3          	add	a5,a5,a4
3000c228:	10f42223          	sw	a5,260(s0)
3000c22c:	6af4cc63          	blt	s1,a5,3000c8e4 <main+0x86c>
3000c230:	11445783          	lhu	a5,276(s0)
3000c234:	00078c63          	beqz	a5,3000c24c <main+0x1d4>
3000c238:	11c42783          	lw	a5,284(s0)
3000c23c:	12042703          	lw	a4,288(s0)
3000c240:	00e787b3          	add	a5,a5,a4
3000c244:	10f42e23          	sw	a5,284(s0)
3000c248:	6af4ce63          	blt	s1,a5,3000c904 <main+0x88c>
3000c24c:	12c45783          	lhu	a5,300(s0)
3000c250:	00078c63          	beqz	a5,3000c268 <main+0x1f0>
3000c254:	13442783          	lw	a5,308(s0)
3000c258:	13842703          	lw	a4,312(s0)
3000c25c:	00e787b3          	add	a5,a5,a4
3000c260:	12f42a23          	sw	a5,308(s0)
3000c264:	6cf4c063          	blt	s1,a5,3000c924 <main+0x8ac>
3000c268:	1fc98513          	addi	a0,s3,508
3000c26c:	944fd0ef          	jal	ra,300093b0 <_Z15gfDisplayBitmapP10_tgfBitmap>
3000c270:	1f4b2703          	lw	a4,500(s6)
3000c274:	00c72783          	lw	a5,12(a4)
3000c278:	fe078ee3          	beqz	a5,3000c274 <main+0x1fc>
3000c27c:	00000693          	li	a3,0
3000c280:	00000613          	li	a2,0
3000c284:	000a8593          	mv	a1,s5
3000c288:	00090513          	mv	a0,s2
3000c28c:	b54fd0ef          	jal	ra,300095e0 <_Z12gfBlitBitmapP10_tgfBitmapS0_ss>
3000c290:	05445783          	lhu	a5,84(s0)
3000c294:	40079863          	bnez	a5,3000c6a4 <main+0x62c>
3000c298:	06c45783          	lhu	a5,108(s0)
3000c29c:	3e079463          	bnez	a5,3000c684 <main+0x60c>
3000c2a0:	08445783          	lhu	a5,132(s0)
3000c2a4:	2c079263          	bnez	a5,3000c568 <main+0x4f0>
3000c2a8:	09c45783          	lhu	a5,156(s0)
3000c2ac:	2e079063          	bnez	a5,3000c58c <main+0x514>
3000c2b0:	0b445783          	lhu	a5,180(s0)
3000c2b4:	2e079e63          	bnez	a5,3000c5b0 <main+0x538>
3000c2b8:	0cc45783          	lhu	a5,204(s0)
3000c2bc:	30079c63          	bnez	a5,3000c5d4 <main+0x55c>
3000c2c0:	0e445783          	lhu	a5,228(s0)
3000c2c4:	32079a63          	bnez	a5,3000c5f8 <main+0x580>
3000c2c8:	0fc45783          	lhu	a5,252(s0)
3000c2cc:	34079863          	bnez	a5,3000c61c <main+0x5a4>
3000c2d0:	11445783          	lhu	a5,276(s0)
3000c2d4:	36079663          	bnez	a5,3000c640 <main+0x5c8>
3000c2d8:	12c45783          	lhu	a5,300(s0)
3000c2dc:	38079463          	bnez	a5,3000c664 <main+0x5ec>
3000c2e0:	05445783          	lhu	a5,84(s0)
3000c2e4:	00078c63          	beqz	a5,3000c2fc <main+0x284>
3000c2e8:	05c42703          	lw	a4,92(s0)
3000c2ec:	06042783          	lw	a5,96(s0)
3000c2f0:	00e787b3          	add	a5,a5,a4
3000c2f4:	04f42e23          	sw	a5,92(s0)
3000c2f8:	3cf4c663          	blt	s1,a5,3000c6c4 <main+0x64c>
3000c2fc:	06c45783          	lhu	a5,108(s0)
3000c300:	00078c63          	beqz	a5,3000c318 <main+0x2a0>
3000c304:	07442783          	lw	a5,116(s0)
3000c308:	07842703          	lw	a4,120(s0)
3000c30c:	00e787b3          	add	a5,a5,a4
3000c310:	06f42a23          	sw	a5,116(s0)
3000c314:	3cf4c863          	blt	s1,a5,3000c6e4 <main+0x66c>
3000c318:	08445783          	lhu	a5,132(s0)
3000c31c:	00078c63          	beqz	a5,3000c334 <main+0x2bc>
3000c320:	08c42783          	lw	a5,140(s0)
3000c324:	09042703          	lw	a4,144(s0)
3000c328:	00e787b3          	add	a5,a5,a4
3000c32c:	08f42623          	sw	a5,140(s0)
3000c330:	40f4ca63          	blt	s1,a5,3000c744 <main+0x6cc>
3000c334:	09c45783          	lhu	a5,156(s0)
3000c338:	00078c63          	beqz	a5,3000c350 <main+0x2d8>
3000c33c:	0a442783          	lw	a5,164(s0)
3000c340:	0a842703          	lw	a4,168(s0)
3000c344:	00e787b3          	add	a5,a5,a4
3000c348:	0af42223          	sw	a5,164(s0)
3000c34c:	40f4cc63          	blt	s1,a5,3000c764 <main+0x6ec>
3000c350:	0b445783          	lhu	a5,180(s0)
3000c354:	00078c63          	beqz	a5,3000c36c <main+0x2f4>
3000c358:	0bc42783          	lw	a5,188(s0)
3000c35c:	0c042703          	lw	a4,192(s0)
3000c360:	00e787b3          	add	a5,a5,a4
3000c364:	0af42e23          	sw	a5,188(s0)
3000c368:	40f4ce63          	blt	s1,a5,3000c784 <main+0x70c>
3000c36c:	0cc45783          	lhu	a5,204(s0)
3000c370:	00078c63          	beqz	a5,3000c388 <main+0x310>
3000c374:	0d442783          	lw	a5,212(s0)
3000c378:	0d842703          	lw	a4,216(s0)
3000c37c:	00e787b3          	add	a5,a5,a4
3000c380:	0cf42a23          	sw	a5,212(s0)
3000c384:	42f4c063          	blt	s1,a5,3000c7a4 <main+0x72c>
3000c388:	0e445783          	lhu	a5,228(s0)
3000c38c:	00078c63          	beqz	a5,3000c3a4 <main+0x32c>
3000c390:	0ec42783          	lw	a5,236(s0)
3000c394:	0f042703          	lw	a4,240(s0)
3000c398:	00e787b3          	add	a5,a5,a4
3000c39c:	0ef42623          	sw	a5,236(s0)
3000c3a0:	42f4c263          	blt	s1,a5,3000c7c4 <main+0x74c>
3000c3a4:	0fc45783          	lhu	a5,252(s0)
3000c3a8:	00078c63          	beqz	a5,3000c3c0 <main+0x348>
3000c3ac:	10442783          	lw	a5,260(s0)
3000c3b0:	10842703          	lw	a4,264(s0)
3000c3b4:	00e787b3          	add	a5,a5,a4
3000c3b8:	10f42223          	sw	a5,260(s0)
3000c3bc:	42f4c463          	blt	s1,a5,3000c7e4 <main+0x76c>
3000c3c0:	11445783          	lhu	a5,276(s0)
3000c3c4:	00078c63          	beqz	a5,3000c3dc <main+0x364>
3000c3c8:	11c42783          	lw	a5,284(s0)
3000c3cc:	12042703          	lw	a4,288(s0)
3000c3d0:	00e787b3          	add	a5,a5,a4
3000c3d4:	10f42e23          	sw	a5,284(s0)
3000c3d8:	42f4c663          	blt	s1,a5,3000c804 <main+0x78c>
3000c3dc:	12c45783          	lhu	a5,300(s0)
3000c3e0:	00078c63          	beqz	a5,3000c3f8 <main+0x380>
3000c3e4:	13442783          	lw	a5,308(s0)
3000c3e8:	13842703          	lw	a4,312(s0)
3000c3ec:	00e787b3          	add	a5,a5,a4
3000c3f0:	12f42a23          	sw	a5,308(s0)
3000c3f4:	42f4c863          	blt	s1,a5,3000c824 <main+0x7ac>
3000c3f8:	00c10513          	addi	a0,sp,12
3000c3fc:	f3df40ef          	jal	ra,30001338 <_Z12osGetUIEventP11_tosUIEvent>
3000c400:	cc051ce3          	bnez	a0,3000c0d8 <main+0x60>
3000c404:	00c15783          	lhu	a5,12(sp)
3000c408:	cd7798e3          	bne	a5,s7,3000c0d8 <main+0x60>
3000c40c:	01012783          	lw	a5,16(sp)
3000c410:	cd8794e3          	bne	a5,s8,3000c0d8 <main+0x60>
3000c414:	fe4f40ef          	jal	ra,30000bf8 <_Z6rebootv>
3000c418:	cc1ff06f          	j	3000c0d8 <main+0x60>
3000c41c:	0e841783          	lh	a5,232(s0)
3000c420:	0e641703          	lh	a4,230(s0)
3000c424:	0f441683          	lh	a3,244(s0)
3000c428:	0ee41603          	lh	a2,238(s0)
3000c42c:	0e042583          	lw	a1,224(s0)
3000c430:	1fc98513          	addi	a0,s3,508
3000c434:	ffcfd0ef          	jal	ra,30009c30 <_Z18gfBlitScaledBitmapP10_tgfBitmapS0_ssss>
3000c438:	0fc45783          	lhu	a5,252(s0)
3000c43c:	d00782e3          	beqz	a5,3000c140 <main+0xc8>
3000c440:	10041783          	lh	a5,256(s0)
3000c444:	0fe41703          	lh	a4,254(s0)
3000c448:	10c41683          	lh	a3,268(s0)
3000c44c:	10641603          	lh	a2,262(s0)
3000c450:	0f842583          	lw	a1,248(s0)
3000c454:	1fc98513          	addi	a0,s3,508
3000c458:	fd8fd0ef          	jal	ra,30009c30 <_Z18gfBlitScaledBitmapP10_tgfBitmapS0_ssss>
3000c45c:	11445783          	lhu	a5,276(s0)
3000c460:	ce0784e3          	beqz	a5,3000c148 <main+0xd0>
3000c464:	11841783          	lh	a5,280(s0)
3000c468:	11641703          	lh	a4,278(s0)
3000c46c:	12441683          	lh	a3,292(s0)
3000c470:	11e41603          	lh	a2,286(s0)
3000c474:	11042583          	lw	a1,272(s0)
3000c478:	1fc98513          	addi	a0,s3,508
3000c47c:	fb4fd0ef          	jal	ra,30009c30 <_Z18gfBlitScaledBitmapP10_tgfBitmapS0_ssss>
3000c480:	12c45783          	lhu	a5,300(s0)
3000c484:	cc0786e3          	beqz	a5,3000c150 <main+0xd8>
3000c488:	13041783          	lh	a5,304(s0)
3000c48c:	12e41703          	lh	a4,302(s0)
3000c490:	13c41683          	lh	a3,316(s0)
3000c494:	13641603          	lh	a2,310(s0)
3000c498:	12842583          	lw	a1,296(s0)
3000c49c:	1fc98513          	addi	a0,s3,508
3000c4a0:	f90fd0ef          	jal	ra,30009c30 <_Z18gfBlitScaledBitmapP10_tgfBitmapS0_ssss>
3000c4a4:	cadff06f          	j	3000c150 <main+0xd8>
3000c4a8:	0d041783          	lh	a5,208(s0)
3000c4ac:	0ce41703          	lh	a4,206(s0)
3000c4b0:	0dc41683          	lh	a3,220(s0)
3000c4b4:	0d641603          	lh	a2,214(s0)
3000c4b8:	0c842583          	lw	a1,200(s0)
3000c4bc:	1fc98513          	addi	a0,s3,508
3000c4c0:	f70fd0ef          	jal	ra,30009c30 <_Z18gfBlitScaledBitmapP10_tgfBitmapS0_ssss>
3000c4c4:	c6dff06f          	j	3000c130 <main+0xb8>
3000c4c8:	0b841783          	lh	a5,184(s0)
3000c4cc:	0b641703          	lh	a4,182(s0)
3000c4d0:	0c441683          	lh	a3,196(s0)
3000c4d4:	0be41603          	lh	a2,190(s0)
3000c4d8:	0b042583          	lw	a1,176(s0)
3000c4dc:	1fc98513          	addi	a0,s3,508
3000c4e0:	f50fd0ef          	jal	ra,30009c30 <_Z18gfBlitScaledBitmapP10_tgfBitmapS0_ssss>
3000c4e4:	c45ff06f          	j	3000c128 <main+0xb0>
3000c4e8:	0a041783          	lh	a5,160(s0)
3000c4ec:	09e41703          	lh	a4,158(s0)
3000c4f0:	0ac41683          	lh	a3,172(s0)
3000c4f4:	0a641603          	lh	a2,166(s0)
3000c4f8:	09842583          	lw	a1,152(s0)
3000c4fc:	1fc98513          	addi	a0,s3,508
3000c500:	f30fd0ef          	jal	ra,30009c30 <_Z18gfBlitScaledBitmapP10_tgfBitmapS0_ssss>
3000c504:	c1dff06f          	j	3000c120 <main+0xa8>
3000c508:	08841783          	lh	a5,136(s0)
3000c50c:	08641703          	lh	a4,134(s0)
3000c510:	09441683          	lh	a3,148(s0)
3000c514:	08e41603          	lh	a2,142(s0)
3000c518:	08042583          	lw	a1,128(s0)
3000c51c:	1fc98513          	addi	a0,s3,508
3000c520:	f10fd0ef          	jal	ra,30009c30 <_Z18gfBlitScaledBitmapP10_tgfBitmapS0_ssss>
3000c524:	bf5ff06f          	j	3000c118 <main+0xa0>
3000c528:	07041783          	lh	a5,112(s0)
3000c52c:	06e41703          	lh	a4,110(s0)
3000c530:	07c41683          	lh	a3,124(s0)
3000c534:	07641603          	lh	a2,118(s0)
3000c538:	06842583          	lw	a1,104(s0)
3000c53c:	1fc98513          	addi	a0,s3,508
3000c540:	ef0fd0ef          	jal	ra,30009c30 <_Z18gfBlitScaledBitmapP10_tgfBitmapS0_ssss>
3000c544:	bcdff06f          	j	3000c110 <main+0x98>
3000c548:	05841783          	lh	a5,88(s0)
3000c54c:	05641703          	lh	a4,86(s0)
3000c550:	06441683          	lh	a3,100(s0)
3000c554:	05e41603          	lh	a2,94(s0)
3000c558:	05042583          	lw	a1,80(s0)
3000c55c:	1fc98513          	addi	a0,s3,508
3000c560:	ed0fd0ef          	jal	ra,30009c30 <_Z18gfBlitScaledBitmapP10_tgfBitmapS0_ssss>
3000c564:	ba5ff06f          	j	3000c108 <main+0x90>
3000c568:	08841783          	lh	a5,136(s0)
3000c56c:	08641703          	lh	a4,134(s0)
3000c570:	09441683          	lh	a3,148(s0)
3000c574:	08e41603          	lh	a2,142(s0)
3000c578:	08042583          	lw	a1,128(s0)
3000c57c:	00090513          	mv	a0,s2
3000c580:	eb0fd0ef          	jal	ra,30009c30 <_Z18gfBlitScaledBitmapP10_tgfBitmapS0_ssss>
3000c584:	09c45783          	lhu	a5,156(s0)
3000c588:	d20784e3          	beqz	a5,3000c2b0 <main+0x238>
3000c58c:	0a041783          	lh	a5,160(s0)
3000c590:	09e41703          	lh	a4,158(s0)
3000c594:	0ac41683          	lh	a3,172(s0)
3000c598:	0a641603          	lh	a2,166(s0)
3000c59c:	09842583          	lw	a1,152(s0)
3000c5a0:	00090513          	mv	a0,s2
3000c5a4:	e8cfd0ef          	jal	ra,30009c30 <_Z18gfBlitScaledBitmapP10_tgfBitmapS0_ssss>
3000c5a8:	0b445783          	lhu	a5,180(s0)
3000c5ac:	d00786e3          	beqz	a5,3000c2b8 <main+0x240>
3000c5b0:	0b841783          	lh	a5,184(s0)
3000c5b4:	0b641703          	lh	a4,182(s0)
3000c5b8:	0c441683          	lh	a3,196(s0)
3000c5bc:	0be41603          	lh	a2,190(s0)
3000c5c0:	0b042583          	lw	a1,176(s0)
3000c5c4:	00090513          	mv	a0,s2
3000c5c8:	e68fd0ef          	jal	ra,30009c30 <_Z18gfBlitScaledBitmapP10_tgfBitmapS0_ssss>
3000c5cc:	0cc45783          	lhu	a5,204(s0)
3000c5d0:	ce0788e3          	beqz	a5,3000c2c0 <main+0x248>
3000c5d4:	0d041783          	lh	a5,208(s0)
3000c5d8:	0ce41703          	lh	a4,206(s0)
3000c5dc:	0dc41683          	lh	a3,220(s0)
3000c5e0:	0d641603          	lh	a2,214(s0)
3000c5e4:	0c842583          	lw	a1,200(s0)
3000c5e8:	00090513          	mv	a0,s2
3000c5ec:	e44fd0ef          	jal	ra,30009c30 <_Z18gfBlitScaledBitmapP10_tgfBitmapS0_ssss>
3000c5f0:	0e445783          	lhu	a5,228(s0)
3000c5f4:	cc078ae3          	beqz	a5,3000c2c8 <main+0x250>
3000c5f8:	0e841783          	lh	a5,232(s0)
3000c5fc:	0e641703          	lh	a4,230(s0)
3000c600:	0f441683          	lh	a3,244(s0)
3000c604:	0ee41603          	lh	a2,238(s0)
3000c608:	0e042583          	lw	a1,224(s0)
3000c60c:	00090513          	mv	a0,s2
3000c610:	e20fd0ef          	jal	ra,30009c30 <_Z18gfBlitScaledBitmapP10_tgfBitmapS0_ssss>
3000c614:	0fc45783          	lhu	a5,252(s0)
3000c618:	ca078ce3          	beqz	a5,3000c2d0 <main+0x258>
3000c61c:	10041783          	lh	a5,256(s0)
3000c620:	0fe41703          	lh	a4,254(s0)
3000c624:	10c41683          	lh	a3,268(s0)
3000c628:	10641603          	lh	a2,262(s0)
3000c62c:	0f842583          	lw	a1,248(s0)
3000c630:	00090513          	mv	a0,s2
3000c634:	dfcfd0ef          	jal	ra,30009c30 <_Z18gfBlitScaledBitmapP10_tgfBitmapS0_ssss>
3000c638:	11445783          	lhu	a5,276(s0)
3000c63c:	c8078ee3          	beqz	a5,3000c2d8 <main+0x260>
3000c640:	11841783          	lh	a5,280(s0)
3000c644:	11641703          	lh	a4,278(s0)
3000c648:	12441683          	lh	a3,292(s0)
3000c64c:	11e41603          	lh	a2,286(s0)
3000c650:	11042583          	lw	a1,272(s0)
3000c654:	00090513          	mv	a0,s2
3000c658:	dd8fd0ef          	jal	ra,30009c30 <_Z18gfBlitScaledBitmapP10_tgfBitmapS0_ssss>
3000c65c:	12c45783          	lhu	a5,300(s0)
3000c660:	c80780e3          	beqz	a5,3000c2e0 <main+0x268>
3000c664:	13041783          	lh	a5,304(s0)
3000c668:	12e41703          	lh	a4,302(s0)
3000c66c:	13c41683          	lh	a3,316(s0)
3000c670:	13641603          	lh	a2,310(s0)
3000c674:	12842583          	lw	a1,296(s0)
3000c678:	00090513          	mv	a0,s2
3000c67c:	db4fd0ef          	jal	ra,30009c30 <_Z18gfBlitScaledBitmapP10_tgfBitmapS0_ssss>
3000c680:	c61ff06f          	j	3000c2e0 <main+0x268>
3000c684:	07041783          	lh	a5,112(s0)
3000c688:	06e41703          	lh	a4,110(s0)
3000c68c:	07c41683          	lh	a3,124(s0)
3000c690:	07641603          	lh	a2,118(s0)
3000c694:	06842583          	lw	a1,104(s0)
3000c698:	00090513          	mv	a0,s2
3000c69c:	d94fd0ef          	jal	ra,30009c30 <_Z18gfBlitScaledBitmapP10_tgfBitmapS0_ssss>
3000c6a0:	c01ff06f          	j	3000c2a0 <main+0x228>
3000c6a4:	05841783          	lh	a5,88(s0)
3000c6a8:	05641703          	lh	a4,86(s0)
3000c6ac:	06441683          	lh	a3,100(s0)
3000c6b0:	05e41603          	lh	a2,94(s0)
3000c6b4:	05042583          	lw	a1,80(s0)
3000c6b8:	00090513          	mv	a0,s2
3000c6bc:	d74fd0ef          	jal	ra,30009c30 <_Z18gfBlitScaledBitmapP10_tgfBitmapS0_ssss>
3000c6c0:	bd9ff06f          	j	3000c298 <main+0x220>
3000c6c4:	05645783          	lhu	a5,86(s0)
3000c6c8:	40f007b3          	neg	a5,a5
3000c6cc:	01079793          	slli	a5,a5,0x10
3000c6d0:	04f42e23          	sw	a5,92(s0)
3000c6d4:	abcf40ef          	jal	ra,30000990 <_Z12randomNumberv>
3000c6d8:	03457533          	remu	a0,a0,s4
3000c6dc:	06a41223          	sh	a0,100(s0)
3000c6e0:	c1dff06f          	j	3000c2fc <main+0x284>
3000c6e4:	06e45783          	lhu	a5,110(s0)
3000c6e8:	40f007b3          	neg	a5,a5
3000c6ec:	01079793          	slli	a5,a5,0x10
3000c6f0:	06f42a23          	sw	a5,116(s0)
3000c6f4:	a9cf40ef          	jal	ra,30000990 <_Z12randomNumberv>
3000c6f8:	03457533          	remu	a0,a0,s4
3000c6fc:	06a41e23          	sh	a0,124(s0)
3000c700:	c19ff06f          	j	3000c318 <main+0x2a0>
3000c704:	05645783          	lhu	a5,86(s0)
3000c708:	40f007b3          	neg	a5,a5
3000c70c:	01079793          	slli	a5,a5,0x10
3000c710:	04f42e23          	sw	a5,92(s0)
3000c714:	a7cf40ef          	jal	ra,30000990 <_Z12randomNumberv>
3000c718:	03457533          	remu	a0,a0,s4
3000c71c:	06a41223          	sh	a0,100(s0)
3000c720:	a4dff06f          	j	3000c16c <main+0xf4>
3000c724:	06e45783          	lhu	a5,110(s0)
3000c728:	40f007b3          	neg	a5,a5
3000c72c:	01079793          	slli	a5,a5,0x10
3000c730:	06f42a23          	sw	a5,116(s0)
3000c734:	a5cf40ef          	jal	ra,30000990 <_Z12randomNumberv>
3000c738:	03457533          	remu	a0,a0,s4
3000c73c:	06a41e23          	sh	a0,124(s0)
3000c740:	a49ff06f          	j	3000c188 <main+0x110>
3000c744:	08645783          	lhu	a5,134(s0)
3000c748:	40f007b3          	neg	a5,a5
3000c74c:	01079793          	slli	a5,a5,0x10
3000c750:	08f42623          	sw	a5,140(s0)
3000c754:	a3cf40ef          	jal	ra,30000990 <_Z12randomNumberv>
3000c758:	03457533          	remu	a0,a0,s4
3000c75c:	08a41a23          	sh	a0,148(s0)
3000c760:	bd5ff06f          	j	3000c334 <main+0x2bc>
3000c764:	09e45783          	lhu	a5,158(s0)
3000c768:	40f007b3          	neg	a5,a5
3000c76c:	01079793          	slli	a5,a5,0x10
3000c770:	0af42223          	sw	a5,164(s0)
3000c774:	a1cf40ef          	jal	ra,30000990 <_Z12randomNumberv>
3000c778:	03457533          	remu	a0,a0,s4
3000c77c:	0aa41623          	sh	a0,172(s0)
3000c780:	bd1ff06f          	j	3000c350 <main+0x2d8>
3000c784:	0b645783          	lhu	a5,182(s0)
3000c788:	40f007b3          	neg	a5,a5
3000c78c:	01079793          	slli	a5,a5,0x10
3000c790:	0af42e23          	sw	a5,188(s0)
3000c794:	9fcf40ef          	jal	ra,30000990 <_Z12randomNumberv>
3000c798:	03457533          	remu	a0,a0,s4
3000c79c:	0ca41223          	sh	a0,196(s0)
3000c7a0:	bcdff06f          	j	3000c36c <main+0x2f4>
3000c7a4:	0ce45783          	lhu	a5,206(s0)
3000c7a8:	40f007b3          	neg	a5,a5
3000c7ac:	01079793          	slli	a5,a5,0x10
3000c7b0:	0cf42a23          	sw	a5,212(s0)
3000c7b4:	9dcf40ef          	jal	ra,30000990 <_Z12randomNumberv>
3000c7b8:	03457533          	remu	a0,a0,s4
3000c7bc:	0ca41e23          	sh	a0,220(s0)
3000c7c0:	bc9ff06f          	j	3000c388 <main+0x310>
3000c7c4:	0e645783          	lhu	a5,230(s0)
3000c7c8:	40f007b3          	neg	a5,a5
3000c7cc:	01079793          	slli	a5,a5,0x10
3000c7d0:	0ef42623          	sw	a5,236(s0)
3000c7d4:	9bcf40ef          	jal	ra,30000990 <_Z12randomNumberv>
3000c7d8:	03457533          	remu	a0,a0,s4
3000c7dc:	0ea41a23          	sh	a0,244(s0)
3000c7e0:	bc5ff06f          	j	3000c3a4 <main+0x32c>
3000c7e4:	0fe45783          	lhu	a5,254(s0)
3000c7e8:	40f007b3          	neg	a5,a5
3000c7ec:	01079793          	slli	a5,a5,0x10
3000c7f0:	10f42223          	sw	a5,260(s0)
3000c7f4:	99cf40ef          	jal	ra,30000990 <_Z12randomNumberv>
3000c7f8:	03457533          	remu	a0,a0,s4
3000c7fc:	10a41623          	sh	a0,268(s0)
3000c800:	bc1ff06f          	j	3000c3c0 <main+0x348>
3000c804:	11645783          	lhu	a5,278(s0)
3000c808:	40f007b3          	neg	a5,a5
3000c80c:	01079793          	slli	a5,a5,0x10
3000c810:	10f42e23          	sw	a5,284(s0)
3000c814:	97cf40ef          	jal	ra,30000990 <_Z12randomNumberv>
3000c818:	03457533          	remu	a0,a0,s4
3000c81c:	12a41223          	sh	a0,292(s0)
3000c820:	bbdff06f          	j	3000c3dc <main+0x364>
3000c824:	12e45783          	lhu	a5,302(s0)
3000c828:	40f007b3          	neg	a5,a5
3000c82c:	01079793          	slli	a5,a5,0x10
3000c830:	12f42a23          	sw	a5,308(s0)
3000c834:	95cf40ef          	jal	ra,30000990 <_Z12randomNumberv>
3000c838:	03457533          	remu	a0,a0,s4
3000c83c:	12a41e23          	sh	a0,316(s0)
3000c840:	bb9ff06f          	j	3000c3f8 <main+0x380>
3000c844:	08645783          	lhu	a5,134(s0)
3000c848:	40f007b3          	neg	a5,a5
3000c84c:	01079793          	slli	a5,a5,0x10
3000c850:	08f42623          	sw	a5,140(s0)
3000c854:	93cf40ef          	jal	ra,30000990 <_Z12randomNumberv>
3000c858:	03457533          	remu	a0,a0,s4
3000c85c:	08a41a23          	sh	a0,148(s0)
3000c860:	945ff06f          	j	3000c1a4 <main+0x12c>
3000c864:	09e45783          	lhu	a5,158(s0)
3000c868:	40f007b3          	neg	a5,a5
3000c86c:	01079793          	slli	a5,a5,0x10
3000c870:	0af42223          	sw	a5,164(s0)
3000c874:	91cf40ef          	jal	ra,30000990 <_Z12randomNumberv>
3000c878:	03457533          	remu	a0,a0,s4
3000c87c:	0aa41623          	sh	a0,172(s0)
3000c880:	941ff06f          	j	3000c1c0 <main+0x148>
3000c884:	0b645783          	lhu	a5,182(s0)
3000c888:	40f007b3          	neg	a5,a5
3000c88c:	01079793          	slli	a5,a5,0x10
3000c890:	0af42e23          	sw	a5,188(s0)
3000c894:	8fcf40ef          	jal	ra,30000990 <_Z12randomNumberv>
3000c898:	03457533          	remu	a0,a0,s4
3000c89c:	0ca41223          	sh	a0,196(s0)
3000c8a0:	93dff06f          	j	3000c1dc <main+0x164>
3000c8a4:	0ce45783          	lhu	a5,206(s0)
3000c8a8:	40f007b3          	neg	a5,a5
3000c8ac:	01079793          	slli	a5,a5,0x10
3000c8b0:	0cf42a23          	sw	a5,212(s0)
3000c8b4:	8dcf40ef          	jal	ra,30000990 <_Z12randomNumberv>
3000c8b8:	03457533          	remu	a0,a0,s4
3000c8bc:	0ca41e23          	sh	a0,220(s0)
3000c8c0:	939ff06f          	j	3000c1f8 <main+0x180>
3000c8c4:	0e645783          	lhu	a5,230(s0)
3000c8c8:	40f007b3          	neg	a5,a5
3000c8cc:	01079793          	slli	a5,a5,0x10
3000c8d0:	0ef42623          	sw	a5,236(s0)
3000c8d4:	8bcf40ef          	jal	ra,30000990 <_Z12randomNumberv>
3000c8d8:	03457533          	remu	a0,a0,s4
3000c8dc:	0ea41a23          	sh	a0,244(s0)
3000c8e0:	935ff06f          	j	3000c214 <main+0x19c>
3000c8e4:	0fe45783          	lhu	a5,254(s0)
3000c8e8:	40f007b3          	neg	a5,a5
3000c8ec:	01079793          	slli	a5,a5,0x10
3000c8f0:	10f42223          	sw	a5,260(s0)
3000c8f4:	89cf40ef          	jal	ra,30000990 <_Z12randomNumberv>
3000c8f8:	03457533          	remu	a0,a0,s4
3000c8fc:	10a41623          	sh	a0,268(s0)
3000c900:	931ff06f          	j	3000c230 <main+0x1b8>
3000c904:	11645783          	lhu	a5,278(s0)
3000c908:	40f007b3          	neg	a5,a5
3000c90c:	01079793          	slli	a5,a5,0x10
3000c910:	10f42e23          	sw	a5,284(s0)
3000c914:	87cf40ef          	jal	ra,30000990 <_Z12randomNumberv>
3000c918:	03457533          	remu	a0,a0,s4
3000c91c:	12a41223          	sh	a0,292(s0)
3000c920:	92dff06f          	j	3000c24c <main+0x1d4>
3000c924:	12e45783          	lhu	a5,302(s0)
3000c928:	40f007b3          	neg	a5,a5
3000c92c:	01079793          	slli	a5,a5,0x10
3000c930:	12f42a23          	sw	a5,308(s0)
3000c934:	85cf40ef          	jal	ra,30000990 <_Z12randomNumberv>
3000c938:	03457533          	remu	a0,a0,s4
3000c93c:	12a41e23          	sh	a0,316(s0)
3000c940:	929ff06f          	j	3000c268 <main+0x1f0>

Disassembly of section .text.memcpy:

3000c944 <memcpy>:
3000c944:	00a5c7b3          	xor	a5,a1,a0
3000c948:	0037f793          	andi	a5,a5,3
3000c94c:	00c508b3          	add	a7,a0,a2
3000c950:	06079263          	bnez	a5,3000c9b4 <memcpy+0x70>
3000c954:	00300793          	li	a5,3
3000c958:	04c7fe63          	bgeu	a5,a2,3000c9b4 <memcpy+0x70>
3000c95c:	00357793          	andi	a5,a0,3
3000c960:	00050713          	mv	a4,a0
3000c964:	06079863          	bnez	a5,3000c9d4 <memcpy+0x90>
3000c968:	ffc8f613          	andi	a2,a7,-4
3000c96c:	fe060793          	addi	a5,a2,-32
3000c970:	08f76c63          	bltu	a4,a5,3000ca08 <memcpy+0xc4>
3000c974:	02c77c63          	bgeu	a4,a2,3000c9ac <memcpy+0x68>
3000c978:	00058693          	mv	a3,a1
3000c97c:	00070793          	mv	a5,a4
3000c980:	0006a803          	lw	a6,0(a3)
3000c984:	00478793          	addi	a5,a5,4
3000c988:	00468693          	addi	a3,a3,4
3000c98c:	ff07ae23          	sw	a6,-4(a5)
3000c990:	fec7e8e3          	bltu	a5,a2,3000c980 <memcpy+0x3c>
3000c994:	fff60793          	addi	a5,a2,-1
3000c998:	40e787b3          	sub	a5,a5,a4
3000c99c:	ffc7f793          	andi	a5,a5,-4
3000c9a0:	00478793          	addi	a5,a5,4
3000c9a4:	00f70733          	add	a4,a4,a5
3000c9a8:	00f585b3          	add	a1,a1,a5
3000c9ac:	01176863          	bltu	a4,a7,3000c9bc <memcpy+0x78>
3000c9b0:	00008067          	ret
3000c9b4:	00050713          	mv	a4,a0
3000c9b8:	ff157ce3          	bgeu	a0,a7,3000c9b0 <memcpy+0x6c>
3000c9bc:	0005c783          	lbu	a5,0(a1)
3000c9c0:	00170713          	addi	a4,a4,1
3000c9c4:	00158593          	addi	a1,a1,1
3000c9c8:	fef70fa3          	sb	a5,-1(a4)
3000c9cc:	ff1768e3          	bltu	a4,a7,3000c9bc <memcpy+0x78>
3000c9d0:	00008067          	ret
3000c9d4:	0005c683          	lbu	a3,0(a1)
3000c9d8:	00170713          	addi	a4,a4,1
3000c9dc:	00377793          	andi	a5,a4,3
3000c9e0:	fed70fa3          	sb	a3,-1(a4)
3000c9e4:	00158593          	addi	a1,a1,1
3000c9e8:	f80780e3          	beqz	a5,3000c968 <memcpy+0x24>
3000c9ec:	0005c683          	lbu	a3,0(a1)
3000c9f0:	00170713          	addi	a4,a4,1
3000c9f4:	00377793          	andi	a5,a4,3
3000c9f8:	fed70fa3          	sb	a3,-1(a4)
3000c9fc:	00158593          	addi	a1,a1,1
3000ca00:	fc079ae3          	bnez	a5,3000c9d4 <memcpy+0x90>
3000ca04:	f65ff06f          	j	3000c968 <memcpy+0x24>
3000ca08:	0005a683          	lw	a3,0(a1)
3000ca0c:	0045a283          	lw	t0,4(a1)
3000ca10:	0085af83          	lw	t6,8(a1)
3000ca14:	00c5af03          	lw	t5,12(a1)
3000ca18:	0105ae83          	lw	t4,16(a1)
3000ca1c:	0145ae03          	lw	t3,20(a1)
3000ca20:	0185a303          	lw	t1,24(a1)
3000ca24:	01c5a803          	lw	a6,28(a1)
3000ca28:	02458593          	addi	a1,a1,36
3000ca2c:	00d72023          	sw	a3,0(a4)
3000ca30:	ffc5a683          	lw	a3,-4(a1)
3000ca34:	00572223          	sw	t0,4(a4)
3000ca38:	01f72423          	sw	t6,8(a4)
3000ca3c:	01e72623          	sw	t5,12(a4)
3000ca40:	01d72823          	sw	t4,16(a4)
3000ca44:	01c72a23          	sw	t3,20(a4)
3000ca48:	00672c23          	sw	t1,24(a4)
3000ca4c:	01072e23          	sw	a6,28(a4)
3000ca50:	02470713          	addi	a4,a4,36
3000ca54:	fed72e23          	sw	a3,-4(a4)
3000ca58:	faf768e3          	bltu	a4,a5,3000ca08 <memcpy+0xc4>
3000ca5c:	f19ff06f          	j	3000c974 <memcpy+0x30>

Disassembly of section .text.strcpy:

3000ca60 <strcpy>:
3000ca60:	00b567b3          	or	a5,a0,a1
3000ca64:	0037f793          	andi	a5,a5,3
3000ca68:	08079263          	bnez	a5,3000caec <strcpy+0x8c>
3000ca6c:	0005a703          	lw	a4,0(a1)
3000ca70:	7f7f86b7          	lui	a3,0x7f7f8
3000ca74:	f7f68693          	addi	a3,a3,-129 # 7f7f7f7f <__bss_end__+0x4f6f7f7f>
3000ca78:	00d777b3          	and	a5,a4,a3
3000ca7c:	00d787b3          	add	a5,a5,a3
3000ca80:	00e7e7b3          	or	a5,a5,a4
3000ca84:	00d7e7b3          	or	a5,a5,a3
3000ca88:	fff00613          	li	a2,-1
3000ca8c:	06c79e63          	bne	a5,a2,3000cb08 <strcpy+0xa8>
3000ca90:	00050613          	mv	a2,a0
3000ca94:	fff00813          	li	a6,-1
3000ca98:	00460613          	addi	a2,a2,4
3000ca9c:	00458593          	addi	a1,a1,4
3000caa0:	fee62e23          	sw	a4,-4(a2)
3000caa4:	0005a703          	lw	a4,0(a1)
3000caa8:	00d777b3          	and	a5,a4,a3
3000caac:	00d787b3          	add	a5,a5,a3
3000cab0:	00e7e7b3          	or	a5,a5,a4
3000cab4:	00d7e7b3          	or	a5,a5,a3
3000cab8:	ff0780e3          	beq	a5,a6,3000ca98 <strcpy+0x38>
3000cabc:	0005c783          	lbu	a5,0(a1)
3000cac0:	0015c703          	lbu	a4,1(a1)
3000cac4:	0025c683          	lbu	a3,2(a1)
3000cac8:	00f60023          	sb	a5,0(a2)
3000cacc:	00078a63          	beqz	a5,3000cae0 <strcpy+0x80>
3000cad0:	00e600a3          	sb	a4,1(a2)
3000cad4:	00070663          	beqz	a4,3000cae0 <strcpy+0x80>
3000cad8:	00d60123          	sb	a3,2(a2)
3000cadc:	00069463          	bnez	a3,3000cae4 <strcpy+0x84>
3000cae0:	00008067          	ret
3000cae4:	000601a3          	sb	zero,3(a2)
3000cae8:	00008067          	ret
3000caec:	00050793          	mv	a5,a0
3000caf0:	0005c703          	lbu	a4,0(a1)
3000caf4:	00178793          	addi	a5,a5,1
3000caf8:	00158593          	addi	a1,a1,1
3000cafc:	fee78fa3          	sb	a4,-1(a5)
3000cb00:	fe0718e3          	bnez	a4,3000caf0 <strcpy+0x90>
3000cb04:	00008067          	ret
3000cb08:	00050613          	mv	a2,a0
3000cb0c:	fb1ff06f          	j	3000cabc <strcpy+0x5c>

Disassembly of section .text.__divsf3:

3000cb10 <__divsf3>:
3000cb10:	fc010113          	addi	sp,sp,-64
3000cb14:	01755793          	srli	a5,a0,0x17
3000cb18:	03212823          	sw	s2,48(sp)
3000cb1c:	03512223          	sw	s5,36(sp)
3000cb20:	01712e23          	sw	s7,28(sp)
3000cb24:	00951a93          	slli	s5,a0,0x9
3000cb28:	01f55913          	srli	s2,a0,0x1f
3000cb2c:	02112e23          	sw	ra,60(sp)
3000cb30:	02812c23          	sw	s0,56(sp)
3000cb34:	02912a23          	sw	s1,52(sp)
3000cb38:	03312623          	sw	s3,44(sp)
3000cb3c:	03412423          	sw	s4,40(sp)
3000cb40:	03612023          	sw	s6,32(sp)
3000cb44:	0ff7f793          	andi	a5,a5,255
3000cb48:	009ada93          	srli	s5,s5,0x9
3000cb4c:	00090b93          	mv	s7,s2
3000cb50:	18078863          	beqz	a5,3000cce0 <__divsf3+0x1d0>
3000cb54:	0ff00713          	li	a4,255
3000cb58:	18e78e63          	beq	a5,a4,3000ccf4 <__divsf3+0x1e4>
3000cb5c:	003a9a93          	slli	s5,s5,0x3
3000cb60:	04000737          	lui	a4,0x4000
3000cb64:	00eaeab3          	or	s5,s5,a4
3000cb68:	f8178a13          	addi	s4,a5,-127
3000cb6c:	00000413          	li	s0,0
3000cb70:	00000b13          	li	s6,0
3000cb74:	0175d793          	srli	a5,a1,0x17
3000cb78:	00959493          	slli	s1,a1,0x9
3000cb7c:	0ff7f793          	andi	a5,a5,255
3000cb80:	0094d493          	srli	s1,s1,0x9
3000cb84:	01f5d993          	srli	s3,a1,0x1f
3000cb88:	14078663          	beqz	a5,3000ccd4 <__divsf3+0x1c4>
3000cb8c:	0ff00713          	li	a4,255
3000cb90:	04e78063          	beq	a5,a4,3000cbd0 <__divsf3+0xc0>
3000cb94:	00349493          	slli	s1,s1,0x3
3000cb98:	f8178793          	addi	a5,a5,-127
3000cb9c:	04000737          	lui	a4,0x4000
3000cba0:	00e4e4b3          	or	s1,s1,a4
3000cba4:	40fa0a33          	sub	s4,s4,a5
3000cba8:	00000693          	li	a3,0
3000cbac:	0086e433          	or	s0,a3,s0
3000cbb0:	00002717          	auipc	a4,0x2
3000cbb4:	46070713          	addi	a4,a4,1120 # 3000f010 <_ZZ6f_mkfsE3cst+0x74>
3000cbb8:	00241413          	slli	s0,s0,0x2
3000cbbc:	00e40433          	add	s0,s0,a4
3000cbc0:	00042783          	lw	a5,0(s0)
3000cbc4:	01394933          	xor	s2,s2,s3
3000cbc8:	00e787b3          	add	a5,a5,a4
3000cbcc:	00078067          	jr	a5
3000cbd0:	f01a0a13          	addi	s4,s4,-255
3000cbd4:	12049a63          	bnez	s1,3000cd08 <__divsf3+0x1f8>
3000cbd8:	00200693          	li	a3,2
3000cbdc:	0086e433          	or	s0,a3,s0
3000cbe0:	00002717          	auipc	a4,0x2
3000cbe4:	47070713          	addi	a4,a4,1136 # 3000f050 <_ZZ6f_mkfsE3cst+0xb4>
3000cbe8:	00241413          	slli	s0,s0,0x2
3000cbec:	00e40433          	add	s0,s0,a4
3000cbf0:	00042783          	lw	a5,0(s0)
3000cbf4:	01394933          	xor	s2,s2,s3
3000cbf8:	00e787b3          	add	a5,a5,a4
3000cbfc:	00078067          	jr	a5
3000cc00:	00000913          	li	s2,0
3000cc04:	0ff00713          	li	a4,255
3000cc08:	004007b7          	lui	a5,0x400
3000cc0c:	00979513          	slli	a0,a5,0x9
3000cc10:	03c12083          	lw	ra,60(sp)
3000cc14:	03812403          	lw	s0,56(sp)
3000cc18:	01771793          	slli	a5,a4,0x17
3000cc1c:	00955513          	srli	a0,a0,0x9
3000cc20:	01f91913          	slli	s2,s2,0x1f
3000cc24:	00f56533          	or	a0,a0,a5
3000cc28:	01256533          	or	a0,a0,s2
3000cc2c:	03412483          	lw	s1,52(sp)
3000cc30:	03012903          	lw	s2,48(sp)
3000cc34:	02c12983          	lw	s3,44(sp)
3000cc38:	02812a03          	lw	s4,40(sp)
3000cc3c:	02412a83          	lw	s5,36(sp)
3000cc40:	02012b03          	lw	s6,32(sp)
3000cc44:	01c12b83          	lw	s7,28(sp)
3000cc48:	04010113          	addi	sp,sp,64
3000cc4c:	00008067          	ret
3000cc50:	0ff00713          	li	a4,255
3000cc54:	00000793          	li	a5,0
3000cc58:	fb5ff06f          	j	3000cc0c <__divsf3+0xfc>
3000cc5c:	00048a93          	mv	s5,s1
3000cc60:	00098b93          	mv	s7,s3
3000cc64:	00068b13          	mv	s6,a3
3000cc68:	00200793          	li	a5,2
3000cc6c:	24fb0a63          	beq	s6,a5,3000cec0 <__divsf3+0x3b0>
3000cc70:	00300793          	li	a5,3
3000cc74:	f8fb06e3          	beq	s6,a5,3000cc00 <__divsf3+0xf0>
3000cc78:	00100793          	li	a5,1
3000cc7c:	0efb0863          	beq	s6,a5,3000cd6c <__divsf3+0x25c>
3000cc80:	07fa0713          	addi	a4,s4,127
3000cc84:	001bf913          	andi	s2,s7,1
3000cc88:	18e05a63          	blez	a4,3000ce1c <__divsf3+0x30c>
3000cc8c:	007af793          	andi	a5,s5,7
3000cc90:	00078a63          	beqz	a5,3000cca4 <__divsf3+0x194>
3000cc94:	00faf793          	andi	a5,s5,15
3000cc98:	00400693          	li	a3,4
3000cc9c:	00d78463          	beq	a5,a3,3000cca4 <__divsf3+0x194>
3000cca0:	004a8a93          	addi	s5,s5,4
3000cca4:	004a9793          	slli	a5,s5,0x4
3000cca8:	0007da63          	bgez	a5,3000ccbc <__divsf3+0x1ac>
3000ccac:	f80007b7          	lui	a5,0xf8000
3000ccb0:	fff78793          	addi	a5,a5,-1 # f7ffffff <__bss_end__+0xc7efffff>
3000ccb4:	00fafab3          	and	s5,s5,a5
3000ccb8:	080a0713          	addi	a4,s4,128
3000ccbc:	0fe00793          	li	a5,254
3000ccc0:	f8e7c8e3          	blt	a5,a4,3000cc50 <__divsf3+0x140>
3000ccc4:	006a9793          	slli	a5,s5,0x6
3000ccc8:	0097d793          	srli	a5,a5,0x9
3000cccc:	0ff77713          	andi	a4,a4,255
3000ccd0:	f3dff06f          	j	3000cc0c <__divsf3+0xfc>
3000ccd4:	06049c63          	bnez	s1,3000cd4c <__divsf3+0x23c>
3000ccd8:	00100693          	li	a3,1
3000ccdc:	f01ff06f          	j	3000cbdc <__divsf3+0xcc>
3000cce0:	040a9063          	bnez	s5,3000cd20 <__divsf3+0x210>
3000cce4:	00400413          	li	s0,4
3000cce8:	00000a13          	li	s4,0
3000ccec:	00100b13          	li	s6,1
3000ccf0:	e85ff06f          	j	3000cb74 <__divsf3+0x64>
3000ccf4:	000a9e63          	bnez	s5,3000cd10 <__divsf3+0x200>
3000ccf8:	00800413          	li	s0,8
3000ccfc:	0ff00a13          	li	s4,255
3000cd00:	00200b13          	li	s6,2
3000cd04:	e71ff06f          	j	3000cb74 <__divsf3+0x64>
3000cd08:	00300693          	li	a3,3
3000cd0c:	ea1ff06f          	j	3000cbac <__divsf3+0x9c>
3000cd10:	00c00413          	li	s0,12
3000cd14:	0ff00a13          	li	s4,255
3000cd18:	00300b13          	li	s6,3
3000cd1c:	e59ff06f          	j	3000cb74 <__divsf3+0x64>
3000cd20:	000a8513          	mv	a0,s5
3000cd24:	00b12623          	sw	a1,12(sp)
3000cd28:	7c8000ef          	jal	ra,3000d4f0 <__clzsi2>
3000cd2c:	ffb50793          	addi	a5,a0,-5
3000cd30:	00fa9ab3          	sll	s5,s5,a5
3000cd34:	f8a00793          	li	a5,-118
3000cd38:	40a78a33          	sub	s4,a5,a0
3000cd3c:	00000413          	li	s0,0
3000cd40:	00000b13          	li	s6,0
3000cd44:	00c12583          	lw	a1,12(sp)
3000cd48:	e2dff06f          	j	3000cb74 <__divsf3+0x64>
3000cd4c:	00048513          	mv	a0,s1
3000cd50:	7a0000ef          	jal	ra,3000d4f0 <__clzsi2>
3000cd54:	ffb50713          	addi	a4,a0,-5
3000cd58:	00aa07b3          	add	a5,s4,a0
3000cd5c:	00e494b3          	sll	s1,s1,a4
3000cd60:	07678a13          	addi	s4,a5,118
3000cd64:	00000693          	li	a3,0
3000cd68:	e45ff06f          	j	3000cbac <__divsf3+0x9c>
3000cd6c:	001bf913          	andi	s2,s7,1
3000cd70:	00000713          	li	a4,0
3000cd74:	00000793          	li	a5,0
3000cd78:	e95ff06f          	j	3000cc0c <__divsf3+0xfc>
3000cd7c:	00010637          	lui	a2,0x10
3000cd80:	00549513          	slli	a0,s1,0x5
3000cd84:	fff60613          	addi	a2,a2,-1 # ffff <stackPointer+0x92bf>
3000cd88:	01055793          	srli	a5,a0,0x10
3000cd8c:	00c57633          	and	a2,a0,a2
3000cd90:	0e9af663          	bgeu	s5,s1,3000ce7c <__divsf3+0x36c>
3000cd94:	02fad5b3          	divu	a1,s5,a5
3000cd98:	fffa0a13          	addi	s4,s4,-1
3000cd9c:	000a8693          	mv	a3,s5
3000cda0:	00000713          	li	a4,0
3000cda4:	02c58833          	mul	a6,a1,a2
3000cda8:	02f6f6b3          	remu	a3,a3,a5
3000cdac:	01069693          	slli	a3,a3,0x10
3000cdb0:	00e6e733          	or	a4,a3,a4
3000cdb4:	01077e63          	bgeu	a4,a6,3000cdd0 <__divsf3+0x2c0>
3000cdb8:	00a70733          	add	a4,a4,a0
3000cdbc:	fff58693          	addi	a3,a1,-1
3000cdc0:	0ea76663          	bltu	a4,a0,3000ceac <__divsf3+0x39c>
3000cdc4:	0f077463          	bgeu	a4,a6,3000ceac <__divsf3+0x39c>
3000cdc8:	ffe58593          	addi	a1,a1,-2
3000cdcc:	00a70733          	add	a4,a4,a0
3000cdd0:	41070733          	sub	a4,a4,a6
3000cdd4:	02f756b3          	divu	a3,a4,a5
3000cdd8:	02f77733          	remu	a4,a4,a5
3000cddc:	02c68ab3          	mul	s5,a3,a2
3000cde0:	01071793          	slli	a5,a4,0x10
3000cde4:	0157fe63          	bgeu	a5,s5,3000ce00 <__divsf3+0x2f0>
3000cde8:	00a787b3          	add	a5,a5,a0
3000cdec:	fff68713          	addi	a4,a3,-1
3000cdf0:	0aa7ea63          	bltu	a5,a0,3000cea4 <__divsf3+0x394>
3000cdf4:	0b57f863          	bgeu	a5,s5,3000cea4 <__divsf3+0x394>
3000cdf8:	ffe68693          	addi	a3,a3,-2
3000cdfc:	00a787b3          	add	a5,a5,a0
3000ce00:	01059593          	slli	a1,a1,0x10
3000ce04:	41578ab3          	sub	s5,a5,s5
3000ce08:	00d5e5b3          	or	a1,a1,a3
3000ce0c:	01503ab3          	snez	s5,s5
3000ce10:	0155eab3          	or	s5,a1,s5
3000ce14:	00090b93          	mv	s7,s2
3000ce18:	e69ff06f          	j	3000cc80 <__divsf3+0x170>
3000ce1c:	00100693          	li	a3,1
3000ce20:	40e686b3          	sub	a3,a3,a4
3000ce24:	00070a63          	beqz	a4,3000ce38 <__divsf3+0x328>
3000ce28:	01b00613          	li	a2,27
3000ce2c:	00000713          	li	a4,0
3000ce30:	00000793          	li	a5,0
3000ce34:	dcd64ce3          	blt	a2,a3,3000cc0c <__divsf3+0xfc>
3000ce38:	09ea0a13          	addi	s4,s4,158
3000ce3c:	014a9a33          	sll	s4,s5,s4
3000ce40:	00dad7b3          	srl	a5,s5,a3
3000ce44:	01403ab3          	snez	s5,s4
3000ce48:	0157e7b3          	or	a5,a5,s5
3000ce4c:	0077f713          	andi	a4,a5,7
3000ce50:	00070a63          	beqz	a4,3000ce64 <__divsf3+0x354>
3000ce54:	00f7f713          	andi	a4,a5,15
3000ce58:	00400693          	li	a3,4
3000ce5c:	00d70463          	beq	a4,a3,3000ce64 <__divsf3+0x354>
3000ce60:	00478793          	addi	a5,a5,4
3000ce64:	00579713          	slli	a4,a5,0x5
3000ce68:	04074663          	bltz	a4,3000ceb4 <__divsf3+0x3a4>
3000ce6c:	00679793          	slli	a5,a5,0x6
3000ce70:	0097d793          	srli	a5,a5,0x9
3000ce74:	00000713          	li	a4,0
3000ce78:	d95ff06f          	j	3000cc0c <__divsf3+0xfc>
3000ce7c:	001ad693          	srli	a3,s5,0x1
3000ce80:	02f6d5b3          	divu	a1,a3,a5
3000ce84:	01fa9713          	slli	a4,s5,0x1f
3000ce88:	01075713          	srli	a4,a4,0x10
3000ce8c:	02c58833          	mul	a6,a1,a2
3000ce90:	f19ff06f          	j	3000cda8 <__divsf3+0x298>
3000ce94:	00098b93          	mv	s7,s3
3000ce98:	00068b13          	mv	s6,a3
3000ce9c:	00000a93          	li	s5,0
3000cea0:	dc9ff06f          	j	3000cc68 <__divsf3+0x158>
3000cea4:	00070693          	mv	a3,a4
3000cea8:	f59ff06f          	j	3000ce00 <__divsf3+0x2f0>
3000ceac:	00068593          	mv	a1,a3
3000ceb0:	f21ff06f          	j	3000cdd0 <__divsf3+0x2c0>
3000ceb4:	00100713          	li	a4,1
3000ceb8:	00000793          	li	a5,0
3000cebc:	d51ff06f          	j	3000cc0c <__divsf3+0xfc>
3000cec0:	001bf913          	andi	s2,s7,1
3000cec4:	0ff00713          	li	a4,255
3000cec8:	00000793          	li	a5,0
3000cecc:	d41ff06f          	j	3000cc0c <__divsf3+0xfc>

Disassembly of section .text.__mulsf3:

3000ced0 <__mulsf3>:
3000ced0:	fd010113          	addi	sp,sp,-48
3000ced4:	02812423          	sw	s0,40(sp)
3000ced8:	01755413          	srli	s0,a0,0x17
3000cedc:	01312e23          	sw	s3,28(sp)
3000cee0:	01412c23          	sw	s4,24(sp)
3000cee4:	00951993          	slli	s3,a0,0x9
3000cee8:	02112623          	sw	ra,44(sp)
3000ceec:	02912223          	sw	s1,36(sp)
3000cef0:	03212023          	sw	s2,32(sp)
3000cef4:	01512a23          	sw	s5,20(sp)
3000cef8:	01612823          	sw	s6,16(sp)
3000cefc:	0ff47413          	andi	s0,s0,255
3000cf00:	0099d993          	srli	s3,s3,0x9
3000cf04:	01f55a13          	srli	s4,a0,0x1f
3000cf08:	12040063          	beqz	s0,3000d028 <__mulsf3+0x158>
3000cf0c:	0ff00793          	li	a5,255
3000cf10:	14f40863          	beq	s0,a5,3000d060 <__mulsf3+0x190>
3000cf14:	00399793          	slli	a5,s3,0x3
3000cf18:	04000737          	lui	a4,0x4000
3000cf1c:	00e7e9b3          	or	s3,a5,a4
3000cf20:	f8140413          	addi	s0,s0,-127
3000cf24:	00000493          	li	s1,0
3000cf28:	00000b13          	li	s6,0
3000cf2c:	0175d713          	srli	a4,a1,0x17
3000cf30:	00959a93          	slli	s5,a1,0x9
3000cf34:	0ff77713          	andi	a4,a4,255
3000cf38:	009ada93          	srli	s5,s5,0x9
3000cf3c:	01f5d913          	srli	s2,a1,0x1f
3000cf40:	10070863          	beqz	a4,3000d050 <__mulsf3+0x180>
3000cf44:	0ff00793          	li	a5,255
3000cf48:	04f70663          	beq	a4,a5,3000cf94 <__mulsf3+0xc4>
3000cf4c:	003a9a93          	slli	s5,s5,0x3
3000cf50:	f8170713          	addi	a4,a4,-127 # 3ffff81 <stackPointer+0x3ff9241>
3000cf54:	040007b7          	lui	a5,0x4000
3000cf58:	00faeab3          	or	s5,s5,a5
3000cf5c:	00e40433          	add	s0,s0,a4
3000cf60:	00000613          	li	a2,0
3000cf64:	012a4533          	xor	a0,s4,s2
3000cf68:	00f00793          	li	a5,15
3000cf6c:	00050693          	mv	a3,a0
3000cf70:	00140593          	addi	a1,s0,1
3000cf74:	1897e263          	bltu	a5,s1,3000d0f8 <__mulsf3+0x228>
3000cf78:	00002717          	auipc	a4,0x2
3000cf7c:	11870713          	addi	a4,a4,280 # 3000f090 <_ZZ6f_mkfsE3cst+0xf4>
3000cf80:	00249493          	slli	s1,s1,0x2
3000cf84:	00e484b3          	add	s1,s1,a4
3000cf88:	0004a783          	lw	a5,0(s1) # 1400000 <stackPointer+0x13f92c0>
3000cf8c:	00e787b3          	add	a5,a5,a4
3000cf90:	00078067          	jr	a5 # 4000000 <stackPointer+0x3ff92c0>
3000cf94:	0ff40413          	addi	s0,s0,255
3000cf98:	120a9c63          	bnez	s5,3000d0d0 <__mulsf3+0x200>
3000cf9c:	0024e493          	ori	s1,s1,2
3000cfa0:	00200613          	li	a2,2
3000cfa4:	fc1ff06f          	j	3000cf64 <__mulsf3+0x94>
3000cfa8:	00000513          	li	a0,0
3000cfac:	0ff00713          	li	a4,255
3000cfb0:	004007b7          	lui	a5,0x400
3000cfb4:	02c12083          	lw	ra,44(sp)
3000cfb8:	02812403          	lw	s0,40(sp)
3000cfbc:	00979793          	slli	a5,a5,0x9
3000cfc0:	01771713          	slli	a4,a4,0x17
3000cfc4:	0097d793          	srli	a5,a5,0x9
3000cfc8:	01f51513          	slli	a0,a0,0x1f
3000cfcc:	00e7e7b3          	or	a5,a5,a4
3000cfd0:	02412483          	lw	s1,36(sp)
3000cfd4:	02012903          	lw	s2,32(sp)
3000cfd8:	01c12983          	lw	s3,28(sp)
3000cfdc:	01812a03          	lw	s4,24(sp)
3000cfe0:	01412a83          	lw	s5,20(sp)
3000cfe4:	01012b03          	lw	s6,16(sp)
3000cfe8:	00a7e533          	or	a0,a5,a0
3000cfec:	03010113          	addi	sp,sp,48
3000cff0:	00008067          	ret
3000cff4:	00090693          	mv	a3,s2
3000cff8:	000a8993          	mv	s3,s5
3000cffc:	00060b13          	mv	s6,a2
3000d000:	00200793          	li	a5,2
3000d004:	0efb0263          	beq	s6,a5,3000d0e8 <__mulsf3+0x218>
3000d008:	00300793          	li	a5,3
3000d00c:	f8fb0ee3          	beq	s6,a5,3000cfa8 <__mulsf3+0xd8>
3000d010:	00100793          	li	a5,1
3000d014:	00068513          	mv	a0,a3
3000d018:	22fb1463          	bne	s6,a5,3000d240 <__mulsf3+0x370>
3000d01c:	00000713          	li	a4,0
3000d020:	00000793          	li	a5,0
3000d024:	f91ff06f          	j	3000cfb4 <__mulsf3+0xe4>
3000d028:	06099e63          	bnez	s3,3000d0a4 <__mulsf3+0x1d4>
3000d02c:	0175d713          	srli	a4,a1,0x17
3000d030:	00959a93          	slli	s5,a1,0x9
3000d034:	0ff77713          	andi	a4,a4,255
3000d038:	00400493          	li	s1,4
3000d03c:	00000413          	li	s0,0
3000d040:	00100b13          	li	s6,1
3000d044:	009ada93          	srli	s5,s5,0x9
3000d048:	01f5d913          	srli	s2,a1,0x1f
3000d04c:	ee071ce3          	bnez	a4,3000cf44 <__mulsf3+0x74>
3000d050:	020a9263          	bnez	s5,3000d074 <__mulsf3+0x1a4>
3000d054:	0014e493          	ori	s1,s1,1
3000d058:	00100613          	li	a2,1
3000d05c:	f09ff06f          	j	3000cf64 <__mulsf3+0x94>
3000d060:	02099a63          	bnez	s3,3000d094 <__mulsf3+0x1c4>
3000d064:	00800493          	li	s1,8
3000d068:	0ff00413          	li	s0,255
3000d06c:	00200b13          	li	s6,2
3000d070:	ebdff06f          	j	3000cf2c <__mulsf3+0x5c>
3000d074:	000a8513          	mv	a0,s5
3000d078:	478000ef          	jal	ra,3000d4f0 <__clzsi2>
3000d07c:	ffb50793          	addi	a5,a0,-5
3000d080:	40a40433          	sub	s0,s0,a0
3000d084:	00fa9ab3          	sll	s5,s5,a5
3000d088:	f8a40413          	addi	s0,s0,-118
3000d08c:	00000613          	li	a2,0
3000d090:	ed5ff06f          	j	3000cf64 <__mulsf3+0x94>
3000d094:	00c00493          	li	s1,12
3000d098:	0ff00413          	li	s0,255
3000d09c:	00300b13          	li	s6,3
3000d0a0:	e8dff06f          	j	3000cf2c <__mulsf3+0x5c>
3000d0a4:	00098513          	mv	a0,s3
3000d0a8:	00b12623          	sw	a1,12(sp)
3000d0ac:	444000ef          	jal	ra,3000d4f0 <__clzsi2>
3000d0b0:	ffb50793          	addi	a5,a0,-5
3000d0b4:	f8a00413          	li	s0,-118
3000d0b8:	00f999b3          	sll	s3,s3,a5
3000d0bc:	40a40433          	sub	s0,s0,a0
3000d0c0:	00000493          	li	s1,0
3000d0c4:	00000b13          	li	s6,0
3000d0c8:	00c12583          	lw	a1,12(sp)
3000d0cc:	e61ff06f          	j	3000cf2c <__mulsf3+0x5c>
3000d0d0:	0034e493          	ori	s1,s1,3
3000d0d4:	00300613          	li	a2,3
3000d0d8:	e8dff06f          	j	3000cf64 <__mulsf3+0x94>
3000d0dc:	00200793          	li	a5,2
3000d0e0:	000a0693          	mv	a3,s4
3000d0e4:	f2fb12e3          	bne	s6,a5,3000d008 <__mulsf3+0x138>
3000d0e8:	00068513          	mv	a0,a3
3000d0ec:	0ff00713          	li	a4,255
3000d0f0:	00000793          	li	a5,0
3000d0f4:	ec1ff06f          	j	3000cfb4 <__mulsf3+0xe4>
3000d0f8:	00010337          	lui	t1,0x10
3000d0fc:	fff30693          	addi	a3,t1,-1 # ffff <stackPointer+0x92bf>
3000d100:	0109d613          	srli	a2,s3,0x10
3000d104:	010ad893          	srli	a7,s5,0x10
3000d108:	00d9f7b3          	and	a5,s3,a3
3000d10c:	00dafab3          	and	s5,s5,a3
3000d110:	03578833          	mul	a6,a5,s5
3000d114:	02f889b3          	mul	s3,a7,a5
3000d118:	01085713          	srli	a4,a6,0x10
3000d11c:	03560ab3          	mul	s5,a2,s5
3000d120:	015989b3          	add	s3,s3,s5
3000d124:	01370733          	add	a4,a4,s3
3000d128:	03160633          	mul	a2,a2,a7
3000d12c:	01577463          	bgeu	a4,s5,3000d134 <__mulsf3+0x264>
3000d130:	00660633          	add	a2,a2,t1
3000d134:	000107b7          	lui	a5,0x10
3000d138:	fff78793          	addi	a5,a5,-1 # ffff <stackPointer+0x92bf>
3000d13c:	00f776b3          	and	a3,a4,a5
3000d140:	00f87833          	and	a6,a6,a5
3000d144:	01069693          	slli	a3,a3,0x10
3000d148:	010686b3          	add	a3,a3,a6
3000d14c:	00669993          	slli	s3,a3,0x6
3000d150:	01075793          	srli	a5,a4,0x10
3000d154:	013039b3          	snez	s3,s3
3000d158:	01a6d693          	srli	a3,a3,0x1a
3000d15c:	00c787b3          	add	a5,a5,a2
3000d160:	00679793          	slli	a5,a5,0x6
3000d164:	00d9e6b3          	or	a3,s3,a3
3000d168:	00d7e9b3          	or	s3,a5,a3
3000d16c:	00499793          	slli	a5,s3,0x4
3000d170:	0007da63          	bgez	a5,3000d184 <__mulsf3+0x2b4>
3000d174:	0019d713          	srli	a4,s3,0x1
3000d178:	0019f793          	andi	a5,s3,1
3000d17c:	00f769b3          	or	s3,a4,a5
3000d180:	00058413          	mv	s0,a1
3000d184:	07f40713          	addi	a4,s0,127
3000d188:	04e05663          	blez	a4,3000d1d4 <__mulsf3+0x304>
3000d18c:	0079f793          	andi	a5,s3,7
3000d190:	00078a63          	beqz	a5,3000d1a4 <__mulsf3+0x2d4>
3000d194:	00f9f793          	andi	a5,s3,15
3000d198:	00400693          	li	a3,4
3000d19c:	00d78463          	beq	a5,a3,3000d1a4 <__mulsf3+0x2d4>
3000d1a0:	00498993          	addi	s3,s3,4
3000d1a4:	00499793          	slli	a5,s3,0x4
3000d1a8:	0007da63          	bgez	a5,3000d1bc <__mulsf3+0x2ec>
3000d1ac:	f80007b7          	lui	a5,0xf8000
3000d1b0:	fff78793          	addi	a5,a5,-1 # f7ffffff <__bss_end__+0xc7efffff>
3000d1b4:	00f9f9b3          	and	s3,s3,a5
3000d1b8:	08040713          	addi	a4,s0,128
3000d1bc:	0fe00793          	li	a5,254
3000d1c0:	06e7ca63          	blt	a5,a4,3000d234 <__mulsf3+0x364>
3000d1c4:	00699793          	slli	a5,s3,0x6
3000d1c8:	0097d793          	srli	a5,a5,0x9
3000d1cc:	0ff77713          	andi	a4,a4,255
3000d1d0:	de5ff06f          	j	3000cfb4 <__mulsf3+0xe4>
3000d1d4:	00100793          	li	a5,1
3000d1d8:	40e786b3          	sub	a3,a5,a4
3000d1dc:	00070a63          	beqz	a4,3000d1f0 <__mulsf3+0x320>
3000d1e0:	01b00613          	li	a2,27
3000d1e4:	00000713          	li	a4,0
3000d1e8:	00000793          	li	a5,0
3000d1ec:	dcd644e3          	blt	a2,a3,3000cfb4 <__mulsf3+0xe4>
3000d1f0:	09e40713          	addi	a4,s0,158
3000d1f4:	00e99733          	sll	a4,s3,a4
3000d1f8:	00e03733          	snez	a4,a4
3000d1fc:	00d9d7b3          	srl	a5,s3,a3
3000d200:	00e7e7b3          	or	a5,a5,a4
3000d204:	0077f713          	andi	a4,a5,7
3000d208:	00070a63          	beqz	a4,3000d21c <__mulsf3+0x34c>
3000d20c:	00f7f713          	andi	a4,a5,15
3000d210:	00400693          	li	a3,4
3000d214:	00d70463          	beq	a4,a3,3000d21c <__mulsf3+0x34c>
3000d218:	00478793          	addi	a5,a5,4
3000d21c:	00579713          	slli	a4,a5,0x5
3000d220:	02074463          	bltz	a4,3000d248 <__mulsf3+0x378>
3000d224:	00679793          	slli	a5,a5,0x6
3000d228:	0097d793          	srli	a5,a5,0x9
3000d22c:	00000713          	li	a4,0
3000d230:	d85ff06f          	j	3000cfb4 <__mulsf3+0xe4>
3000d234:	0ff00713          	li	a4,255
3000d238:	00000793          	li	a5,0
3000d23c:	d79ff06f          	j	3000cfb4 <__mulsf3+0xe4>
3000d240:	00058413          	mv	s0,a1
3000d244:	f41ff06f          	j	3000d184 <__mulsf3+0x2b4>
3000d248:	00100713          	li	a4,1
3000d24c:	00000793          	li	a5,0
3000d250:	d65ff06f          	j	3000cfb4 <__mulsf3+0xe4>

Disassembly of section .text.__fixunssfsi:

3000d254 <__fixunssfsi>:
3000d254:	01755713          	srli	a4,a0,0x17
3000d258:	00800637          	lui	a2,0x800
3000d25c:	fff60793          	addi	a5,a2,-1 # 7fffff <stackPointer+0x7f92bf>
3000d260:	0ff77713          	andi	a4,a4,255
3000d264:	07e00593          	li	a1,126
3000d268:	00a7f6b3          	and	a3,a5,a0
3000d26c:	01f55793          	srli	a5,a0,0x1f
3000d270:	00000513          	li	a0,0
3000d274:	00e5f663          	bgeu	a1,a4,3000d280 <__fixunssfsi+0x2c>
3000d278:	00078663          	beqz	a5,3000d284 <__fixunssfsi+0x30>
3000d27c:	00008067          	ret
3000d280:	00008067          	ret
3000d284:	09e00793          	li	a5,158
3000d288:	fff00513          	li	a0,-1
3000d28c:	fee7e8e3          	bltu	a5,a4,3000d27c <__fixunssfsi+0x28>
3000d290:	09500593          	li	a1,149
3000d294:	00c6e7b3          	or	a5,a3,a2
3000d298:	00e5d863          	bge	a1,a4,3000d2a8 <__fixunssfsi+0x54>
3000d29c:	f6a70713          	addi	a4,a4,-150
3000d2a0:	00e79533          	sll	a0,a5,a4
3000d2a4:	00008067          	ret
3000d2a8:	09600513          	li	a0,150
3000d2ac:	40e50733          	sub	a4,a0,a4
3000d2b0:	00e7d533          	srl	a0,a5,a4
3000d2b4:	00008067          	ret

Disassembly of section .text.__floatsisf:

3000d2b8 <__floatsisf>:
3000d2b8:	ff010113          	addi	sp,sp,-16
3000d2bc:	00112623          	sw	ra,12(sp)
3000d2c0:	00812423          	sw	s0,8(sp)
3000d2c4:	00912223          	sw	s1,4(sp)
3000d2c8:	04050863          	beqz	a0,3000d318 <__floatsisf+0x60>
3000d2cc:	41f55793          	srai	a5,a0,0x1f
3000d2d0:	00a7c433          	xor	s0,a5,a0
3000d2d4:	40f40433          	sub	s0,s0,a5
3000d2d8:	00050493          	mv	s1,a0
3000d2dc:	00040513          	mv	a0,s0
3000d2e0:	210000ef          	jal	ra,3000d4f0 <__clzsi2>
3000d2e4:	09e00793          	li	a5,158
3000d2e8:	40a78733          	sub	a4,a5,a0
3000d2ec:	09600793          	li	a5,150
3000d2f0:	01f4d493          	srli	s1,s1,0x1f
3000d2f4:	04e7ce63          	blt	a5,a4,3000d350 <__floatsisf+0x98>
3000d2f8:	00800693          	li	a3,8
3000d2fc:	0ff77793          	andi	a5,a4,255
3000d300:	00a6d663          	bge	a3,a0,3000d30c <__floatsisf+0x54>
3000d304:	ff850513          	addi	a0,a0,-8
3000d308:	00a41433          	sll	s0,s0,a0
3000d30c:	00941413          	slli	s0,s0,0x9
3000d310:	00945413          	srli	s0,s0,0x9
3000d314:	0100006f          	j	3000d324 <__floatsisf+0x6c>
3000d318:	00000493          	li	s1,0
3000d31c:	00000793          	li	a5,0
3000d320:	00000413          	li	s0,0
3000d324:	00941413          	slli	s0,s0,0x9
3000d328:	00945513          	srli	a0,s0,0x9
3000d32c:	00c12083          	lw	ra,12(sp)
3000d330:	00812403          	lw	s0,8(sp)
3000d334:	01779793          	slli	a5,a5,0x17
3000d338:	01f49493          	slli	s1,s1,0x1f
3000d33c:	00f56533          	or	a0,a0,a5
3000d340:	00956533          	or	a0,a0,s1
3000d344:	00412483          	lw	s1,4(sp)
3000d348:	01010113          	addi	sp,sp,16
3000d34c:	00008067          	ret
3000d350:	09900793          	li	a5,153
3000d354:	02e7d063          	bge	a5,a4,3000d374 <__floatsisf+0xbc>
3000d358:	01b50793          	addi	a5,a0,27
3000d35c:	00500693          	li	a3,5
3000d360:	00f417b3          	sll	a5,s0,a5
3000d364:	40a686b3          	sub	a3,a3,a0
3000d368:	00d45433          	srl	s0,s0,a3
3000d36c:	00f037b3          	snez	a5,a5
3000d370:	00f46433          	or	s0,s0,a5
3000d374:	00500793          	li	a5,5
3000d378:	00a7d663          	bge	a5,a0,3000d384 <__floatsisf+0xcc>
3000d37c:	ffb50793          	addi	a5,a0,-5
3000d380:	00f41433          	sll	s0,s0,a5
3000d384:	fc0006b7          	lui	a3,0xfc000
3000d388:	fff68693          	addi	a3,a3,-1 # fbffffff <__bss_end__+0xcbefffff>
3000d38c:	00747793          	andi	a5,s0,7
3000d390:	00d47633          	and	a2,s0,a3
3000d394:	02078463          	beqz	a5,3000d3bc <__floatsisf+0x104>
3000d398:	00f47793          	andi	a5,s0,15
3000d39c:	00400593          	li	a1,4
3000d3a0:	00b78e63          	beq	a5,a1,3000d3bc <__floatsisf+0x104>
3000d3a4:	00460613          	addi	a2,a2,4
3000d3a8:	00561793          	slli	a5,a2,0x5
3000d3ac:	0007d863          	bgez	a5,3000d3bc <__floatsisf+0x104>
3000d3b0:	09f00793          	li	a5,159
3000d3b4:	00d67633          	and	a2,a2,a3
3000d3b8:	40a78733          	sub	a4,a5,a0
3000d3bc:	00661413          	slli	s0,a2,0x6
3000d3c0:	00945413          	srli	s0,s0,0x9
3000d3c4:	0ff77793          	andi	a5,a4,255
3000d3c8:	f5dff06f          	j	3000d324 <__floatsisf+0x6c>

Disassembly of section .text.__floatunsisf:

3000d3cc <__floatunsisf>:
3000d3cc:	ff010113          	addi	sp,sp,-16
3000d3d0:	00112623          	sw	ra,12(sp)
3000d3d4:	00812423          	sw	s0,8(sp)
3000d3d8:	04050c63          	beqz	a0,3000d430 <__floatunsisf+0x64>
3000d3dc:	00050413          	mv	s0,a0
3000d3e0:	110000ef          	jal	ra,3000d4f0 <__clzsi2>
3000d3e4:	09e00793          	li	a5,158
3000d3e8:	40a78733          	sub	a4,a5,a0
3000d3ec:	09600793          	li	a5,150
3000d3f0:	06e7c463          	blt	a5,a4,3000d458 <__floatunsisf+0x8c>
3000d3f4:	00800693          	li	a3,8
3000d3f8:	0ff77793          	andi	a5,a4,255
3000d3fc:	00a6d663          	bge	a3,a0,3000d408 <__floatunsisf+0x3c>
3000d400:	ff850513          	addi	a0,a0,-8
3000d404:	00a41433          	sll	s0,s0,a0
3000d408:	00941413          	slli	s0,s0,0x9
3000d40c:	00945413          	srli	s0,s0,0x9
3000d410:	00941413          	slli	s0,s0,0x9
3000d414:	00945513          	srli	a0,s0,0x9
3000d418:	00c12083          	lw	ra,12(sp)
3000d41c:	00812403          	lw	s0,8(sp)
3000d420:	01779793          	slli	a5,a5,0x17
3000d424:	00f56533          	or	a0,a0,a5
3000d428:	01010113          	addi	sp,sp,16
3000d42c:	00008067          	ret
3000d430:	00000413          	li	s0,0
3000d434:	00941413          	slli	s0,s0,0x9
3000d438:	00945513          	srli	a0,s0,0x9
3000d43c:	00c12083          	lw	ra,12(sp)
3000d440:	00812403          	lw	s0,8(sp)
3000d444:	00000793          	li	a5,0
3000d448:	01779793          	slli	a5,a5,0x17
3000d44c:	00f56533          	or	a0,a0,a5
3000d450:	01010113          	addi	sp,sp,16
3000d454:	00008067          	ret
3000d458:	09900793          	li	a5,153
3000d45c:	02e7d063          	bge	a5,a4,3000d47c <__floatunsisf+0xb0>
3000d460:	01b50793          	addi	a5,a0,27
3000d464:	00500693          	li	a3,5
3000d468:	00f417b3          	sll	a5,s0,a5
3000d46c:	40a686b3          	sub	a3,a3,a0
3000d470:	00f037b3          	snez	a5,a5
3000d474:	00d45433          	srl	s0,s0,a3
3000d478:	0087e433          	or	s0,a5,s0
3000d47c:	00500793          	li	a5,5
3000d480:	00a7d663          	bge	a5,a0,3000d48c <__floatunsisf+0xc0>
3000d484:	ffb50793          	addi	a5,a0,-5
3000d488:	00f41433          	sll	s0,s0,a5
3000d48c:	fc0006b7          	lui	a3,0xfc000
3000d490:	fff68693          	addi	a3,a3,-1 # fbffffff <__bss_end__+0xcbefffff>
3000d494:	00747793          	andi	a5,s0,7
3000d498:	00d47633          	and	a2,s0,a3
3000d49c:	02078463          	beqz	a5,3000d4c4 <__floatunsisf+0xf8>
3000d4a0:	00f47793          	andi	a5,s0,15
3000d4a4:	00400593          	li	a1,4
3000d4a8:	00b78e63          	beq	a5,a1,3000d4c4 <__floatunsisf+0xf8>
3000d4ac:	00460613          	addi	a2,a2,4
3000d4b0:	00561793          	slli	a5,a2,0x5
3000d4b4:	0007d863          	bgez	a5,3000d4c4 <__floatunsisf+0xf8>
3000d4b8:	09f00793          	li	a5,159
3000d4bc:	00d67633          	and	a2,a2,a3
3000d4c0:	40a78733          	sub	a4,a5,a0
3000d4c4:	00661413          	slli	s0,a2,0x6
3000d4c8:	00945413          	srli	s0,s0,0x9
3000d4cc:	00941413          	slli	s0,s0,0x9
3000d4d0:	00945513          	srli	a0,s0,0x9
3000d4d4:	00c12083          	lw	ra,12(sp)
3000d4d8:	00812403          	lw	s0,8(sp)
3000d4dc:	0ff77793          	andi	a5,a4,255
3000d4e0:	01779793          	slli	a5,a5,0x17
3000d4e4:	00f56533          	or	a0,a0,a5
3000d4e8:	01010113          	addi	sp,sp,16
3000d4ec:	00008067          	ret

Disassembly of section .text.__clzsi2:

3000d4f0 <__clzsi2>:
3000d4f0:	000107b7          	lui	a5,0x10
3000d4f4:	04f57463          	bgeu	a0,a5,3000d53c <__clzsi2+0x4c>
3000d4f8:	0ff00793          	li	a5,255
3000d4fc:	02000713          	li	a4,32
3000d500:	00a7ee63          	bltu	a5,a0,3000d51c <__clzsi2+0x2c>
3000d504:	00002797          	auipc	a5,0x2
3000d508:	bcc78793          	addi	a5,a5,-1076 # 3000f0d0 <__clz_tab>
3000d50c:	00a787b3          	add	a5,a5,a0
3000d510:	0007c503          	lbu	a0,0(a5)
3000d514:	40a70533          	sub	a0,a4,a0
3000d518:	00008067          	ret
3000d51c:	00855513          	srli	a0,a0,0x8
3000d520:	00002797          	auipc	a5,0x2
3000d524:	bb078793          	addi	a5,a5,-1104 # 3000f0d0 <__clz_tab>
3000d528:	00a787b3          	add	a5,a5,a0
3000d52c:	0007c503          	lbu	a0,0(a5)
3000d530:	01800713          	li	a4,24
3000d534:	40a70533          	sub	a0,a4,a0
3000d538:	00008067          	ret
3000d53c:	010007b7          	lui	a5,0x1000
3000d540:	02f56263          	bltu	a0,a5,3000d564 <__clzsi2+0x74>
3000d544:	01855513          	srli	a0,a0,0x18
3000d548:	00002797          	auipc	a5,0x2
3000d54c:	b8878793          	addi	a5,a5,-1144 # 3000f0d0 <__clz_tab>
3000d550:	00a787b3          	add	a5,a5,a0
3000d554:	0007c503          	lbu	a0,0(a5)
3000d558:	00800713          	li	a4,8
3000d55c:	40a70533          	sub	a0,a4,a0
3000d560:	00008067          	ret
3000d564:	01055513          	srli	a0,a0,0x10
3000d568:	00002797          	auipc	a5,0x2
3000d56c:	b6878793          	addi	a5,a5,-1176 # 3000f0d0 <__clz_tab>
3000d570:	00a787b3          	add	a5,a5,a0
3000d574:	0007c503          	lbu	a0,0(a5)
3000d578:	01000713          	li	a4,16
3000d57c:	40a70533          	sub	a0,a4,a0
3000d580:	00008067          	ret
