
asteroids.elf:     file format elf32-littleriscv


Disassembly of section .text:

30000000 <__text_start>:
30000000:	0100006f          	j	30000010 <start>
30000004:	00000013          	nop
30000008:	00000013          	nop
3000000c:	00000013          	nop

30000010 <start>:
30000010:	00006137          	lui	sp,0x6
30000014:	a8010113          	addi	sp,sp,-1408 # 5a80 <stackPointer>
30000018:	ff010113          	addi	sp,sp,-16
3000001c:	00012023          	sw	zero,0(sp)
30000020:	00012223          	sw	zero,4(sp)
30000024:	00012423          	sw	zero,8(sp)
30000028:	00012623          	sw	zero,12(sp)
3000002c:	0e10c0ef          	jal	ra,3000c90c <__data_rom_start>
30000030:	0000006f          	j	30000030 <start+0x20>
	...

30000040 <_Z8animLedsi>:
30000040:	01f55793          	srli	a5,a0,0x1f
30000044:	00f50533          	add	a0,a0,a5
30000048:	00157513          	andi	a0,a0,1
3000004c:	40f50533          	sub	a0,a0,a5
30000050:	02050a63          	beqz	a0,30000084 <_Z8animLedsi+0x44>
30000054:	00100793          	li	a5,1
30000058:	02f51263          	bne	a0,a5,3000007c <_Z8animLedsi+0x3c>
3000005c:	3000e7b7          	lui	a5,0x3000e
30000060:	7847a783          	lw	a5,1924(a5) # 3000e784 <bsp>
30000064:	0147a703          	lw	a4,20(a5)
30000068:	0f076713          	ori	a4,a4,240
3000006c:	00e7aa23          	sw	a4,20(a5)
30000070:	0147a703          	lw	a4,20(a5)
30000074:	08074713          	xori	a4,a4,128
30000078:	00e7aa23          	sw	a4,20(a5)
3000007c:	00000513          	li	a0,0
30000080:	00008067          	ret
30000084:	3000e7b7          	lui	a5,0x3000e
30000088:	7847a783          	lw	a5,1924(a5) # 3000e784 <bsp>
3000008c:	00000513          	li	a0,0
30000090:	0147a703          	lw	a4,20(a5)
30000094:	0f076713          	ori	a4,a4,240
30000098:	00e7aa23          	sw	a4,20(a5)
3000009c:	0147a703          	lw	a4,20(a5)
300000a0:	04074713          	xori	a4,a4,64
300000a4:	00e7aa23          	sw	a4,20(a5)
300000a8:	00008067          	ret

300000ac <_Z4initv>:
300000ac:	fe010113          	addi	sp,sp,-32
300000b0:	00112e23          	sw	ra,28(sp)
300000b4:	00812c23          	sw	s0,24(sp)
300000b8:	00912a23          	sw	s1,20(sp)
300000bc:	01212823          	sw	s2,16(sp)
300000c0:	01312623          	sw	s3,12(sp)
300000c4:	085000ef          	jal	ra,30000948 <bspInit>
300000c8:	00200513          	li	a0,2
300000cc:	35d000ef          	jal	ra,30000c28 <setVideoMode>
300000d0:	3000e937          	lui	s2,0x3000e
300000d4:	020004b7          	lui	s1,0x2000
300000d8:	78c90413          	addi	s0,s2,1932 # 3000e78c <screen1>
300000dc:	14048493          	addi	s1,s1,320 # 2000140 <stackPointer+0x1ffa6c0>
300000e0:	0f000993          	li	s3,240
300000e4:	00100593          	li	a1,1
300000e8:	0003c537          	lui	a0,0x3c
300000ec:	00942023          	sw	s1,0(s0)
300000f0:	01342223          	sw	s3,4(s0)
300000f4:	00041423          	sh	zero,8(s0)
300000f8:	16c090ef          	jal	ra,30009264 <osAlloc>
300000fc:	00a42623          	sw	a0,12(s0)
30000100:	12050c63          	beqz	a0,30000238 <_Z4initv+0x18c>
30000104:	00100593          	li	a1,1
30000108:	0003c537          	lui	a0,0x3c
3000010c:	00942823          	sw	s1,16(s0)
30000110:	01342a23          	sw	s3,20(s0)
30000114:	00041c23          	sh	zero,24(s0)
30000118:	14c090ef          	jal	ra,30009264 <osAlloc>
3000011c:	00a42e23          	sw	a0,28(s0)
30000120:	0a050263          	beqz	a0,300001c4 <_Z4initv+0x118>
30000124:	78c90513          	addi	a0,s2,1932
30000128:	291090ef          	jal	ra,30009bb8 <gfDisplayBitmap>
3000012c:	00445703          	lhu	a4,4(s0)
30000130:	00045683          	lhu	a3,0(s0)
30000134:	00000793          	li	a5,0
30000138:	fff70713          	addi	a4,a4,-1
3000013c:	fff68693          	addi	a3,a3,-1
30000140:	01071713          	slli	a4,a4,0x10
30000144:	01069693          	slli	a3,a3,0x10
30000148:	41075713          	srai	a4,a4,0x10
3000014c:	4106d693          	srai	a3,a3,0x10
30000150:	00000613          	li	a2,0
30000154:	00000593          	li	a1,0
30000158:	78c90513          	addi	a0,s2,1932
3000015c:	5e90a0ef          	jal	ra,3000af44 <gfFillRect>
30000160:	01445703          	lhu	a4,20(s0)
30000164:	01045683          	lhu	a3,16(s0)
30000168:	00000793          	li	a5,0
3000016c:	fff70713          	addi	a4,a4,-1
30000170:	fff68693          	addi	a3,a3,-1
30000174:	01071713          	slli	a4,a4,0x10
30000178:	01069693          	slli	a3,a3,0x10
3000017c:	41075713          	srai	a4,a4,0x10
30000180:	4106d693          	srai	a3,a3,0x10
30000184:	00000613          	li	a2,0
30000188:	00000593          	li	a1,0
3000018c:	01040513          	addi	a0,s0,16
30000190:	5b50a0ef          	jal	ra,3000af44 <gfFillRect>
30000194:	3000f4b7          	lui	s1,0x3000f
30000198:	8d048793          	addi	a5,s1,-1840 # 3000e8d0 <con>
3000019c:	f8f00713          	li	a4,-113
300001a0:	00e78623          	sb	a4,12(a5)
300001a4:	4b4010ef          	jal	ra,30001658 <osUIEventsInit>
300001a8:	598090ef          	jal	ra,30009740 <osFInit>
300001ac:	02050863          	beqz	a0,300001dc <_Z4initv+0x130>
300001b0:	3000e5b7          	lui	a1,0x3000e
300001b4:	e4858593          	addi	a1,a1,-440 # 3000de48 <__clzsi2+0xc4>
300001b8:	8d048513          	addi	a0,s1,-1840
300001bc:	4b50b0ef          	jal	ra,3000be70 <toPrint>
300001c0:	0000006f          	j	300001c0 <_Z4initv+0x114>
300001c4:	3000e5b7          	lui	a1,0x3000e
300001c8:	3000f537          	lui	a0,0x3000f
300001cc:	e3058593          	addi	a1,a1,-464 # 3000de30 <__clzsi2+0xac>
300001d0:	8d050513          	addi	a0,a0,-1840 # 3000e8d0 <con>
300001d4:	49d0b0ef          	jal	ra,3000be70 <toPrint>
300001d8:	0000006f          	j	300001d8 <_Z4initv+0x12c>
300001dc:	3000e5b7          	lui	a1,0x3000e
300001e0:	e5858593          	addi	a1,a1,-424 # 3000de58 <__clzsi2+0xd4>
300001e4:	02040513          	addi	a0,s0,32
300001e8:	1f5090ef          	jal	ra,30009bdc <gfLoadBitmapFS>
300001ec:	02645783          	lhu	a5,38(s0)
300001f0:	3000e5b7          	lui	a1,0x3000e
300001f4:	03040513          	addi	a0,s0,48
300001f8:	0017e793          	ori	a5,a5,1
300001fc:	e7058593          	addi	a1,a1,-400 # 3000de70 <__clzsi2+0xec>
30000200:	02f41323          	sh	a5,38(s0)
30000204:	02041423          	sh	zero,40(s0)
30000208:	1d5090ef          	jal	ra,30009bdc <gfLoadBitmapFS>
3000020c:	04645783          	lhu	a5,70(s0)
30000210:	04041423          	sh	zero,72(s0)
30000214:	01c12083          	lw	ra,28(sp)
30000218:	0017e793          	ori	a5,a5,1
3000021c:	04f41323          	sh	a5,70(s0)
30000220:	01812403          	lw	s0,24(sp)
30000224:	01412483          	lw	s1,20(sp)
30000228:	01012903          	lw	s2,16(sp)
3000022c:	00c12983          	lw	s3,12(sp)
30000230:	02010113          	addi	sp,sp,32
30000234:	00008067          	ret
30000238:	3000e5b7          	lui	a1,0x3000e
3000023c:	3000f537          	lui	a0,0x3000f
30000240:	e1858593          	addi	a1,a1,-488 # 3000de18 <__clzsi2+0x94>
30000244:	8d050513          	addi	a0,a0,-1840 # 3000e8d0 <con>
30000248:	4290b0ef          	jal	ra,3000be70 <toPrint>
3000024c:	0000006f          	j	3000024c <_Z4initv+0x1a0>

30000250 <_Z4animP10_tgfBitmap>:
30000250:	ff010113          	addi	sp,sp,-16
30000254:	00812423          	sw	s0,8(sp)
30000258:	3000e437          	lui	s0,0x3000e
3000025c:	78c40413          	addi	s0,s0,1932 # 3000e78c <screen1>
30000260:	00000693          	li	a3,0
30000264:	00000613          	li	a2,0
30000268:	03040593          	addi	a1,s0,48
3000026c:	00912223          	sw	s1,4(sp)
30000270:	00112623          	sw	ra,12(sp)
30000274:	00050493          	mv	s1,a0
30000278:	385090ef          	jal	ra,30009dfc <gfBlitBitmap>
3000027c:	05445783          	lhu	a5,84(s0)
30000280:	06079263          	bnez	a5,300002e4 <_Z4animP10_tgfBitmap+0x94>
30000284:	06c45783          	lhu	a5,108(s0)
30000288:	08079063          	bnez	a5,30000308 <_Z4animP10_tgfBitmap+0xb8>
3000028c:	08445783          	lhu	a5,132(s0)
30000290:	08079e63          	bnez	a5,3000032c <_Z4animP10_tgfBitmap+0xdc>
30000294:	09c45783          	lhu	a5,156(s0)
30000298:	0a079c63          	bnez	a5,30000350 <_Z4animP10_tgfBitmap+0x100>
3000029c:	0b445783          	lhu	a5,180(s0)
300002a0:	0c079a63          	bnez	a5,30000374 <_Z4animP10_tgfBitmap+0x124>
300002a4:	0cc45783          	lhu	a5,204(s0)
300002a8:	0e079863          	bnez	a5,30000398 <_Z4animP10_tgfBitmap+0x148>
300002ac:	0e445783          	lhu	a5,228(s0)
300002b0:	10079663          	bnez	a5,300003bc <_Z4animP10_tgfBitmap+0x16c>
300002b4:	0fc45783          	lhu	a5,252(s0)
300002b8:	12079463          	bnez	a5,300003e0 <_Z4animP10_tgfBitmap+0x190>
300002bc:	11445783          	lhu	a5,276(s0)
300002c0:	14079263          	bnez	a5,30000404 <_Z4animP10_tgfBitmap+0x1b4>
300002c4:	12c45783          	lhu	a5,300(s0)
300002c8:	16079063          	bnez	a5,30000428 <_Z4animP10_tgfBitmap+0x1d8>
300002cc:	00c12083          	lw	ra,12(sp)
300002d0:	00812403          	lw	s0,8(sp)
300002d4:	00412483          	lw	s1,4(sp)
300002d8:	00000513          	li	a0,0
300002dc:	01010113          	addi	sp,sp,16
300002e0:	00008067          	ret
300002e4:	05841783          	lh	a5,88(s0)
300002e8:	05641703          	lh	a4,86(s0)
300002ec:	06441683          	lh	a3,100(s0)
300002f0:	05e41603          	lh	a2,94(s0)
300002f4:	05042583          	lw	a1,80(s0)
300002f8:	00048513          	mv	a0,s1
300002fc:	1900a0ef          	jal	ra,3000a48c <gfBlitScaledBitmap>
30000300:	06c45783          	lhu	a5,108(s0)
30000304:	f80784e3          	beqz	a5,3000028c <_Z4animP10_tgfBitmap+0x3c>
30000308:	07041783          	lh	a5,112(s0)
3000030c:	06e41703          	lh	a4,110(s0)
30000310:	07c41683          	lh	a3,124(s0)
30000314:	07641603          	lh	a2,118(s0)
30000318:	06842583          	lw	a1,104(s0)
3000031c:	00048513          	mv	a0,s1
30000320:	16c0a0ef          	jal	ra,3000a48c <gfBlitScaledBitmap>
30000324:	08445783          	lhu	a5,132(s0)
30000328:	f60786e3          	beqz	a5,30000294 <_Z4animP10_tgfBitmap+0x44>
3000032c:	08841783          	lh	a5,136(s0)
30000330:	08641703          	lh	a4,134(s0)
30000334:	09441683          	lh	a3,148(s0)
30000338:	08e41603          	lh	a2,142(s0)
3000033c:	08042583          	lw	a1,128(s0)
30000340:	00048513          	mv	a0,s1
30000344:	1480a0ef          	jal	ra,3000a48c <gfBlitScaledBitmap>
30000348:	09c45783          	lhu	a5,156(s0)
3000034c:	f40788e3          	beqz	a5,3000029c <_Z4animP10_tgfBitmap+0x4c>
30000350:	0a041783          	lh	a5,160(s0)
30000354:	09e41703          	lh	a4,158(s0)
30000358:	0ac41683          	lh	a3,172(s0)
3000035c:	0a641603          	lh	a2,166(s0)
30000360:	09842583          	lw	a1,152(s0)
30000364:	00048513          	mv	a0,s1
30000368:	1240a0ef          	jal	ra,3000a48c <gfBlitScaledBitmap>
3000036c:	0b445783          	lhu	a5,180(s0)
30000370:	f2078ae3          	beqz	a5,300002a4 <_Z4animP10_tgfBitmap+0x54>
30000374:	0b841783          	lh	a5,184(s0)
30000378:	0b641703          	lh	a4,182(s0)
3000037c:	0c441683          	lh	a3,196(s0)
30000380:	0be41603          	lh	a2,190(s0)
30000384:	0b042583          	lw	a1,176(s0)
30000388:	00048513          	mv	a0,s1
3000038c:	1000a0ef          	jal	ra,3000a48c <gfBlitScaledBitmap>
30000390:	0cc45783          	lhu	a5,204(s0)
30000394:	f0078ce3          	beqz	a5,300002ac <_Z4animP10_tgfBitmap+0x5c>
30000398:	0d041783          	lh	a5,208(s0)
3000039c:	0ce41703          	lh	a4,206(s0)
300003a0:	0dc41683          	lh	a3,220(s0)
300003a4:	0d641603          	lh	a2,214(s0)
300003a8:	0c842583          	lw	a1,200(s0)
300003ac:	00048513          	mv	a0,s1
300003b0:	0dc0a0ef          	jal	ra,3000a48c <gfBlitScaledBitmap>
300003b4:	0e445783          	lhu	a5,228(s0)
300003b8:	ee078ee3          	beqz	a5,300002b4 <_Z4animP10_tgfBitmap+0x64>
300003bc:	0e841783          	lh	a5,232(s0)
300003c0:	0e641703          	lh	a4,230(s0)
300003c4:	0f441683          	lh	a3,244(s0)
300003c8:	0ee41603          	lh	a2,238(s0)
300003cc:	0e042583          	lw	a1,224(s0)
300003d0:	00048513          	mv	a0,s1
300003d4:	0b80a0ef          	jal	ra,3000a48c <gfBlitScaledBitmap>
300003d8:	0fc45783          	lhu	a5,252(s0)
300003dc:	ee0780e3          	beqz	a5,300002bc <_Z4animP10_tgfBitmap+0x6c>
300003e0:	10041783          	lh	a5,256(s0)
300003e4:	0fe41703          	lh	a4,254(s0)
300003e8:	10c41683          	lh	a3,268(s0)
300003ec:	10641603          	lh	a2,262(s0)
300003f0:	0f842583          	lw	a1,248(s0)
300003f4:	00048513          	mv	a0,s1
300003f8:	0940a0ef          	jal	ra,3000a48c <gfBlitScaledBitmap>
300003fc:	11445783          	lhu	a5,276(s0)
30000400:	ec0782e3          	beqz	a5,300002c4 <_Z4animP10_tgfBitmap+0x74>
30000404:	11841783          	lh	a5,280(s0)
30000408:	11641703          	lh	a4,278(s0)
3000040c:	12441683          	lh	a3,292(s0)
30000410:	11e41603          	lh	a2,286(s0)
30000414:	11042583          	lw	a1,272(s0)
30000418:	00048513          	mv	a0,s1
3000041c:	0700a0ef          	jal	ra,3000a48c <gfBlitScaledBitmap>
30000420:	12c45783          	lhu	a5,300(s0)
30000424:	ea0784e3          	beqz	a5,300002cc <_Z4animP10_tgfBitmap+0x7c>
30000428:	13041783          	lh	a5,304(s0)
3000042c:	12e41703          	lh	a4,302(s0)
30000430:	13c41683          	lh	a3,316(s0)
30000434:	13641603          	lh	a2,310(s0)
30000438:	12842583          	lw	a1,296(s0)
3000043c:	00048513          	mv	a0,s1
30000440:	04c0a0ef          	jal	ra,3000a48c <gfBlitScaledBitmap>
30000444:	00c12083          	lw	ra,12(sp)
30000448:	00812403          	lw	s0,8(sp)
3000044c:	00412483          	lw	s1,4(sp)
30000450:	00000513          	li	a0,0
30000454:	01010113          	addi	sp,sp,16
30000458:	00008067          	ret

3000045c <_Z8initAnimv>:
3000045c:	fc010113          	addi	sp,sp,-64
30000460:	3000e7b7          	lui	a5,0x3000e
30000464:	01712e23          	sw	s7,28(sp)
30000468:	ed87ab83          	lw	s7,-296(a5) # 3000ded8 <__clzsi2+0x154>
3000046c:	02812c23          	sw	s0,56(sp)
30000470:	03212823          	sw	s2,48(sp)
30000474:	3000e437          	lui	s0,0x3000e
30000478:	3000e937          	lui	s2,0x3000e
3000047c:	03412423          	sw	s4,40(sp)
30000480:	03512223          	sw	s5,36(sp)
30000484:	03612023          	sw	s6,32(sp)
30000488:	01812c23          	sw	s8,24(sp)
3000048c:	01912a23          	sw	s9,20(sp)
30000490:	01a12823          	sw	s10,16(sp)
30000494:	02112e23          	sw	ra,60(sp)
30000498:	02912a23          	sw	s1,52(sp)
3000049c:	03312623          	sw	s3,44(sp)
300004a0:	01b12623          	sw	s11,12(sp)
300004a4:	7dc40413          	addi	s0,s0,2012 # 3000e7dc <asteroids>
300004a8:	00040d37          	lui	s10,0x40
300004ac:	00a00c93          	li	s9,10
300004b0:	7ac90913          	addi	s2,s2,1964 # 3000e7ac <asteroid1>
300004b4:	00100c13          	li	s8,1
300004b8:	0dc00b13          	li	s6,220
300004bc:	06400a93          	li	s5,100
300004c0:	00a00a13          	li	s4,10
300004c4:	01242023          	sw	s2,0(s0)
300004c8:	01841223          	sh	s8,4(s0)
300004cc:	554000ef          	jal	ra,30000a20 <randomNumber>
300004d0:	036577b3          	remu	a5,a0,s6
300004d4:	01840413          	addi	s0,s0,24
300004d8:	000c8513          	mv	a0,s9
300004dc:	fffc8c93          	addi	s9,s9,-1
300004e0:	fef41e23          	sh	a5,-4(s0)
300004e4:	77c0d0ef          	jal	ra,3000dc60 <__floatunsisf>
300004e8:	000b8593          	mv	a1,s7
300004ec:	2780d0ef          	jal	ra,3000d764 <__mulsf3>
300004f0:	fe842983          	lw	s3,-24(s0)
300004f4:	00050d93          	mv	s11,a0
300004f8:	0009d503          	lhu	a0,0(s3)
300004fc:	6500d0ef          	jal	ra,3000db4c <__floatsisf>
30000500:	000d8593          	mv	a1,s11
30000504:	6a10c0ef          	jal	ra,3000d3a4 <__divsf3>
30000508:	5e00d0ef          	jal	ra,3000dae8 <__fixunssfsi>
3000050c:	01051493          	slli	s1,a0,0x10
30000510:	0049d503          	lhu	a0,4(s3)
30000514:	0104d493          	srli	s1,s1,0x10
30000518:	fe941723          	sh	s1,-18(s0)
3000051c:	6300d0ef          	jal	ra,3000db4c <__floatsisf>
30000520:	000d8593          	mv	a1,s11
30000524:	6810c0ef          	jal	ra,3000d3a4 <__divsf3>
30000528:	5c00d0ef          	jal	ra,3000dae8 <__fixunssfsi>
3000052c:	fea41823          	sh	a0,-16(s0)
30000530:	4f0000ef          	jal	ra,30000a20 <randomNumber>
30000534:	03557533          	remu	a0,a0,s5
30000538:	409004b3          	neg	s1,s1
3000053c:	00040737          	lui	a4,0x40
30000540:	034d57b3          	divu	a5,s10,s4
30000544:	40a484b3          	sub	s1,s1,a0
30000548:	01049493          	slli	s1,s1,0x10
3000054c:	fe942a23          	sw	s1,-12(s0)
30000550:	00ed0d33          	add	s10,s10,a4
30000554:	fef42c23          	sw	a5,-8(s0)
30000558:	f60c96e3          	bnez	s9,300004c4 <_Z8initAnimv+0x68>
3000055c:	03c12083          	lw	ra,60(sp)
30000560:	03812403          	lw	s0,56(sp)
30000564:	03412483          	lw	s1,52(sp)
30000568:	03012903          	lw	s2,48(sp)
3000056c:	02c12983          	lw	s3,44(sp)
30000570:	02812a03          	lw	s4,40(sp)
30000574:	02412a83          	lw	s5,36(sp)
30000578:	02012b03          	lw	s6,32(sp)
3000057c:	01c12b83          	lw	s7,28(sp)
30000580:	01812c03          	lw	s8,24(sp)
30000584:	01412c83          	lw	s9,20(sp)
30000588:	01012d03          	lw	s10,16(sp)
3000058c:	00c12d83          	lw	s11,12(sp)
30000590:	00000513          	li	a0,0
30000594:	04010113          	addi	sp,sp,64
30000598:	00008067          	ret

3000059c <_Z13moveAsteroidsv>:
3000059c:	ff010113          	addi	sp,sp,-16
300005a0:	00812423          	sw	s0,8(sp)
300005a4:	3000e437          	lui	s0,0x3000e
300005a8:	78c40413          	addi	s0,s0,1932 # 3000e78c <screen1>
300005ac:	05445783          	lhu	a5,84(s0)
300005b0:	00112623          	sw	ra,12(sp)
300005b4:	00078e63          	beqz	a5,300005d0 <_Z13moveAsteroidsv+0x34>
300005b8:	05c42783          	lw	a5,92(s0)
300005bc:	06042683          	lw	a3,96(s0)
300005c0:	01400737          	lui	a4,0x1400
300005c4:	00d787b3          	add	a5,a5,a3
300005c8:	04f42e23          	sw	a5,92(s0)
300005cc:	2cf74663          	blt	a4,a5,30000898 <_Z13moveAsteroidsv+0x2fc>
300005d0:	06c45783          	lhu	a5,108(s0)
300005d4:	00078e63          	beqz	a5,300005f0 <_Z13moveAsteroidsv+0x54>
300005d8:	07442783          	lw	a5,116(s0)
300005dc:	07842683          	lw	a3,120(s0)
300005e0:	01400737          	lui	a4,0x1400
300005e4:	00d787b3          	add	a5,a5,a3
300005e8:	06f42a23          	sw	a5,116(s0)
300005ec:	10f74c63          	blt	a4,a5,30000704 <_Z13moveAsteroidsv+0x168>
300005f0:	08445783          	lhu	a5,132(s0)
300005f4:	00078e63          	beqz	a5,30000610 <_Z13moveAsteroidsv+0x74>
300005f8:	08c42783          	lw	a5,140(s0)
300005fc:	09042683          	lw	a3,144(s0)
30000600:	01400737          	lui	a4,0x1400
30000604:	00d787b3          	add	a5,a5,a3
30000608:	08f42623          	sw	a5,140(s0)
3000060c:	12f74263          	blt	a4,a5,30000730 <_Z13moveAsteroidsv+0x194>
30000610:	09c45783          	lhu	a5,156(s0)
30000614:	00078e63          	beqz	a5,30000630 <_Z13moveAsteroidsv+0x94>
30000618:	0a442783          	lw	a5,164(s0)
3000061c:	0a842683          	lw	a3,168(s0)
30000620:	01400737          	lui	a4,0x1400
30000624:	00d787b3          	add	a5,a5,a3
30000628:	0af42223          	sw	a5,164(s0)
3000062c:	12f74863          	blt	a4,a5,3000075c <_Z13moveAsteroidsv+0x1c0>
30000630:	0b445783          	lhu	a5,180(s0)
30000634:	00078e63          	beqz	a5,30000650 <_Z13moveAsteroidsv+0xb4>
30000638:	0bc42783          	lw	a5,188(s0)
3000063c:	0c042683          	lw	a3,192(s0)
30000640:	01400737          	lui	a4,0x1400
30000644:	00d787b3          	add	a5,a5,a3
30000648:	0af42e23          	sw	a5,188(s0)
3000064c:	12f74e63          	blt	a4,a5,30000788 <_Z13moveAsteroidsv+0x1ec>
30000650:	0cc45783          	lhu	a5,204(s0)
30000654:	00078e63          	beqz	a5,30000670 <_Z13moveAsteroidsv+0xd4>
30000658:	0d442783          	lw	a5,212(s0)
3000065c:	0d842683          	lw	a3,216(s0)
30000660:	01400737          	lui	a4,0x1400
30000664:	00d787b3          	add	a5,a5,a3
30000668:	0cf42a23          	sw	a5,212(s0)
3000066c:	14f74463          	blt	a4,a5,300007b4 <_Z13moveAsteroidsv+0x218>
30000670:	0e445783          	lhu	a5,228(s0)
30000674:	00078e63          	beqz	a5,30000690 <_Z13moveAsteroidsv+0xf4>
30000678:	0ec42783          	lw	a5,236(s0)
3000067c:	0f042683          	lw	a3,240(s0)
30000680:	01400737          	lui	a4,0x1400
30000684:	00d787b3          	add	a5,a5,a3
30000688:	0ef42623          	sw	a5,236(s0)
3000068c:	14f74a63          	blt	a4,a5,300007e0 <_Z13moveAsteroidsv+0x244>
30000690:	0fc45783          	lhu	a5,252(s0)
30000694:	00078e63          	beqz	a5,300006b0 <_Z13moveAsteroidsv+0x114>
30000698:	10442783          	lw	a5,260(s0)
3000069c:	10842683          	lw	a3,264(s0)
300006a0:	01400737          	lui	a4,0x1400
300006a4:	00d787b3          	add	a5,a5,a3
300006a8:	10f42223          	sw	a5,260(s0)
300006ac:	16f74063          	blt	a4,a5,3000080c <_Z13moveAsteroidsv+0x270>
300006b0:	11445783          	lhu	a5,276(s0)
300006b4:	00078e63          	beqz	a5,300006d0 <_Z13moveAsteroidsv+0x134>
300006b8:	11c42783          	lw	a5,284(s0)
300006bc:	12042683          	lw	a3,288(s0)
300006c0:	01400737          	lui	a4,0x1400
300006c4:	00d787b3          	add	a5,a5,a3
300006c8:	10f42e23          	sw	a5,284(s0)
300006cc:	16f74663          	blt	a4,a5,30000838 <_Z13moveAsteroidsv+0x29c>
300006d0:	12c45783          	lhu	a5,300(s0)
300006d4:	00078e63          	beqz	a5,300006f0 <_Z13moveAsteroidsv+0x154>
300006d8:	13442783          	lw	a5,308(s0)
300006dc:	13842683          	lw	a3,312(s0)
300006e0:	01400737          	lui	a4,0x1400
300006e4:	00d787b3          	add	a5,a5,a3
300006e8:	12f42a23          	sw	a5,308(s0)
300006ec:	16f74c63          	blt	a4,a5,30000864 <_Z13moveAsteroidsv+0x2c8>
300006f0:	00c12083          	lw	ra,12(sp)
300006f4:	00812403          	lw	s0,8(sp)
300006f8:	00000513          	li	a0,0
300006fc:	01010113          	addi	sp,sp,16
30000700:	00008067          	ret
30000704:	06e45783          	lhu	a5,110(s0)
30000708:	40f007b3          	neg	a5,a5
3000070c:	01079793          	slli	a5,a5,0x10
30000710:	06f42a23          	sw	a5,116(s0)
30000714:	30c000ef          	jal	ra,30000a20 <randomNumber>
30000718:	0dc00793          	li	a5,220
3000071c:	02f577b3          	remu	a5,a0,a5
30000720:	06f41e23          	sh	a5,124(s0)
30000724:	08445783          	lhu	a5,132(s0)
30000728:	ee0784e3          	beqz	a5,30000610 <_Z13moveAsteroidsv+0x74>
3000072c:	ecdff06f          	j	300005f8 <_Z13moveAsteroidsv+0x5c>
30000730:	08645783          	lhu	a5,134(s0)
30000734:	40f007b3          	neg	a5,a5
30000738:	01079793          	slli	a5,a5,0x10
3000073c:	08f42623          	sw	a5,140(s0)
30000740:	2e0000ef          	jal	ra,30000a20 <randomNumber>
30000744:	0dc00793          	li	a5,220
30000748:	02f577b3          	remu	a5,a0,a5
3000074c:	08f41a23          	sh	a5,148(s0)
30000750:	09c45783          	lhu	a5,156(s0)
30000754:	ec078ee3          	beqz	a5,30000630 <_Z13moveAsteroidsv+0x94>
30000758:	ec1ff06f          	j	30000618 <_Z13moveAsteroidsv+0x7c>
3000075c:	09e45783          	lhu	a5,158(s0)
30000760:	40f007b3          	neg	a5,a5
30000764:	01079793          	slli	a5,a5,0x10
30000768:	0af42223          	sw	a5,164(s0)
3000076c:	2b4000ef          	jal	ra,30000a20 <randomNumber>
30000770:	0dc00793          	li	a5,220
30000774:	02f577b3          	remu	a5,a0,a5
30000778:	0af41623          	sh	a5,172(s0)
3000077c:	0b445783          	lhu	a5,180(s0)
30000780:	ec0788e3          	beqz	a5,30000650 <_Z13moveAsteroidsv+0xb4>
30000784:	eb5ff06f          	j	30000638 <_Z13moveAsteroidsv+0x9c>
30000788:	0b645783          	lhu	a5,182(s0)
3000078c:	40f007b3          	neg	a5,a5
30000790:	01079793          	slli	a5,a5,0x10
30000794:	0af42e23          	sw	a5,188(s0)
30000798:	288000ef          	jal	ra,30000a20 <randomNumber>
3000079c:	0dc00793          	li	a5,220
300007a0:	02f577b3          	remu	a5,a0,a5
300007a4:	0cf41223          	sh	a5,196(s0)
300007a8:	0cc45783          	lhu	a5,204(s0)
300007ac:	ec0782e3          	beqz	a5,30000670 <_Z13moveAsteroidsv+0xd4>
300007b0:	ea9ff06f          	j	30000658 <_Z13moveAsteroidsv+0xbc>
300007b4:	0ce45783          	lhu	a5,206(s0)
300007b8:	40f007b3          	neg	a5,a5
300007bc:	01079793          	slli	a5,a5,0x10
300007c0:	0cf42a23          	sw	a5,212(s0)
300007c4:	25c000ef          	jal	ra,30000a20 <randomNumber>
300007c8:	0dc00793          	li	a5,220
300007cc:	02f577b3          	remu	a5,a0,a5
300007d0:	0cf41e23          	sh	a5,220(s0)
300007d4:	0e445783          	lhu	a5,228(s0)
300007d8:	ea078ce3          	beqz	a5,30000690 <_Z13moveAsteroidsv+0xf4>
300007dc:	e9dff06f          	j	30000678 <_Z13moveAsteroidsv+0xdc>
300007e0:	0e645783          	lhu	a5,230(s0)
300007e4:	40f007b3          	neg	a5,a5
300007e8:	01079793          	slli	a5,a5,0x10
300007ec:	0ef42623          	sw	a5,236(s0)
300007f0:	230000ef          	jal	ra,30000a20 <randomNumber>
300007f4:	0dc00793          	li	a5,220
300007f8:	02f577b3          	remu	a5,a0,a5
300007fc:	0ef41a23          	sh	a5,244(s0)
30000800:	0fc45783          	lhu	a5,252(s0)
30000804:	ea0786e3          	beqz	a5,300006b0 <_Z13moveAsteroidsv+0x114>
30000808:	e91ff06f          	j	30000698 <_Z13moveAsteroidsv+0xfc>
3000080c:	0fe45783          	lhu	a5,254(s0)
30000810:	40f007b3          	neg	a5,a5
30000814:	01079793          	slli	a5,a5,0x10
30000818:	10f42223          	sw	a5,260(s0)
3000081c:	204000ef          	jal	ra,30000a20 <randomNumber>
30000820:	0dc00793          	li	a5,220
30000824:	02f577b3          	remu	a5,a0,a5
30000828:	10f41623          	sh	a5,268(s0)
3000082c:	11445783          	lhu	a5,276(s0)
30000830:	ea0780e3          	beqz	a5,300006d0 <_Z13moveAsteroidsv+0x134>
30000834:	e85ff06f          	j	300006b8 <_Z13moveAsteroidsv+0x11c>
30000838:	11645783          	lhu	a5,278(s0)
3000083c:	40f007b3          	neg	a5,a5
30000840:	01079793          	slli	a5,a5,0x10
30000844:	10f42e23          	sw	a5,284(s0)
30000848:	1d8000ef          	jal	ra,30000a20 <randomNumber>
3000084c:	0dc00793          	li	a5,220
30000850:	02f577b3          	remu	a5,a0,a5
30000854:	12f41223          	sh	a5,292(s0)
30000858:	12c45783          	lhu	a5,300(s0)
3000085c:	e8078ae3          	beqz	a5,300006f0 <_Z13moveAsteroidsv+0x154>
30000860:	e79ff06f          	j	300006d8 <_Z13moveAsteroidsv+0x13c>
30000864:	12e45783          	lhu	a5,302(s0)
30000868:	40f007b3          	neg	a5,a5
3000086c:	01079793          	slli	a5,a5,0x10
30000870:	12f42a23          	sw	a5,308(s0)
30000874:	1ac000ef          	jal	ra,30000a20 <randomNumber>
30000878:	0dc00793          	li	a5,220
3000087c:	02f577b3          	remu	a5,a0,a5
30000880:	00c12083          	lw	ra,12(sp)
30000884:	00000513          	li	a0,0
30000888:	12f41e23          	sh	a5,316(s0)
3000088c:	00812403          	lw	s0,8(sp)
30000890:	01010113          	addi	sp,sp,16
30000894:	00008067          	ret
30000898:	05645783          	lhu	a5,86(s0)
3000089c:	40f007b3          	neg	a5,a5
300008a0:	01079793          	slli	a5,a5,0x10
300008a4:	04f42e23          	sw	a5,92(s0)
300008a8:	178000ef          	jal	ra,30000a20 <randomNumber>
300008ac:	0dc00793          	li	a5,220
300008b0:	02f577b3          	remu	a5,a0,a5
300008b4:	06f41223          	sh	a5,100(s0)
300008b8:	06c45783          	lhu	a5,108(s0)
300008bc:	d2078ae3          	beqz	a5,300005f0 <_Z13moveAsteroidsv+0x54>
300008c0:	d19ff06f          	j	300005d8 <_Z13moveAsteroidsv+0x3c>

300008c4 <_fini>:
300008c4:	00008067          	ret

300008c8 <_write>:
300008c8:	fff50513          	addi	a0,a0,-1
300008cc:	00100793          	li	a5,1
300008d0:	00a7f663          	bgeu	a5,a0,300008dc <_write+0x14>
300008d4:	00000513          	li	a0,0
300008d8:	00008067          	ret
300008dc:	fd010113          	addi	sp,sp,-48
300008e0:	02912223          	sw	s1,36(sp)
300008e4:	02112623          	sw	ra,44(sp)
300008e8:	02812423          	sw	s0,40(sp)
300008ec:	03212023          	sw	s2,32(sp)
300008f0:	01312e23          	sw	s3,28(sp)
300008f4:	000106a3          	sb	zero,13(sp)
300008f8:	00060493          	mv	s1,a2
300008fc:	02060663          	beqz	a2,30000928 <_write+0x60>
30000900:	00058413          	mv	s0,a1
30000904:	00c589b3          	add	s3,a1,a2
30000908:	3000f937          	lui	s2,0x3000f
3000090c:	00044783          	lbu	a5,0(s0)
30000910:	00c10593          	addi	a1,sp,12
30000914:	00140413          	addi	s0,s0,1
30000918:	8d090513          	addi	a0,s2,-1840 # 3000e8d0 <con>
3000091c:	00f10623          	sb	a5,12(sp)
30000920:	5500b0ef          	jal	ra,3000be70 <toPrint>
30000924:	ff3414e3          	bne	s0,s3,3000090c <_write+0x44>
30000928:	02c12083          	lw	ra,44(sp)
3000092c:	02812403          	lw	s0,40(sp)
30000930:	00048513          	mv	a0,s1
30000934:	02012903          	lw	s2,32(sp)
30000938:	02412483          	lw	s1,36(sp)
3000093c:	01c12983          	lw	s3,28(sp)
30000940:	03010113          	addi	sp,sp,48
30000944:	00008067          	ret

30000948 <bspInit>:
30000948:	ff010113          	addi	sp,sp,-16
3000094c:	00812423          	sw	s0,8(sp)
30000950:	3000e437          	lui	s0,0x3000e
30000954:	78442703          	lw	a4,1924(s0) # 3000e784 <bsp>
30000958:	00112623          	sw	ra,12(sp)
3000095c:	01c72783          	lw	a5,28(a4) # 140001c <stackPointer+0x13fa59c>
30000960:	01c72683          	lw	a3,28(a4)
30000964:	c141f737          	lui	a4,0xc141f
30000968:	e0370713          	addi	a4,a4,-509 # c141ee03 <__bss_end__+0x9131ee03>
3000096c:	01079793          	slli	a5,a5,0x10
30000970:	00e787b3          	add	a5,a5,a4
30000974:	ef122737          	lui	a4,0xef122
30000978:	00d7c7b3          	xor	a5,a5,a3
3000097c:	33370713          	addi	a4,a4,819 # ef122333 <__bss_end__+0xbf022333>
30000980:	00e7c7b3          	xor	a5,a5,a4
30000984:	3000f737          	lui	a4,0x3000f
30000988:	8cf72623          	sw	a5,-1844(a4) # 3000e8cc <randomSeed>
3000098c:	7d0080ef          	jal	ra,3000915c <osAllocInit>
30000990:	03f80637          	lui	a2,0x3f80
30000994:	00100693          	li	a3,1
30000998:	ff060613          	addi	a2,a2,-16 # 3f7fff0 <stackPointer+0x3f7a570>
3000099c:	200005b7          	lui	a1,0x20000
300009a0:	00000513          	li	a0,0
300009a4:	7f8080ef          	jal	ra,3000919c <osAllocAddNode>
300009a8:	78442703          	lw	a4,1924(s0)
300009ac:	00200693          	li	a3,2
300009b0:	3000f7b7          	lui	a5,0x3000f
300009b4:	00d72423          	sw	a3,8(a4)
300009b8:	00008737          	lui	a4,0x8
300009bc:	8d078413          	addi	s0,a5,-1840 # 3000e8d0 <con>
300009c0:	8d078513          	addi	a0,a5,-1840
300009c4:	8ce7a823          	sw	a4,-1840(a5)
300009c8:	001e07b7          	lui	a5,0x1e0
300009cc:	05078793          	addi	a5,a5,80 # 1e0050 <stackPointer+0x1da5d0>
300009d0:	00f42223          	sw	a5,4(s0)
300009d4:	00f00793          	li	a5,15
300009d8:	00f40623          	sb	a5,12(s0)
300009dc:	000067b7          	lui	a5,0x6
300009e0:	a8078793          	addi	a5,a5,-1408 # 5a80 <stackPointer>
300009e4:	00042423          	sw	zero,8(s0)
300009e8:	00f42a23          	sw	a5,20(s0)
300009ec:	00042823          	sw	zero,16(s0)
300009f0:	3300b0ef          	jal	ra,3000bd20 <toCls>
300009f4:	02800793          	li	a5,40
300009f8:	00f41223          	sh	a5,4(s0)
300009fc:	f8f00793          	li	a5,-113
30000a00:	00f40623          	sb	a5,12(s0)
30000a04:	00c12083          	lw	ra,12(sp)
30000a08:	00812403          	lw	s0,8(sp)
30000a0c:	3000f7b7          	lui	a5,0x3000f
30000a10:	fe07ac23          	sw	zero,-8(a5) # 3000eff8 <bootLoaderEntry>
30000a14:	00000513          	li	a0,0
30000a18:	01010113          	addi	sp,sp,16
30000a1c:	00008067          	ret

30000a20 <randomNumber>:
30000a20:	3000f737          	lui	a4,0x3000f
30000a24:	8cc72503          	lw	a0,-1844(a4) # 3000e8cc <randomSeed>
30000a28:	00d51793          	slli	a5,a0,0xd
30000a2c:	00a7c7b3          	xor	a5,a5,a0
30000a30:	0117d513          	srli	a0,a5,0x11
30000a34:	00f547b3          	xor	a5,a0,a5
30000a38:	00579513          	slli	a0,a5,0x5
30000a3c:	00f54533          	xor	a0,a0,a5
30000a40:	8ca72623          	sw	a0,-1844(a4)
30000a44:	00008067          	ret

30000a48 <hexDigit>:
30000a48:	00f5f593          	andi	a1,a1,15
30000a4c:	00900713          	li	a4,9
30000a50:	05758793          	addi	a5,a1,87 # 20000057 <stackPointer+0x1fffa5d7>
30000a54:	00b76463          	bltu	a4,a1,30000a5c <hexDigit+0x14>
30000a58:	03058793          	addi	a5,a1,48
30000a5c:	000500a3          	sb	zero,1(a0)
30000a60:	00f50023          	sb	a5,0(a0)
30000a64:	00008067          	ret

30000a68 <itoaHex2Digits>:
30000a68:	00455793          	srli	a5,a0,0x4
30000a6c:	00f7f793          	andi	a5,a5,15
30000a70:	00900693          	li	a3,9
30000a74:	05778713          	addi	a4,a5,87
30000a78:	00f6e463          	bltu	a3,a5,30000a80 <itoaHex2Digits+0x18>
30000a7c:	03078713          	addi	a4,a5,48
30000a80:	00f57513          	andi	a0,a0,15
30000a84:	00e58023          	sb	a4,0(a1)
30000a88:	00900713          	li	a4,9
30000a8c:	05750793          	addi	a5,a0,87
30000a90:	00a76463          	bltu	a4,a0,30000a98 <itoaHex2Digits+0x30>
30000a94:	03050793          	addi	a5,a0,48
30000a98:	00058123          	sb	zero,2(a1)
30000a9c:	00f580a3          	sb	a5,1(a1)
30000aa0:	00008067          	ret

30000aa4 <itoaHex4Digits>:
30000aa4:	00c55793          	srli	a5,a0,0xc
30000aa8:	00f7f793          	andi	a5,a5,15
30000aac:	00900693          	li	a3,9
30000ab0:	05778713          	addi	a4,a5,87
30000ab4:	00f6e463          	bltu	a3,a5,30000abc <itoaHex4Digits+0x18>
30000ab8:	03078713          	addi	a4,a5,48
30000abc:	00855793          	srli	a5,a0,0x8
30000ac0:	00f7f793          	andi	a5,a5,15
30000ac4:	00e58223          	sb	a4,4(a1)
30000ac8:	00900693          	li	a3,9
30000acc:	05778713          	addi	a4,a5,87
30000ad0:	00f6e463          	bltu	a3,a5,30000ad8 <itoaHex4Digits+0x34>
30000ad4:	03078713          	addi	a4,a5,48
30000ad8:	00455793          	srli	a5,a0,0x4
30000adc:	00f7f793          	andi	a5,a5,15
30000ae0:	00e582a3          	sb	a4,5(a1)
30000ae4:	00900693          	li	a3,9
30000ae8:	05778713          	addi	a4,a5,87
30000aec:	00f6e463          	bltu	a3,a5,30000af4 <itoaHex4Digits+0x50>
30000af0:	03078713          	addi	a4,a5,48
30000af4:	00f57513          	andi	a0,a0,15
30000af8:	00e58323          	sb	a4,6(a1)
30000afc:	00900713          	li	a4,9
30000b00:	05750793          	addi	a5,a0,87
30000b04:	00a76463          	bltu	a4,a0,30000b0c <itoaHex4Digits+0x68>
30000b08:	03050793          	addi	a5,a0,48
30000b0c:	00058423          	sb	zero,8(a1)
30000b10:	00f583a3          	sb	a5,7(a1)
30000b14:	00008067          	ret

30000b18 <itoaHex8Digits>:
30000b18:	01c55793          	srli	a5,a0,0x1c
30000b1c:	0ff7f693          	andi	a3,a5,255
30000b20:	00900613          	li	a2,9
30000b24:	05768713          	addi	a4,a3,87
30000b28:	00f66463          	bltu	a2,a5,30000b30 <itoaHex8Digits+0x18>
30000b2c:	03068713          	addi	a4,a3,48
30000b30:	01855793          	srli	a5,a0,0x18
30000b34:	00f7f793          	andi	a5,a5,15
30000b38:	00e58023          	sb	a4,0(a1)
30000b3c:	00900693          	li	a3,9
30000b40:	05778713          	addi	a4,a5,87
30000b44:	00f6e463          	bltu	a3,a5,30000b4c <itoaHex8Digits+0x34>
30000b48:	03078713          	addi	a4,a5,48
30000b4c:	01455793          	srli	a5,a0,0x14
30000b50:	00f7f793          	andi	a5,a5,15
30000b54:	00e580a3          	sb	a4,1(a1)
30000b58:	00900693          	li	a3,9
30000b5c:	05778713          	addi	a4,a5,87
30000b60:	00f6e463          	bltu	a3,a5,30000b68 <itoaHex8Digits+0x50>
30000b64:	03078713          	addi	a4,a5,48
30000b68:	01055793          	srli	a5,a0,0x10
30000b6c:	00f7f793          	andi	a5,a5,15
30000b70:	00e58123          	sb	a4,2(a1)
30000b74:	00900693          	li	a3,9
30000b78:	05778713          	addi	a4,a5,87
30000b7c:	00f6e463          	bltu	a3,a5,30000b84 <itoaHex8Digits+0x6c>
30000b80:	03078713          	addi	a4,a5,48
30000b84:	00c55793          	srli	a5,a0,0xc
30000b88:	00f7f793          	andi	a5,a5,15
30000b8c:	00e581a3          	sb	a4,3(a1)
30000b90:	00900693          	li	a3,9
30000b94:	05778713          	addi	a4,a5,87
30000b98:	00f6e463          	bltu	a3,a5,30000ba0 <itoaHex8Digits+0x88>
30000b9c:	03078713          	addi	a4,a5,48
30000ba0:	00855793          	srli	a5,a0,0x8
30000ba4:	00f7f793          	andi	a5,a5,15
30000ba8:	00e58223          	sb	a4,4(a1)
30000bac:	00900693          	li	a3,9
30000bb0:	05778713          	addi	a4,a5,87
30000bb4:	00f6e463          	bltu	a3,a5,30000bbc <itoaHex8Digits+0xa4>
30000bb8:	03078713          	addi	a4,a5,48
30000bbc:	00455793          	srli	a5,a0,0x4
30000bc0:	00f7f793          	andi	a5,a5,15
30000bc4:	00e582a3          	sb	a4,5(a1)
30000bc8:	00900693          	li	a3,9
30000bcc:	05778713          	addi	a4,a5,87
30000bd0:	00f6e463          	bltu	a3,a5,30000bd8 <itoaHex8Digits+0xc0>
30000bd4:	03078713          	addi	a4,a5,48
30000bd8:	00f57513          	andi	a0,a0,15
30000bdc:	00e58323          	sb	a4,6(a1)
30000be0:	00900713          	li	a4,9
30000be4:	05750793          	addi	a5,a0,87
30000be8:	00a76463          	bltu	a4,a0,30000bf0 <itoaHex8Digits+0xd8>
30000bec:	03050793          	addi	a5,a0,48
30000bf0:	00058423          	sb	zero,8(a1)
30000bf4:	00f583a3          	sb	a5,7(a1)
30000bf8:	00008067          	ret

30000bfc <getTicks>:
30000bfc:	3000e7b7          	lui	a5,0x3000e
30000c00:	7847a783          	lw	a5,1924(a5) # 3000e784 <bsp>
30000c04:	01c7a503          	lw	a0,28(a5)
30000c08:	00008067          	ret

30000c0c <delayMs>:
30000c0c:	3000e7b7          	lui	a5,0x3000e
30000c10:	7847a703          	lw	a4,1924(a5) # 3000e784 <bsp>
30000c14:	01c72783          	lw	a5,28(a4)
30000c18:	00a78533          	add	a0,a5,a0
30000c1c:	01c72783          	lw	a5,28(a4)
30000c20:	fea7eee3          	bltu	a5,a0,30000c1c <delayMs+0x10>
30000c24:	00008067          	ret

30000c28 <setVideoMode>:
30000c28:	00457793          	andi	a5,a0,4
30000c2c:	3000e737          	lui	a4,0x3000e
30000c30:	78472703          	lw	a4,1924(a4) # 3000e784 <bsp>
30000c34:	0017b793          	seqz	a5,a5
30000c38:	40f007b3          	neg	a5,a5
30000c3c:	fd87f793          	andi	a5,a5,-40
30000c40:	05078793          	addi	a5,a5,80
30000c44:	00a72423          	sw	a0,8(a4)
30000c48:	3000f737          	lui	a4,0x3000f
30000c4c:	8cf71a23          	sh	a5,-1836(a4) # 3000e8d4 <con+0x4>
30000c50:	3000e7b7          	lui	a5,0x3000e
30000c54:	01057713          	andi	a4,a0,16
30000c58:	7647a783          	lw	a5,1892(a5) # 3000e764 <sdrdma>
30000c5c:	02070063          	beqz	a4,30000c7c <setVideoMode+0x54>
30000c60:	0007a623          	sw	zero,12(a5)
30000c64:	0c000713          	li	a4,192
30000c68:	00e7a823          	sw	a4,16(a5)
30000c6c:	09f00713          	li	a4,159
30000c70:	00e7aa23          	sw	a4,20(a5)
30000c74:	00000513          	li	a0,0
30000c78:	00008067          	ret
30000c7c:	02057513          	andi	a0,a0,32
30000c80:	02050063          	beqz	a0,30000ca0 <setVideoMode+0x78>
30000c84:	03000713          	li	a4,48
30000c88:	00e7a623          	sw	a4,12(a5)
30000c8c:	00e7a823          	sw	a4,16(a5)
30000c90:	04f00713          	li	a4,79
30000c94:	00e7aa23          	sw	a4,20(a5)
30000c98:	00000513          	li	a0,0
30000c9c:	00008067          	ret
30000ca0:	06000713          	li	a4,96
30000ca4:	00e7a623          	sw	a4,12(a5)
30000ca8:	00e7a823          	sw	a4,16(a5)
30000cac:	09f00713          	li	a4,159
30000cb0:	00e7aa23          	sw	a4,20(a5)
30000cb4:	00000513          	li	a0,0
30000cb8:	00008067          	ret

30000cbc <reboot>:
30000cbc:	3000f7b7          	lui	a5,0x3000f
30000cc0:	ff87a303          	lw	t1,-8(a5) # 3000eff8 <bootLoaderEntry>
30000cc4:	00030067          	jr	t1

30000cc8 <usbHIDInit>:
30000cc8:	3000f737          	lui	a4,0x3000f
30000ccc:	00072e23          	sw	zero,28(a4) # 3000f01c <activeKeys>
30000cd0:	3000f737          	lui	a4,0x3000f
30000cd4:	00070c23          	sb	zero,24(a4) # 3000f018 <shiftState>
30000cd8:	fff00693          	li	a3,-1
30000cdc:	3000f737          	lui	a4,0x3000f
30000ce0:	00d72a23          	sw	a3,20(a4) # 3000f014 <lastPressedKeyRepeatTime>
30000ce4:	3000e7b7          	lui	a5,0x3000e
30000ce8:	3000f737          	lui	a4,0x3000f
30000cec:	77c7a783          	lw	a5,1916(a5) # 3000e77c <spriteGen>
30000cf0:	00070823          	sb	zero,16(a4) # 3000f010 <lastPressedKeyCode>
30000cf4:	3000f737          	lui	a4,0x3000f
30000cf8:	00072623          	sw	zero,12(a4) # 3000f00c <mouseX>
30000cfc:	3000f737          	lui	a4,0x3000f
30000d00:	00072423          	sw	zero,8(a4) # 3000f008 <mouseY>
30000d04:	3000f737          	lui	a4,0x3000f
30000d08:	0007a423          	sw	zero,8(a5)
30000d0c:	00072223          	sw	zero,4(a4) # 3000f004 <mouseButtons>
30000d10:	3000f737          	lui	a4,0x3000f
30000d14:	00072023          	sw	zero,0(a4) # 3000f000 <prvMouseButtons>
30000d18:	0007a623          	sw	zero,12(a5)
30000d1c:	3000f737          	lui	a4,0x3000f
30000d20:	3000f7b7          	lui	a5,0x3000f
30000d24:	fe070ea3          	sb	zero,-3(a4) # 3000effd <mouseEventsEnabled>
30000d28:	fe078e23          	sb	zero,-4(a5) # 3000effc <mousePointerVisible>
30000d2c:	00000513          	li	a0,0
30000d30:	00008067          	ret

30000d34 <usbHIDSetMousePointerShape>:
30000d34:	0a050a63          	beqz	a0,30000de8 <usbHIDSetMousePointerShape+0xb4>
30000d38:	fd010113          	addi	sp,sp,-48
30000d3c:	01712623          	sw	s7,12(sp)
30000d40:	f0121bb7          	lui	s7,0xf0121
30000d44:	01312e23          	sw	s3,28(sp)
30000d48:	01412c23          	sw	s4,24(sp)
30000d4c:	01512a23          	sw	s5,20(sp)
30000d50:	01612823          	sw	s6,16(sp)
30000d54:	02112623          	sw	ra,44(sp)
30000d58:	02812423          	sw	s0,40(sp)
30000d5c:	02912223          	sw	s1,36(sp)
30000d60:	03212023          	sw	s2,32(sp)
30000d64:	00050993          	mv	s3,a0
30000d68:	00000b13          	li	s6,0
30000d6c:	f0120ab7          	lui	s5,0xf0120
30000d70:	02000a13          	li	s4,32
30000d74:	800b8b93          	addi	s7,s7,-2048 # f0120800 <__bss_end__+0xc0020800>
30000d78:	010b1913          	slli	s2,s6,0x10
30000d7c:	41095913          	srai	s2,s2,0x10
30000d80:	000a8493          	mv	s1,s5
30000d84:	00000413          	li	s0,0
30000d88:	01041593          	slli	a1,s0,0x10
30000d8c:	4105d593          	srai	a1,a1,0x10
30000d90:	00090613          	mv	a2,s2
30000d94:	00098513          	mv	a0,s3
30000d98:	00248493          	addi	s1,s1,2
30000d9c:	0d5090ef          	jal	ra,3000a670 <gfGetPixel>
30000da0:	fea49f23          	sh	a0,-2(s1)
30000da4:	00140413          	addi	s0,s0,1
30000da8:	ff4410e3          	bne	s0,s4,30000d88 <usbHIDSetMousePointerShape+0x54>
30000dac:	040a8a93          	addi	s5,s5,64 # f0120040 <__bss_end__+0xc0020040>
30000db0:	001b0b13          	addi	s6,s6,1
30000db4:	fd7a92e3          	bne	s5,s7,30000d78 <usbHIDSetMousePointerShape+0x44>
30000db8:	02c12083          	lw	ra,44(sp)
30000dbc:	02812403          	lw	s0,40(sp)
30000dc0:	02412483          	lw	s1,36(sp)
30000dc4:	02012903          	lw	s2,32(sp)
30000dc8:	01c12983          	lw	s3,28(sp)
30000dcc:	01812a03          	lw	s4,24(sp)
30000dd0:	01412a83          	lw	s5,20(sp)
30000dd4:	01012b03          	lw	s6,16(sp)
30000dd8:	00c12b83          	lw	s7,12(sp)
30000ddc:	00000513          	li	a0,0
30000de0:	03010113          	addi	sp,sp,48
30000de4:	00008067          	ret
30000de8:	00100513          	li	a0,1
30000dec:	00008067          	ret

30000df0 <usbHIDSetMousePointerVisibility>:
30000df0:	3000e7b7          	lui	a5,0x3000e
30000df4:	77c7a783          	lw	a5,1916(a5) # 3000e77c <spriteGen>
30000df8:	02050c63          	beqz	a0,30000e30 <usbHIDSetMousePointerVisibility+0x40>
30000dfc:	3000f737          	lui	a4,0x3000f
30000e00:	00c72683          	lw	a3,12(a4) # 3000f00c <mouseX>
30000e04:	3000f737          	lui	a4,0x3000f
30000e08:	00872703          	lw	a4,8(a4) # 3000f008 <mouseY>
30000e0c:	02f68693          	addi	a3,a3,47
30000e10:	00d7a423          	sw	a3,8(a5)
30000e14:	02170713          	addi	a4,a4,33
30000e18:	00e7a623          	sw	a4,12(a5)
30000e1c:	00100713          	li	a4,1
30000e20:	3000f7b7          	lui	a5,0x3000f
30000e24:	fee78e23          	sb	a4,-4(a5) # 3000effc <mousePointerVisible>
30000e28:	00000513          	li	a0,0
30000e2c:	00008067          	ret
30000e30:	0007a423          	sw	zero,8(a5)
30000e34:	0007a623          	sw	zero,12(a5)
30000e38:	00000713          	li	a4,0
30000e3c:	3000f7b7          	lui	a5,0x3000f
30000e40:	fee78e23          	sb	a4,-4(a5) # 3000effc <mousePointerVisible>
30000e44:	00000513          	li	a0,0
30000e48:	00008067          	ret

30000e4c <usbHidSetMouseReporting>:
30000e4c:	00a03533          	snez	a0,a0
30000e50:	3000f7b7          	lui	a5,0x3000f
30000e54:	fea78ea3          	sb	a0,-3(a5) # 3000effd <mouseEventsEnabled>
30000e58:	00000513          	li	a0,0
30000e5c:	00008067          	ret

30000e60 <usbHIDGetMouse>:
30000e60:	00050863          	beqz	a0,30000e70 <usbHIDGetMouse+0x10>
30000e64:	3000f7b7          	lui	a5,0x3000f
30000e68:	00c7a783          	lw	a5,12(a5) # 3000f00c <mouseX>
30000e6c:	00f52023          	sw	a5,0(a0)
30000e70:	00058863          	beqz	a1,30000e80 <usbHIDGetMouse+0x20>
30000e74:	3000f7b7          	lui	a5,0x3000f
30000e78:	0087a783          	lw	a5,8(a5) # 3000f008 <mouseY>
30000e7c:	00f5a023          	sw	a5,0(a1)
30000e80:	00060863          	beqz	a2,30000e90 <usbHIDGetMouse+0x30>
30000e84:	3000f7b7          	lui	a5,0x3000f
30000e88:	0047a783          	lw	a5,4(a5) # 3000f004 <mouseButtons>
30000e8c:	00f62023          	sw	a5,0(a2)
30000e90:	00000513          	li	a0,0
30000e94:	00008067          	ret

30000e98 <usbHIDHandleEvents>:
30000e98:	f8010113          	addi	sp,sp,-128
30000e9c:	05b12623          	sw	s11,76(sp)
30000ea0:	3000edb7          	lui	s11,0x3000e
30000ea4:	778da683          	lw	a3,1912(s11) # 3000e778 <usbhost>
30000ea8:	06812c23          	sw	s0,120(sp)
30000eac:	3000f437          	lui	s0,0x3000f
30000eb0:	0106a703          	lw	a4,16(a3)
30000eb4:	00442583          	lw	a1,4(s0) # 3000f004 <mouseButtons>
30000eb8:	0146a783          	lw	a5,20(a3)
30000ebc:	0186a603          	lw	a2,24(a3)
30000ec0:	06912a23          	sw	s1,116(sp)
30000ec4:	3000f4b7          	lui	s1,0x3000f
30000ec8:	06112e23          	sw	ra,124(sp)
30000ecc:	07212823          	sw	s2,112(sp)
30000ed0:	07312623          	sw	s3,108(sp)
30000ed4:	07412423          	sw	s4,104(sp)
30000ed8:	07512223          	sw	s5,100(sp)
30000edc:	07612023          	sw	s6,96(sp)
30000ee0:	05712e23          	sw	s7,92(sp)
30000ee4:	05812c23          	sw	s8,88(sp)
30000ee8:	05912a23          	sw	s9,84(sp)
30000eec:	05a12823          	sw	s10,80(sp)
30000ef0:	00b4a023          	sw	a1,0(s1) # 3000f000 <prvMouseButtons>
30000ef4:	00c42223          	sw	a2,4(s0)
30000ef8:	00f766b3          	or	a3,a4,a5
30000efc:	3e069a63          	bnez	a3,300012f0 <usbHIDHandleEvents+0x458>
30000f00:	3000f937          	lui	s2,0x3000f
30000f04:	ffd94783          	lbu	a5,-3(s2) # 3000effd <mouseEventsEnabled>
30000f08:	0a078a63          	beqz	a5,30000fbc <usbHIDHandleEvents+0x124>
30000f0c:	00442703          	lw	a4,4(s0)
30000f10:	0004a783          	lw	a5,0(s1)
30000f14:	0af70463          	beq	a4,a5,30000fbc <usbHIDHandleEvents+0x124>
30000f18:	0017f693          	andi	a3,a5,1
30000f1c:	56068463          	beqz	a3,30001484 <usbHIDHandleEvents+0x5ec>
30000f20:	0027f693          	andi	a3,a5,2
30000f24:	04069663          	bnez	a3,30000f70 <usbHIDHandleEvents+0xd8>
30000f28:	00277693          	andi	a3,a4,2
30000f2c:	04068263          	beqz	a3,30000f70 <usbHIDHandleEvents+0xd8>
30000f30:	3000f7b7          	lui	a5,0x3000f
30000f34:	00c7a683          	lw	a3,12(a5) # 3000f00c <mouseX>
30000f38:	3000f7b7          	lui	a5,0x3000f
30000f3c:	0087a783          	lw	a5,8(a5) # 3000f008 <mouseY>
30000f40:	20200613          	li	a2,514
30000f44:	01810513          	addi	a0,sp,24
30000f48:	00e12e23          	sw	a4,28(sp)
30000f4c:	02f12223          	sw	a5,36(sp)
30000f50:	00c11c23          	sh	a2,24(sp)
30000f54:	02d12023          	sw	a3,32(sp)
30000f58:	02012423          	sw	zero,40(sp)
30000f5c:	720000ef          	jal	ra,3000167c <osPutUIEvent>
30000f60:	0004a783          	lw	a5,0(s1)
30000f64:	0017f713          	andi	a4,a5,1
30000f68:	00070863          	beqz	a4,30000f78 <usbHIDHandleEvents+0xe0>
30000f6c:	00442703          	lw	a4,4(s0)
30000f70:	00177693          	andi	a3,a4,1
30000f74:	00068c63          	beqz	a3,30000f8c <usbHIDHandleEvents+0xf4>
30000f78:	0027f793          	andi	a5,a5,2
30000f7c:	04078063          	beqz	a5,30000fbc <usbHIDHandleEvents+0x124>
30000f80:	00442703          	lw	a4,4(s0)
30000f84:	00277793          	andi	a5,a4,2
30000f88:	02079a63          	bnez	a5,30000fbc <usbHIDHandleEvents+0x124>
30000f8c:	3000f7b7          	lui	a5,0x3000f
30000f90:	00c7a683          	lw	a3,12(a5) # 3000f00c <mouseX>
30000f94:	3000f7b7          	lui	a5,0x3000f
30000f98:	0087a783          	lw	a5,8(a5) # 3000f008 <mouseY>
30000f9c:	20300613          	li	a2,515
30000fa0:	01810513          	addi	a0,sp,24
30000fa4:	00c11c23          	sh	a2,24(sp)
30000fa8:	00e12e23          	sw	a4,28(sp)
30000fac:	02d12023          	sw	a3,32(sp)
30000fb0:	02f12223          	sw	a5,36(sp)
30000fb4:	02012423          	sw	zero,40(sp)
30000fb8:	6c4000ef          	jal	ra,3000167c <osPutUIEvent>
30000fbc:	778da703          	lw	a4,1912(s11)
30000fc0:	00872783          	lw	a5,8(a4)
30000fc4:	0017f793          	andi	a5,a5,1
30000fc8:	3c079e63          	bnez	a5,300013a4 <usbHIDHandleEvents+0x50c>
30000fcc:	00872783          	lw	a5,8(a4)
30000fd0:	0017f793          	andi	a5,a5,1
30000fd4:	0a079a63          	bnez	a5,30001088 <usbHIDHandleEvents+0x1f0>
30000fd8:	3000eab7          	lui	s5,0x3000e
30000fdc:	3000fd37          	lui	s10,0x3000f
30000fe0:	01ca8793          	addi	a5,s5,28 # 3000e01c <HIDkeys>
30000fe4:	3000fcb7          	lui	s9,0x3000f
30000fe8:	01cd0413          	addi	s0,s10,28 # 3000f01c <activeKeys>
30000fec:	10300c13          	li	s8,259
30000ff0:	00f12623          	sw	a5,12(sp)
30000ff4:	3000fb37          	lui	s6,0x3000f
30000ff8:	00c72483          	lw	s1,12(a4)
30000ffc:	018cc703          	lbu	a4,24(s9) # 3000f018 <shiftState>
30001000:	0184d793          	srli	a5,s1,0x18
30001004:	0104db93          	srli	s7,s1,0x10
30001008:	0084da93          	srli	s5,s1,0x8
3000100c:	0227f693          	andi	a3,a5,34
30001010:	0ffbfa13          	andi	s4,s7,255
30001014:	0ffaf993          	andi	s3,s5,255
30001018:	0ff4f913          	andi	s2,s1,255
3000101c:	0fe77613          	andi	a2,a4,254
30001020:	00068463          	beqz	a3,30001028 <usbHIDHandleEvents+0x190>
30001024:	00176613          	ori	a2,a4,1
30001028:	0017f713          	andi	a4,a5,1
3000102c:	0fd67693          	andi	a3,a2,253
30001030:	00070463          	beqz	a4,30001038 <usbHIDHandleEvents+0x1a0>
30001034:	00266693          	ori	a3,a2,2
30001038:	0447f793          	andi	a5,a5,68
3000103c:	0fb6f713          	andi	a4,a3,251
30001040:	00078463          	beqz	a5,30001048 <usbHIDHandleEvents+0x1b0>
30001044:	0046e713          	ori	a4,a3,4
30001048:	01cd4783          	lbu	a5,28(s10)
3000104c:	00ec8c23          	sb	a4,24(s9)
30001050:	20079463          	bnez	a5,30001258 <usbHIDHandleEvents+0x3c0>
30001054:	00144783          	lbu	a5,1(s0)
30001058:	14079a63          	bnez	a5,300011ac <usbHIDHandleEvents+0x314>
3000105c:	00244783          	lbu	a5,2(s0)
30001060:	1a079263          	bnez	a5,30001204 <usbHIDHandleEvents+0x36c>
30001064:	00344783          	lbu	a5,3(s0)
30001068:	06079463          	bnez	a5,300010d0 <usbHIDHandleEvents+0x238>
3000106c:	10091663          	bnez	s2,30001178 <usbHIDHandleEvents+0x2e0>
30001070:	0c099863          	bnez	s3,30001140 <usbHIDHandleEvents+0x2a8>
30001074:	240a1263          	bnez	s4,300012b8 <usbHIDHandleEvents+0x420>
30001078:	778da703          	lw	a4,1912(s11)
3000107c:	00872783          	lw	a5,8(a4)
30001080:	0017f793          	andi	a5,a5,1
30001084:	f6078ae3          	beqz	a5,30000ff8 <usbHIDHandleEvents+0x160>
30001088:	07c12083          	lw	ra,124(sp)
3000108c:	07812403          	lw	s0,120(sp)
30001090:	07412483          	lw	s1,116(sp)
30001094:	07012903          	lw	s2,112(sp)
30001098:	06c12983          	lw	s3,108(sp)
3000109c:	06812a03          	lw	s4,104(sp)
300010a0:	06412a83          	lw	s5,100(sp)
300010a4:	06012b03          	lw	s6,96(sp)
300010a8:	05c12b83          	lw	s7,92(sp)
300010ac:	05812c03          	lw	s8,88(sp)
300010b0:	05412c83          	lw	s9,84(sp)
300010b4:	05012d03          	lw	s10,80(sp)
300010b8:	04c12d83          	lw	s11,76(sp)
300010bc:	00000513          	li	a0,0
300010c0:	08010113          	addi	sp,sp,128
300010c4:	00008067          	ret
300010c8:	00344783          	lbu	a5,3(s0)
300010cc:	0a078663          	beqz	a5,30001178 <usbHIDHandleEvents+0x2e0>
300010d0:	0af90463          	beq	s2,a5,30001178 <usbHIDHandleEvents+0x2e0>
300010d4:	06f98463          	beq	s3,a5,3000113c <usbHIDHandleEvents+0x2a4>
300010d8:	f8fa0ae3          	beq	s4,a5,3000106c <usbHIDHandleEvents+0x1d4>
300010dc:	018cc703          	lbu	a4,24(s9)
300010e0:	03811623          	sh	s8,44(sp)
300010e4:	00177693          	andi	a3,a4,1
300010e8:	34068663          	beqz	a3,30001434 <usbHIDHandleEvents+0x59c>
300010ec:	00c12683          	lw	a3,12(sp)
300010f0:	00f686b3          	add	a3,a3,a5
300010f4:	0546c683          	lbu	a3,84(a3)
300010f8:	02c10513          	addi	a0,sp,44
300010fc:	02e12a23          	sw	a4,52(sp)
30001100:	02f12c23          	sw	a5,56(sp)
30001104:	02d12823          	sw	a3,48(sp)
30001108:	02012e23          	sw	zero,60(sp)
3000110c:	570000ef          	jal	ra,3000167c <osPutUIEvent>
30001110:	00344703          	lbu	a4,3(s0)
30001114:	010b4783          	lbu	a5,16(s6) # 3000f010 <lastPressedKeyCode>
30001118:	00f71a63          	bne	a4,a5,3000112c <usbHIDHandleEvents+0x294>
3000111c:	3000f7b7          	lui	a5,0x3000f
30001120:	fff00713          	li	a4,-1
30001124:	000b0823          	sb	zero,16(s6)
30001128:	00e7aa23          	sw	a4,20(a5) # 3000f014 <lastPressedKeyRepeatTime>
3000112c:	000401a3          	sb	zero,3(s0)
30001130:	00000793          	li	a5,0
30001134:	f2090ee3          	beqz	s2,30001070 <usbHIDHandleEvents+0x1d8>
30001138:	0400006f          	j	30001178 <usbHIDHandleEvents+0x2e0>
3000113c:	02091e63          	bnez	s2,30001178 <usbHIDHandleEvents+0x2e0>
30001140:	01cd4783          	lbu	a5,28(s10)
30001144:	f2f988e3          	beq	s3,a5,30001074 <usbHIDHandleEvents+0x1dc>
30001148:	00144703          	lbu	a4,1(s0)
3000114c:	f2e984e3          	beq	s3,a4,30001074 <usbHIDHandleEvents+0x1dc>
30001150:	00244683          	lbu	a3,2(s0)
30001154:	f2d980e3          	beq	s3,a3,30001074 <usbHIDHandleEvents+0x1dc>
30001158:	00344603          	lbu	a2,3(s0)
3000115c:	f0c98ce3          	beq	s3,a2,30001074 <usbHIDHandleEvents+0x1dc>
30001160:	42078e63          	beqz	a5,3000159c <usbHIDHandleEvents+0x704>
30001164:	4a070463          	beqz	a4,3000160c <usbHIDHandleEvents+0x774>
30001168:	4c068663          	beqz	a3,30001634 <usbHIDHandleEvents+0x79c>
3000116c:	f00614e3          	bnez	a2,30001074 <usbHIDHandleEvents+0x1dc>
30001170:	00300793          	li	a5,3
30001174:	42c0006f          	j	300015a0 <usbHIDHandleEvents+0x708>
30001178:	01cd4703          	lbu	a4,28(s10)
3000117c:	eee90ae3          	beq	s2,a4,30001070 <usbHIDHandleEvents+0x1d8>
30001180:	00144683          	lbu	a3,1(s0)
30001184:	eed906e3          	beq	s2,a3,30001070 <usbHIDHandleEvents+0x1d8>
30001188:	00244603          	lbu	a2,2(s0)
3000118c:	eec902e3          	beq	s2,a2,30001070 <usbHIDHandleEvents+0x1d8>
30001190:	eef900e3          	beq	s2,a5,30001070 <usbHIDHandleEvents+0x1d8>
30001194:	32070263          	beqz	a4,300014b8 <usbHIDHandleEvents+0x620>
30001198:	48068263          	beqz	a3,3000161c <usbHIDHandleEvents+0x784>
3000119c:	48060863          	beqz	a2,3000162c <usbHIDHandleEvents+0x794>
300011a0:	ec0798e3          	bnez	a5,30001070 <usbHIDHandleEvents+0x1d8>
300011a4:	00300793          	li	a5,3
300011a8:	3140006f          	j	300014bc <usbHIDHandleEvents+0x624>
300011ac:	eaf908e3          	beq	s2,a5,3000105c <usbHIDHandleEvents+0x1c4>
300011b0:	eaf986e3          	beq	s3,a5,3000105c <usbHIDHandleEvents+0x1c4>
300011b4:	eafa04e3          	beq	s4,a5,3000105c <usbHIDHandleEvents+0x1c4>
300011b8:	018cc703          	lbu	a4,24(s9)
300011bc:	03811623          	sh	s8,44(sp)
300011c0:	00177693          	andi	a3,a4,1
300011c4:	28068063          	beqz	a3,30001444 <usbHIDHandleEvents+0x5ac>
300011c8:	00c12683          	lw	a3,12(sp)
300011cc:	00f686b3          	add	a3,a3,a5
300011d0:	0546c683          	lbu	a3,84(a3)
300011d4:	02c10513          	addi	a0,sp,44
300011d8:	02e12a23          	sw	a4,52(sp)
300011dc:	02f12c23          	sw	a5,56(sp)
300011e0:	02d12823          	sw	a3,48(sp)
300011e4:	02012e23          	sw	zero,60(sp)
300011e8:	494000ef          	jal	ra,3000167c <osPutUIEvent>
300011ec:	00144703          	lbu	a4,1(s0)
300011f0:	010b4783          	lbu	a5,16(s6)
300011f4:	26f70063          	beq	a4,a5,30001454 <usbHIDHandleEvents+0x5bc>
300011f8:	000400a3          	sb	zero,1(s0)
300011fc:	00244783          	lbu	a5,2(s0)
30001200:	e60782e3          	beqz	a5,30001064 <usbHIDHandleEvents+0x1cc>
30001204:	ecf902e3          	beq	s2,a5,300010c8 <usbHIDHandleEvents+0x230>
30001208:	e4f98ee3          	beq	s3,a5,30001064 <usbHIDHandleEvents+0x1cc>
3000120c:	e4fa0ce3          	beq	s4,a5,30001064 <usbHIDHandleEvents+0x1cc>
30001210:	018cc703          	lbu	a4,24(s9)
30001214:	03811623          	sh	s8,44(sp)
30001218:	00177693          	andi	a3,a4,1
3000121c:	1e068c63          	beqz	a3,30001414 <usbHIDHandleEvents+0x57c>
30001220:	00c12683          	lw	a3,12(sp)
30001224:	00f686b3          	add	a3,a3,a5
30001228:	0546c683          	lbu	a3,84(a3)
3000122c:	02c10513          	addi	a0,sp,44
30001230:	02e12a23          	sw	a4,52(sp)
30001234:	02f12c23          	sw	a5,56(sp)
30001238:	02d12823          	sw	a3,48(sp)
3000123c:	02012e23          	sw	zero,60(sp)
30001240:	43c000ef          	jal	ra,3000167c <osPutUIEvent>
30001244:	00244703          	lbu	a4,2(s0)
30001248:	010b4783          	lbu	a5,16(s6)
3000124c:	22f70063          	beq	a4,a5,3000146c <usbHIDHandleEvents+0x5d4>
30001250:	00040123          	sb	zero,2(s0)
30001254:	e11ff06f          	j	30001064 <usbHIDHandleEvents+0x1cc>
30001258:	def90ee3          	beq	s2,a5,30001054 <usbHIDHandleEvents+0x1bc>
3000125c:	def98ce3          	beq	s3,a5,30001054 <usbHIDHandleEvents+0x1bc>
30001260:	defa0ae3          	beq	s4,a5,30001054 <usbHIDHandleEvents+0x1bc>
30001264:	03811623          	sh	s8,44(sp)
30001268:	00177693          	andi	a3,a4,1
3000126c:	1a068c63          	beqz	a3,30001424 <usbHIDHandleEvents+0x58c>
30001270:	00c12683          	lw	a3,12(sp)
30001274:	00f686b3          	add	a3,a3,a5
30001278:	0546c683          	lbu	a3,84(a3)
3000127c:	02c10513          	addi	a0,sp,44
30001280:	02e12a23          	sw	a4,52(sp)
30001284:	02f12c23          	sw	a5,56(sp)
30001288:	02d12823          	sw	a3,48(sp)
3000128c:	02012e23          	sw	zero,60(sp)
30001290:	3ec000ef          	jal	ra,3000167c <osPutUIEvent>
30001294:	01cd4703          	lbu	a4,28(s10)
30001298:	010b4783          	lbu	a5,16(s6)
3000129c:	00f71a63          	bne	a4,a5,300012b0 <usbHIDHandleEvents+0x418>
300012a0:	3000f7b7          	lui	a5,0x3000f
300012a4:	fff00713          	li	a4,-1
300012a8:	000b0823          	sb	zero,16(s6)
300012ac:	00e7aa23          	sw	a4,20(a5) # 3000f014 <lastPressedKeyRepeatTime>
300012b0:	000d0e23          	sb	zero,28(s10)
300012b4:	da1ff06f          	j	30001054 <usbHIDHandleEvents+0x1bc>
300012b8:	01cd4783          	lbu	a5,28(s10)
300012bc:	dafa0ee3          	beq	s4,a5,30001078 <usbHIDHandleEvents+0x1e0>
300012c0:	00144703          	lbu	a4,1(s0)
300012c4:	daea0ae3          	beq	s4,a4,30001078 <usbHIDHandleEvents+0x1e0>
300012c8:	00244683          	lbu	a3,2(s0)
300012cc:	dada06e3          	beq	s4,a3,30001078 <usbHIDHandleEvents+0x1e0>
300012d0:	00344603          	lbu	a2,3(s0)
300012d4:	daca02e3          	beq	s4,a2,30001078 <usbHIDHandleEvents+0x1e0>
300012d8:	24078a63          	beqz	a5,3000152c <usbHIDHandleEvents+0x694>
300012dc:	32070c63          	beqz	a4,30001614 <usbHIDHandleEvents+0x77c>
300012e0:	34068263          	beqz	a3,30001624 <usbHIDHandleEvents+0x78c>
300012e4:	d8061ae3          	bnez	a2,30001078 <usbHIDHandleEvents+0x1e0>
300012e8:	00300793          	li	a5,3
300012ec:	2440006f          	j	30001530 <usbHIDHandleEvents+0x698>
300012f0:	3000f6b7          	lui	a3,0x3000f
300012f4:	3000f5b7          	lui	a1,0x3000f
300012f8:	00c6a803          	lw	a6,12(a3) # 3000f00c <mouseX>
300012fc:	0085a503          	lw	a0,8(a1) # 3000f008 <mouseY>
30001300:	01070733          	add	a4,a4,a6
30001304:	00a787b3          	add	a5,a5,a0
30001308:	00e6a623          	sw	a4,12(a3)
3000130c:	00f5a423          	sw	a5,8(a1)
30001310:	08074063          	bltz	a4,30001390 <usbHIDHandleEvents+0x4f8>
30001314:	1807c663          	bltz	a5,300014a0 <usbHIDHandleEvents+0x608>
30001318:	27f00513          	li	a0,639
3000131c:	00e55463          	bge	a0,a4,30001324 <usbHIDHandleEvents+0x48c>
30001320:	00a6a623          	sw	a0,12(a3)
30001324:	1df00713          	li	a4,479
30001328:	00f75663          	bge	a4,a5,30001334 <usbHIDHandleEvents+0x49c>
3000132c:	00e5a423          	sw	a4,8(a1)
30001330:	1df00793          	li	a5,479
30001334:	3000f737          	lui	a4,0x3000f
30001338:	ffc74703          	lbu	a4,-4(a4) # 3000effc <mousePointerVisible>
3000133c:	02070063          	beqz	a4,3000135c <usbHIDHandleEvents+0x4c4>
30001340:	3000e737          	lui	a4,0x3000e
30001344:	00c6a583          	lw	a1,12(a3)
30001348:	77c72503          	lw	a0,1916(a4) # 3000e77c <spriteGen>
3000134c:	02178713          	addi	a4,a5,33
30001350:	02f58593          	addi	a1,a1,47
30001354:	00b52423          	sw	a1,8(a0)
30001358:	00e52623          	sw	a4,12(a0)
3000135c:	3000f937          	lui	s2,0x3000f
30001360:	ffd94703          	lbu	a4,-3(s2) # 3000effd <mouseEventsEnabled>
30001364:	c4070ce3          	beqz	a4,30000fbc <usbHIDHandleEvents+0x124>
30001368:	00c6a703          	lw	a4,12(a3)
3000136c:	01810513          	addi	a0,sp,24
30001370:	20100693          	li	a3,513
30001374:	00d11c23          	sh	a3,24(sp)
30001378:	00c12e23          	sw	a2,28(sp)
3000137c:	02e12023          	sw	a4,32(sp)
30001380:	02f12223          	sw	a5,36(sp)
30001384:	02012423          	sw	zero,40(sp)
30001388:	2f4000ef          	jal	ra,3000167c <osPutUIEvent>
3000138c:	b79ff06f          	j	30000f04 <usbHIDHandleEvents+0x6c>
30001390:	0006a623          	sw	zero,12(a3)
30001394:	f807d8e3          	bgez	a5,30001324 <usbHIDHandleEvents+0x48c>
30001398:	0005a423          	sw	zero,8(a1)
3000139c:	00000793          	li	a5,0
300013a0:	f95ff06f          	j	30001334 <usbHIDHandleEvents+0x49c>
300013a4:	3000f437          	lui	s0,0x3000f
300013a8:	01044783          	lbu	a5,16(s0) # 3000f010 <lastPressedKeyCode>
300013ac:	cc078ee3          	beqz	a5,30001088 <usbHIDHandleEvents+0x1f0>
300013b0:	3000f4b7          	lui	s1,0x3000f
300013b4:	849ff0ef          	jal	ra,30000bfc <getTicks>
300013b8:	0144a783          	lw	a5,20(s1) # 3000f014 <lastPressedKeyRepeatTime>
300013bc:	ccf566e3          	bltu	a0,a5,30001088 <usbHIDHandleEvents+0x1f0>
300013c0:	83dff0ef          	jal	ra,30000bfc <getTicks>
300013c4:	3000f7b7          	lui	a5,0x3000f
300013c8:	0187c683          	lbu	a3,24(a5) # 3000f018 <shiftState>
300013cc:	08050513          	addi	a0,a0,128
300013d0:	10100793          	li	a5,257
300013d4:	02f11623          	sh	a5,44(sp)
300013d8:	00a4aa23          	sw	a0,20(s1)
300013dc:	0016f793          	andi	a5,a3,1
300013e0:	01044703          	lbu	a4,16(s0)
300013e4:	26078063          	beqz	a5,30001644 <usbHIDHandleEvents+0x7ac>
300013e8:	3000e7b7          	lui	a5,0x3000e
300013ec:	01c78793          	addi	a5,a5,28 # 3000e01c <HIDkeys>
300013f0:	00e787b3          	add	a5,a5,a4
300013f4:	0547c783          	lbu	a5,84(a5)
300013f8:	02c10513          	addi	a0,sp,44
300013fc:	02f12823          	sw	a5,48(sp)
30001400:	02d12a23          	sw	a3,52(sp)
30001404:	02e12c23          	sw	a4,56(sp)
30001408:	02012e23          	sw	zero,60(sp)
3000140c:	270000ef          	jal	ra,3000167c <osPutUIEvent>
30001410:	c79ff06f          	j	30001088 <usbHIDHandleEvents+0x1f0>
30001414:	00c12683          	lw	a3,12(sp)
30001418:	00f686b3          	add	a3,a3,a5
3000141c:	0006c683          	lbu	a3,0(a3)
30001420:	e0dff06f          	j	3000122c <usbHIDHandleEvents+0x394>
30001424:	00c12683          	lw	a3,12(sp)
30001428:	00f686b3          	add	a3,a3,a5
3000142c:	0006c683          	lbu	a3,0(a3)
30001430:	e4dff06f          	j	3000127c <usbHIDHandleEvents+0x3e4>
30001434:	00c12683          	lw	a3,12(sp)
30001438:	00f686b3          	add	a3,a3,a5
3000143c:	0006c683          	lbu	a3,0(a3)
30001440:	cb9ff06f          	j	300010f8 <usbHIDHandleEvents+0x260>
30001444:	00c12683          	lw	a3,12(sp)
30001448:	00f686b3          	add	a3,a3,a5
3000144c:	0006c683          	lbu	a3,0(a3)
30001450:	d85ff06f          	j	300011d4 <usbHIDHandleEvents+0x33c>
30001454:	3000f7b7          	lui	a5,0x3000f
30001458:	fff00713          	li	a4,-1
3000145c:	000b0823          	sb	zero,16(s6)
30001460:	00e7aa23          	sw	a4,20(a5) # 3000f014 <lastPressedKeyRepeatTime>
30001464:	000400a3          	sb	zero,1(s0)
30001468:	d95ff06f          	j	300011fc <usbHIDHandleEvents+0x364>
3000146c:	3000f7b7          	lui	a5,0x3000f
30001470:	fff00713          	li	a4,-1
30001474:	000b0823          	sb	zero,16(s6)
30001478:	00e7aa23          	sw	a4,20(a5) # 3000f014 <lastPressedKeyRepeatTime>
3000147c:	00040123          	sb	zero,2(s0)
30001480:	be5ff06f          	j	30001064 <usbHIDHandleEvents+0x1cc>
30001484:	00177693          	andi	a3,a4,1
30001488:	aa0694e3          	bnez	a3,30000f30 <usbHIDHandleEvents+0x98>
3000148c:	0027f793          	andi	a5,a5,2
30001490:	ae079ae3          	bnez	a5,30000f84 <usbHIDHandleEvents+0xec>
30001494:	00277793          	andi	a5,a4,2
30001498:	b20782e3          	beqz	a5,30000fbc <usbHIDHandleEvents+0x124>
3000149c:	a95ff06f          	j	30000f30 <usbHIDHandleEvents+0x98>
300014a0:	0005a423          	sw	zero,8(a1)
300014a4:	27f00793          	li	a5,639
300014a8:	18e7da63          	bge	a5,a4,3000163c <usbHIDHandleEvents+0x7a4>
300014ac:	00f6a623          	sw	a5,12(a3)
300014b0:	00000793          	li	a5,0
300014b4:	e81ff06f          	j	30001334 <usbHIDHandleEvents+0x49c>
300014b8:	00000793          	li	a5,0
300014bc:	018cc703          	lbu	a4,24(s9)
300014c0:	00f407b3          	add	a5,s0,a5
300014c4:	01278023          	sb	s2,0(a5)
300014c8:	10100793          	li	a5,257
300014cc:	02f11623          	sh	a5,44(sp)
300014d0:	00177793          	andi	a5,a4,1
300014d4:	0ff4f493          	andi	s1,s1,255
300014d8:	04078263          	beqz	a5,3000151c <usbHIDHandleEvents+0x684>
300014dc:	00c12783          	lw	a5,12(sp)
300014e0:	009787b3          	add	a5,a5,s1
300014e4:	0547c783          	lbu	a5,84(a5)
300014e8:	02c10513          	addi	a0,sp,44
300014ec:	02f12823          	sw	a5,48(sp)
300014f0:	02e12a23          	sw	a4,52(sp)
300014f4:	02912c23          	sw	s1,56(sp)
300014f8:	02012e23          	sw	zero,60(sp)
300014fc:	180000ef          	jal	ra,3000167c <osPutUIEvent>
30001500:	efcff0ef          	jal	ra,30000bfc <getTicks>
30001504:	3e850513          	addi	a0,a0,1000
30001508:	3000f7b7          	lui	a5,0x3000f
3000150c:	00a7aa23          	sw	a0,20(a5) # 3000f014 <lastPressedKeyRepeatTime>
30001510:	012b0823          	sb	s2,16(s6)
30001514:	b60980e3          	beqz	s3,30001074 <usbHIDHandleEvents+0x1dc>
30001518:	c29ff06f          	j	30001140 <usbHIDHandleEvents+0x2a8>
3000151c:	00c12783          	lw	a5,12(sp)
30001520:	009787b3          	add	a5,a5,s1
30001524:	0007c783          	lbu	a5,0(a5)
30001528:	fc1ff06f          	j	300014e8 <usbHIDHandleEvents+0x650>
3000152c:	00000793          	li	a5,0
30001530:	018cc703          	lbu	a4,24(s9)
30001534:	00f407b3          	add	a5,s0,a5
30001538:	01478023          	sb	s4,0(a5)
3000153c:	10100793          	li	a5,257
30001540:	02f11623          	sh	a5,44(sp)
30001544:	00177793          	andi	a5,a4,1
30001548:	0ffbf813          	andi	a6,s7,255
3000154c:	04078063          	beqz	a5,3000158c <usbHIDHandleEvents+0x6f4>
30001550:	00c12783          	lw	a5,12(sp)
30001554:	010787b3          	add	a5,a5,a6
30001558:	0547c783          	lbu	a5,84(a5)
3000155c:	02c10513          	addi	a0,sp,44
30001560:	02f12823          	sw	a5,48(sp)
30001564:	02e12a23          	sw	a4,52(sp)
30001568:	03012c23          	sw	a6,56(sp)
3000156c:	02012e23          	sw	zero,60(sp)
30001570:	10c000ef          	jal	ra,3000167c <osPutUIEvent>
30001574:	e88ff0ef          	jal	ra,30000bfc <getTicks>
30001578:	3e850513          	addi	a0,a0,1000
3000157c:	3000f7b7          	lui	a5,0x3000f
30001580:	00a7aa23          	sw	a0,20(a5) # 3000f014 <lastPressedKeyRepeatTime>
30001584:	014b0823          	sb	s4,16(s6)
30001588:	af1ff06f          	j	30001078 <usbHIDHandleEvents+0x1e0>
3000158c:	00c12783          	lw	a5,12(sp)
30001590:	010787b3          	add	a5,a5,a6
30001594:	0007c783          	lbu	a5,0(a5)
30001598:	fc5ff06f          	j	3000155c <usbHIDHandleEvents+0x6c4>
3000159c:	00000793          	li	a5,0
300015a0:	018cc703          	lbu	a4,24(s9)
300015a4:	00f407b3          	add	a5,s0,a5
300015a8:	01378023          	sb	s3,0(a5)
300015ac:	10100793          	li	a5,257
300015b0:	02f11623          	sh	a5,44(sp)
300015b4:	00177793          	andi	a5,a4,1
300015b8:	0ffaf893          	andi	a7,s5,255
300015bc:	04078063          	beqz	a5,300015fc <usbHIDHandleEvents+0x764>
300015c0:	00c12783          	lw	a5,12(sp)
300015c4:	011787b3          	add	a5,a5,a7
300015c8:	0547c783          	lbu	a5,84(a5)
300015cc:	02c10513          	addi	a0,sp,44
300015d0:	02f12823          	sw	a5,48(sp)
300015d4:	02e12a23          	sw	a4,52(sp)
300015d8:	03112c23          	sw	a7,56(sp)
300015dc:	02012e23          	sw	zero,60(sp)
300015e0:	09c000ef          	jal	ra,3000167c <osPutUIEvent>
300015e4:	e18ff0ef          	jal	ra,30000bfc <getTicks>
300015e8:	3e850513          	addi	a0,a0,1000
300015ec:	3000f7b7          	lui	a5,0x3000f
300015f0:	00a7aa23          	sw	a0,20(a5) # 3000f014 <lastPressedKeyRepeatTime>
300015f4:	013b0823          	sb	s3,16(s6)
300015f8:	a7dff06f          	j	30001074 <usbHIDHandleEvents+0x1dc>
300015fc:	00c12783          	lw	a5,12(sp)
30001600:	011787b3          	add	a5,a5,a7
30001604:	0007c783          	lbu	a5,0(a5)
30001608:	fc5ff06f          	j	300015cc <usbHIDHandleEvents+0x734>
3000160c:	00100793          	li	a5,1
30001610:	f91ff06f          	j	300015a0 <usbHIDHandleEvents+0x708>
30001614:	00100793          	li	a5,1
30001618:	f19ff06f          	j	30001530 <usbHIDHandleEvents+0x698>
3000161c:	00100793          	li	a5,1
30001620:	e9dff06f          	j	300014bc <usbHIDHandleEvents+0x624>
30001624:	00200793          	li	a5,2
30001628:	f09ff06f          	j	30001530 <usbHIDHandleEvents+0x698>
3000162c:	00200793          	li	a5,2
30001630:	e8dff06f          	j	300014bc <usbHIDHandleEvents+0x624>
30001634:	00200793          	li	a5,2
30001638:	f69ff06f          	j	300015a0 <usbHIDHandleEvents+0x708>
3000163c:	00000793          	li	a5,0
30001640:	cf5ff06f          	j	30001334 <usbHIDHandleEvents+0x49c>
30001644:	3000e7b7          	lui	a5,0x3000e
30001648:	01c78793          	addi	a5,a5,28 # 3000e01c <HIDkeys>
3000164c:	00e787b3          	add	a5,a5,a4
30001650:	0007c783          	lbu	a5,0(a5)
30001654:	da5ff06f          	j	300013f8 <usbHIDHandleEvents+0x560>

30001658 <osUIEventsInit>:
30001658:	3000f7b7          	lui	a5,0x3000f
3000165c:	00100713          	li	a4,1
30001660:	8ee79423          	sh	a4,-1816(a5) # 3000e8e8 <osUIEventQueue>
30001664:	8e878713          	addi	a4,a5,-1816
30001668:	28072423          	sw	zero,648(a4)
3000166c:	28072223          	sw	zero,644(a4)
30001670:	28071623          	sh	zero,652(a4)
30001674:	8e079423          	sh	zero,-1816(a5)
30001678:	e50ff06f          	j	30000cc8 <usbHIDInit>

3000167c <osPutUIEvent>:
3000167c:	0e050a63          	beqz	a0,30001770 <osPutUIEvent+0xf4>
30001680:	3000f6b7          	lui	a3,0x3000f
30001684:	00100793          	li	a5,1
30001688:	8ef69423          	sh	a5,-1816(a3) # 3000e8e8 <osUIEventQueue>
3000168c:	8e868793          	addi	a5,a3,-1816
30001690:	28c7d703          	lhu	a4,652(a5)
30001694:	01e00613          	li	a2,30
30001698:	0ce66663          	bltu	a2,a4,30001764 <osPutUIEvent+0xe8>
3000169c:	2887a603          	lw	a2,648(a5)
300016a0:	00055803          	lhu	a6,0(a0)
300016a4:	00452583          	lw	a1,4(a0)
300016a8:	00261713          	slli	a4,a2,0x2
300016ac:	00c70733          	add	a4,a4,a2
300016b0:	00271713          	slli	a4,a4,0x2
300016b4:	00e78733          	add	a4,a5,a4
300016b8:	01071223          	sh	a6,4(a4)
300016bc:	2887a603          	lw	a2,648(a5)
300016c0:	00852883          	lw	a7,8(a0)
300016c4:	00c52803          	lw	a6,12(a0)
300016c8:	00261713          	slli	a4,a2,0x2
300016cc:	00c70733          	add	a4,a4,a2
300016d0:	00271713          	slli	a4,a4,0x2
300016d4:	00e78733          	add	a4,a5,a4
300016d8:	00b72423          	sw	a1,8(a4)
300016dc:	2887a603          	lw	a2,648(a5)
300016e0:	01052503          	lw	a0,16(a0)
300016e4:	01f00593          	li	a1,31
300016e8:	00261713          	slli	a4,a2,0x2
300016ec:	00c70733          	add	a4,a4,a2
300016f0:	00271713          	slli	a4,a4,0x2
300016f4:	00e78733          	add	a4,a5,a4
300016f8:	01172623          	sw	a7,12(a4)
300016fc:	2887a603          	lw	a2,648(a5)
30001700:	00261713          	slli	a4,a2,0x2
30001704:	00c70733          	add	a4,a4,a2
30001708:	00271713          	slli	a4,a4,0x2
3000170c:	00e78733          	add	a4,a5,a4
30001710:	01072823          	sw	a6,16(a4)
30001714:	2887a603          	lw	a2,648(a5)
30001718:	00261713          	slli	a4,a2,0x2
3000171c:	00c70733          	add	a4,a4,a2
30001720:	00271713          	slli	a4,a4,0x2
30001724:	00e78733          	add	a4,a5,a4
30001728:	00a72a23          	sw	a0,20(a4)
3000172c:	28c7d703          	lhu	a4,652(a5)
30001730:	00170713          	addi	a4,a4,1
30001734:	01071713          	slli	a4,a4,0x10
30001738:	01075713          	srli	a4,a4,0x10
3000173c:	28e79623          	sh	a4,652(a5)
30001740:	2887a703          	lw	a4,648(a5)
30001744:	00170713          	addi	a4,a4,1
30001748:	28e7a423          	sw	a4,648(a5)
3000174c:	2887a703          	lw	a4,648(a5)
30001750:	00e5f463          	bgeu	a1,a4,30001758 <osPutUIEvent+0xdc>
30001754:	2807a423          	sw	zero,648(a5)
30001758:	8e069423          	sh	zero,-1816(a3)
3000175c:	00000513          	li	a0,0
30001760:	00008067          	ret
30001764:	8e069423          	sh	zero,-1816(a3)
30001768:	10000513          	li	a0,256
3000176c:	00008067          	ret
30001770:	00100513          	li	a0,1
30001774:	00008067          	ret

30001778 <osGetUIEvent>:
30001778:	ff010113          	addi	sp,sp,-16
3000177c:	00812423          	sw	s0,8(sp)
30001780:	00050413          	mv	s0,a0
30001784:	00112623          	sw	ra,12(sp)
30001788:	f10ff0ef          	jal	ra,30000e98 <usbHIDHandleEvents>
3000178c:	12040c63          	beqz	s0,300018c4 <osGetUIEvent+0x14c>
30001790:	3000f737          	lui	a4,0x3000f
30001794:	8e875783          	lhu	a5,-1816(a4) # 3000e8e8 <osUIEventQueue>
30001798:	00200513          	li	a0,2
3000179c:	01079793          	slli	a5,a5,0x10
300017a0:	0107d793          	srli	a5,a5,0x10
300017a4:	0e079263          	bnez	a5,30001888 <osGetUIEvent+0x110>
300017a8:	00100793          	li	a5,1
300017ac:	8ef71423          	sh	a5,-1816(a4)
300017b0:	8e870793          	addi	a5,a4,-1816
300017b4:	28c7d683          	lhu	a3,652(a5)
300017b8:	01069693          	slli	a3,a3,0x10
300017bc:	0106d693          	srli	a3,a3,0x10
300017c0:	0c068c63          	beqz	a3,30001898 <osGetUIEvent+0x120>
300017c4:	2847a583          	lw	a1,644(a5)
300017c8:	01f00613          	li	a2,31
300017cc:	00259693          	slli	a3,a1,0x2
300017d0:	00b686b3          	add	a3,a3,a1
300017d4:	00269693          	slli	a3,a3,0x2
300017d8:	00d786b3          	add	a3,a5,a3
300017dc:	0046d683          	lhu	a3,4(a3)
300017e0:	2847a583          	lw	a1,644(a5)
300017e4:	00d41023          	sh	a3,0(s0)
300017e8:	00259693          	slli	a3,a1,0x2
300017ec:	00b686b3          	add	a3,a3,a1
300017f0:	00269693          	slli	a3,a3,0x2
300017f4:	00d786b3          	add	a3,a5,a3
300017f8:	0086a683          	lw	a3,8(a3)
300017fc:	2847a583          	lw	a1,644(a5)
30001800:	00d42223          	sw	a3,4(s0)
30001804:	00259693          	slli	a3,a1,0x2
30001808:	00b686b3          	add	a3,a3,a1
3000180c:	00269693          	slli	a3,a3,0x2
30001810:	00d786b3          	add	a3,a5,a3
30001814:	00c6a683          	lw	a3,12(a3)
30001818:	2847a583          	lw	a1,644(a5)
3000181c:	00d42423          	sw	a3,8(s0)
30001820:	00259693          	slli	a3,a1,0x2
30001824:	00b686b3          	add	a3,a3,a1
30001828:	00269693          	slli	a3,a3,0x2
3000182c:	00d786b3          	add	a3,a5,a3
30001830:	0106a683          	lw	a3,16(a3)
30001834:	2847a583          	lw	a1,644(a5)
30001838:	00d42623          	sw	a3,12(s0)
3000183c:	00259693          	slli	a3,a1,0x2
30001840:	00b686b3          	add	a3,a3,a1
30001844:	00269693          	slli	a3,a3,0x2
30001848:	00d786b3          	add	a3,a5,a3
3000184c:	0146a583          	lw	a1,20(a3)
30001850:	28c7d683          	lhu	a3,652(a5)
30001854:	00b42823          	sw	a1,16(s0)
30001858:	fff68693          	addi	a3,a3,-1
3000185c:	01069693          	slli	a3,a3,0x10
30001860:	0106d693          	srli	a3,a3,0x10
30001864:	28d79623          	sh	a3,652(a5)
30001868:	2847a683          	lw	a3,644(a5)
3000186c:	00168693          	addi	a3,a3,1
30001870:	28d7a223          	sw	a3,644(a5)
30001874:	2847a683          	lw	a3,644(a5)
30001878:	00d67463          	bgeu	a2,a3,30001880 <osGetUIEvent+0x108>
3000187c:	2807a223          	sw	zero,644(a5)
30001880:	8e071423          	sh	zero,-1816(a4)
30001884:	00000513          	li	a0,0
30001888:	00c12083          	lw	ra,12(sp)
3000188c:	00812403          	lw	s0,8(sp)
30001890:	01010113          	addi	sp,sp,16
30001894:	00008067          	ret
30001898:	00041023          	sh	zero,0(s0)
3000189c:	00042223          	sw	zero,4(s0)
300018a0:	00042423          	sw	zero,8(s0)
300018a4:	00042623          	sw	zero,12(s0)
300018a8:	00042823          	sw	zero,16(s0)
300018ac:	00c12083          	lw	ra,12(sp)
300018b0:	00812403          	lw	s0,8(sp)
300018b4:	8e071423          	sh	zero,-1816(a4)
300018b8:	10000513          	li	a0,256
300018bc:	01010113          	addi	sp,sp,16
300018c0:	00008067          	ret
300018c4:	00c12083          	lw	ra,12(sp)
300018c8:	00812403          	lw	s0,8(sp)
300018cc:	00100513          	li	a0,1
300018d0:	01010113          	addi	sp,sp,16
300018d4:	00008067          	ret

300018d8 <xmit_datablock.part.1>:
300018d8:	3000e7b7          	lui	a5,0x3000e
300018dc:	7707a703          	lw	a4,1904(a5) # 3000e770 <spi0>
300018e0:	ff010113          	addi	sp,sp,-16
300018e4:	00050693          	mv	a3,a0
300018e8:	00b10623          	sb	a1,12(sp)
300018ec:	00c72783          	lw	a5,12(a4)
300018f0:	0017f793          	andi	a5,a5,1
300018f4:	fe078ce3          	beqz	a5,300018ec <xmit_datablock.part.1+0x14>
300018f8:	00b72423          	sw	a1,8(a4)
300018fc:	0fd00793          	li	a5,253
30001900:	00100513          	li	a0,1
30001904:	08f58663          	beq	a1,a5,30001990 <xmit_datablock.part.1+0xb8>
30001908:	20068593          	addi	a1,a3,512
3000190c:	00168693          	addi	a3,a3,1
30001910:	fff6c603          	lbu	a2,-1(a3)
30001914:	00c72783          	lw	a5,12(a4)
30001918:	0017f793          	andi	a5,a5,1
3000191c:	fe078ce3          	beqz	a5,30001914 <xmit_datablock.part.1+0x3c>
30001920:	00c72423          	sw	a2,8(a4)
30001924:	feb694e3          	bne	a3,a1,3000190c <xmit_datablock.part.1+0x34>
30001928:	00c10693          	addi	a3,sp,12
3000192c:	00e10593          	addi	a1,sp,14
30001930:	0ff00613          	li	a2,255
30001934:	00c72783          	lw	a5,12(a4)
30001938:	0017f793          	andi	a5,a5,1
3000193c:	fe078ce3          	beqz	a5,30001934 <xmit_datablock.part.1+0x5c>
30001940:	00c72423          	sw	a2,8(a4)
30001944:	00c72783          	lw	a5,12(a4)
30001948:	0017f793          	andi	a5,a5,1
3000194c:	fe078ce3          	beqz	a5,30001944 <xmit_datablock.part.1+0x6c>
30001950:	00872783          	lw	a5,8(a4)
30001954:	00168693          	addi	a3,a3,1
30001958:	fef68fa3          	sb	a5,-1(a3)
3000195c:	fcb69ce3          	bne	a3,a1,30001934 <xmit_datablock.part.1+0x5c>
30001960:	00c72783          	lw	a5,12(a4)
30001964:	0017f793          	andi	a5,a5,1
30001968:	fe078ce3          	beqz	a5,30001960 <xmit_datablock.part.1+0x88>
3000196c:	0ff00793          	li	a5,255
30001970:	00f72423          	sw	a5,8(a4)
30001974:	00c72783          	lw	a5,12(a4)
30001978:	0017f793          	andi	a5,a5,1
3000197c:	fe078ce3          	beqz	a5,30001974 <xmit_datablock.part.1+0x9c>
30001980:	00872503          	lw	a0,8(a4)
30001984:	01f57513          	andi	a0,a0,31
30001988:	ffb50513          	addi	a0,a0,-5
3000198c:	00153513          	seqz	a0,a0
30001990:	01010113          	addi	sp,sp,16
30001994:	00008067          	ret

30001998 <rcvr_datablock.constprop.2>:
30001998:	3000e837          	lui	a6,0x3000e
3000199c:	77082703          	lw	a4,1904(a6) # 3000e770 <spi0>
300019a0:	ff010113          	addi	sp,sp,-16
300019a4:	3e800613          	li	a2,1000
300019a8:	0ff00593          	li	a1,255
300019ac:	7cf00693          	li	a3,1999
300019b0:	00c72783          	lw	a5,12(a4)
300019b4:	0017f793          	andi	a5,a5,1
300019b8:	fe078ce3          	beqz	a5,300019b0 <rcvr_datablock.constprop.2+0x18>
300019bc:	00b72423          	sw	a1,8(a4)
300019c0:	00c72783          	lw	a5,12(a4)
300019c4:	0017f793          	andi	a5,a5,1
300019c8:	fe078ce3          	beqz	a5,300019c0 <rcvr_datablock.constprop.2+0x28>
300019cc:	00872783          	lw	a5,8(a4)
300019d0:	0ff7f793          	andi	a5,a5,255
300019d4:	02b79e63          	bne	a5,a1,30001a10 <rcvr_datablock.constprop.2+0x78>
300019d8:	00012623          	sw	zero,12(sp)
300019dc:	00c12783          	lw	a5,12(sp)
300019e0:	00f6ec63          	bltu	a3,a5,300019f8 <rcvr_datablock.constprop.2+0x60>
300019e4:	00c12783          	lw	a5,12(sp)
300019e8:	00178793          	addi	a5,a5,1
300019ec:	00f12623          	sw	a5,12(sp)
300019f0:	00c12783          	lw	a5,12(sp)
300019f4:	fef6f8e3          	bgeu	a3,a5,300019e4 <rcvr_datablock.constprop.2+0x4c>
300019f8:	fff60613          	addi	a2,a2,-1
300019fc:	fa061ae3          	bnez	a2,300019b0 <rcvr_datablock.constprop.2+0x18>
30001a00:	00000693          	li	a3,0
30001a04:	00068513          	mv	a0,a3
30001a08:	01010113          	addi	sp,sp,16
30001a0c:	00008067          	ret
30001a10:	00f10423          	sb	a5,8(sp)
30001a14:	0fe00613          	li	a2,254
30001a18:	00000693          	li	a3,0
30001a1c:	fec794e3          	bne	a5,a2,30001a04 <rcvr_datablock.constprop.2+0x6c>
30001a20:	20050613          	addi	a2,a0,512
30001a24:	0ff00693          	li	a3,255
30001a28:	00c72783          	lw	a5,12(a4)
30001a2c:	0017f793          	andi	a5,a5,1
30001a30:	fe078ce3          	beqz	a5,30001a28 <rcvr_datablock.constprop.2+0x90>
30001a34:	00d72423          	sw	a3,8(a4)
30001a38:	00c72783          	lw	a5,12(a4)
30001a3c:	0017f793          	andi	a5,a5,1
30001a40:	fe078ce3          	beqz	a5,30001a38 <rcvr_datablock.constprop.2+0xa0>
30001a44:	00872783          	lw	a5,8(a4)
30001a48:	00150513          	addi	a0,a0,1
30001a4c:	fef50fa3          	sb	a5,-1(a0)
30001a50:	77082703          	lw	a4,1904(a6)
30001a54:	fcc51ae3          	bne	a0,a2,30001a28 <rcvr_datablock.constprop.2+0x90>
30001a58:	00810693          	addi	a3,sp,8
30001a5c:	00a10593          	addi	a1,sp,10
30001a60:	0ff00613          	li	a2,255
30001a64:	00c72783          	lw	a5,12(a4)
30001a68:	0017f793          	andi	a5,a5,1
30001a6c:	fe078ce3          	beqz	a5,30001a64 <rcvr_datablock.constprop.2+0xcc>
30001a70:	00c72423          	sw	a2,8(a4)
30001a74:	00c72783          	lw	a5,12(a4)
30001a78:	0017f793          	andi	a5,a5,1
30001a7c:	fe078ce3          	beqz	a5,30001a74 <rcvr_datablock.constprop.2+0xdc>
30001a80:	00872783          	lw	a5,8(a4)
30001a84:	00168693          	addi	a3,a3,1
30001a88:	fef68fa3          	sb	a5,-1(a3)
30001a8c:	fcb69ce3          	bne	a3,a1,30001a64 <rcvr_datablock.constprop.2+0xcc>
30001a90:	00100693          	li	a3,1
30001a94:	00068513          	mv	a0,a3
30001a98:	01010113          	addi	sp,sp,16
30001a9c:	00008067          	ret

30001aa0 <send_cmd>:
30001aa0:	fe010113          	addi	sp,sp,-32
30001aa4:	01851793          	slli	a5,a0,0x18
30001aa8:	00812c23          	sw	s0,24(sp)
30001aac:	00912a23          	sw	s1,20(sp)
30001ab0:	00112e23          	sw	ra,28(sp)
30001ab4:	4187d793          	srai	a5,a5,0x18
30001ab8:	00050413          	mv	s0,a0
30001abc:	00058493          	mv	s1,a1
30001ac0:	1e07c463          	bltz	a5,30001ca8 <send_cmd+0x208>
30001ac4:	3000e7b7          	lui	a5,0x3000e
30001ac8:	7847a503          	lw	a0,1924(a5) # 3000e784 <bsp>
30001acc:	3000e7b7          	lui	a5,0x3000e
30001ad0:	7707a783          	lw	a5,1904(a5) # 3000e770 <spi0>
30001ad4:	01452703          	lw	a4,20(a0)
30001ad8:	00176713          	ori	a4,a4,1
30001adc:	00e52a23          	sw	a4,20(a0)
30001ae0:	00c7a703          	lw	a4,12(a5)
30001ae4:	00177713          	andi	a4,a4,1
30001ae8:	fe070ce3          	beqz	a4,30001ae0 <send_cmd+0x40>
30001aec:	0ff00713          	li	a4,255
30001af0:	00e7a423          	sw	a4,8(a5)
30001af4:	00c7a703          	lw	a4,12(a5)
30001af8:	00177713          	andi	a4,a4,1
30001afc:	fe070ce3          	beqz	a4,30001af4 <send_cmd+0x54>
30001b00:	0087a703          	lw	a4,8(a5)
30001b04:	01452703          	lw	a4,20(a0)
30001b08:	00001637          	lui	a2,0x1
30001b0c:	38860613          	addi	a2,a2,904 # 1388 <stackPointer-0x46f8>
30001b10:	ffe77713          	andi	a4,a4,-2
30001b14:	00e52a23          	sw	a4,20(a0)
30001b18:	0ff00593          	li	a1,255
30001b1c:	7cf00693          	li	a3,1999
30001b20:	00c7a703          	lw	a4,12(a5)
30001b24:	00177713          	andi	a4,a4,1
30001b28:	fe070ce3          	beqz	a4,30001b20 <send_cmd+0x80>
30001b2c:	00b7a423          	sw	a1,8(a5)
30001b30:	00c7a703          	lw	a4,12(a5)
30001b34:	00177713          	andi	a4,a4,1
30001b38:	fe070ce3          	beqz	a4,30001b30 <send_cmd+0x90>
30001b3c:	0087a703          	lw	a4,8(a5)
30001b40:	0ff77713          	andi	a4,a4,255
30001b44:	06b70a63          	beq	a4,a1,30001bb8 <send_cmd+0x118>
30001b48:	00012223          	sw	zero,4(sp)
30001b4c:	00412703          	lw	a4,4(sp)
30001b50:	00e6ec63          	bltu	a3,a4,30001b68 <send_cmd+0xc8>
30001b54:	00412703          	lw	a4,4(sp)
30001b58:	00170713          	addi	a4,a4,1
30001b5c:	00e12223          	sw	a4,4(sp)
30001b60:	00412703          	lw	a4,4(sp)
30001b64:	fee6f8e3          	bgeu	a3,a4,30001b54 <send_cmd+0xb4>
30001b68:	fff60613          	addi	a2,a2,-1
30001b6c:	fa061ae3          	bnez	a2,30001b20 <send_cmd+0x80>
30001b70:	01452703          	lw	a4,20(a0)
30001b74:	00176713          	ori	a4,a4,1
30001b78:	00e52a23          	sw	a4,20(a0)
30001b7c:	00c7a703          	lw	a4,12(a5)
30001b80:	00177713          	andi	a4,a4,1
30001b84:	fe070ce3          	beqz	a4,30001b7c <send_cmd+0xdc>
30001b88:	0ff00713          	li	a4,255
30001b8c:	00e7a423          	sw	a4,8(a5)
30001b90:	00c7a703          	lw	a4,12(a5)
30001b94:	00177713          	andi	a4,a4,1
30001b98:	fe070ce3          	beqz	a4,30001b90 <send_cmd+0xf0>
30001b9c:	0087a783          	lw	a5,8(a5)
30001ba0:	0ff00513          	li	a0,255
30001ba4:	01c12083          	lw	ra,28(sp)
30001ba8:	01812403          	lw	s0,24(sp)
30001bac:	01412483          	lw	s1,20(sp)
30001bb0:	02010113          	addi	sp,sp,32
30001bb4:	00008067          	ret
30001bb8:	04046713          	ori	a4,s0,64
30001bbc:	0184d593          	srli	a1,s1,0x18
30001bc0:	0104d613          	srli	a2,s1,0x10
30001bc4:	0084d693          	srli	a3,s1,0x8
30001bc8:	00e10423          	sb	a4,8(sp)
30001bcc:	00b104a3          	sb	a1,9(sp)
30001bd0:	00c10523          	sb	a2,10(sp)
30001bd4:	00d105a3          	sb	a3,11(sp)
30001bd8:	00910623          	sb	s1,12(sp)
30001bdc:	09500713          	li	a4,149
30001be0:	0a041a63          	bnez	s0,30001c94 <send_cmd+0x1f4>
30001be4:	00e106a3          	sb	a4,13(sp)
30001be8:	00810693          	addi	a3,sp,8
30001bec:	00e10593          	addi	a1,sp,14
30001bf0:	00168693          	addi	a3,a3,1
30001bf4:	fff6c603          	lbu	a2,-1(a3)
30001bf8:	00c7a703          	lw	a4,12(a5)
30001bfc:	00177713          	andi	a4,a4,1
30001c00:	fe070ce3          	beqz	a4,30001bf8 <send_cmd+0x158>
30001c04:	00c7a423          	sw	a2,8(a5)
30001c08:	feb694e3          	bne	a3,a1,30001bf0 <send_cmd+0x150>
30001c0c:	00c00713          	li	a4,12
30001c10:	04e40e63          	beq	s0,a4,30001c6c <send_cmd+0x1cc>
30001c14:	00a00693          	li	a3,10
30001c18:	0ff00613          	li	a2,255
30001c1c:	00c7a703          	lw	a4,12(a5)
30001c20:	00177713          	andi	a4,a4,1
30001c24:	fe070ce3          	beqz	a4,30001c1c <send_cmd+0x17c>
30001c28:	00c7a423          	sw	a2,8(a5)
30001c2c:	00c7a703          	lw	a4,12(a5)
30001c30:	00177713          	andi	a4,a4,1
30001c34:	fe070ce3          	beqz	a4,30001c2c <send_cmd+0x18c>
30001c38:	0087a503          	lw	a0,8(a5)
30001c3c:	01851713          	slli	a4,a0,0x18
30001c40:	41875713          	srai	a4,a4,0x18
30001c44:	0ff57513          	andi	a0,a0,255
30001c48:	f4075ee3          	bgez	a4,30001ba4 <send_cmd+0x104>
30001c4c:	fff68693          	addi	a3,a3,-1
30001c50:	0ff6f693          	andi	a3,a3,255
30001c54:	fc0694e3          	bnez	a3,30001c1c <send_cmd+0x17c>
30001c58:	01c12083          	lw	ra,28(sp)
30001c5c:	01812403          	lw	s0,24(sp)
30001c60:	01412483          	lw	s1,20(sp)
30001c64:	02010113          	addi	sp,sp,32
30001c68:	00008067          	ret
30001c6c:	00c7a703          	lw	a4,12(a5)
30001c70:	00177713          	andi	a4,a4,1
30001c74:	fe070ce3          	beqz	a4,30001c6c <send_cmd+0x1cc>
30001c78:	0ff00713          	li	a4,255
30001c7c:	00e7a423          	sw	a4,8(a5)
30001c80:	00c7a703          	lw	a4,12(a5)
30001c84:	00177713          	andi	a4,a4,1
30001c88:	fe070ce3          	beqz	a4,30001c80 <send_cmd+0x1e0>
30001c8c:	0087a703          	lw	a4,8(a5)
30001c90:	f85ff06f          	j	30001c14 <send_cmd+0x174>
30001c94:	00800693          	li	a3,8
30001c98:	00100713          	li	a4,1
30001c9c:	f4d414e3          	bne	s0,a3,30001be4 <send_cmd+0x144>
30001ca0:	08700713          	li	a4,135
30001ca4:	f41ff06f          	j	30001be4 <send_cmd+0x144>
30001ca8:	00000593          	li	a1,0
30001cac:	03700513          	li	a0,55
30001cb0:	df1ff0ef          	jal	ra,30001aa0 <send_cmd>
30001cb4:	00100793          	li	a5,1
30001cb8:	eea7e6e3          	bltu	a5,a0,30001ba4 <send_cmd+0x104>
30001cbc:	07f47413          	andi	s0,s0,127
30001cc0:	e05ff06f          	j	30001ac4 <send_cmd+0x24>

30001cc4 <get_fattime>:
30001cc4:	00000513          	li	a0,0
30001cc8:	00008067          	ret

30001ccc <disk_status>:
30001ccc:	3000e737          	lui	a4,0x3000e
30001cd0:	78874783          	lbu	a5,1928(a4) # 3000e788 <Stat>
30001cd4:	00051863          	bnez	a0,30001ce4 <disk_status+0x18>
30001cd8:	0f97f513          	andi	a0,a5,249
30001cdc:	78a70423          	sb	a0,1928(a4)
30001ce0:	00008067          	ret
30001ce4:	00300513          	li	a0,3
30001ce8:	78a70423          	sb	a0,1928(a4)
30001cec:	00008067          	ret

30001cf0 <disk_initialize>:
30001cf0:	10051e63          	bnez	a0,30001e0c <disk_initialize+0x11c>
30001cf4:	fc010113          	addi	sp,sp,-64
30001cf8:	03312623          	sw	s3,44(sp)
30001cfc:	3000e9b7          	lui	s3,0x3000e
30001d00:	7849a683          	lw	a3,1924(s3) # 3000e784 <bsp>
30001d04:	02912a23          	sw	s1,52(sp)
30001d08:	3000e4b7          	lui	s1,0x3000e
30001d0c:	0146a783          	lw	a5,20(a3)
30001d10:	03412423          	sw	s4,40(sp)
30001d14:	7884ca03          	lbu	s4,1928(s1) # 3000e788 <Stat>
30001d18:	03212823          	sw	s2,48(sp)
30001d1c:	3000e937          	lui	s2,0x3000e
30001d20:	77092703          	lw	a4,1904(s2) # 3000e770 <spi0>
30001d24:	02812c23          	sw	s0,56(sp)
30001d28:	02112e23          	sw	ra,60(sp)
30001d2c:	03512223          	sw	s5,36(sp)
30001d30:	03612023          	sw	s6,32(sp)
30001d34:	01712e23          	sw	s7,28(sp)
30001d38:	0f9a7413          	andi	s0,s4,249
30001d3c:	0017e793          	ori	a5,a5,1
30001d40:	00f6aa23          	sw	a5,20(a3)
30001d44:	78848423          	sb	s0,1928(s1)
30001d48:	00a00693          	li	a3,10
30001d4c:	0ff00613          	li	a2,255
30001d50:	00c72783          	lw	a5,12(a4)
30001d54:	0017f793          	andi	a5,a5,1
30001d58:	fe078ce3          	beqz	a5,30001d50 <disk_initialize+0x60>
30001d5c:	00c72423          	sw	a2,8(a4)
30001d60:	00c72783          	lw	a5,12(a4)
30001d64:	0017f793          	andi	a5,a5,1
30001d68:	fe078ce3          	beqz	a5,30001d60 <disk_initialize+0x70>
30001d6c:	fff68693          	addi	a3,a3,-1
30001d70:	00872783          	lw	a5,8(a4)
30001d74:	0ff6f693          	andi	a3,a3,255
30001d78:	fc069ce3          	bnez	a3,30001d50 <disk_initialize+0x60>
30001d7c:	00000593          	li	a1,0
30001d80:	00000513          	li	a0,0
30001d84:	00f10423          	sb	a5,8(sp)
30001d88:	d19ff0ef          	jal	ra,30001aa0 <send_cmd>
30001d8c:	00100793          	li	a5,1
30001d90:	00050b93          	mv	s7,a0
30001d94:	08f50663          	beq	a0,a5,30001e20 <disk_initialize+0x130>
30001d98:	3000f7b7          	lui	a5,0x3000f
30001d9c:	02078023          	sb	zero,32(a5) # 3000f020 <CardType>
30001da0:	77092783          	lw	a5,1904(s2)
30001da4:	00146513          	ori	a0,s0,1
30001da8:	7849a683          	lw	a3,1924(s3)
30001dac:	78a48423          	sb	a0,1928(s1)
30001db0:	0146a703          	lw	a4,20(a3)
30001db4:	00176713          	ori	a4,a4,1
30001db8:	00e6aa23          	sw	a4,20(a3)
30001dbc:	00c7a703          	lw	a4,12(a5)
30001dc0:	00177713          	andi	a4,a4,1
30001dc4:	fe070ce3          	beqz	a4,30001dbc <disk_initialize+0xcc>
30001dc8:	0ff00713          	li	a4,255
30001dcc:	00e7a423          	sw	a4,8(a5)
30001dd0:	00c7a703          	lw	a4,12(a5)
30001dd4:	00177713          	andi	a4,a4,1
30001dd8:	fe070ce3          	beqz	a4,30001dd0 <disk_initialize+0xe0>
30001ddc:	03c12083          	lw	ra,60(sp)
30001de0:	03812403          	lw	s0,56(sp)
30001de4:	03412483          	lw	s1,52(sp)
30001de8:	03012903          	lw	s2,48(sp)
30001dec:	02c12983          	lw	s3,44(sp)
30001df0:	02812a03          	lw	s4,40(sp)
30001df4:	02412a83          	lw	s5,36(sp)
30001df8:	02012b03          	lw	s6,32(sp)
30001dfc:	01c12b83          	lw	s7,28(sp)
30001e00:	0087a783          	lw	a5,8(a5)
30001e04:	04010113          	addi	sp,sp,64
30001e08:	00008067          	ret
30001e0c:	3000e7b7          	lui	a5,0x3000e
30001e10:	00300713          	li	a4,3
30001e14:	78e78423          	sb	a4,1928(a5) # 3000e788 <Stat>
30001e18:	00300513          	li	a0,3
30001e1c:	00008067          	ret
30001e20:	1aa00593          	li	a1,426
30001e24:	00800513          	li	a0,8
30001e28:	c79ff0ef          	jal	ra,30001aa0 <send_cmd>
30001e2c:	05751c63          	bne	a0,s7,30001e84 <disk_initialize+0x194>
30001e30:	77092783          	lw	a5,1904(s2)
30001e34:	00810693          	addi	a3,sp,8
30001e38:	00c10b13          	addi	s6,sp,12
30001e3c:	0ff00613          	li	a2,255
30001e40:	00c7a703          	lw	a4,12(a5)
30001e44:	00177713          	andi	a4,a4,1
30001e48:	fe070ce3          	beqz	a4,30001e40 <disk_initialize+0x150>
30001e4c:	00c7a423          	sw	a2,8(a5)
30001e50:	00c7a703          	lw	a4,12(a5)
30001e54:	00177713          	andi	a4,a4,1
30001e58:	fe070ce3          	beqz	a4,30001e50 <disk_initialize+0x160>
30001e5c:	0087a703          	lw	a4,8(a5)
30001e60:	00168693          	addi	a3,a3,1
30001e64:	fee68fa3          	sb	a4,-1(a3)
30001e68:	fd669ce3          	bne	a3,s6,30001e40 <disk_initialize+0x150>
30001e6c:	00a14683          	lbu	a3,10(sp)
30001e70:	00100713          	li	a4,1
30001e74:	06e68863          	beq	a3,a4,30001ee4 <disk_initialize+0x1f4>
30001e78:	3000f737          	lui	a4,0x3000f
30001e7c:	02070023          	sb	zero,32(a4) # 3000f020 <CardType>
30001e80:	f25ff06f          	j	30001da4 <disk_initialize+0xb4>
30001e84:	00000593          	li	a1,0
30001e88:	0a900513          	li	a0,169
30001e8c:	c15ff0ef          	jal	ra,30001aa0 <send_cmd>
30001e90:	04abf663          	bgeu	s7,a0,30001edc <disk_initialize+0x1ec>
30001e94:	00005ab7          	lui	s5,0x5
30001e98:	3e800b13          	li	s6,1000
30001e9c:	e1fa8a93          	addi	s5,s5,-481 # 4e1f <stackPointer-0xc61>
30001ea0:	00000593          	li	a1,0
30001ea4:	0a900513          	li	a0,169
30001ea8:	bf9ff0ef          	jal	ra,30001aa0 <send_cmd>
30001eac:	08050663          	beqz	a0,30001f38 <disk_initialize+0x248>
30001eb0:	00012623          	sw	zero,12(sp)
30001eb4:	00c12783          	lw	a5,12(sp)
30001eb8:	00faec63          	bltu	s5,a5,30001ed0 <disk_initialize+0x1e0>
30001ebc:	00c12783          	lw	a5,12(sp)
30001ec0:	00178793          	addi	a5,a5,1
30001ec4:	00f12623          	sw	a5,12(sp)
30001ec8:	00c12783          	lw	a5,12(sp)
30001ecc:	fefaf8e3          	bgeu	s5,a5,30001ebc <disk_initialize+0x1cc>
30001ed0:	fffb0b13          	addi	s6,s6,-1
30001ed4:	fc0b16e3          	bnez	s6,30001ea0 <disk_initialize+0x1b0>
30001ed8:	ec1ff06f          	j	30001d98 <disk_initialize+0xa8>
30001edc:	00200b93          	li	s7,2
30001ee0:	fb5ff06f          	j	30001e94 <disk_initialize+0x1a4>
30001ee4:	00b14683          	lbu	a3,11(sp)
30001ee8:	0aa00713          	li	a4,170
30001eec:	f8e696e3          	bne	a3,a4,30001e78 <disk_initialize+0x188>
30001ef0:	00005ab7          	lui	s5,0x5
30001ef4:	3e800b93          	li	s7,1000
30001ef8:	e1fa8a93          	addi	s5,s5,-481 # 4e1f <stackPointer-0xc61>
30001efc:	400005b7          	lui	a1,0x40000
30001f00:	0a900513          	li	a0,169
30001f04:	b9dff0ef          	jal	ra,30001aa0 <send_cmd>
30001f08:	04050a63          	beqz	a0,30001f5c <disk_initialize+0x26c>
30001f0c:	00012623          	sw	zero,12(sp)
30001f10:	00c12783          	lw	a5,12(sp)
30001f14:	00faec63          	bltu	s5,a5,30001f2c <disk_initialize+0x23c>
30001f18:	00c12783          	lw	a5,12(sp)
30001f1c:	00178793          	addi	a5,a5,1
30001f20:	00f12623          	sw	a5,12(sp)
30001f24:	00c12783          	lw	a5,12(sp)
30001f28:	fefaf8e3          	bgeu	s5,a5,30001f18 <disk_initialize+0x228>
30001f2c:	fffb8b93          	addi	s7,s7,-1
30001f30:	fc0b96e3          	bnez	s7,30001efc <disk_initialize+0x20c>
30001f34:	e65ff06f          	j	30001d98 <disk_initialize+0xa8>
30001f38:	20000593          	li	a1,512
30001f3c:	01000513          	li	a0,16
30001f40:	b61ff0ef          	jal	ra,30001aa0 <send_cmd>
30001f44:	e4051ae3          	bnez	a0,30001d98 <disk_initialize+0xa8>
30001f48:	3000f7b7          	lui	a5,0x3000f
30001f4c:	03778023          	sb	s7,32(a5) # 3000f020 <CardType>
30001f50:	0f8a7513          	andi	a0,s4,248
30001f54:	77092783          	lw	a5,1904(s2)
30001f58:	e51ff06f          	j	30001da8 <disk_initialize+0xb8>
30001f5c:	00000593          	li	a1,0
30001f60:	03a00513          	li	a0,58
30001f64:	b3dff0ef          	jal	ra,30001aa0 <send_cmd>
30001f68:	e20518e3          	bnez	a0,30001d98 <disk_initialize+0xa8>
30001f6c:	77092703          	lw	a4,1904(s2)
30001f70:	00810793          	addi	a5,sp,8
30001f74:	0ff00613          	li	a2,255
30001f78:	00c72683          	lw	a3,12(a4)
30001f7c:	0016f693          	andi	a3,a3,1
30001f80:	fe068ce3          	beqz	a3,30001f78 <disk_initialize+0x288>
30001f84:	00c72423          	sw	a2,8(a4)
30001f88:	00c72683          	lw	a3,12(a4)
30001f8c:	0016f693          	andi	a3,a3,1
30001f90:	fe068ce3          	beqz	a3,30001f88 <disk_initialize+0x298>
30001f94:	00872683          	lw	a3,8(a4)
30001f98:	00178793          	addi	a5,a5,1
30001f9c:	fed78fa3          	sb	a3,-1(a5)
30001fa0:	fd679ce3          	bne	a5,s6,30001f78 <disk_initialize+0x288>
30001fa4:	00814b83          	lbu	s7,8(sp)
30001fa8:	003bdb93          	srli	s7,s7,0x3
30001fac:	008bfb93          	andi	s7,s7,8
30001fb0:	004b8b93          	addi	s7,s7,4
30001fb4:	f95ff06f          	j	30001f48 <disk_initialize+0x258>

30001fb8 <disk_read>:
30001fb8:	ff010113          	addi	sp,sp,-16
30001fbc:	00112623          	sw	ra,12(sp)
30001fc0:	00812423          	sw	s0,8(sp)
30001fc4:	00912223          	sw	s1,4(sp)
30001fc8:	01212023          	sw	s2,0(sp)
30001fcc:	10051463          	bnez	a0,300020d4 <disk_read+0x11c>
30001fd0:	3000e737          	lui	a4,0x3000e
30001fd4:	78874783          	lbu	a5,1928(a4) # 3000e788 <Stat>
30001fd8:	00068413          	mv	s0,a3
30001fdc:	ff97f693          	andi	a3,a5,-7
30001fe0:	78d70423          	sb	a3,1928(a4)
30001fe4:	0017f793          	andi	a5,a5,1
30001fe8:	0e079c63          	bnez	a5,300020e0 <disk_read+0x128>
30001fec:	00400913          	li	s2,4
30001ff0:	06040c63          	beqz	s0,30002068 <disk_read+0xb0>
30001ff4:	3000f7b7          	lui	a5,0x3000f
30001ff8:	0207c783          	lbu	a5,32(a5) # 3000f020 <CardType>
30001ffc:	00058493          	mv	s1,a1
30002000:	0087f793          	andi	a5,a5,8
30002004:	00079463          	bnez	a5,3000200c <disk_read+0x54>
30002008:	00961613          	slli	a2,a2,0x9
3000200c:	00100793          	li	a5,1
30002010:	00060593          	mv	a1,a2
30002014:	0af40063          	beq	s0,a5,300020b4 <disk_read+0xfc>
30002018:	01200513          	li	a0,18
3000201c:	a85ff0ef          	jal	ra,30001aa0 <send_cmd>
30002020:	00100913          	li	s2,1
30002024:	06050463          	beqz	a0,3000208c <disk_read+0xd4>
30002028:	3000e7b7          	lui	a5,0x3000e
3000202c:	7847a683          	lw	a3,1924(a5) # 3000e784 <bsp>
30002030:	3000e7b7          	lui	a5,0x3000e
30002034:	7707a703          	lw	a4,1904(a5) # 3000e770 <spi0>
30002038:	0146a783          	lw	a5,20(a3)
3000203c:	0017e793          	ori	a5,a5,1
30002040:	00f6aa23          	sw	a5,20(a3)
30002044:	00c72783          	lw	a5,12(a4)
30002048:	0017f793          	andi	a5,a5,1
3000204c:	fe078ce3          	beqz	a5,30002044 <disk_read+0x8c>
30002050:	0ff00793          	li	a5,255
30002054:	00f72423          	sw	a5,8(a4)
30002058:	00c72783          	lw	a5,12(a4)
3000205c:	0017f793          	andi	a5,a5,1
30002060:	fe078ce3          	beqz	a5,30002058 <disk_read+0xa0>
30002064:	00872783          	lw	a5,8(a4)
30002068:	00c12083          	lw	ra,12(sp)
3000206c:	00812403          	lw	s0,8(sp)
30002070:	00090513          	mv	a0,s2
30002074:	00412483          	lw	s1,4(sp)
30002078:	00012903          	lw	s2,0(sp)
3000207c:	01010113          	addi	sp,sp,16
30002080:	00008067          	ret
30002084:	20048493          	addi	s1,s1,512
30002088:	06040c63          	beqz	s0,30002100 <disk_read+0x148>
3000208c:	00048513          	mv	a0,s1
30002090:	fff40413          	addi	s0,s0,-1
30002094:	905ff0ef          	jal	ra,30001998 <rcvr_datablock.constprop.2>
30002098:	0ff47413          	andi	s0,s0,255
3000209c:	fe0514e3          	bnez	a0,30002084 <disk_read+0xcc>
300020a0:	00100913          	li	s2,1
300020a4:	00000593          	li	a1,0
300020a8:	00c00513          	li	a0,12
300020ac:	9f5ff0ef          	jal	ra,30001aa0 <send_cmd>
300020b0:	f79ff06f          	j	30002028 <disk_read+0x70>
300020b4:	01100513          	li	a0,17
300020b8:	9e9ff0ef          	jal	ra,30001aa0 <send_cmd>
300020bc:	00100913          	li	s2,1
300020c0:	f60514e3          	bnez	a0,30002028 <disk_read+0x70>
300020c4:	00048513          	mv	a0,s1
300020c8:	8d1ff0ef          	jal	ra,30001998 <rcvr_datablock.constprop.2>
300020cc:	00153913          	seqz	s2,a0
300020d0:	f59ff06f          	j	30002028 <disk_read+0x70>
300020d4:	3000e7b7          	lui	a5,0x3000e
300020d8:	00300713          	li	a4,3
300020dc:	78e78423          	sb	a4,1928(a5) # 3000e788 <Stat>
300020e0:	00c12083          	lw	ra,12(sp)
300020e4:	00812403          	lw	s0,8(sp)
300020e8:	00300913          	li	s2,3
300020ec:	00090513          	mv	a0,s2
300020f0:	00412483          	lw	s1,4(sp)
300020f4:	00012903          	lw	s2,0(sp)
300020f8:	01010113          	addi	sp,sp,16
300020fc:	00008067          	ret
30002100:	00000913          	li	s2,0
30002104:	fa1ff06f          	j	300020a4 <disk_read+0xec>

30002108 <disk_write>:
30002108:	20051a63          	bnez	a0,3000231c <disk_write+0x214>
3000210c:	3000e737          	lui	a4,0x3000e
30002110:	78874783          	lbu	a5,1928(a4) # 3000e788 <Stat>
30002114:	fc010113          	addi	sp,sp,-64
30002118:	03312623          	sw	s3,44(sp)
3000211c:	00068993          	mv	s3,a3
30002120:	ff97f693          	andi	a3,a5,-7
30002124:	02112e23          	sw	ra,60(sp)
30002128:	02812c23          	sw	s0,56(sp)
3000212c:	02912a23          	sw	s1,52(sp)
30002130:	03212823          	sw	s2,48(sp)
30002134:	03412423          	sw	s4,40(sp)
30002138:	03512223          	sw	s5,36(sp)
3000213c:	78d70423          	sb	a3,1928(a4)
30002140:	0017f793          	andi	a5,a5,1
30002144:	10079a63          	bnez	a5,30002258 <disk_write+0x150>
30002148:	00400513          	li	a0,4
3000214c:	10098863          	beqz	s3,3000225c <disk_write+0x154>
30002150:	3000f7b7          	lui	a5,0x3000f
30002154:	0207c783          	lbu	a5,32(a5) # 3000f020 <CardType>
30002158:	00058413          	mv	s0,a1
3000215c:	0087f713          	andi	a4,a5,8
30002160:	00071463          	bnez	a4,30002168 <disk_write+0x60>
30002164:	00961613          	slli	a2,a2,0x9
30002168:	00100713          	li	a4,1
3000216c:	14e98c63          	beq	s3,a4,300022c4 <disk_write+0x1bc>
30002170:	0067f793          	andi	a5,a5,6
30002174:	1a079e63          	bnez	a5,30002330 <disk_write+0x228>
30002178:	00060593          	mv	a1,a2
3000217c:	01900513          	li	a0,25
30002180:	921ff0ef          	jal	ra,30001aa0 <send_cmd>
30002184:	14051863          	bnez	a0,300022d4 <disk_write+0x1cc>
30002188:	3000ea37          	lui	s4,0x3000e
3000218c:	00001ab7          	lui	s5,0x1
30002190:	0ff00913          	li	s2,255
30002194:	7cf00493          	li	s1,1999
30002198:	770a2783          	lw	a5,1904(s4) # 3000e770 <spi0>
3000219c:	388a8613          	addi	a2,s5,904 # 1388 <stackPointer-0x46f8>
300021a0:	00c7a703          	lw	a4,12(a5)
300021a4:	00177713          	andi	a4,a4,1
300021a8:	fe070ce3          	beqz	a4,300021a0 <disk_write+0x98>
300021ac:	0127a423          	sw	s2,8(a5)
300021b0:	00c7a703          	lw	a4,12(a5)
300021b4:	00177713          	andi	a4,a4,1
300021b8:	fe070ce3          	beqz	a4,300021b0 <disk_write+0xa8>
300021bc:	0087a703          	lw	a4,8(a5)
300021c0:	0ff77713          	andi	a4,a4,255
300021c4:	0d270c63          	beq	a4,s2,3000229c <disk_write+0x194>
300021c8:	00012c23          	sw	zero,24(sp)
300021cc:	01812703          	lw	a4,24(sp)
300021d0:	00e4ec63          	bltu	s1,a4,300021e8 <disk_write+0xe0>
300021d4:	01812703          	lw	a4,24(sp)
300021d8:	00170713          	addi	a4,a4,1
300021dc:	00e12c23          	sw	a4,24(sp)
300021e0:	01812703          	lw	a4,24(sp)
300021e4:	fee4f8e3          	bgeu	s1,a4,300021d4 <disk_write+0xcc>
300021e8:	fff60613          	addi	a2,a2,-1
300021ec:	fa061ae3          	bnez	a2,300021a0 <disk_write+0x98>
300021f0:	00001637          	lui	a2,0x1
300021f4:	38860613          	addi	a2,a2,904 # 1388 <stackPointer-0x46f8>
300021f8:	0ff00593          	li	a1,255
300021fc:	7cf00693          	li	a3,1999
30002200:	00c7a703          	lw	a4,12(a5)
30002204:	00177713          	andi	a4,a4,1
30002208:	fe070ce3          	beqz	a4,30002200 <disk_write+0xf8>
3000220c:	00b7a423          	sw	a1,8(a5)
30002210:	00c7a703          	lw	a4,12(a5)
30002214:	00177713          	andi	a4,a4,1
30002218:	fe070ce3          	beqz	a4,30002210 <disk_write+0x108>
3000221c:	0087a703          	lw	a4,8(a5)
30002220:	0ff77713          	andi	a4,a4,255
30002224:	04b70e63          	beq	a4,a1,30002280 <disk_write+0x178>
30002228:	00012e23          	sw	zero,28(sp)
3000222c:	01c12703          	lw	a4,28(sp)
30002230:	00e6ec63          	bltu	a3,a4,30002248 <disk_write+0x140>
30002234:	01c12703          	lw	a4,28(sp)
30002238:	00170713          	addi	a4,a4,1
3000223c:	00e12e23          	sw	a4,28(sp)
30002240:	01c12703          	lw	a4,28(sp)
30002244:	fee6f8e3          	bgeu	a3,a4,30002234 <disk_write+0x12c>
30002248:	fff60613          	addi	a2,a2,-1
3000224c:	fa061ae3          	bnez	a2,30002200 <disk_write+0xf8>
30002250:	00100513          	li	a0,1
30002254:	08c0006f          	j	300022e0 <disk_write+0x1d8>
30002258:	00300513          	li	a0,3
3000225c:	03c12083          	lw	ra,60(sp)
30002260:	03812403          	lw	s0,56(sp)
30002264:	03412483          	lw	s1,52(sp)
30002268:	03012903          	lw	s2,48(sp)
3000226c:	02c12983          	lw	s3,44(sp)
30002270:	02812a03          	lw	s4,40(sp)
30002274:	02412a83          	lw	s5,36(sp)
30002278:	04010113          	addi	sp,sp,64
3000227c:	00008067          	ret
30002280:	00c7a703          	lw	a4,12(a5)
30002284:	00177713          	andi	a4,a4,1
30002288:	fe070ce3          	beqz	a4,30002280 <disk_write+0x178>
3000228c:	0fd00713          	li	a4,253
30002290:	00e7a423          	sw	a4,8(a5)
30002294:	01303533          	snez	a0,s3
30002298:	0480006f          	j	300022e0 <disk_write+0x1d8>
3000229c:	0fc00593          	li	a1,252
300022a0:	00040513          	mv	a0,s0
300022a4:	e34ff0ef          	jal	ra,300018d8 <xmit_datablock.part.1>
300022a8:	00050a63          	beqz	a0,300022bc <disk_write+0x1b4>
300022ac:	fff98993          	addi	s3,s3,-1
300022b0:	0ff9f993          	andi	s3,s3,255
300022b4:	20040413          	addi	s0,s0,512
300022b8:	ee0990e3          	bnez	s3,30002198 <disk_write+0x90>
300022bc:	770a2783          	lw	a5,1904(s4)
300022c0:	f31ff06f          	j	300021f0 <disk_write+0xe8>
300022c4:	00060593          	mv	a1,a2
300022c8:	01800513          	li	a0,24
300022cc:	fd4ff0ef          	jal	ra,30001aa0 <send_cmd>
300022d0:	06050c63          	beqz	a0,30002348 <disk_write+0x240>
300022d4:	3000e7b7          	lui	a5,0x3000e
300022d8:	7707a783          	lw	a5,1904(a5) # 3000e770 <spi0>
300022dc:	00100513          	li	a0,1
300022e0:	3000e737          	lui	a4,0x3000e
300022e4:	78472683          	lw	a3,1924(a4) # 3000e784 <bsp>
300022e8:	0146a703          	lw	a4,20(a3)
300022ec:	00176713          	ori	a4,a4,1
300022f0:	00e6aa23          	sw	a4,20(a3)
300022f4:	00c7a703          	lw	a4,12(a5)
300022f8:	00177713          	andi	a4,a4,1
300022fc:	fe070ce3          	beqz	a4,300022f4 <disk_write+0x1ec>
30002300:	0ff00713          	li	a4,255
30002304:	00e7a423          	sw	a4,8(a5)
30002308:	00c7a703          	lw	a4,12(a5)
3000230c:	00177713          	andi	a4,a4,1
30002310:	fe070ce3          	beqz	a4,30002308 <disk_write+0x200>
30002314:	0087a783          	lw	a5,8(a5)
30002318:	f45ff06f          	j	3000225c <disk_write+0x154>
3000231c:	3000e7b7          	lui	a5,0x3000e
30002320:	00300713          	li	a4,3
30002324:	78e78423          	sb	a4,1928(a5) # 3000e788 <Stat>
30002328:	00300513          	li	a0,3
3000232c:	00008067          	ret
30002330:	00098593          	mv	a1,s3
30002334:	09700513          	li	a0,151
30002338:	00c12623          	sw	a2,12(sp)
3000233c:	f64ff0ef          	jal	ra,30001aa0 <send_cmd>
30002340:	00c12603          	lw	a2,12(sp)
30002344:	e35ff06f          	j	30002178 <disk_write+0x70>
30002348:	3000ea37          	lui	s4,0x3000e
3000234c:	770a2783          	lw	a5,1904(s4) # 3000e770 <spi0>
30002350:	00001637          	lui	a2,0x1
30002354:	38860613          	addi	a2,a2,904 # 1388 <stackPointer-0x46f8>
30002358:	0ff00593          	li	a1,255
3000235c:	7cf00693          	li	a3,1999
30002360:	00c7a703          	lw	a4,12(a5)
30002364:	00177713          	andi	a4,a4,1
30002368:	fe070ce3          	beqz	a4,30002360 <disk_write+0x258>
3000236c:	00b7a423          	sw	a1,8(a5)
30002370:	00c7a703          	lw	a4,12(a5)
30002374:	00177713          	andi	a4,a4,1
30002378:	fe070ce3          	beqz	a4,30002370 <disk_write+0x268>
3000237c:	0087a703          	lw	a4,8(a5)
30002380:	0ff77713          	andi	a4,a4,255
30002384:	02b70a63          	beq	a4,a1,300023b8 <disk_write+0x2b0>
30002388:	00012a23          	sw	zero,20(sp)
3000238c:	01412703          	lw	a4,20(sp)
30002390:	00e6ec63          	bltu	a3,a4,300023a8 <disk_write+0x2a0>
30002394:	01412703          	lw	a4,20(sp)
30002398:	00170713          	addi	a4,a4,1
3000239c:	00e12a23          	sw	a4,20(sp)
300023a0:	01412703          	lw	a4,20(sp)
300023a4:	fee6f8e3          	bgeu	a3,a4,30002394 <disk_write+0x28c>
300023a8:	fff60613          	addi	a2,a2,-1
300023ac:	fa061ae3          	bnez	a2,30002360 <disk_write+0x258>
300023b0:	00100513          	li	a0,1
300023b4:	f2dff06f          	j	300022e0 <disk_write+0x1d8>
300023b8:	0fe00593          	li	a1,254
300023bc:	00040513          	mv	a0,s0
300023c0:	d18ff0ef          	jal	ra,300018d8 <xmit_datablock.part.1>
300023c4:	00153513          	seqz	a0,a0
300023c8:	770a2783          	lw	a5,1904(s4)
300023cc:	f15ff06f          	j	300022e0 <disk_write+0x1d8>

300023d0 <disk_ioctl>:
300023d0:	08051e63          	bnez	a0,3000246c <disk_ioctl+0x9c>
300023d4:	3000e737          	lui	a4,0x3000e
300023d8:	78874783          	lbu	a5,1928(a4) # 3000e788 <Stat>
300023dc:	ff97f693          	andi	a3,a5,-7
300023e0:	78d70423          	sb	a3,1928(a4)
300023e4:	0017f793          	andi	a5,a5,1
300023e8:	08079863          	bnez	a5,30002478 <disk_ioctl+0xa8>
300023ec:	fd010113          	addi	sp,sp,-48
300023f0:	02112623          	sw	ra,44(sp)
300023f4:	02812423          	sw	s0,40(sp)
300023f8:	00100713          	li	a4,1
300023fc:	0ae58c63          	beq	a1,a4,300024b4 <disk_ioctl+0xe4>
30002400:	0e058063          	beqz	a1,300024e0 <disk_ioctl+0x110>
30002404:	00200793          	li	a5,2
30002408:	08f58863          	beq	a1,a5,30002498 <disk_ioctl+0xc8>
3000240c:	00300793          	li	a5,3
30002410:	06f59863          	bne	a1,a5,30002480 <disk_ioctl+0xb0>
30002414:	3000e7b7          	lui	a5,0x3000e
30002418:	7847a803          	lw	a6,1924(a5) # 3000e784 <bsp>
3000241c:	3000e7b7          	lui	a5,0x3000e
30002420:	7707a783          	lw	a5,1904(a5) # 3000e770 <spi0>
30002424:	00000513          	li	a0,0
30002428:	00e62023          	sw	a4,0(a2)
3000242c:	01482703          	lw	a4,20(a6)
30002430:	00176713          	ori	a4,a4,1
30002434:	00e82a23          	sw	a4,20(a6)
30002438:	00c7a703          	lw	a4,12(a5)
3000243c:	00177713          	andi	a4,a4,1
30002440:	fe070ce3          	beqz	a4,30002438 <disk_ioctl+0x68>
30002444:	0ff00713          	li	a4,255
30002448:	00e7a423          	sw	a4,8(a5)
3000244c:	00c7a703          	lw	a4,12(a5)
30002450:	00177713          	andi	a4,a4,1
30002454:	fe070ce3          	beqz	a4,3000244c <disk_ioctl+0x7c>
30002458:	02c12083          	lw	ra,44(sp)
3000245c:	02812403          	lw	s0,40(sp)
30002460:	0087a783          	lw	a5,8(a5)
30002464:	03010113          	addi	sp,sp,48
30002468:	00008067          	ret
3000246c:	3000e7b7          	lui	a5,0x3000e
30002470:	00300713          	li	a4,3
30002474:	78e78423          	sb	a4,1928(a5) # 3000e788 <Stat>
30002478:	00300513          	li	a0,3
3000247c:	00008067          	ret
30002480:	3000e7b7          	lui	a5,0x3000e
30002484:	7847a803          	lw	a6,1924(a5) # 3000e784 <bsp>
30002488:	3000e7b7          	lui	a5,0x3000e
3000248c:	7707a783          	lw	a5,1904(a5) # 3000e770 <spi0>
30002490:	00400513          	li	a0,4
30002494:	f99ff06f          	j	3000242c <disk_ioctl+0x5c>
30002498:	02c12083          	lw	ra,44(sp)
3000249c:	02812403          	lw	s0,40(sp)
300024a0:	20000793          	li	a5,512
300024a4:	00f61023          	sh	a5,0(a2)
300024a8:	00000513          	li	a0,0
300024ac:	03010113          	addi	sp,sp,48
300024b0:	00008067          	ret
300024b4:	00000593          	li	a1,0
300024b8:	00900513          	li	a0,9
300024bc:	00060413          	mv	s0,a2
300024c0:	de0ff0ef          	jal	ra,30001aa0 <send_cmd>
300024c4:	10050463          	beqz	a0,300025cc <disk_ioctl+0x1fc>
300024c8:	3000e7b7          	lui	a5,0x3000e
300024cc:	7847a803          	lw	a6,1924(a5) # 3000e784 <bsp>
300024d0:	3000e7b7          	lui	a5,0x3000e
300024d4:	7707a783          	lw	a5,1904(a5) # 3000e770 <spi0>
300024d8:	00100513          	li	a0,1
300024dc:	f51ff06f          	j	3000242c <disk_ioctl+0x5c>
300024e0:	3000e7b7          	lui	a5,0x3000e
300024e4:	7847a803          	lw	a6,1924(a5) # 3000e784 <bsp>
300024e8:	3000e7b7          	lui	a5,0x3000e
300024ec:	7707a783          	lw	a5,1904(a5) # 3000e770 <spi0>
300024f0:	01482703          	lw	a4,20(a6)
300024f4:	00001637          	lui	a2,0x1
300024f8:	38860613          	addi	a2,a2,904 # 1388 <stackPointer-0x46f8>
300024fc:	ffe77713          	andi	a4,a4,-2
30002500:	00e82a23          	sw	a4,20(a6)
30002504:	0ff00593          	li	a1,255
30002508:	7cf00693          	li	a3,1999
3000250c:	00c7a703          	lw	a4,12(a5)
30002510:	00177713          	andi	a4,a4,1
30002514:	fe070ce3          	beqz	a4,3000250c <disk_ioctl+0x13c>
30002518:	00b7a423          	sw	a1,8(a5)
3000251c:	00c7a703          	lw	a4,12(a5)
30002520:	00177713          	andi	a4,a4,1
30002524:	fe070ce3          	beqz	a4,3000251c <disk_ioctl+0x14c>
30002528:	0087a703          	lw	a4,8(a5)
3000252c:	0ff77713          	andi	a4,a4,255
30002530:	06b70263          	beq	a4,a1,30002594 <disk_ioctl+0x1c4>
30002534:	00012423          	sw	zero,8(sp)
30002538:	00812703          	lw	a4,8(sp)
3000253c:	00e6ec63          	bltu	a3,a4,30002554 <disk_ioctl+0x184>
30002540:	00812703          	lw	a4,8(sp)
30002544:	00170713          	addi	a4,a4,1
30002548:	00e12423          	sw	a4,8(sp)
3000254c:	00812703          	lw	a4,8(sp)
30002550:	fee6f8e3          	bgeu	a3,a4,30002540 <disk_ioctl+0x170>
30002554:	fff60613          	addi	a2,a2,-1
30002558:	fa061ae3          	bnez	a2,3000250c <disk_ioctl+0x13c>
3000255c:	01482703          	lw	a4,20(a6)
30002560:	00176713          	ori	a4,a4,1
30002564:	00e82a23          	sw	a4,20(a6)
30002568:	00c7a703          	lw	a4,12(a5)
3000256c:	00177713          	andi	a4,a4,1
30002570:	fe070ce3          	beqz	a4,30002568 <disk_ioctl+0x198>
30002574:	0ff00713          	li	a4,255
30002578:	00e7a423          	sw	a4,8(a5)
3000257c:	00c7a703          	lw	a4,12(a5)
30002580:	00177713          	andi	a4,a4,1
30002584:	fe070ce3          	beqz	a4,3000257c <disk_ioctl+0x1ac>
30002588:	0087a703          	lw	a4,8(a5)
3000258c:	00100513          	li	a0,1
30002590:	e9dff06f          	j	3000242c <disk_ioctl+0x5c>
30002594:	01482703          	lw	a4,20(a6)
30002598:	00176713          	ori	a4,a4,1
3000259c:	00e82a23          	sw	a4,20(a6)
300025a0:	00c7a703          	lw	a4,12(a5)
300025a4:	00177713          	andi	a4,a4,1
300025a8:	fe070ce3          	beqz	a4,300025a0 <disk_ioctl+0x1d0>
300025ac:	0ff00713          	li	a4,255
300025b0:	00e7a423          	sw	a4,8(a5)
300025b4:	00c7a703          	lw	a4,12(a5)
300025b8:	00177713          	andi	a4,a4,1
300025bc:	fe070ce3          	beqz	a4,300025b4 <disk_ioctl+0x1e4>
300025c0:	0087a703          	lw	a4,8(a5)
300025c4:	00000513          	li	a0,0
300025c8:	e65ff06f          	j	3000242c <disk_ioctl+0x5c>
300025cc:	3000e7b7          	lui	a5,0x3000e
300025d0:	7707a783          	lw	a5,1904(a5) # 3000e770 <spi0>
300025d4:	3e800613          	li	a2,1000
300025d8:	0ff00593          	li	a1,255
300025dc:	7cf00693          	li	a3,1999
300025e0:	00c7a703          	lw	a4,12(a5)
300025e4:	00177713          	andi	a4,a4,1
300025e8:	fe070ce3          	beqz	a4,300025e0 <disk_ioctl+0x210>
300025ec:	00b7a423          	sw	a1,8(a5)
300025f0:	00c7a703          	lw	a4,12(a5)
300025f4:	00177713          	andi	a4,a4,1
300025f8:	fe070ce3          	beqz	a4,300025f0 <disk_ioctl+0x220>
300025fc:	0087a703          	lw	a4,8(a5)
30002600:	0ff77713          	andi	a4,a4,255
30002604:	02b71e63          	bne	a4,a1,30002640 <disk_ioctl+0x270>
30002608:	00012623          	sw	zero,12(sp)
3000260c:	00c12703          	lw	a4,12(sp)
30002610:	00e6ec63          	bltu	a3,a4,30002628 <disk_ioctl+0x258>
30002614:	00c12703          	lw	a4,12(sp)
30002618:	00170713          	addi	a4,a4,1
3000261c:	00e12623          	sw	a4,12(sp)
30002620:	00c12703          	lw	a4,12(sp)
30002624:	fee6f8e3          	bgeu	a3,a4,30002614 <disk_ioctl+0x244>
30002628:	fff60613          	addi	a2,a2,-1
3000262c:	fa061ae3          	bnez	a2,300025e0 <disk_ioctl+0x210>
30002630:	3000e737          	lui	a4,0x3000e
30002634:	78472803          	lw	a6,1924(a4) # 3000e784 <bsp>
30002638:	00100513          	li	a0,1
3000263c:	df1ff06f          	j	3000242c <disk_ioctl+0x5c>
30002640:	00e10423          	sb	a4,8(sp)
30002644:	0fe00693          	li	a3,254
30002648:	fed714e3          	bne	a4,a3,30002630 <disk_ioctl+0x260>
3000264c:	01010693          	addi	a3,sp,16
30002650:	0ff00613          	li	a2,255
30002654:	00c7a703          	lw	a4,12(a5)
30002658:	00177713          	andi	a4,a4,1
3000265c:	fe070ce3          	beqz	a4,30002654 <disk_ioctl+0x284>
30002660:	00c7a423          	sw	a2,8(a5)
30002664:	00c7a703          	lw	a4,12(a5)
30002668:	00177713          	andi	a4,a4,1
3000266c:	fe070ce3          	beqz	a4,30002664 <disk_ioctl+0x294>
30002670:	0087a703          	lw	a4,8(a5)
30002674:	00168693          	addi	a3,a3,1
30002678:	fee68fa3          	sb	a4,-1(a3)
3000267c:	02010713          	addi	a4,sp,32
30002680:	fce69ae3          	bne	a3,a4,30002654 <disk_ioctl+0x284>
30002684:	00810693          	addi	a3,sp,8
30002688:	00a10593          	addi	a1,sp,10
3000268c:	0ff00613          	li	a2,255
30002690:	00c7a703          	lw	a4,12(a5)
30002694:	00177713          	andi	a4,a4,1
30002698:	fe070ce3          	beqz	a4,30002690 <disk_ioctl+0x2c0>
3000269c:	00c7a423          	sw	a2,8(a5)
300026a0:	00c7a703          	lw	a4,12(a5)
300026a4:	00177713          	andi	a4,a4,1
300026a8:	fe070ce3          	beqz	a4,300026a0 <disk_ioctl+0x2d0>
300026ac:	0087a703          	lw	a4,8(a5)
300026b0:	00168693          	addi	a3,a3,1
300026b4:	fee68fa3          	sb	a4,-1(a3)
300026b8:	fcb69ce3          	bne	a3,a1,30002690 <disk_ioctl+0x2c0>
300026bc:	01014703          	lbu	a4,16(sp)
300026c0:	3000e537          	lui	a0,0x3000e
300026c4:	00100693          	li	a3,1
300026c8:	00675713          	srli	a4,a4,0x6
300026cc:	01914603          	lbu	a2,25(sp)
300026d0:	01814583          	lbu	a1,24(sp)
300026d4:	78452803          	lw	a6,1924(a0) # 3000e784 <bsp>
300026d8:	06d70663          	beq	a4,a3,30002744 <disk_ioctl+0x374>
300026dc:	01714703          	lbu	a4,23(sp)
300026e0:	01614503          	lbu	a0,22(sp)
300026e4:	01a14883          	lbu	a7,26(sp)
300026e8:	0065d593          	srli	a1,a1,0x6
300026ec:	01514683          	lbu	a3,21(sp)
300026f0:	00271713          	slli	a4,a4,0x2
300026f4:	00b70733          	add	a4,a4,a1
300026f8:	00a51593          	slli	a1,a0,0xa
300026fc:	0078d513          	srli	a0,a7,0x7
30002700:	000018b7          	lui	a7,0x1
30002704:	c0088893          	addi	a7,a7,-1024 # c00 <stackPointer-0x4e80>
30002708:	00f6f693          	andi	a3,a3,15
3000270c:	00161613          	slli	a2,a2,0x1
30002710:	00170713          	addi	a4,a4,1
30002714:	0115f5b3          	and	a1,a1,a7
30002718:	00a686b3          	add	a3,a3,a0
3000271c:	00667613          	andi	a2,a2,6
30002720:	00b70733          	add	a4,a4,a1
30002724:	00c686b3          	add	a3,a3,a2
30002728:	01071713          	slli	a4,a4,0x10
3000272c:	01075713          	srli	a4,a4,0x10
30002730:	ff968693          	addi	a3,a3,-7
30002734:	00d71733          	sll	a4,a4,a3
30002738:	00e42023          	sw	a4,0(s0)
3000273c:	00000513          	li	a0,0
30002740:	cedff06f          	j	3000242c <disk_ioctl+0x5c>
30002744:	00859713          	slli	a4,a1,0x8
30002748:	00160613          	addi	a2,a2,1
3000274c:	00c70733          	add	a4,a4,a2
30002750:	01071713          	slli	a4,a4,0x10
30002754:	01075713          	srli	a4,a4,0x10
30002758:	00a71713          	slli	a4,a4,0xa
3000275c:	00e42023          	sw	a4,0(s0)
30002760:	00000513          	li	a0,0
30002764:	cc9ff06f          	j	3000242c <disk_ioctl+0x5c>

30002768 <ff_convert>:
30002768:	07f00793          	li	a5,127
3000276c:	04a7fa63          	bgeu	a5,a0,300027c0 <ff_convert+0x58>
30002770:	04059263          	bnez	a1,300027b4 <ff_convert+0x4c>
30002774:	3000e7b7          	lui	a5,0x3000e
30002778:	0e878793          	addi	a5,a5,232 # 3000e0e8 <Tbl>
3000277c:	00000713          	li	a4,0
30002780:	08000593          	li	a1,128
30002784:	0100006f          	j	30002794 <ff_convert+0x2c>
30002788:	01061713          	slli	a4,a2,0x10
3000278c:	01075713          	srli	a4,a4,0x10
30002790:	02b70663          	beq	a4,a1,300027bc <ff_convert+0x54>
30002794:	0007d683          	lhu	a3,0(a5)
30002798:	00170613          	addi	a2,a4,1
3000279c:	00278793          	addi	a5,a5,2
300027a0:	fea694e3          	bne	a3,a0,30002788 <ff_convert+0x20>
300027a4:	08070713          	addi	a4,a4,128
300027a8:	01071513          	slli	a0,a4,0x10
300027ac:	01055513          	srli	a0,a0,0x10
300027b0:	00008067          	ret
300027b4:	0ff00793          	li	a5,255
300027b8:	00a7f663          	bgeu	a5,a0,300027c4 <ff_convert+0x5c>
300027bc:	00000513          	li	a0,0
300027c0:	00008067          	ret
300027c4:	f8050713          	addi	a4,a0,-128
300027c8:	3000e7b7          	lui	a5,0x3000e
300027cc:	0e878793          	addi	a5,a5,232 # 3000e0e8 <Tbl>
300027d0:	00171713          	slli	a4,a4,0x1
300027d4:	00e78733          	add	a4,a5,a4
300027d8:	00075503          	lhu	a0,0(a4)
300027dc:	00008067          	ret

300027e0 <ff_wtoupper>:
300027e0:	000017b7          	lui	a5,0x1
300027e4:	02f56e63          	bltu	a0,a5,30002820 <ff_wtoupper+0x40>
300027e8:	3000e737          	lui	a4,0x3000e
300027ec:	3dc70713          	addi	a4,a4,988 # 3000e3dc <cvt2.1706>
300027f0:	0240006f          	j	30002814 <ff_wtoupper+0x34>
300027f4:	02d56463          	bltu	a0,a3,3000281c <ff_wtoupper+0x3c>
300027f8:	00470713          	addi	a4,a4,4
300027fc:	ffe75783          	lhu	a5,-2(a4)
30002800:	0ff7f613          	andi	a2,a5,255
30002804:	00d605b3          	add	a1,a2,a3
30002808:	0087d793          	srli	a5,a5,0x8
3000280c:	02b54063          	blt	a0,a1,3000282c <ff_wtoupper+0x4c>
30002810:	02078e63          	beqz	a5,3000284c <ff_wtoupper+0x6c>
30002814:	00075683          	lhu	a3,0(a4)
30002818:	fc069ee3          	bnez	a3,300027f4 <ff_wtoupper+0x14>
3000281c:	00008067          	ret
30002820:	3000e737          	lui	a4,0x3000e
30002824:	1e870713          	addi	a4,a4,488 # 3000e1e8 <cvt1.1705>
30002828:	fedff06f          	j	30002814 <ff_wtoupper+0x34>
3000282c:	00800613          	li	a2,8
30002830:	fef666e3          	bltu	a2,a5,3000281c <ff_wtoupper+0x3c>
30002834:	3000e637          	lui	a2,0x3000e
30002838:	00279793          	slli	a5,a5,0x2
3000283c:	0c460613          	addi	a2,a2,196 # 3000e0c4 <HIDKeysShifted+0x54>
30002840:	00c787b3          	add	a5,a5,a2
30002844:	0007a783          	lw	a5,0(a5) # 1000 <stackPointer-0x4a80>
30002848:	00078067          	jr	a5
3000284c:	00161613          	slli	a2,a2,0x1
30002850:	00c70733          	add	a4,a4,a2
30002854:	fc1ff06f          	j	30002814 <ff_wtoupper+0x34>
30002858:	fb050513          	addi	a0,a0,-80
3000285c:	01051513          	slli	a0,a0,0x10
30002860:	01055513          	srli	a0,a0,0x10
30002864:	00008067          	ret
30002868:	ffffe7b7          	lui	a5,0xffffe
3000286c:	3a078793          	addi	a5,a5,928 # ffffe3a0 <__bss_end__+0xcfefe3a0>
30002870:	00f50533          	add	a0,a0,a5
30002874:	01051513          	slli	a0,a0,0x10
30002878:	01055513          	srli	a0,a0,0x10
3000287c:	00008067          	ret
30002880:	40d507b3          	sub	a5,a0,a3
30002884:	00179793          	slli	a5,a5,0x1
30002888:	00f70733          	add	a4,a4,a5
3000288c:	00075503          	lhu	a0,0(a4)
30002890:	00008067          	ret
30002894:	40d506b3          	sub	a3,a0,a3
30002898:	0016f793          	andi	a5,a3,1
3000289c:	40f50533          	sub	a0,a0,a5
300028a0:	01051513          	slli	a0,a0,0x10
300028a4:	01055513          	srli	a0,a0,0x10
300028a8:	00008067          	ret
300028ac:	ff050513          	addi	a0,a0,-16
300028b0:	01051513          	slli	a0,a0,0x10
300028b4:	01055513          	srli	a0,a0,0x10
300028b8:	00008067          	ret
300028bc:	fe050513          	addi	a0,a0,-32
300028c0:	01051513          	slli	a0,a0,0x10
300028c4:	01055513          	srli	a0,a0,0x10
300028c8:	00008067          	ret
300028cc:	fd050513          	addi	a0,a0,-48
300028d0:	01051513          	slli	a0,a0,0x10
300028d4:	01055513          	srli	a0,a0,0x10
300028d8:	00008067          	ret
300028dc:	fe650513          	addi	a0,a0,-26
300028e0:	01051513          	slli	a0,a0,0x10
300028e4:	01055513          	srli	a0,a0,0x10
300028e8:	00008067          	ret
300028ec:	00850513          	addi	a0,a0,8
300028f0:	01051513          	slli	a0,a0,0x10
300028f4:	01055513          	srli	a0,a0,0x10
300028f8:	00008067          	ret

300028fc <get_fileinfo>:
300028fc:	01052783          	lw	a5,16(a0)
30002900:	fe010113          	addi	sp,sp,-32
30002904:	00112e23          	sw	ra,28(sp)
30002908:	00812c23          	sw	s0,24(sp)
3000290c:	00912a23          	sw	s1,20(sp)
30002910:	01212823          	sw	s2,16(sp)
30002914:	01312623          	sw	s3,12(sp)
30002918:	00958713          	addi	a4,a1,9 # 40000009 <__bss_end__+0xff00009>
3000291c:	1a078863          	beqz	a5,30002acc <get_fileinfo+0x1d0>
30002920:	01452783          	lw	a5,20(a0)
30002924:	00c7c683          	lbu	a3,12(a5)
30002928:	0086f613          	andi	a2,a3,8
3000292c:	22061c63          	bnez	a2,30002b64 <get_fileinfo+0x268>
30002930:	0007c603          	lbu	a2,0(a5)
30002934:	02000813          	li	a6,32
30002938:	0f060463          	beq	a2,a6,30002a20 <get_fileinfo+0x124>
3000293c:	00500713          	li	a4,5
30002940:	42e60663          	beq	a2,a4,30002d6c <get_fileinfo+0x470>
30002944:	00c584a3          	sb	a2,9(a1)
30002948:	0017c603          	lbu	a2,1(a5)
3000294c:	02000813          	li	a6,32
30002950:	00a58713          	addi	a4,a1,10
30002954:	0d060663          	beq	a2,a6,30002a20 <get_fileinfo+0x124>
30002958:	00500713          	li	a4,5
3000295c:	42e60063          	beq	a2,a4,30002d7c <get_fileinfo+0x480>
30002960:	00c58523          	sb	a2,10(a1)
30002964:	0027c603          	lbu	a2,2(a5)
30002968:	02000813          	li	a6,32
3000296c:	00b58713          	addi	a4,a1,11
30002970:	0b060863          	beq	a2,a6,30002a20 <get_fileinfo+0x124>
30002974:	00500713          	li	a4,5
30002978:	40e60663          	beq	a2,a4,30002d84 <get_fileinfo+0x488>
3000297c:	00c585a3          	sb	a2,11(a1)
30002980:	0037c603          	lbu	a2,3(a5)
30002984:	02000813          	li	a6,32
30002988:	00c58713          	addi	a4,a1,12
3000298c:	09060a63          	beq	a2,a6,30002a20 <get_fileinfo+0x124>
30002990:	00500713          	li	a4,5
30002994:	00e61463          	bne	a2,a4,3000299c <get_fileinfo+0xa0>
30002998:	0e500613          	li	a2,229
3000299c:	00c58623          	sb	a2,12(a1)
300029a0:	0047c603          	lbu	a2,4(a5)
300029a4:	02000813          	li	a6,32
300029a8:	00d58713          	addi	a4,a1,13
300029ac:	07060a63          	beq	a2,a6,30002a20 <get_fileinfo+0x124>
300029b0:	00500713          	li	a4,5
300029b4:	00e61463          	bne	a2,a4,300029bc <get_fileinfo+0xc0>
300029b8:	0e500613          	li	a2,229
300029bc:	00c586a3          	sb	a2,13(a1)
300029c0:	0057c603          	lbu	a2,5(a5)
300029c4:	02000813          	li	a6,32
300029c8:	00e58713          	addi	a4,a1,14
300029cc:	05060a63          	beq	a2,a6,30002a20 <get_fileinfo+0x124>
300029d0:	00500713          	li	a4,5
300029d4:	00e61463          	bne	a2,a4,300029dc <get_fileinfo+0xe0>
300029d8:	0e500613          	li	a2,229
300029dc:	00c58723          	sb	a2,14(a1)
300029e0:	0067c603          	lbu	a2,6(a5)
300029e4:	02000813          	li	a6,32
300029e8:	00f58713          	addi	a4,a1,15
300029ec:	03060a63          	beq	a2,a6,30002a20 <get_fileinfo+0x124>
300029f0:	00500713          	li	a4,5
300029f4:	00e61463          	bne	a2,a4,300029fc <get_fileinfo+0x100>
300029f8:	0e500613          	li	a2,229
300029fc:	00c587a3          	sb	a2,15(a1)
30002a00:	0077c603          	lbu	a2,7(a5)
30002a04:	02000813          	li	a6,32
30002a08:	01058713          	addi	a4,a1,16
30002a0c:	01060a63          	beq	a2,a6,30002a20 <get_fileinfo+0x124>
30002a10:	00500713          	li	a4,5
30002a14:	36e60c63          	beq	a2,a4,30002d8c <get_fileinfo+0x490>
30002a18:	01158713          	addi	a4,a1,17
30002a1c:	00c58823          	sb	a2,16(a1)
30002a20:	0087c803          	lbu	a6,8(a5)
30002a24:	02000613          	li	a2,32
30002a28:	04c80463          	beq	a6,a2,30002a70 <get_fileinfo+0x174>
30002a2c:	02e00813          	li	a6,46
30002a30:	01070023          	sb	a6,0(a4)
30002a34:	0106f693          	andi	a3,a3,16
30002a38:	00170813          	addi	a6,a4,1
30002a3c:	2c069263          	bnez	a3,30002d00 <get_fileinfo+0x404>
30002a40:	0087c683          	lbu	a3,8(a5)
30002a44:	38c68063          	beq	a3,a2,30002dc4 <get_fileinfo+0x4c8>
30002a48:	00d700a3          	sb	a3,1(a4)
30002a4c:	0097c683          	lbu	a3,9(a5)
30002a50:	00270813          	addi	a6,a4,2
30002a54:	36c68863          	beq	a3,a2,30002dc4 <get_fileinfo+0x4c8>
30002a58:	00d70123          	sb	a3,2(a4)
30002a5c:	00a7c683          	lbu	a3,10(a5)
30002a60:	00370813          	addi	a6,a4,3
30002a64:	36c68063          	beq	a3,a2,30002dc4 <get_fileinfo+0x4c8>
30002a68:	00d701a3          	sb	a3,3(a4)
30002a6c:	00470713          	addi	a4,a4,4
30002a70:	00b7c683          	lbu	a3,11(a5)
30002a74:	00d58423          	sb	a3,8(a1)
30002a78:	01d7c803          	lbu	a6,29(a5)
30002a7c:	01c7c883          	lbu	a7,28(a5)
30002a80:	01e7c603          	lbu	a2,30(a5)
30002a84:	01f7c683          	lbu	a3,31(a5)
30002a88:	00881813          	slli	a6,a6,0x8
30002a8c:	01186833          	or	a6,a6,a7
30002a90:	01061613          	slli	a2,a2,0x10
30002a94:	01066633          	or	a2,a2,a6
30002a98:	01869693          	slli	a3,a3,0x18
30002a9c:	00c6e6b3          	or	a3,a3,a2
30002aa0:	00d5a023          	sw	a3,0(a1)
30002aa4:	0197c683          	lbu	a3,25(a5)
30002aa8:	0187c603          	lbu	a2,24(a5)
30002aac:	00869693          	slli	a3,a3,0x8
30002ab0:	00c6e6b3          	or	a3,a3,a2
30002ab4:	00d59223          	sh	a3,4(a1)
30002ab8:	0177c683          	lbu	a3,23(a5)
30002abc:	0167c603          	lbu	a2,22(a5)
30002ac0:	00869793          	slli	a5,a3,0x8
30002ac4:	00c7e7b3          	or	a5,a5,a2
30002ac8:	00f59323          	sh	a5,6(a1)
30002acc:	00070023          	sb	zero,0(a4)
30002ad0:	0185a983          	lw	s3,24(a1)
30002ad4:	06098a63          	beqz	s3,30002b48 <get_fileinfo+0x24c>
30002ad8:	01c5a783          	lw	a5,28(a1)
30002adc:	06078663          	beqz	a5,30002b48 <get_fileinfo+0x24c>
30002ae0:	01052783          	lw	a5,16(a0)
30002ae4:	06078063          	beqz	a5,30002b44 <get_fileinfo+0x248>
30002ae8:	02055703          	lhu	a4,32(a0)
30002aec:	000107b7          	lui	a5,0x10
30002af0:	fff78793          	addi	a5,a5,-1 # ffff <stackPointer+0xa57f>
30002af4:	04f70863          	beq	a4,a5,30002b44 <get_fileinfo+0x248>
30002af8:	01c52903          	lw	s2,28(a0)
30002afc:	00095503          	lhu	a0,0(s2)
30002b00:	00290913          	addi	s2,s2,2
30002b04:	04050063          	beqz	a0,30002b44 <get_fileinfo+0x248>
30002b08:	00058413          	mv	s0,a1
30002b0c:	00000493          	li	s1,0
30002b10:	0240006f          	j	30002b34 <get_fileinfo+0x238>
30002b14:	01c42783          	lw	a5,28(s0)
30002b18:	fff78793          	addi	a5,a5,-1
30002b1c:	02f4f463          	bgeu	s1,a5,30002b44 <get_fileinfo+0x248>
30002b20:	00148493          	addi	s1,s1,1
30002b24:	009987b3          	add	a5,s3,s1
30002b28:	fea78fa3          	sb	a0,-1(a5)
30002b2c:	ffe95503          	lhu	a0,-2(s2)
30002b30:	2a050a63          	beqz	a0,30002de4 <get_fileinfo+0x4e8>
30002b34:	00000593          	li	a1,0
30002b38:	00290913          	addi	s2,s2,2
30002b3c:	c2dff0ef          	jal	ra,30002768 <ff_convert>
30002b40:	fc051ae3          	bnez	a0,30002b14 <get_fileinfo+0x218>
30002b44:	00098023          	sb	zero,0(s3)
30002b48:	01c12083          	lw	ra,28(sp)
30002b4c:	01812403          	lw	s0,24(sp)
30002b50:	01412483          	lw	s1,20(sp)
30002b54:	01012903          	lw	s2,16(sp)
30002b58:	00c12983          	lw	s3,12(sp)
30002b5c:	02010113          	addi	sp,sp,32
30002b60:	00008067          	ret
30002b64:	0007c603          	lbu	a2,0(a5)
30002b68:	02000813          	li	a6,32
30002b6c:	eb060ae3          	beq	a2,a6,30002a20 <get_fileinfo+0x124>
30002b70:	00500713          	li	a4,5
30002b74:	20e60063          	beq	a2,a4,30002d74 <get_fileinfo+0x478>
30002b78:	fbf60713          	addi	a4,a2,-65
30002b7c:	0ff77713          	andi	a4,a4,255
30002b80:	01900813          	li	a6,25
30002b84:	00e86663          	bltu	a6,a4,30002b90 <get_fileinfo+0x294>
30002b88:	02060613          	addi	a2,a2,32
30002b8c:	0ff67613          	andi	a2,a2,255
30002b90:	00c584a3          	sb	a2,9(a1)
30002b94:	0017c603          	lbu	a2,1(a5)
30002b98:	02000813          	li	a6,32
30002b9c:	00a58713          	addi	a4,a1,10
30002ba0:	e90600e3          	beq	a2,a6,30002a20 <get_fileinfo+0x124>
30002ba4:	00500713          	li	a4,5
30002ba8:	1ee60663          	beq	a2,a4,30002d94 <get_fileinfo+0x498>
30002bac:	fbf60713          	addi	a4,a2,-65
30002bb0:	0ff77713          	andi	a4,a4,255
30002bb4:	01900813          	li	a6,25
30002bb8:	00e86663          	bltu	a6,a4,30002bc4 <get_fileinfo+0x2c8>
30002bbc:	02060613          	addi	a2,a2,32
30002bc0:	0ff67613          	andi	a2,a2,255
30002bc4:	00c58523          	sb	a2,10(a1)
30002bc8:	0027c603          	lbu	a2,2(a5)
30002bcc:	02000813          	li	a6,32
30002bd0:	00b58713          	addi	a4,a1,11
30002bd4:	e50606e3          	beq	a2,a6,30002a20 <get_fileinfo+0x124>
30002bd8:	00500713          	li	a4,5
30002bdc:	1ce60063          	beq	a2,a4,30002d9c <get_fileinfo+0x4a0>
30002be0:	fbf60713          	addi	a4,a2,-65
30002be4:	0ff77713          	andi	a4,a4,255
30002be8:	01900813          	li	a6,25
30002bec:	00e86663          	bltu	a6,a4,30002bf8 <get_fileinfo+0x2fc>
30002bf0:	02060613          	addi	a2,a2,32
30002bf4:	0ff67613          	andi	a2,a2,255
30002bf8:	00c585a3          	sb	a2,11(a1)
30002bfc:	0037c603          	lbu	a2,3(a5)
30002c00:	02000813          	li	a6,32
30002c04:	00c58713          	addi	a4,a1,12
30002c08:	e1060ce3          	beq	a2,a6,30002a20 <get_fileinfo+0x124>
30002c0c:	00500713          	li	a4,5
30002c10:	18e60a63          	beq	a2,a4,30002da4 <get_fileinfo+0x4a8>
30002c14:	fbf60713          	addi	a4,a2,-65
30002c18:	0ff77713          	andi	a4,a4,255
30002c1c:	01900813          	li	a6,25
30002c20:	00e86663          	bltu	a6,a4,30002c2c <get_fileinfo+0x330>
30002c24:	02060613          	addi	a2,a2,32
30002c28:	0ff67613          	andi	a2,a2,255
30002c2c:	00c58623          	sb	a2,12(a1)
30002c30:	0047c603          	lbu	a2,4(a5)
30002c34:	02000813          	li	a6,32
30002c38:	00d58713          	addi	a4,a1,13
30002c3c:	df0602e3          	beq	a2,a6,30002a20 <get_fileinfo+0x124>
30002c40:	00500713          	li	a4,5
30002c44:	16e60463          	beq	a2,a4,30002dac <get_fileinfo+0x4b0>
30002c48:	fbf60713          	addi	a4,a2,-65
30002c4c:	0ff77713          	andi	a4,a4,255
30002c50:	01900813          	li	a6,25
30002c54:	00e86663          	bltu	a6,a4,30002c60 <get_fileinfo+0x364>
30002c58:	02060613          	addi	a2,a2,32
30002c5c:	0ff67613          	andi	a2,a2,255
30002c60:	00c586a3          	sb	a2,13(a1)
30002c64:	0057c603          	lbu	a2,5(a5)
30002c68:	02000813          	li	a6,32
30002c6c:	00e58713          	addi	a4,a1,14
30002c70:	db0608e3          	beq	a2,a6,30002a20 <get_fileinfo+0x124>
30002c74:	00500713          	li	a4,5
30002c78:	12e60e63          	beq	a2,a4,30002db4 <get_fileinfo+0x4b8>
30002c7c:	fbf60713          	addi	a4,a2,-65
30002c80:	0ff77713          	andi	a4,a4,255
30002c84:	01900813          	li	a6,25
30002c88:	00e86663          	bltu	a6,a4,30002c94 <get_fileinfo+0x398>
30002c8c:	02060613          	addi	a2,a2,32
30002c90:	0ff67613          	andi	a2,a2,255
30002c94:	00c58723          	sb	a2,14(a1)
30002c98:	0067c603          	lbu	a2,6(a5)
30002c9c:	02000813          	li	a6,32
30002ca0:	00f58713          	addi	a4,a1,15
30002ca4:	d7060ee3          	beq	a2,a6,30002a20 <get_fileinfo+0x124>
30002ca8:	00500713          	li	a4,5
30002cac:	10e60863          	beq	a2,a4,30002dbc <get_fileinfo+0x4c0>
30002cb0:	fbf60713          	addi	a4,a2,-65
30002cb4:	0ff77713          	andi	a4,a4,255
30002cb8:	01900813          	li	a6,25
30002cbc:	00e86663          	bltu	a6,a4,30002cc8 <get_fileinfo+0x3cc>
30002cc0:	02060613          	addi	a2,a2,32
30002cc4:	0ff67613          	andi	a2,a2,255
30002cc8:	00c587a3          	sb	a2,15(a1)
30002ccc:	0077c603          	lbu	a2,7(a5)
30002cd0:	02000813          	li	a6,32
30002cd4:	01058713          	addi	a4,a1,16
30002cd8:	d50604e3          	beq	a2,a6,30002a20 <get_fileinfo+0x124>
30002cdc:	00500713          	li	a4,5
30002ce0:	0ae60663          	beq	a2,a4,30002d8c <get_fileinfo+0x490>
30002ce4:	fbf60713          	addi	a4,a2,-65
30002ce8:	0ff77713          	andi	a4,a4,255
30002cec:	01900813          	li	a6,25
30002cf0:	d2e864e3          	bltu	a6,a4,30002a18 <get_fileinfo+0x11c>
30002cf4:	02060613          	addi	a2,a2,32
30002cf8:	0ff67613          	andi	a2,a2,255
30002cfc:	d1dff06f          	j	30002a18 <get_fileinfo+0x11c>
30002d00:	0087c683          	lbu	a3,8(a5)
30002d04:	0cc68063          	beq	a3,a2,30002dc4 <get_fileinfo+0x4c8>
30002d08:	fbf68613          	addi	a2,a3,-65
30002d0c:	0ff67613          	andi	a2,a2,255
30002d10:	01900813          	li	a6,25
30002d14:	0ac87c63          	bgeu	a6,a2,30002dcc <get_fileinfo+0x4d0>
30002d18:	00d700a3          	sb	a3,1(a4)
30002d1c:	0097c683          	lbu	a3,9(a5)
30002d20:	02000613          	li	a2,32
30002d24:	00270813          	addi	a6,a4,2
30002d28:	08c68e63          	beq	a3,a2,30002dc4 <get_fileinfo+0x4c8>
30002d2c:	fbf68613          	addi	a2,a3,-65
30002d30:	0ff67613          	andi	a2,a2,255
30002d34:	01900813          	li	a6,25
30002d38:	0ac87063          	bgeu	a6,a2,30002dd8 <get_fileinfo+0x4dc>
30002d3c:	00d70123          	sb	a3,2(a4)
30002d40:	00a7c683          	lbu	a3,10(a5)
30002d44:	02000613          	li	a2,32
30002d48:	00370813          	addi	a6,a4,3
30002d4c:	06c68c63          	beq	a3,a2,30002dc4 <get_fileinfo+0x4c8>
30002d50:	fbf68613          	addi	a2,a3,-65
30002d54:	0ff67613          	andi	a2,a2,255
30002d58:	01900813          	li	a6,25
30002d5c:	d0c866e3          	bltu	a6,a2,30002a68 <get_fileinfo+0x16c>
30002d60:	02068693          	addi	a3,a3,32
30002d64:	0ff6f693          	andi	a3,a3,255
30002d68:	d01ff06f          	j	30002a68 <get_fileinfo+0x16c>
30002d6c:	0e500613          	li	a2,229
30002d70:	bd5ff06f          	j	30002944 <get_fileinfo+0x48>
30002d74:	0e500613          	li	a2,229
30002d78:	e19ff06f          	j	30002b90 <get_fileinfo+0x294>
30002d7c:	0e500613          	li	a2,229
30002d80:	be1ff06f          	j	30002960 <get_fileinfo+0x64>
30002d84:	0e500613          	li	a2,229
30002d88:	bf5ff06f          	j	3000297c <get_fileinfo+0x80>
30002d8c:	0e500613          	li	a2,229
30002d90:	c89ff06f          	j	30002a18 <get_fileinfo+0x11c>
30002d94:	0e500613          	li	a2,229
30002d98:	e2dff06f          	j	30002bc4 <get_fileinfo+0x2c8>
30002d9c:	0e500613          	li	a2,229
30002da0:	e59ff06f          	j	30002bf8 <get_fileinfo+0x2fc>
30002da4:	0e500613          	li	a2,229
30002da8:	e85ff06f          	j	30002c2c <get_fileinfo+0x330>
30002dac:	0e500613          	li	a2,229
30002db0:	eb1ff06f          	j	30002c60 <get_fileinfo+0x364>
30002db4:	0e500613          	li	a2,229
30002db8:	eddff06f          	j	30002c94 <get_fileinfo+0x398>
30002dbc:	0e500613          	li	a2,229
30002dc0:	f09ff06f          	j	30002cc8 <get_fileinfo+0x3cc>
30002dc4:	00080713          	mv	a4,a6
30002dc8:	ca9ff06f          	j	30002a70 <get_fileinfo+0x174>
30002dcc:	02068693          	addi	a3,a3,32
30002dd0:	0ff6f693          	andi	a3,a3,255
30002dd4:	f45ff06f          	j	30002d18 <get_fileinfo+0x41c>
30002dd8:	02068693          	addi	a3,a3,32
30002ddc:	0ff6f693          	andi	a3,a3,255
30002de0:	f5dff06f          	j	30002d3c <get_fileinfo+0x440>
30002de4:	00078993          	mv	s3,a5
30002de8:	00098023          	sb	zero,0(s3)
30002dec:	d5dff06f          	j	30002b48 <get_fileinfo+0x24c>

30002df0 <move_window>:
30002df0:	fe010113          	addi	sp,sp,-32
30002df4:	00912a23          	sw	s1,20(sp)
30002df8:	02c52483          	lw	s1,44(a0)
30002dfc:	00112e23          	sw	ra,28(sp)
30002e00:	00812c23          	sw	s0,24(sp)
30002e04:	01212823          	sw	s2,16(sp)
30002e08:	01312623          	sw	s3,12(sp)
30002e0c:	01412423          	sw	s4,8(sp)
30002e10:	00b48c63          	beq	s1,a1,30002e28 <move_window+0x38>
30002e14:	00454783          	lbu	a5,4(a0)
30002e18:	00058993          	mv	s3,a1
30002e1c:	00050413          	mv	s0,a0
30002e20:	02079663          	bnez	a5,30002e4c <move_window+0x5c>
30002e24:	08099c63          	bnez	s3,30002ebc <move_window+0xcc>
30002e28:	01c12083          	lw	ra,28(sp)
30002e2c:	01812403          	lw	s0,24(sp)
30002e30:	01412483          	lw	s1,20(sp)
30002e34:	01012903          	lw	s2,16(sp)
30002e38:	00c12983          	lw	s3,12(sp)
30002e3c:	00812a03          	lw	s4,8(sp)
30002e40:	00000513          	li	a0,0
30002e44:	02010113          	addi	sp,sp,32
30002e48:	00008067          	ret
30002e4c:	00154503          	lbu	a0,1(a0)
30002e50:	03040a13          	addi	s4,s0,48
30002e54:	00100693          	li	a3,1
30002e58:	00048613          	mv	a2,s1
30002e5c:	000a0593          	mv	a1,s4
30002e60:	aa8ff0ef          	jal	ra,30002108 <disk_write>
30002e64:	08051a63          	bnez	a0,30002ef8 <move_window+0x108>
30002e68:	01c42783          	lw	a5,28(s0)
30002e6c:	02042703          	lw	a4,32(s0)
30002e70:	00040223          	sb	zero,4(s0)
30002e74:	00e78733          	add	a4,a5,a4
30002e78:	fae4f6e3          	bgeu	s1,a4,30002e24 <move_window+0x34>
30002e7c:	00344903          	lbu	s2,3(s0)
30002e80:	00100713          	li	a4,1
30002e84:	01276663          	bltu	a4,s2,30002e90 <move_window+0xa0>
30002e88:	f9dff06f          	j	30002e24 <move_window+0x34>
30002e8c:	01c42783          	lw	a5,28(s0)
30002e90:	00144503          	lbu	a0,1(s0)
30002e94:	00f484b3          	add	s1,s1,a5
30002e98:	00100693          	li	a3,1
30002e9c:	00048613          	mv	a2,s1
30002ea0:	000a0593          	mv	a1,s4
30002ea4:	a64ff0ef          	jal	ra,30002108 <disk_write>
30002ea8:	fff90913          	addi	s2,s2,-1
30002eac:	0ff97913          	andi	s2,s2,255
30002eb0:	00100793          	li	a5,1
30002eb4:	fcf91ce3          	bne	s2,a5,30002e8c <move_window+0x9c>
30002eb8:	f60988e3          	beqz	s3,30002e28 <move_window+0x38>
30002ebc:	00144503          	lbu	a0,1(s0)
30002ec0:	00100693          	li	a3,1
30002ec4:	00098613          	mv	a2,s3
30002ec8:	03040593          	addi	a1,s0,48
30002ecc:	8ecff0ef          	jal	ra,30001fb8 <disk_read>
30002ed0:	02051463          	bnez	a0,30002ef8 <move_window+0x108>
30002ed4:	03342623          	sw	s3,44(s0)
30002ed8:	01c12083          	lw	ra,28(sp)
30002edc:	01812403          	lw	s0,24(sp)
30002ee0:	01412483          	lw	s1,20(sp)
30002ee4:	01012903          	lw	s2,16(sp)
30002ee8:	00c12983          	lw	s3,12(sp)
30002eec:	00812a03          	lw	s4,8(sp)
30002ef0:	02010113          	addi	sp,sp,32
30002ef4:	00008067          	ret
30002ef8:	01c12083          	lw	ra,28(sp)
30002efc:	01812403          	lw	s0,24(sp)
30002f00:	01412483          	lw	s1,20(sp)
30002f04:	01012903          	lw	s2,16(sp)
30002f08:	00c12983          	lw	s3,12(sp)
30002f0c:	00812a03          	lw	s4,8(sp)
30002f10:	00100513          	li	a0,1
30002f14:	02010113          	addi	sp,sp,32
30002f18:	00008067          	ret

30002f1c <check_fs>:
30002f1c:	ff010113          	addi	sp,sp,-16
30002f20:	00812423          	sw	s0,8(sp)
30002f24:	00112623          	sw	ra,12(sp)
30002f28:	00050413          	mv	s0,a0
30002f2c:	00154503          	lbu	a0,1(a0)
30002f30:	00058613          	mv	a2,a1
30002f34:	00100693          	li	a3,1
30002f38:	03040593          	addi	a1,s0,48
30002f3c:	87cff0ef          	jal	ra,30001fb8 <disk_read>
30002f40:	08051263          	bnez	a0,30002fc4 <check_fs+0xa8>
30002f44:	22f44783          	lbu	a5,559(s0)
30002f48:	22e44703          	lbu	a4,558(s0)
30002f4c:	00200513          	li	a0,2
30002f50:	00879793          	slli	a5,a5,0x8
30002f54:	00e7e7b3          	or	a5,a5,a4
30002f58:	01079793          	slli	a5,a5,0x10
30002f5c:	ffffb737          	lui	a4,0xffffb
30002f60:	4107d793          	srai	a5,a5,0x10
30002f64:	a5570713          	addi	a4,a4,-1451 # ffffaa55 <__bss_end__+0xcfefaa55>
30002f68:	04e79663          	bne	a5,a4,30002fb4 <check_fs+0x98>
30002f6c:	06845783          	lhu	a5,104(s0)
30002f70:	06645703          	lhu	a4,102(s0)
30002f74:	01000537          	lui	a0,0x1000
30002f78:	01079793          	slli	a5,a5,0x10
30002f7c:	00e7e7b3          	or	a5,a5,a4
30002f80:	fff50693          	addi	a3,a0,-1 # ffffff <stackPointer+0xffa57f>
30002f84:	00544537          	lui	a0,0x544
30002f88:	14650713          	addi	a4,a0,326 # 544146 <stackPointer+0x53e6c6>
30002f8c:	00d7f7b3          	and	a5,a5,a3
30002f90:	00000513          	li	a0,0
30002f94:	02e78063          	beq	a5,a4,30002fb4 <check_fs+0x98>
30002f98:	08445503          	lhu	a0,132(s0)
30002f9c:	08245783          	lhu	a5,130(s0)
30002fa0:	01051513          	slli	a0,a0,0x10
30002fa4:	00f56533          	or	a0,a0,a5
30002fa8:	00d57533          	and	a0,a0,a3
30002fac:	40e50533          	sub	a0,a0,a4
30002fb0:	00a03533          	snez	a0,a0
30002fb4:	00c12083          	lw	ra,12(sp)
30002fb8:	00812403          	lw	s0,8(sp)
30002fbc:	01010113          	addi	sp,sp,16
30002fc0:	00008067          	ret
30002fc4:	00c12083          	lw	ra,12(sp)
30002fc8:	00812403          	lw	s0,8(sp)
30002fcc:	00300513          	li	a0,3
30002fd0:	01010113          	addi	sp,sp,16
30002fd4:	00008067          	ret

30002fd8 <chk_mounted>:
30002fd8:	00052703          	lw	a4,0(a0)
30002fdc:	00900693          	li	a3,9
30002fe0:	00074783          	lbu	a5,0(a4)
30002fe4:	fd078793          	addi	a5,a5,-48
30002fe8:	00f6e863          	bltu	a3,a5,30002ff8 <chk_mounted+0x20>
30002fec:	00174803          	lbu	a6,1(a4)
30002ff0:	03a00693          	li	a3,58
30002ff4:	28d80863          	beq	a6,a3,30003284 <chk_mounted+0x2ac>
30002ff8:	ff010113          	addi	sp,sp,-16
30002ffc:	3000f7b7          	lui	a5,0x3000f
30003000:	00812423          	sw	s0,8(sp)
30003004:	0287a403          	lw	s0,40(a5) # 3000f028 <FatFs>
30003008:	00112623          	sw	ra,12(sp)
3000300c:	00912223          	sw	s1,4(sp)
30003010:	0085a023          	sw	s0,0(a1)
30003014:	2a040263          	beqz	s0,300032b8 <chk_mounted+0x2e0>
30003018:	00044783          	lbu	a5,0(s0)
3000301c:	00060493          	mv	s1,a2
30003020:	02078e63          	beqz	a5,3000305c <chk_mounted+0x84>
30003024:	00144503          	lbu	a0,1(s0)
30003028:	ca5fe0ef          	jal	ra,30001ccc <disk_status>
3000302c:	00157793          	andi	a5,a0,1
30003030:	02079663          	bnez	a5,3000305c <chk_mounted+0x84>
30003034:	00000713          	li	a4,0
30003038:	00048663          	beqz	s1,30003044 <chk_mounted+0x6c>
3000303c:	00457513          	andi	a0,a0,4
30003040:	24051e63          	bnez	a0,3000329c <chk_mounted+0x2c4>
30003044:	00c12083          	lw	ra,12(sp)
30003048:	00812403          	lw	s0,8(sp)
3000304c:	00412483          	lw	s1,4(sp)
30003050:	00070513          	mv	a0,a4
30003054:	01010113          	addi	sp,sp,16
30003058:	00008067          	ret
3000305c:	00041023          	sh	zero,0(s0)
30003060:	00000513          	li	a0,0
30003064:	c8dfe0ef          	jal	ra,30001cf0 <disk_initialize>
30003068:	00157793          	andi	a5,a0,1
3000306c:	00300713          	li	a4,3
30003070:	fc079ae3          	bnez	a5,30003044 <chk_mounted+0x6c>
30003074:	00048663          	beqz	s1,30003080 <chk_mounted+0xa8>
30003078:	00457513          	andi	a0,a0,4
3000307c:	22051063          	bnez	a0,3000329c <chk_mounted+0x2c4>
30003080:	00000593          	li	a1,0
30003084:	00040513          	mv	a0,s0
30003088:	e95ff0ef          	jal	ra,30002f1c <check_fs>
3000308c:	00100793          	li	a5,1
30003090:	00000493          	li	s1,0
30003094:	1cf50663          	beq	a0,a5,30003260 <chk_mounted+0x288>
30003098:	00300793          	li	a5,3
3000309c:	00100713          	li	a4,1
300030a0:	faf502e3          	beq	a0,a5,30003044 <chk_mounted+0x6c>
300030a4:	1c051263          	bnez	a0,30003268 <chk_mounted+0x290>
300030a8:	03c44783          	lbu	a5,60(s0)
300030ac:	03b44683          	lbu	a3,59(s0)
300030b0:	20000713          	li	a4,512
300030b4:	00879793          	slli	a5,a5,0x8
300030b8:	00d7e7b3          	or	a5,a5,a3
300030bc:	01079793          	slli	a5,a5,0x10
300030c0:	4107d793          	srai	a5,a5,0x10
300030c4:	1ae79263          	bne	a5,a4,30003268 <chk_mounted+0x290>
300030c8:	04744783          	lbu	a5,71(s0)
300030cc:	04644703          	lbu	a4,70(s0)
300030d0:	00879793          	slli	a5,a5,0x8
300030d4:	00e7e7b3          	or	a5,a5,a4
300030d8:	00079463          	bnez	a5,300030e0 <chk_mounted+0x108>
300030dc:	05442783          	lw	a5,84(s0)
300030e0:	04044703          	lbu	a4,64(s0)
300030e4:	00f42e23          	sw	a5,28(s0)
300030e8:	00100613          	li	a2,1
300030ec:	fff70693          	addi	a3,a4,-1
300030f0:	00e401a3          	sb	a4,3(s0)
300030f4:	0ff6f693          	andi	a3,a3,255
300030f8:	16d66863          	bltu	a2,a3,30003268 <chk_mounted+0x290>
300030fc:	03d44683          	lbu	a3,61(s0)
30003100:	00d40123          	sb	a3,2(s0)
30003104:	16068263          	beqz	a3,30003268 <chk_mounted+0x290>
30003108:	fff68613          	addi	a2,a3,-1
3000310c:	00d67633          	and	a2,a2,a3
30003110:	14061c63          	bnez	a2,30003268 <chk_mounted+0x290>
30003114:	04244583          	lbu	a1,66(s0)
30003118:	04144603          	lbu	a2,65(s0)
3000311c:	00859593          	slli	a1,a1,0x8
30003120:	00c5e5b3          	or	a1,a1,a2
30003124:	00b41423          	sh	a1,8(s0)
30003128:	00f5f613          	andi	a2,a1,15
3000312c:	12061e63          	bnez	a2,30003268 <chk_mounted+0x290>
30003130:	04444603          	lbu	a2,68(s0)
30003134:	04344503          	lbu	a0,67(s0)
30003138:	00861613          	slli	a2,a2,0x8
3000313c:	00a66633          	or	a2,a2,a0
30003140:	00061463          	bnez	a2,30003148 <chk_mounted+0x170>
30003144:	05042603          	lw	a2,80(s0)
30003148:	03f44503          	lbu	a0,63(s0)
3000314c:	03e44803          	lbu	a6,62(s0)
30003150:	00851513          	slli	a0,a0,0x8
30003154:	01056533          	or	a0,a0,a6
30003158:	10050863          	beqz	a0,30003268 <chk_mounted+0x290>
3000315c:	02f70733          	mul	a4,a4,a5
30003160:	0045d813          	srli	a6,a1,0x4
30003164:	00a80833          	add	a6,a6,a0
30003168:	00e80833          	add	a6,a6,a4
3000316c:	0f066e63          	bltu	a2,a6,30003268 <chk_mounted+0x290>
30003170:	41060633          	sub	a2,a2,a6
30003174:	02d658b3          	divu	a7,a2,a3
30003178:	0ed66863          	bltu	a2,a3,30003268 <chk_mounted+0x290>
3000317c:	00001637          	lui	a2,0x1
30003180:	ff560613          	addi	a2,a2,-11 # ff5 <stackPointer-0x4a8b>
30003184:	00950533          	add	a0,a0,s1
30003188:	01048833          	add	a6,s1,a6
3000318c:	00288693          	addi	a3,a7,2
30003190:	17167e63          	bgeu	a2,a7,3000330c <chk_mounted+0x334>
30003194:	00010637          	lui	a2,0x10
30003198:	ff560613          	addi	a2,a2,-11 # fff5 <stackPointer+0xa575>
3000319c:	00d42c23          	sw	a3,24(s0)
300031a0:	03042423          	sw	a6,40(s0)
300031a4:	02a42023          	sw	a0,32(s0)
300031a8:	1f167263          	bgeu	a2,a7,3000338c <chk_mounted+0x3b4>
300031ac:	0a059e63          	bnez	a1,30003268 <chk_mounted+0x290>
300031b0:	05c42603          	lw	a2,92(s0)
300031b4:	00269713          	slli	a4,a3,0x2
300031b8:	1ff70713          	addi	a4,a4,511
300031bc:	02c42223          	sw	a2,36(s0)
300031c0:	00975713          	srli	a4,a4,0x9
300031c4:	0ae7e263          	bltu	a5,a4,30003268 <chk_mounted+0x290>
300031c8:	06144603          	lbu	a2,97(s0)
300031cc:	06044783          	lbu	a5,96(s0)
300031d0:	00144503          	lbu	a0,1(s0)
300031d4:	00861613          	slli	a2,a2,0x8
300031d8:	00f66633          	or	a2,a2,a5
300031dc:	00960633          	add	a2,a2,s1
300031e0:	fff00793          	li	a5,-1
300031e4:	00c42a23          	sw	a2,20(s0)
300031e8:	00f42823          	sw	a5,16(s0)
300031ec:	00042623          	sw	zero,12(s0)
300031f0:	000402a3          	sb	zero,5(s0)
300031f4:	00100693          	li	a3,1
300031f8:	03040593          	addi	a1,s0,48
300031fc:	dbdfe0ef          	jal	ra,30001fb8 <disk_read>
30003200:	00300613          	li	a2,3
30003204:	02051663          	bnez	a0,30003230 <chk_mounted+0x258>
30003208:	22f44783          	lbu	a5,559(s0)
3000320c:	22e44703          	lbu	a4,558(s0)
30003210:	00300613          	li	a2,3
30003214:	00879793          	slli	a5,a5,0x8
30003218:	00e7e7b3          	or	a5,a5,a4
3000321c:	01079793          	slli	a5,a5,0x10
30003220:	ffffb737          	lui	a4,0xffffb
30003224:	4107d793          	srai	a5,a5,0x10
30003228:	a5570713          	addi	a4,a4,-1451 # ffffaa55 <__bss_end__+0xcfefaa55>
3000322c:	12e78663          	beq	a5,a4,30003358 <chk_mounted+0x380>
30003230:	3000f737          	lui	a4,0x3000f
30003234:	02475783          	lhu	a5,36(a4) # 3000f024 <Fsid>
30003238:	00c40023          	sb	a2,0(s0)
3000323c:	02042623          	sw	zero,44(s0)
30003240:	00178793          	addi	a5,a5,1
30003244:	01079793          	slli	a5,a5,0x10
30003248:	0107d793          	srli	a5,a5,0x10
3000324c:	02f71223          	sh	a5,36(a4)
30003250:	00f41323          	sh	a5,6(s0)
30003254:	00040223          	sb	zero,4(s0)
30003258:	00000713          	li	a4,0
3000325c:	de9ff06f          	j	30003044 <chk_mounted+0x6c>
30003260:	1f244783          	lbu	a5,498(s0)
30003264:	06079863          	bnez	a5,300032d4 <chk_mounted+0x2fc>
30003268:	00c12083          	lw	ra,12(sp)
3000326c:	00812403          	lw	s0,8(sp)
30003270:	00d00713          	li	a4,13
30003274:	00412483          	lw	s1,4(sp)
30003278:	00070513          	mv	a0,a4
3000327c:	01010113          	addi	sp,sp,16
30003280:	00008067          	ret
30003284:	00270713          	addi	a4,a4,2
30003288:	00e52023          	sw	a4,0(a0)
3000328c:	00b00713          	li	a4,11
30003290:	d60784e3          	beqz	a5,30002ff8 <chk_mounted+0x20>
30003294:	00070513          	mv	a0,a4
30003298:	00008067          	ret
3000329c:	00c12083          	lw	ra,12(sp)
300032a0:	00812403          	lw	s0,8(sp)
300032a4:	00a00713          	li	a4,10
300032a8:	00412483          	lw	s1,4(sp)
300032ac:	00070513          	mv	a0,a4
300032b0:	01010113          	addi	sp,sp,16
300032b4:	00008067          	ret
300032b8:	00c12083          	lw	ra,12(sp)
300032bc:	00812403          	lw	s0,8(sp)
300032c0:	00c00713          	li	a4,12
300032c4:	00412483          	lw	s1,4(sp)
300032c8:	00070513          	mv	a0,a4
300032cc:	01010113          	addi	sp,sp,16
300032d0:	00008067          	ret
300032d4:	1f744483          	lbu	s1,503(s0)
300032d8:	1f644683          	lbu	a3,502(s0)
300032dc:	1f844783          	lbu	a5,504(s0)
300032e0:	1f944703          	lbu	a4,505(s0)
300032e4:	00849493          	slli	s1,s1,0x8
300032e8:	00d4e4b3          	or	s1,s1,a3
300032ec:	01079793          	slli	a5,a5,0x10
300032f0:	0097e7b3          	or	a5,a5,s1
300032f4:	01871493          	slli	s1,a4,0x18
300032f8:	00f4e4b3          	or	s1,s1,a5
300032fc:	00048593          	mv	a1,s1
30003300:	00040513          	mv	a0,s0
30003304:	c19ff0ef          	jal	ra,30002f1c <check_fs>
30003308:	d91ff06f          	j	30003098 <chk_mounted+0xc0>
3000330c:	00d42c23          	sw	a3,24(s0)
30003310:	03042423          	sw	a6,40(s0)
30003314:	02a42023          	sw	a0,32(s0)
30003318:	f40588e3          	beqz	a1,30003268 <chk_mounted+0x290>
3000331c:	00169613          	slli	a2,a3,0x1
30003320:	00d60633          	add	a2,a2,a3
30003324:	00165613          	srli	a2,a2,0x1
30003328:	00a70733          	add	a4,a4,a0
3000332c:	0016f693          	andi	a3,a3,1
30003330:	00d606b3          	add	a3,a2,a3
30003334:	02e42223          	sw	a4,36(s0)
30003338:	00100613          	li	a2,1
3000333c:	1ff68693          	addi	a3,a3,511
30003340:	0096d713          	srli	a4,a3,0x9
30003344:	f2e7e2e3          	bltu	a5,a4,30003268 <chk_mounted+0x290>
30003348:	fff00793          	li	a5,-1
3000334c:	00f42823          	sw	a5,16(s0)
30003350:	00042623          	sw	zero,12(s0)
30003354:	eddff06f          	j	30003230 <chk_mounted+0x258>
30003358:	03042703          	lw	a4,48(s0)
3000335c:	416157b7          	lui	a5,0x41615
30003360:	25278793          	addi	a5,a5,594 # 41615252 <__bss_end__+0x11515252>
30003364:	ecf716e3          	bne	a4,a5,30003230 <chk_mounted+0x258>
30003368:	21442703          	lw	a4,532(s0)
3000336c:	614177b7          	lui	a5,0x61417
30003370:	27278793          	addi	a5,a5,626 # 61417272 <__bss_end__+0x31317272>
30003374:	eaf71ee3          	bne	a4,a5,30003230 <chk_mounted+0x258>
30003378:	21842703          	lw	a4,536(s0)
3000337c:	21c42783          	lw	a5,540(s0)
30003380:	00e42823          	sw	a4,16(s0)
30003384:	00f42623          	sw	a5,12(s0)
30003388:	ea9ff06f          	j	30003230 <chk_mounted+0x258>
3000338c:	ec058ee3          	beqz	a1,30003268 <chk_mounted+0x290>
30003390:	00a70733          	add	a4,a4,a0
30003394:	02e42223          	sw	a4,36(s0)
30003398:	00169693          	slli	a3,a3,0x1
3000339c:	00200613          	li	a2,2
300033a0:	f9dff06f          	j	3000333c <chk_mounted+0x364>

300033a4 <get_fat.part.5>:
300033a4:	fe010113          	addi	sp,sp,-32
300033a8:	00812c23          	sw	s0,24(sp)
300033ac:	00912a23          	sw	s1,20(sp)
300033b0:	00112e23          	sw	ra,28(sp)
300033b4:	01212823          	sw	s2,16(sp)
300033b8:	01312623          	sw	s3,12(sp)
300033bc:	00054703          	lbu	a4,0(a0)
300033c0:	00200793          	li	a5,2
300033c4:	00050493          	mv	s1,a0
300033c8:	00058413          	mv	s0,a1
300033cc:	02f70c63          	beq	a4,a5,30003404 <get_fat.part.5+0x60>
300033d0:	00300793          	li	a5,3
300033d4:	0cf70063          	beq	a4,a5,30003494 <get_fat.part.5+0xf0>
300033d8:	00100693          	li	a3,1
300033dc:	fff00793          	li	a5,-1
300033e0:	06d70a63          	beq	a4,a3,30003454 <get_fat.part.5+0xb0>
300033e4:	01c12083          	lw	ra,28(sp)
300033e8:	01812403          	lw	s0,24(sp)
300033ec:	01412483          	lw	s1,20(sp)
300033f0:	01012903          	lw	s2,16(sp)
300033f4:	00c12983          	lw	s3,12(sp)
300033f8:	00078513          	mv	a0,a5
300033fc:	02010113          	addi	sp,sp,32
30003400:	00008067          	ret
30003404:	02052783          	lw	a5,32(a0)
30003408:	0085d593          	srli	a1,a1,0x8
3000340c:	00f585b3          	add	a1,a1,a5
30003410:	9e1ff0ef          	jal	ra,30002df0 <move_window>
30003414:	04051e63          	bnez	a0,30003470 <get_fat.part.5+0xcc>
30003418:	00141413          	slli	s0,s0,0x1
3000341c:	1fe47413          	andi	s0,s0,510
30003420:	00848433          	add	s0,s1,s0
30003424:	03144783          	lbu	a5,49(s0)
30003428:	03044703          	lbu	a4,48(s0)
3000342c:	01c12083          	lw	ra,28(sp)
30003430:	01812403          	lw	s0,24(sp)
30003434:	00879793          	slli	a5,a5,0x8
30003438:	00e7e7b3          	or	a5,a5,a4
3000343c:	01412483          	lw	s1,20(sp)
30003440:	01012903          	lw	s2,16(sp)
30003444:	00c12983          	lw	s3,12(sp)
30003448:	00078513          	mv	a0,a5
3000344c:	02010113          	addi	sp,sp,32
30003450:	00008067          	ret
30003454:	0015d913          	srli	s2,a1,0x1
30003458:	02052783          	lw	a5,32(a0)
3000345c:	00b90933          	add	s2,s2,a1
30003460:	00995593          	srli	a1,s2,0x9
30003464:	00f585b3          	add	a1,a1,a5
30003468:	989ff0ef          	jal	ra,30002df0 <move_window>
3000346c:	0a050063          	beqz	a0,3000350c <get_fat.part.5+0x168>
30003470:	01c12083          	lw	ra,28(sp)
30003474:	01812403          	lw	s0,24(sp)
30003478:	fff00793          	li	a5,-1
3000347c:	01412483          	lw	s1,20(sp)
30003480:	01012903          	lw	s2,16(sp)
30003484:	00c12983          	lw	s3,12(sp)
30003488:	00078513          	mv	a0,a5
3000348c:	02010113          	addi	sp,sp,32
30003490:	00008067          	ret
30003494:	02052783          	lw	a5,32(a0)
30003498:	0075d593          	srli	a1,a1,0x7
3000349c:	00f585b3          	add	a1,a1,a5
300034a0:	951ff0ef          	jal	ra,30002df0 <move_window>
300034a4:	fc0516e3          	bnez	a0,30003470 <get_fat.part.5+0xcc>
300034a8:	00241413          	slli	s0,s0,0x2
300034ac:	1fc47413          	andi	s0,s0,508
300034b0:	03040713          	addi	a4,s0,48
300034b4:	00e48733          	add	a4,s1,a4
300034b8:	00374783          	lbu	a5,3(a4)
300034bc:	00274683          	lbu	a3,2(a4)
300034c0:	00848433          	add	s0,s1,s0
300034c4:	03044603          	lbu	a2,48(s0)
300034c8:	00174703          	lbu	a4,1(a4)
300034cc:	01879793          	slli	a5,a5,0x18
300034d0:	01069693          	slli	a3,a3,0x10
300034d4:	00d7e7b3          	or	a5,a5,a3
300034d8:	00c7e7b3          	or	a5,a5,a2
300034dc:	00871713          	slli	a4,a4,0x8
300034e0:	00e7e7b3          	or	a5,a5,a4
300034e4:	00479793          	slli	a5,a5,0x4
300034e8:	01c12083          	lw	ra,28(sp)
300034ec:	01812403          	lw	s0,24(sp)
300034f0:	0047d793          	srli	a5,a5,0x4
300034f4:	01412483          	lw	s1,20(sp)
300034f8:	01012903          	lw	s2,16(sp)
300034fc:	00c12983          	lw	s3,12(sp)
30003500:	00078513          	mv	a0,a5
30003504:	02010113          	addi	sp,sp,32
30003508:	00008067          	ret
3000350c:	0204a783          	lw	a5,32(s1)
30003510:	00190993          	addi	s3,s2,1
30003514:	0099d593          	srli	a1,s3,0x9
30003518:	1ff97913          	andi	s2,s2,511
3000351c:	01248933          	add	s2,s1,s2
30003520:	00f585b3          	add	a1,a1,a5
30003524:	00048513          	mv	a0,s1
30003528:	03094903          	lbu	s2,48(s2)
3000352c:	8c5ff0ef          	jal	ra,30002df0 <move_window>
30003530:	f40510e3          	bnez	a0,30003470 <get_fat.part.5+0xcc>
30003534:	1ff9f993          	andi	s3,s3,511
30003538:	013484b3          	add	s1,s1,s3
3000353c:	0304c783          	lbu	a5,48(s1)
30003540:	00147413          	andi	s0,s0,1
30003544:	00879793          	slli	a5,a5,0x8
30003548:	0127e7b3          	or	a5,a5,s2
3000354c:	f8041ee3          	bnez	s0,300034e8 <get_fat.part.5+0x144>
30003550:	01479793          	slli	a5,a5,0x14
30003554:	0147d793          	srli	a5,a5,0x14
30003558:	e8dff06f          	j	300033e4 <get_fat.part.5+0x40>

3000355c <dir_sdi>:
3000355c:	fe010113          	addi	sp,sp,-32
30003560:	00852783          	lw	a5,8(a0)
30003564:	00912a23          	sw	s1,20(sp)
30003568:	00112e23          	sw	ra,28(sp)
3000356c:	00812c23          	sw	s0,24(sp)
30003570:	01212823          	sw	s2,16(sp)
30003574:	01312623          	sw	s3,12(sp)
30003578:	01412423          	sw	s4,8(sp)
3000357c:	00b51323          	sh	a1,6(a0)
30003580:	00100713          	li	a4,1
30003584:	00050493          	mv	s1,a0
30003588:	08e78c63          	beq	a5,a4,30003620 <dir_sdi+0xc4>
3000358c:	00052503          	lw	a0,0(a0)
30003590:	01852703          	lw	a4,24(a0)
30003594:	08e7f663          	bgeu	a5,a4,30003620 <dir_sdi+0xc4>
30003598:	00058413          	mv	s0,a1
3000359c:	06079663          	bnez	a5,30003608 <dir_sdi+0xac>
300035a0:	00054683          	lbu	a3,0(a0)
300035a4:	00300793          	li	a5,3
300035a8:	04f68c63          	beq	a3,a5,30003600 <dir_sdi+0xa4>
300035ac:	00855783          	lhu	a5,8(a0)
300035b0:	0004a623          	sw	zero,12(s1)
300035b4:	06f47663          	bgeu	s0,a5,30003620 <dir_sdi+0xc4>
300035b8:	02452783          	lw	a5,36(a0)
300035bc:	00445713          	srli	a4,s0,0x4
300035c0:	00e787b3          	add	a5,a5,a4
300035c4:	00f4a823          	sw	a5,16(s1)
300035c8:	00f47413          	andi	s0,s0,15
300035cc:	03050513          	addi	a0,a0,48
300035d0:	00541413          	slli	s0,s0,0x5
300035d4:	00850433          	add	s0,a0,s0
300035d8:	0084aa23          	sw	s0,20(s1)
300035dc:	01c12083          	lw	ra,28(sp)
300035e0:	01812403          	lw	s0,24(sp)
300035e4:	01412483          	lw	s1,20(sp)
300035e8:	01012903          	lw	s2,16(sp)
300035ec:	00c12983          	lw	s3,12(sp)
300035f0:	00812a03          	lw	s4,8(sp)
300035f4:	00000513          	li	a0,0
300035f8:	02010113          	addi	sp,sp,32
300035fc:	00008067          	ret
30003600:	02452783          	lw	a5,36(a0)
30003604:	fa0784e3          	beqz	a5,300035ac <dir_sdi+0x50>
30003608:	00254903          	lbu	s2,2(a0)
3000360c:	00491913          	slli	s2,s2,0x4
30003610:	07246a63          	bltu	s0,s2,30003684 <dir_sdi+0x128>
30003614:	00100693          	li	a3,1
30003618:	00f6f463          	bgeu	a3,a5,30003620 <dir_sdi+0xc4>
3000361c:	02e7e463          	bltu	a5,a4,30003644 <dir_sdi+0xe8>
30003620:	00200513          	li	a0,2
30003624:	01c12083          	lw	ra,28(sp)
30003628:	01812403          	lw	s0,24(sp)
3000362c:	01412483          	lw	s1,20(sp)
30003630:	01012903          	lw	s2,16(sp)
30003634:	00c12983          	lw	s3,12(sp)
30003638:	00812a03          	lw	s4,8(sp)
3000363c:	02010113          	addi	sp,sp,32
30003640:	00008067          	ret
30003644:	fff00993          	li	s3,-1
30003648:	00100a13          	li	s4,1
3000364c:	0080006f          	j	30003654 <dir_sdi+0xf8>
30003650:	03246a63          	bltu	s0,s2,30003684 <dir_sdi+0x128>
30003654:	00078593          	mv	a1,a5
30003658:	41240433          	sub	s0,s0,s2
3000365c:	d49ff0ef          	jal	ra,300033a4 <get_fat.part.5>
30003660:	01041413          	slli	s0,s0,0x10
30003664:	00050793          	mv	a5,a0
30003668:	01045413          	srli	s0,s0,0x10
3000366c:	05350663          	beq	a0,s3,300036b8 <dir_sdi+0x15c>
30003670:	faaa78e3          	bgeu	s4,a0,30003620 <dir_sdi+0xc4>
30003674:	0004a503          	lw	a0,0(s1)
30003678:	01852703          	lw	a4,24(a0)
3000367c:	fce7eae3          	bltu	a5,a4,30003650 <dir_sdi+0xf4>
30003680:	fa1ff06f          	j	30003620 <dir_sdi+0xc4>
30003684:	00f4a623          	sw	a5,12(s1)
30003688:	ffe70713          	addi	a4,a4,-2
3000368c:	ffe78793          	addi	a5,a5,-2
30003690:	00000693          	li	a3,0
30003694:	00e7fa63          	bgeu	a5,a4,300036a8 <dir_sdi+0x14c>
30003698:	00254683          	lbu	a3,2(a0)
3000369c:	02852703          	lw	a4,40(a0)
300036a0:	02f687b3          	mul	a5,a3,a5
300036a4:	00e786b3          	add	a3,a5,a4
300036a8:	00445793          	srli	a5,s0,0x4
300036ac:	00d786b3          	add	a3,a5,a3
300036b0:	00d4a823          	sw	a3,16(s1)
300036b4:	f15ff06f          	j	300035c8 <dir_sdi+0x6c>
300036b8:	00100513          	li	a0,1
300036bc:	f69ff06f          	j	30003624 <dir_sdi+0xc8>

300036c0 <put_fat.part.6>:
300036c0:	fe010113          	addi	sp,sp,-32
300036c4:	00812c23          	sw	s0,24(sp)
300036c8:	00912a23          	sw	s1,20(sp)
300036cc:	01412423          	sw	s4,8(sp)
300036d0:	00112e23          	sw	ra,28(sp)
300036d4:	01212823          	sw	s2,16(sp)
300036d8:	01312623          	sw	s3,12(sp)
300036dc:	01512223          	sw	s5,4(sp)
300036e0:	01612023          	sw	s6,0(sp)
300036e4:	00054903          	lbu	s2,0(a0)
300036e8:	00200793          	li	a5,2
300036ec:	00050413          	mv	s0,a0
300036f0:	00058493          	mv	s1,a1
300036f4:	00060a13          	mv	s4,a2
300036f8:	04f90663          	beq	s2,a5,30003744 <put_fat.part.6+0x84>
300036fc:	00300793          	li	a5,3
30003700:	0ef90c63          	beq	s2,a5,300037f8 <put_fat.part.6+0x138>
30003704:	00100793          	li	a5,1
30003708:	00200993          	li	s3,2
3000370c:	06f90a63          	beq	s2,a5,30003780 <put_fat.part.6+0xc0>
30003710:	00100793          	li	a5,1
30003714:	00f40223          	sb	a5,4(s0)
30003718:	01c12083          	lw	ra,28(sp)
3000371c:	01812403          	lw	s0,24(sp)
30003720:	00098513          	mv	a0,s3
30003724:	01412483          	lw	s1,20(sp)
30003728:	01012903          	lw	s2,16(sp)
3000372c:	00c12983          	lw	s3,12(sp)
30003730:	00812a03          	lw	s4,8(sp)
30003734:	00412a83          	lw	s5,4(sp)
30003738:	00012b03          	lw	s6,0(sp)
3000373c:	02010113          	addi	sp,sp,32
30003740:	00008067          	ret
30003744:	02052783          	lw	a5,32(a0)
30003748:	0085d593          	srli	a1,a1,0x8
3000374c:	00f585b3          	add	a1,a1,a5
30003750:	ea0ff0ef          	jal	ra,30002df0 <move_window>
30003754:	00050993          	mv	s3,a0
30003758:	fa051ce3          	bnez	a0,30003710 <put_fat.part.6+0x50>
3000375c:	00149493          	slli	s1,s1,0x1
30003760:	010a1793          	slli	a5,s4,0x10
30003764:	1fe4f493          	andi	s1,s1,510
30003768:	0107d793          	srli	a5,a5,0x10
3000376c:	009404b3          	add	s1,s0,s1
30003770:	0087d793          	srli	a5,a5,0x8
30003774:	03448823          	sb	s4,48(s1)
30003778:	02f488a3          	sb	a5,49(s1)
3000377c:	f95ff06f          	j	30003710 <put_fat.part.6+0x50>
30003780:	02052783          	lw	a5,32(a0)
30003784:	0015da93          	srli	s5,a1,0x1
30003788:	00ba8ab3          	add	s5,s5,a1
3000378c:	009ad593          	srli	a1,s5,0x9
30003790:	00f585b3          	add	a1,a1,a5
30003794:	e5cff0ef          	jal	ra,30002df0 <move_window>
30003798:	00050993          	mv	s3,a0
3000379c:	f6051ae3          	bnez	a0,30003710 <put_fat.part.6+0x50>
300037a0:	02042783          	lw	a5,32(s0)
300037a4:	001a8b13          	addi	s6,s5,1
300037a8:	009b5593          	srli	a1,s6,0x9
300037ac:	1ffafa93          	andi	s5,s5,511
300037b0:	0014f493          	andi	s1,s1,1
300037b4:	00f585b3          	add	a1,a1,a5
300037b8:	01540ab3          	add	s5,s0,s5
300037bc:	0a048263          	beqz	s1,30003860 <put_fat.part.6+0x1a0>
300037c0:	030ac783          	lbu	a5,48(s5)
300037c4:	000016b7          	lui	a3,0x1
300037c8:	004a1713          	slli	a4,s4,0x4
300037cc:	ff068693          	addi	a3,a3,-16 # ff0 <stackPointer-0x4a90>
300037d0:	00f7f793          	andi	a5,a5,15
300037d4:	00d77733          	and	a4,a4,a3
300037d8:	00e7e7b3          	or	a5,a5,a4
300037dc:	02fa8823          	sb	a5,48(s5)
300037e0:	01240223          	sb	s2,4(s0)
300037e4:	00040513          	mv	a0,s0
300037e8:	e08ff0ef          	jal	ra,30002df0 <move_window>
300037ec:	0a050663          	beqz	a0,30003898 <put_fat.part.6+0x1d8>
300037f0:	00050993          	mv	s3,a0
300037f4:	f1dff06f          	j	30003710 <put_fat.part.6+0x50>
300037f8:	02052783          	lw	a5,32(a0)
300037fc:	0075d593          	srli	a1,a1,0x7
30003800:	00f585b3          	add	a1,a1,a5
30003804:	decff0ef          	jal	ra,30002df0 <move_window>
30003808:	00050993          	mv	s3,a0
3000380c:	f00512e3          	bnez	a0,30003710 <put_fat.part.6+0x50>
30003810:	00249493          	slli	s1,s1,0x2
30003814:	1fc4f493          	andi	s1,s1,508
30003818:	03048793          	addi	a5,s1,48
3000381c:	00f407b3          	add	a5,s0,a5
30003820:	0037c603          	lbu	a2,3(a5)
30003824:	f0000737          	lui	a4,0xf0000
30003828:	009404b3          	add	s1,s0,s1
3000382c:	01861613          	slli	a2,a2,0x18
30003830:	00e67633          	and	a2,a2,a4
30003834:	01466a33          	or	s4,a2,s4
30003838:	010a1713          	slli	a4,s4,0x10
3000383c:	01075713          	srli	a4,a4,0x10
30003840:	03448823          	sb	s4,48(s1)
30003844:	010a5693          	srli	a3,s4,0x10
30003848:	00875713          	srli	a4,a4,0x8
3000384c:	018a5a13          	srli	s4,s4,0x18
30003850:	00e780a3          	sb	a4,1(a5)
30003854:	00d78123          	sb	a3,2(a5)
30003858:	014781a3          	sb	s4,3(a5)
3000385c:	eb5ff06f          	j	30003710 <put_fat.part.6+0x50>
30003860:	034a8823          	sb	s4,48(s5)
30003864:	01240223          	sb	s2,4(s0)
30003868:	00040513          	mv	a0,s0
3000386c:	d84ff0ef          	jal	ra,30002df0 <move_window>
30003870:	f80510e3          	bnez	a0,300037f0 <put_fat.part.6+0x130>
30003874:	1ffb7b13          	andi	s6,s6,511
30003878:	01640b33          	add	s6,s0,s6
3000387c:	030b4783          	lbu	a5,48(s6)
30003880:	008a5a13          	srli	s4,s4,0x8
30003884:	00fa7a13          	andi	s4,s4,15
30003888:	ff07f793          	andi	a5,a5,-16
3000388c:	0147ea33          	or	s4,a5,s4
30003890:	034b0823          	sb	s4,48(s6)
30003894:	e7dff06f          	j	30003710 <put_fat.part.6+0x50>
30003898:	1ffb7b13          	andi	s6,s6,511
3000389c:	004a5a13          	srli	s4,s4,0x4
300038a0:	0ffa7a13          	andi	s4,s4,255
300038a4:	01640b33          	add	s6,s0,s6
300038a8:	034b0823          	sb	s4,48(s6)
300038ac:	e65ff06f          	j	30003710 <put_fat.part.6+0x50>

300038b0 <dir_next.constprop.11>:
300038b0:	fe010113          	addi	sp,sp,-32
300038b4:	00812c23          	sw	s0,24(sp)
300038b8:	00655403          	lhu	s0,6(a0)
300038bc:	00112e23          	sw	ra,28(sp)
300038c0:	00912a23          	sw	s1,20(sp)
300038c4:	00140413          	addi	s0,s0,1
300038c8:	01041413          	slli	s0,s0,0x10
300038cc:	01212823          	sw	s2,16(sp)
300038d0:	01312623          	sw	s3,12(sp)
300038d4:	01045413          	srli	s0,s0,0x10
300038d8:	0c040e63          	beqz	s0,300039b4 <dir_next.constprop.11+0x104>
300038dc:	01052703          	lw	a4,16(a0)
300038e0:	0c070a63          	beqz	a4,300039b4 <dir_next.constprop.11+0x104>
300038e4:	00f47913          	andi	s2,s0,15
300038e8:	00050493          	mv	s1,a0
300038ec:	00052503          	lw	a0,0(a0)
300038f0:	02090c63          	beqz	s2,30003928 <dir_next.constprop.11+0x78>
300038f4:	03050793          	addi	a5,a0,48
300038f8:	00591913          	slli	s2,s2,0x5
300038fc:	012787b3          	add	a5,a5,s2
30003900:	00849323          	sh	s0,6(s1)
30003904:	00f4aa23          	sw	a5,20(s1)
30003908:	00000513          	li	a0,0
3000390c:	01c12083          	lw	ra,28(sp)
30003910:	01812403          	lw	s0,24(sp)
30003914:	01412483          	lw	s1,20(sp)
30003918:	01012903          	lw	s2,16(sp)
3000391c:	00c12983          	lw	s3,12(sp)
30003920:	02010113          	addi	sp,sp,32
30003924:	00008067          	ret
30003928:	00c4a583          	lw	a1,12(s1)
3000392c:	00170713          	addi	a4,a4,1 # f0000001 <__bss_end__+0xbff00001>
30003930:	00e4a823          	sw	a4,16(s1)
30003934:	06058c63          	beqz	a1,300039ac <dir_next.constprop.11+0xfc>
30003938:	00254683          	lbu	a3,2(a0)
3000393c:	00445713          	srli	a4,s0,0x4
30003940:	fff68693          	addi	a3,a3,-1
30003944:	00e6f733          	and	a4,a3,a4
30003948:	fa0716e3          	bnez	a4,300038f4 <dir_next.constprop.11+0x44>
3000394c:	00100993          	li	s3,1
30003950:	08b9f263          	bgeu	s3,a1,300039d4 <dir_next.constprop.11+0x124>
30003954:	01852703          	lw	a4,24(a0)
30003958:	06e5fe63          	bgeu	a1,a4,300039d4 <dir_next.constprop.11+0x124>
3000395c:	a49ff0ef          	jal	ra,300033a4 <get_fat.part.5>
30003960:	00050713          	mv	a4,a0
30003964:	06a9f863          	bgeu	s3,a0,300039d4 <dir_next.constprop.11+0x124>
30003968:	fff00793          	li	a5,-1
3000396c:	00100513          	li	a0,1
30003970:	f8f70ee3          	beq	a4,a5,3000390c <dir_next.constprop.11+0x5c>
30003974:	0004a503          	lw	a0,0(s1)
30003978:	01852683          	lw	a3,24(a0)
3000397c:	02d77c63          	bgeu	a4,a3,300039b4 <dir_next.constprop.11+0x104>
30003980:	00e4a623          	sw	a4,12(s1)
30003984:	ffe68693          	addi	a3,a3,-2
30003988:	ffe70713          	addi	a4,a4,-2
3000398c:	00000613          	li	a2,0
30003990:	00d77a63          	bgeu	a4,a3,300039a4 <dir_next.constprop.11+0xf4>
30003994:	00254603          	lbu	a2,2(a0)
30003998:	02852683          	lw	a3,40(a0)
3000399c:	02e60733          	mul	a4,a2,a4
300039a0:	00d70633          	add	a2,a4,a3
300039a4:	00c4a823          	sw	a2,16(s1)
300039a8:	f4dff06f          	j	300038f4 <dir_next.constprop.11+0x44>
300039ac:	00855703          	lhu	a4,8(a0)
300039b0:	f4e462e3          	bltu	s0,a4,300038f4 <dir_next.constprop.11+0x44>
300039b4:	01c12083          	lw	ra,28(sp)
300039b8:	01812403          	lw	s0,24(sp)
300039bc:	01412483          	lw	s1,20(sp)
300039c0:	01012903          	lw	s2,16(sp)
300039c4:	00c12983          	lw	s3,12(sp)
300039c8:	00400513          	li	a0,4
300039cc:	02010113          	addi	sp,sp,32
300039d0:	00008067          	ret
300039d4:	00200513          	li	a0,2
300039d8:	f35ff06f          	j	3000390c <dir_next.constprop.11+0x5c>

300039dc <sync>:
300039dc:	fe010113          	addi	sp,sp,-32
300039e0:	00912a23          	sw	s1,20(sp)
300039e4:	02c52483          	lw	s1,44(a0)
300039e8:	00812c23          	sw	s0,24(sp)
300039ec:	00112e23          	sw	ra,28(sp)
300039f0:	01212823          	sw	s2,16(sp)
300039f4:	01312623          	sw	s3,12(sp)
300039f8:	00050413          	mv	s0,a0
300039fc:	00048663          	beqz	s1,30003a08 <sync+0x2c>
30003a00:	00454783          	lbu	a5,4(a0)
30003a04:	04079263          	bnez	a5,30003a48 <sync+0x6c>
30003a08:	00044703          	lbu	a4,0(s0)
30003a0c:	00300793          	li	a5,3
30003a10:	0af70463          	beq	a4,a5,30003ab8 <sync+0xdc>
30003a14:	00144503          	lbu	a0,1(s0)
30003a18:	00000613          	li	a2,0
30003a1c:	00000593          	li	a1,0
30003a20:	9b1fe0ef          	jal	ra,300023d0 <disk_ioctl>
30003a24:	00a037b3          	snez	a5,a0
30003a28:	01c12083          	lw	ra,28(sp)
30003a2c:	01812403          	lw	s0,24(sp)
30003a30:	01412483          	lw	s1,20(sp)
30003a34:	01012903          	lw	s2,16(sp)
30003a38:	00c12983          	lw	s3,12(sp)
30003a3c:	00078513          	mv	a0,a5
30003a40:	02010113          	addi	sp,sp,32
30003a44:	00008067          	ret
30003a48:	00154503          	lbu	a0,1(a0)
30003a4c:	03040993          	addi	s3,s0,48
30003a50:	00100693          	li	a3,1
30003a54:	00048613          	mv	a2,s1
30003a58:	00098593          	mv	a1,s3
30003a5c:	eacfe0ef          	jal	ra,30002108 <disk_write>
30003a60:	00100793          	li	a5,1
30003a64:	fc0512e3          	bnez	a0,30003a28 <sync+0x4c>
30003a68:	01c42703          	lw	a4,28(s0)
30003a6c:	02042683          	lw	a3,32(s0)
30003a70:	00040223          	sb	zero,4(s0)
30003a74:	00d706b3          	add	a3,a4,a3
30003a78:	f8d4f8e3          	bgeu	s1,a3,30003a08 <sync+0x2c>
30003a7c:	00344903          	lbu	s2,3(s0)
30003a80:	0127e663          	bltu	a5,s2,30003a8c <sync+0xb0>
30003a84:	f85ff06f          	j	30003a08 <sync+0x2c>
30003a88:	01c42703          	lw	a4,28(s0)
30003a8c:	00144503          	lbu	a0,1(s0)
30003a90:	00e484b3          	add	s1,s1,a4
30003a94:	00100693          	li	a3,1
30003a98:	00048613          	mv	a2,s1
30003a9c:	00098593          	mv	a1,s3
30003aa0:	e68fe0ef          	jal	ra,30002108 <disk_write>
30003aa4:	fff90913          	addi	s2,s2,-1
30003aa8:	0ff97913          	andi	s2,s2,255
30003aac:	00100793          	li	a5,1
30003ab0:	fcf91ce3          	bne	s2,a5,30003a88 <sync+0xac>
30003ab4:	f55ff06f          	j	30003a08 <sync+0x2c>
30003ab8:	00544783          	lbu	a5,5(s0)
30003abc:	f4078ce3          	beqz	a5,30003a14 <sync+0x38>
30003ac0:	03040793          	addi	a5,s0,48
30003ac4:	20000613          	li	a2,512
30003ac8:	00000593          	li	a1,0
30003acc:	00078513          	mv	a0,a5
30003ad0:	02042623          	sw	zero,44(s0)
30003ad4:	55d080ef          	jal	ra,3000c830 <memset>
30003ad8:	ffffb737          	lui	a4,0xffffb
30003adc:	a5570713          	addi	a4,a4,-1451 # ffffaa55 <__bss_end__+0xcfefaa55>
30003ae0:	22e41723          	sh	a4,558(s0)
30003ae4:	41615737          	lui	a4,0x41615
30003ae8:	01042583          	lw	a1,16(s0)
30003aec:	00c42683          	lw	a3,12(s0)
30003af0:	25270713          	addi	a4,a4,594 # 41615252 <__bss_end__+0x11515252>
30003af4:	00050793          	mv	a5,a0
30003af8:	02e42823          	sw	a4,48(s0)
30003afc:	01442603          	lw	a2,20(s0)
30003b00:	00144503          	lbu	a0,1(s0)
30003b04:	61417737          	lui	a4,0x61417
30003b08:	27270713          	addi	a4,a4,626 # 61417272 <__bss_end__+0x31317272>
30003b0c:	20b42c23          	sw	a1,536(s0)
30003b10:	20d42e23          	sw	a3,540(s0)
30003b14:	20e42a23          	sw	a4,532(s0)
30003b18:	00100693          	li	a3,1
30003b1c:	00078593          	mv	a1,a5
30003b20:	de8fe0ef          	jal	ra,30002108 <disk_write>
30003b24:	000402a3          	sb	zero,5(s0)
30003b28:	eedff06f          	j	30003a14 <sync+0x38>

30003b2c <dir_find.part.7>:
30003b2c:	fb010113          	addi	sp,sp,-80
30003b30:	03812423          	sw	s8,40(sp)
30003b34:	03912223          	sw	s9,36(sp)
30003b38:	00052c03          	lw	s8,0(a0)
30003b3c:	01052c83          	lw	s9,16(a0)
30003b40:	03412c23          	sw	s4,56(sp)
30003b44:	00010a37          	lui	s4,0x10
30003b48:	04912223          	sw	s1,68(sp)
30003b4c:	05212023          	sw	s2,64(sp)
30003b50:	03312e23          	sw	s3,60(sp)
30003b54:	03512a23          	sw	s5,52(sp)
30003b58:	03612823          	sw	s6,48(sp)
30003b5c:	03712623          	sw	s7,44(sp)
30003b60:	04112623          	sw	ra,76(sp)
30003b64:	04812423          	sw	s0,72(sp)
30003b68:	03a12023          	sw	s10,32(sp)
30003b6c:	01b12e23          	sw	s11,28(sp)
30003b70:	00050b93          	mv	s7,a0
30003b74:	0ff00993          	li	s3,255
30003b78:	0ff00493          	li	s1,255
30003b7c:	0e500913          	li	s2,229
30003b80:	3000eb37          	lui	s6,0x3000e
30003b84:	fffa0a13          	addi	s4,s4,-1 # ffff <stackPointer+0xa57f>
30003b88:	0fe00a93          	li	s5,254
30003b8c:	02cc2403          	lw	s0,44(s8)
30003b90:	01940863          	beq	s0,s9,30003ba0 <dir_find.part.7+0x74>
30003b94:	004c4783          	lbu	a5,4(s8)
30003b98:	08079663          	bnez	a5,30003c24 <dir_find.part.7+0xf8>
30003b9c:	0e0c9c63          	bnez	s9,30003c94 <dir_find.part.7+0x168>
30003ba0:	014ba403          	lw	s0,20(s7)
30003ba4:	00044703          	lbu	a4,0(s0)
30003ba8:	10070a63          	beqz	a4,30003cbc <dir_find.part.7+0x190>
30003bac:	00b44783          	lbu	a5,11(s0)
30003bb0:	03f7f693          	andi	a3,a5,63
30003bb4:	01270a63          	beq	a4,s2,30003bc8 <dir_find.part.7+0x9c>
30003bb8:	0087f793          	andi	a5,a5,8
30003bbc:	1e078663          	beqz	a5,30003da8 <dir_find.part.7+0x27c>
30003bc0:	00f00793          	li	a5,15
30003bc4:	12f68c63          	beq	a3,a5,30003cfc <dir_find.part.7+0x1d0>
30003bc8:	0ff00493          	li	s1,255
30003bcc:	006bd403          	lhu	s0,6(s7)
30003bd0:	00140413          	addi	s0,s0,1
30003bd4:	01041413          	slli	s0,s0,0x10
30003bd8:	01045413          	srli	s0,s0,0x10
30003bdc:	0e040063          	beqz	s0,30003cbc <dir_find.part.7+0x190>
30003be0:	010bac83          	lw	s9,16(s7)
30003be4:	0c0c8c63          	beqz	s9,30003cbc <dir_find.part.7+0x190>
30003be8:	00f47d13          	andi	s10,s0,15
30003bec:	000bac03          	lw	s8,0(s7)
30003bf0:	000d1e63          	bnez	s10,30003c0c <dir_find.part.7+0xe0>
30003bf4:	00cba583          	lw	a1,12(s7)
30003bf8:	001c8c93          	addi	s9,s9,1
30003bfc:	019ba823          	sw	s9,16(s7)
30003c00:	26059263          	bnez	a1,30003e64 <dir_find.part.7+0x338>
30003c04:	008c5783          	lhu	a5,8(s8)
30003c08:	0af47a63          	bgeu	s0,a5,30003cbc <dir_find.part.7+0x190>
30003c0c:	030c0793          	addi	a5,s8,48
30003c10:	005d1d13          	slli	s10,s10,0x5
30003c14:	01a787b3          	add	a5,a5,s10
30003c18:	008b9323          	sh	s0,6(s7)
30003c1c:	00fbaa23          	sw	a5,20(s7)
30003c20:	f6dff06f          	j	30003b8c <dir_find.part.7+0x60>
30003c24:	001c4503          	lbu	a0,1(s8)
30003c28:	030c0d93          	addi	s11,s8,48
30003c2c:	00100693          	li	a3,1
30003c30:	00040613          	mv	a2,s0
30003c34:	000d8593          	mv	a1,s11
30003c38:	cd0fe0ef          	jal	ra,30002108 <disk_write>
30003c3c:	22051063          	bnez	a0,30003e5c <dir_find.part.7+0x330>
30003c40:	01cc2783          	lw	a5,28(s8)
30003c44:	020c2703          	lw	a4,32(s8)
30003c48:	000c0223          	sb	zero,4(s8)
30003c4c:	00e78733          	add	a4,a5,a4
30003c50:	f4e476e3          	bgeu	s0,a4,30003b9c <dir_find.part.7+0x70>
30003c54:	003c4d03          	lbu	s10,3(s8)
30003c58:	00100713          	li	a4,1
30003c5c:	01a76663          	bltu	a4,s10,30003c68 <dir_find.part.7+0x13c>
30003c60:	f3dff06f          	j	30003b9c <dir_find.part.7+0x70>
30003c64:	01cc2783          	lw	a5,28(s8)
30003c68:	001c4503          	lbu	a0,1(s8)
30003c6c:	00f40433          	add	s0,s0,a5
30003c70:	00100693          	li	a3,1
30003c74:	00040613          	mv	a2,s0
30003c78:	000d8593          	mv	a1,s11
30003c7c:	c8cfe0ef          	jal	ra,30002108 <disk_write>
30003c80:	fffd0d13          	addi	s10,s10,-1
30003c84:	0ffd7d13          	andi	s10,s10,255
30003c88:	00100793          	li	a5,1
30003c8c:	fcfd1ce3          	bne	s10,a5,30003c64 <dir_find.part.7+0x138>
30003c90:	f00c88e3          	beqz	s9,30003ba0 <dir_find.part.7+0x74>
30003c94:	001c4503          	lbu	a0,1(s8)
30003c98:	00100693          	li	a3,1
30003c9c:	000c8613          	mv	a2,s9
30003ca0:	030c0593          	addi	a1,s8,48
30003ca4:	b14fe0ef          	jal	ra,30001fb8 <disk_read>
30003ca8:	1a051a63          	bnez	a0,30003e5c <dir_find.part.7+0x330>
30003cac:	014ba403          	lw	s0,20(s7)
30003cb0:	039c2623          	sw	s9,44(s8)
30003cb4:	00044703          	lbu	a4,0(s0)
30003cb8:	ee071ae3          	bnez	a4,30003bac <dir_find.part.7+0x80>
30003cbc:	00400513          	li	a0,4
30003cc0:	04c12083          	lw	ra,76(sp)
30003cc4:	04812403          	lw	s0,72(sp)
30003cc8:	04412483          	lw	s1,68(sp)
30003ccc:	04012903          	lw	s2,64(sp)
30003cd0:	03c12983          	lw	s3,60(sp)
30003cd4:	03812a03          	lw	s4,56(sp)
30003cd8:	03412a83          	lw	s5,52(sp)
30003cdc:	03012b03          	lw	s6,48(sp)
30003ce0:	02c12b83          	lw	s7,44(sp)
30003ce4:	02812c03          	lw	s8,40(sp)
30003ce8:	02412c83          	lw	s9,36(sp)
30003cec:	02012d03          	lw	s10,32(sp)
30003cf0:	01c12d83          	lw	s11,28(sp)
30003cf4:	05010113          	addi	sp,sp,80
30003cf8:	00008067          	ret
30003cfc:	01cbac83          	lw	s9,28(s7)
30003d00:	ec0c86e3          	beqz	s9,30003bcc <dir_find.part.7+0xa0>
30003d04:	04077793          	andi	a5,a4,64
30003d08:	2e078863          	beqz	a5,30003ff8 <dir_find.part.7+0x4cc>
30003d0c:	006bd783          	lhu	a5,6(s7)
30003d10:	00d44983          	lbu	s3,13(s0)
30003d14:	0bf77493          	andi	s1,a4,191
30003d18:	02fb9023          	sh	a5,32(s7)
30003d1c:	00d44783          	lbu	a5,13(s0)
30003d20:	eb3794e3          	bne	a5,s3,30003bc8 <dir_find.part.7+0x9c>
30003d24:	00044783          	lbu	a5,0(s0)
30003d28:	498b0d13          	addi	s10,s6,1176 # 3000e498 <LfnOfs>
30003d2c:	00dd0c13          	addi	s8,s10,13
30003d30:	fbf7f793          	andi	a5,a5,-65
30003d34:	fff78793          	addi	a5,a5,-1
30003d38:	00179d93          	slli	s11,a5,0x1
30003d3c:	00fd8db3          	add	s11,s11,a5
30003d40:	002d9d93          	slli	s11,s11,0x2
30003d44:	00fd8db3          	add	s11,s11,a5
30003d48:	00100693          	li	a3,1
30003d4c:	0100006f          	j	30003d5c <dir_find.part.7+0x230>
30003d50:	e7451ce3          	bne	a0,s4,30003bc8 <dir_find.part.7+0x9c>
30003d54:	001d0d13          	addi	s10,s10,1
30003d58:	2b8d0463          	beq	s10,s8,30004000 <dir_find.part.7+0x4d4>
30003d5c:	000d4703          	lbu	a4,0(s10)
30003d60:	00e40733          	add	a4,s0,a4
30003d64:	00174783          	lbu	a5,1(a4)
30003d68:	00074703          	lbu	a4,0(a4)
30003d6c:	00879793          	slli	a5,a5,0x8
30003d70:	00e7e533          	or	a0,a5,a4
30003d74:	fc068ee3          	beqz	a3,30003d50 <dir_find.part.7+0x224>
30003d78:	a69fe0ef          	jal	ra,300027e0 <ff_wtoupper>
30003d7c:	001d9793          	slli	a5,s11,0x1
30003d80:	00a12623          	sw	a0,12(sp)
30003d84:	00fc87b3          	add	a5,s9,a5
30003d88:	e5bae0e3          	bltu	s5,s11,30003bc8 <dir_find.part.7+0x9c>
30003d8c:	0007d503          	lhu	a0,0(a5)
30003d90:	001d8d93          	addi	s11,s11,1
30003d94:	a4dfe0ef          	jal	ra,300027e0 <ff_wtoupper>
30003d98:	00c12703          	lw	a4,12(sp)
30003d9c:	00050693          	mv	a3,a0
30003da0:	faa70ae3          	beq	a4,a0,30003d54 <dir_find.part.7+0x228>
30003da4:	e25ff06f          	j	30003bc8 <dir_find.part.7+0x9c>
30003da8:	00f00793          	li	a5,15
30003dac:	f4f688e3          	beq	a3,a5,30003cfc <dir_find.part.7+0x1d0>
30003db0:	12048663          	beqz	s1,30003edc <dir_find.part.7+0x3b0>
30003db4:	018ba783          	lw	a5,24(s7)
30003db8:	fff00713          	li	a4,-1
30003dbc:	02eb9023          	sh	a4,32(s7)
30003dc0:	00b7c703          	lbu	a4,11(a5)
30003dc4:	0ff00493          	li	s1,255
30003dc8:	00177713          	andi	a4,a4,1
30003dcc:	e00710e3          	bnez	a4,30003bcc <dir_find.part.7+0xa0>
30003dd0:	0007c683          	lbu	a3,0(a5)
30003dd4:	00044703          	lbu	a4,0(s0)
30003dd8:	dee69ae3          	bne	a3,a4,30003bcc <dir_find.part.7+0xa0>
30003ddc:	00144683          	lbu	a3,1(s0)
30003de0:	0017c703          	lbu	a4,1(a5)
30003de4:	dee694e3          	bne	a3,a4,30003bcc <dir_find.part.7+0xa0>
30003de8:	00244683          	lbu	a3,2(s0)
30003dec:	0027c703          	lbu	a4,2(a5)
30003df0:	dce69ee3          	bne	a3,a4,30003bcc <dir_find.part.7+0xa0>
30003df4:	0037c683          	lbu	a3,3(a5)
30003df8:	00344703          	lbu	a4,3(s0)
30003dfc:	dce698e3          	bne	a3,a4,30003bcc <dir_find.part.7+0xa0>
30003e00:	00444683          	lbu	a3,4(s0)
30003e04:	0047c703          	lbu	a4,4(a5)
30003e08:	dce692e3          	bne	a3,a4,30003bcc <dir_find.part.7+0xa0>
30003e0c:	00544683          	lbu	a3,5(s0)
30003e10:	0057c703          	lbu	a4,5(a5)
30003e14:	dae69ce3          	bne	a3,a4,30003bcc <dir_find.part.7+0xa0>
30003e18:	00644683          	lbu	a3,6(s0)
30003e1c:	0067c703          	lbu	a4,6(a5)
30003e20:	dae696e3          	bne	a3,a4,30003bcc <dir_find.part.7+0xa0>
30003e24:	00744683          	lbu	a3,7(s0)
30003e28:	0077c703          	lbu	a4,7(a5)
30003e2c:	dae690e3          	bne	a3,a4,30003bcc <dir_find.part.7+0xa0>
30003e30:	00844683          	lbu	a3,8(s0)
30003e34:	0087c703          	lbu	a4,8(a5)
30003e38:	d8e698e3          	bne	a3,a4,30003bc8 <dir_find.part.7+0x9c>
30003e3c:	00944683          	lbu	a3,9(s0)
30003e40:	0097c703          	lbu	a4,9(a5)
30003e44:	d8e692e3          	bne	a3,a4,30003bc8 <dir_find.part.7+0x9c>
30003e48:	00a44703          	lbu	a4,10(s0)
30003e4c:	00a7c783          	lbu	a5,10(a5)
30003e50:	d6f71ee3          	bne	a4,a5,30003bcc <dir_find.part.7+0xa0>
30003e54:	00000513          	li	a0,0
30003e58:	e69ff06f          	j	30003cc0 <dir_find.part.7+0x194>
30003e5c:	00100513          	li	a0,1
30003e60:	e61ff06f          	j	30003cc0 <dir_find.part.7+0x194>
30003e64:	002c4703          	lbu	a4,2(s8)
30003e68:	00445793          	srli	a5,s0,0x4
30003e6c:	fff70713          	addi	a4,a4,-1
30003e70:	00f777b3          	and	a5,a4,a5
30003e74:	d8079ce3          	bnez	a5,30003c0c <dir_find.part.7+0xe0>
30003e78:	00100c93          	li	s9,1
30003e7c:	04bcfc63          	bgeu	s9,a1,30003ed4 <dir_find.part.7+0x3a8>
30003e80:	018c2783          	lw	a5,24(s8)
30003e84:	04f5f863          	bgeu	a1,a5,30003ed4 <dir_find.part.7+0x3a8>
30003e88:	000c0513          	mv	a0,s8
30003e8c:	d18ff0ef          	jal	ra,300033a4 <get_fat.part.5>
30003e90:	04acf263          	bgeu	s9,a0,30003ed4 <dir_find.part.7+0x3a8>
30003e94:	fff00793          	li	a5,-1
30003e98:	fcf502e3          	beq	a0,a5,30003e5c <dir_find.part.7+0x330>
30003e9c:	000bac03          	lw	s8,0(s7)
30003ea0:	018c2783          	lw	a5,24(s8)
30003ea4:	e0f57ce3          	bgeu	a0,a5,30003cbc <dir_find.part.7+0x190>
30003ea8:	00aba623          	sw	a0,12(s7)
30003eac:	ffe78793          	addi	a5,a5,-2
30003eb0:	ffe50513          	addi	a0,a0,-2
30003eb4:	00000c93          	li	s9,0
30003eb8:	00f57a63          	bgeu	a0,a5,30003ecc <dir_find.part.7+0x3a0>
30003ebc:	002c4c83          	lbu	s9,2(s8)
30003ec0:	028c2783          	lw	a5,40(s8)
30003ec4:	02ac8533          	mul	a0,s9,a0
30003ec8:	00f50cb3          	add	s9,a0,a5
30003ecc:	019ba823          	sw	s9,16(s7)
30003ed0:	d3dff06f          	j	30003c0c <dir_find.part.7+0xe0>
30003ed4:	00200513          	li	a0,2
30003ed8:	de9ff06f          	j	30003cc0 <dir_find.part.7+0x194>
30003edc:	00144683          	lbu	a3,1(s0)
30003ee0:	00175793          	srli	a5,a4,0x1
30003ee4:	00771713          	slli	a4,a4,0x7
30003ee8:	00e7e733          	or	a4,a5,a4
30003eec:	00d707b3          	add	a5,a4,a3
30003ef0:	0ff7f713          	andi	a4,a5,255
30003ef4:	00244683          	lbu	a3,2(s0)
30003ef8:	00779793          	slli	a5,a5,0x7
30003efc:	00175713          	srli	a4,a4,0x1
30003f00:	00f76733          	or	a4,a4,a5
30003f04:	0ff77713          	andi	a4,a4,255
30003f08:	00d70733          	add	a4,a4,a3
30003f0c:	0ff77793          	andi	a5,a4,255
30003f10:	00344683          	lbu	a3,3(s0)
30003f14:	00771713          	slli	a4,a4,0x7
30003f18:	0017d793          	srli	a5,a5,0x1
30003f1c:	00e7e7b3          	or	a5,a5,a4
30003f20:	0ff7f793          	andi	a5,a5,255
30003f24:	00d787b3          	add	a5,a5,a3
30003f28:	0ff7f713          	andi	a4,a5,255
30003f2c:	00444683          	lbu	a3,4(s0)
30003f30:	00779793          	slli	a5,a5,0x7
30003f34:	00175713          	srli	a4,a4,0x1
30003f38:	00f76733          	or	a4,a4,a5
30003f3c:	0ff77713          	andi	a4,a4,255
30003f40:	00d70733          	add	a4,a4,a3
30003f44:	0ff77793          	andi	a5,a4,255
30003f48:	00544683          	lbu	a3,5(s0)
30003f4c:	00771713          	slli	a4,a4,0x7
30003f50:	0017d793          	srli	a5,a5,0x1
30003f54:	00e7e7b3          	or	a5,a5,a4
30003f58:	0ff7f793          	andi	a5,a5,255
30003f5c:	00d787b3          	add	a5,a5,a3
30003f60:	0ff7f713          	andi	a4,a5,255
30003f64:	00644683          	lbu	a3,6(s0)
30003f68:	00779793          	slli	a5,a5,0x7
30003f6c:	00175713          	srli	a4,a4,0x1
30003f70:	00f76733          	or	a4,a4,a5
30003f74:	0ff77713          	andi	a4,a4,255
30003f78:	00d70733          	add	a4,a4,a3
30003f7c:	0ff77793          	andi	a5,a4,255
30003f80:	00744683          	lbu	a3,7(s0)
30003f84:	00771713          	slli	a4,a4,0x7
30003f88:	0017d793          	srli	a5,a5,0x1
30003f8c:	00e7e7b3          	or	a5,a5,a4
30003f90:	0ff7f793          	andi	a5,a5,255
30003f94:	00d787b3          	add	a5,a5,a3
30003f98:	0ff7f713          	andi	a4,a5,255
30003f9c:	00844683          	lbu	a3,8(s0)
30003fa0:	00779793          	slli	a5,a5,0x7
30003fa4:	00175713          	srli	a4,a4,0x1
30003fa8:	00f76733          	or	a4,a4,a5
30003fac:	0ff77713          	andi	a4,a4,255
30003fb0:	00d70733          	add	a4,a4,a3
30003fb4:	0ff77793          	andi	a5,a4,255
30003fb8:	00944683          	lbu	a3,9(s0)
30003fbc:	00771713          	slli	a4,a4,0x7
30003fc0:	0017d793          	srli	a5,a5,0x1
30003fc4:	00e7e7b3          	or	a5,a5,a4
30003fc8:	0ff7f793          	andi	a5,a5,255
30003fcc:	00d787b3          	add	a5,a5,a3
30003fd0:	0ff7f713          	andi	a4,a5,255
30003fd4:	00a44683          	lbu	a3,10(s0)
30003fd8:	00175713          	srli	a4,a4,0x1
30003fdc:	00779793          	slli	a5,a5,0x7
30003fe0:	00f767b3          	or	a5,a4,a5
30003fe4:	00d787b3          	add	a5,a5,a3
30003fe8:	0ff7f793          	andi	a5,a5,255
30003fec:	dd3794e3          	bne	a5,s3,30003db4 <dir_find.part.7+0x288>
30003ff0:	00000513          	li	a0,0
30003ff4:	ccdff06f          	j	30003cc0 <dir_find.part.7+0x194>
30003ff8:	bc9718e3          	bne	a4,s1,30003bc8 <dir_find.part.7+0x9c>
30003ffc:	d21ff06f          	j	30003d1c <dir_find.part.7+0x1f0>
30004000:	00044783          	lbu	a5,0(s0)
30004004:	0407f793          	andi	a5,a5,64
30004008:	00078c63          	beqz	a5,30004020 <dir_find.part.7+0x4f4>
3000400c:	00068a63          	beqz	a3,30004020 <dir_find.part.7+0x4f4>
30004010:	001d9d93          	slli	s11,s11,0x1
30004014:	01bc8cb3          	add	s9,s9,s11
30004018:	000cd783          	lhu	a5,0(s9)
3000401c:	ba0796e3          	bnez	a5,30003bc8 <dir_find.part.7+0x9c>
30004020:	fff48493          	addi	s1,s1,-1
30004024:	0ff4f493          	andi	s1,s1,255
30004028:	ba5ff06f          	j	30003bcc <dir_find.part.7+0xa0>

3000402c <follow_path>:
3000402c:	fb010113          	addi	sp,sp,-80
30004030:	03412c23          	sw	s4,56(sp)
30004034:	01b12e23          	sw	s11,28(sp)
30004038:	04112623          	sw	ra,76(sp)
3000403c:	04812423          	sw	s0,72(sp)
30004040:	04912223          	sw	s1,68(sp)
30004044:	05212023          	sw	s2,64(sp)
30004048:	03312e23          	sw	s3,60(sp)
3000404c:	03512a23          	sw	s5,52(sp)
30004050:	03612823          	sw	s6,48(sp)
30004054:	03712623          	sw	s7,44(sp)
30004058:	03812423          	sw	s8,40(sp)
3000405c:	03912223          	sw	s9,36(sp)
30004060:	03a12023          	sw	s10,32(sp)
30004064:	0005c703          	lbu	a4,0(a1)
30004068:	02f00693          	li	a3,47
3000406c:	00058a13          	mv	s4,a1
30004070:	00050d93          	mv	s11,a0
30004074:	12d70063          	beq	a4,a3,30004194 <follow_path+0x168>
30004078:	05c00693          	li	a3,92
3000407c:	10d70c63          	beq	a4,a3,30004194 <follow_path+0x168>
30004080:	000da423          	sw	zero,8(s11)
30004084:	000a4683          	lbu	a3,0(s4)
30004088:	01f00713          	li	a4,31
3000408c:	10d77e63          	bgeu	a4,a3,300041a8 <follow_path+0x17c>
30004090:	3000e9b7          	lui	s3,0x3000e
30004094:	49898793          	addi	a5,s3,1176 # 3000e498 <LfnOfs>
30004098:	02f00493          	li	s1,47
3000409c:	00f12623          	sw	a5,12(sp)
300040a0:	05c00713          	li	a4,92
300040a4:	000a4503          	lbu	a0,0(s4)
300040a8:	00950463          	beq	a0,s1,300040b0 <follow_path+0x84>
300040ac:	00e51663          	bne	a0,a4,300040b8 <follow_path+0x8c>
300040b0:	001a0a13          	addi	s4,s4,1
300040b4:	ff1ff06f          	j	300040a4 <follow_path+0x78>
300040b8:	01051513          	slli	a0,a0,0x10
300040bc:	01055513          	srli	a0,a0,0x10
300040c0:	01f00693          	li	a3,31
300040c4:	01cda983          	lw	s3,28(s11)
300040c8:	08a6f663          	bgeu	a3,a0,30004154 <follow_path+0x128>
300040cc:	08950463          	beq	a0,s1,30004154 <follow_path+0x128>
300040d0:	08e50263          	beq	a0,a4,30004154 <follow_path+0x128>
300040d4:	00098913          	mv	s2,s3
300040d8:	00098b13          	mv	s6,s3
300040dc:	00100413          	li	s0,1
300040e0:	07f00d13          	li	s10,127
300040e4:	02200c93          	li	s9,34
300040e8:	01f00c13          	li	s8,31
300040ec:	05c00b93          	li	s7,92
300040f0:	0300006f          	j	30004120 <follow_path+0xf4>
300040f4:	00140713          	addi	a4,s0,1
300040f8:	00ab1023          	sh	a0,0(s6)
300040fc:	00ea0ab3          	add	s5,s4,a4
30004100:	fffac503          	lbu	a0,-1(s5)
30004104:	3cac7463          	bgeu	s8,a0,300044cc <follow_path+0x4a0>
30004108:	0a950a63          	beq	a0,s1,300041bc <follow_path+0x190>
3000410c:	0b750863          	beq	a0,s7,300041bc <follow_path+0x190>
30004110:	10000793          	li	a5,256
30004114:	002b0b13          	addi	s6,s6,2
30004118:	02f70e63          	beq	a4,a5,30004154 <follow_path+0x128>
3000411c:	00070413          	mv	s0,a4
30004120:	00100593          	li	a1,1
30004124:	e44fe0ef          	jal	ra,30002768 <ff_convert>
30004128:	02050663          	beqz	a0,30004154 <follow_path+0x128>
3000412c:	fcad64e3          	bltu	s10,a0,300040f4 <follow_path+0xc8>
30004130:	03950263          	beq	a0,s9,30004154 <follow_path+0x128>
30004134:	3000e7b7          	lui	a5,0x3000e
30004138:	02a00693          	li	a3,42
3000413c:	e9178713          	addi	a4,a5,-367 # 3000de91 <__clzsi2+0x10d>
30004140:	00c0006f          	j	3000414c <follow_path+0x120>
30004144:	00074683          	lbu	a3,0(a4)
30004148:	fa0686e3          	beqz	a3,300040f4 <follow_path+0xc8>
3000414c:	00170713          	addi	a4,a4,1
30004150:	fed51ae3          	bne	a0,a3,30004144 <follow_path+0x118>
30004154:	00600513          	li	a0,6
30004158:	04c12083          	lw	ra,76(sp)
3000415c:	04812403          	lw	s0,72(sp)
30004160:	04412483          	lw	s1,68(sp)
30004164:	04012903          	lw	s2,64(sp)
30004168:	03c12983          	lw	s3,60(sp)
3000416c:	03812a03          	lw	s4,56(sp)
30004170:	03412a83          	lw	s5,52(sp)
30004174:	03012b03          	lw	s6,48(sp)
30004178:	02c12b83          	lw	s7,44(sp)
3000417c:	02812c03          	lw	s8,40(sp)
30004180:	02412c83          	lw	s9,36(sp)
30004184:	02012d03          	lw	s10,32(sp)
30004188:	01c12d83          	lw	s11,28(sp)
3000418c:	05010113          	addi	sp,sp,80
30004190:	00008067          	ret
30004194:	001a0a13          	addi	s4,s4,1
30004198:	000da423          	sw	zero,8(s11)
3000419c:	000a4683          	lbu	a3,0(s4)
300041a0:	01f00713          	li	a4,31
300041a4:	eed766e3          	bltu	a4,a3,30004090 <follow_path+0x64>
300041a8:	00000593          	li	a1,0
300041ac:	000d8513          	mv	a0,s11
300041b0:	bacff0ef          	jal	ra,3000355c <dir_sdi>
300041b4:	000daa23          	sw	zero,20(s11)
300041b8:	fa1ff06f          	j	30004158 <follow_path+0x12c>
300041bc:	00000b93          	li	s7,0
300041c0:	00141793          	slli	a5,s0,0x1
300041c4:	00f987b3          	add	a5,s3,a5
300041c8:	02000593          	li	a1,32
300041cc:	02e00693          	li	a3,46
300041d0:	ffe7d703          	lhu	a4,-2(a5)
300041d4:	ffe78793          	addi	a5,a5,-2
300041d8:	00b70463          	beq	a4,a1,300041e0 <follow_path+0x1b4>
300041dc:	00d71863          	bne	a4,a3,300041ec <follow_path+0x1c0>
300041e0:	fff40413          	addi	s0,s0,-1
300041e4:	fe0416e3          	bnez	s0,300041d0 <follow_path+0x1a4>
300041e8:	f6dff06f          	j	30004154 <follow_path+0x128>
300041ec:	018da783          	lw	a5,24(s11)
300041f0:	00141713          	slli	a4,s0,0x1
300041f4:	00e98733          	add	a4,s3,a4
300041f8:	00071023          	sh	zero,0(a4)
300041fc:	02000693          	li	a3,32
30004200:	00d780a3          	sb	a3,1(a5)
30004204:	00d78123          	sb	a3,2(a5)
30004208:	00d781a3          	sb	a3,3(a5)
3000420c:	00d78223          	sb	a3,4(a5)
30004210:	00d782a3          	sb	a3,5(a5)
30004214:	00d78323          	sb	a3,6(a5)
30004218:	00d783a3          	sb	a3,7(a5)
3000421c:	00d78423          	sb	a3,8(a5)
30004220:	00d784a3          	sb	a3,9(a5)
30004224:	00d78523          	sb	a3,10(a5)
30004228:	00b78023          	sb	a1,0(a5)
3000422c:	00000b13          	li	s6,0
30004230:	02000693          	li	a3,32
30004234:	02e00793          	li	a5,46
30004238:	00095503          	lhu	a0,0(s2)
3000423c:	00290913          	addi	s2,s2,2
30004240:	00d50463          	beq	a0,a3,30004248 <follow_path+0x21c>
30004244:	00f51663          	bne	a0,a5,30004250 <follow_path+0x224>
30004248:	001b0b13          	addi	s6,s6,1
3000424c:	fedff06f          	j	30004238 <follow_path+0x20c>
30004250:	000b0463          	beqz	s6,30004258 <follow_path+0x22c>
30004254:	003beb93          	ori	s7,s7,3
30004258:	00070793          	mv	a5,a4
3000425c:	02e00693          	li	a3,46
30004260:	ffe7d703          	lhu	a4,-2(a5)
30004264:	ffe78793          	addi	a5,a5,-2
30004268:	00d70663          	beq	a4,a3,30004274 <follow_path+0x248>
3000426c:	fff40413          	addi	s0,s0,-1
30004270:	fe0418e3          	bnez	s0,30004260 <follow_path+0x234>
30004274:	001b0b13          	addi	s6,s6,1
30004278:	28050663          	beqz	a0,30004504 <follow_path+0x4d8>
3000427c:	00000c93          	li	s9,0
30004280:	00800c13          	li	s8,8
30004284:	00000d13          	li	s10,0
30004288:	02000813          	li	a6,32
3000428c:	02e00693          	li	a3,46
30004290:	00b00a13          	li	s4,11
30004294:	07f00913          	li	s2,127
30004298:	07050863          	beq	a0,a6,30004308 <follow_path+0x2dc>
3000429c:	06d50463          	beq	a0,a3,30004304 <follow_path+0x2d8>
300042a0:	178d7063          	bgeu	s10,s8,30004400 <follow_path+0x3d4>
300042a4:	15640063          	beq	s0,s6,300043e4 <follow_path+0x3b8>
300042a8:	1ea96063          	bltu	s2,a0,30004488 <follow_path+0x45c>
300042ac:	02b00793          	li	a5,43
300042b0:	20f50063          	beq	a0,a5,300044b0 <follow_path+0x484>
300042b4:	3000e7b7          	lui	a5,0x3000e
300042b8:	02c00713          	li	a4,44
300042bc:	e9d78793          	addi	a5,a5,-355 # 3000de9d <__clzsi2+0x119>
300042c0:	00178793          	addi	a5,a5,1
300042c4:	1ea70663          	beq	a4,a0,300044b0 <follow_path+0x484>
300042c8:	0007c703          	lbu	a4,0(a5)
300042cc:	fe071ae3          	bnez	a4,300042c0 <follow_path+0x294>
300042d0:	fbf50793          	addi	a5,a0,-65
300042d4:	01079793          	slli	a5,a5,0x10
300042d8:	0107d793          	srli	a5,a5,0x10
300042dc:	01900713          	li	a4,25
300042e0:	1ef77a63          	bgeu	a4,a5,300044d4 <follow_path+0x4a8>
300042e4:	f9f50793          	addi	a5,a0,-97
300042e8:	01079793          	slli	a5,a5,0x10
300042ec:	0107d793          	srli	a5,a5,0x10
300042f0:	00f76663          	bltu	a4,a5,300042fc <follow_path+0x2d0>
300042f4:	fe050513          	addi	a0,a0,-32
300042f8:	001cec93          	ori	s9,s9,1
300042fc:	0ff57513          	andi	a0,a0,255
30004300:	1b80006f          	j	300044b8 <follow_path+0x48c>
30004304:	0f640063          	beq	s0,s6,300043e4 <follow_path+0x3b8>
30004308:	003beb93          	ori	s7,s7,3
3000430c:	001b1793          	slli	a5,s6,0x1
30004310:	00f987b3          	add	a5,s3,a5
30004314:	0007d503          	lhu	a0,0(a5)
30004318:	001b0b13          	addi	s6,s6,1
3000431c:	f6051ee3          	bnez	a0,30004298 <follow_path+0x26c>
30004320:	018da783          	lw	a5,24(s11)
30004324:	0e500713          	li	a4,229
30004328:	0007c683          	lbu	a3,0(a5)
3000432c:	0ee68a63          	beq	a3,a4,30004420 <follow_path+0x3f4>
30004330:	00800713          	li	a4,8
30004334:	10ec0063          	beq	s8,a4,30004434 <follow_path+0x408>
30004338:	00ccf713          	andi	a4,s9,12
3000433c:	00c00693          	li	a3,12
30004340:	10d70863          	beq	a4,a3,30004450 <follow_path+0x424>
30004344:	003cfc93          	andi	s9,s9,3
30004348:	00300693          	li	a3,3
3000434c:	10dc8263          	beq	s9,a3,30004450 <follow_path+0x424>
30004350:	002bf693          	andi	a3,s7,2
30004354:	00069e63          	bnez	a3,30004370 <follow_path+0x344>
30004358:	00100693          	li	a3,1
3000435c:	00dc9463          	bne	s9,a3,30004364 <follow_path+0x338>
30004360:	010beb93          	ori	s7,s7,16
30004364:	00400693          	li	a3,4
30004368:	00d71463          	bne	a4,a3,30004370 <follow_path+0x344>
3000436c:	008beb93          	ori	s7,s7,8
30004370:	017785a3          	sb	s7,11(a5)
30004374:	00000593          	li	a1,0
30004378:	000d8513          	mv	a0,s11
3000437c:	9e0ff0ef          	jal	ra,3000355c <dir_sdi>
30004380:	0e051463          	bnez	a0,30004468 <follow_path+0x43c>
30004384:	000d8513          	mv	a0,s11
30004388:	fa4ff0ef          	jal	ra,30003b2c <dir_find.part.7>
3000438c:	018da783          	lw	a5,24(s11)
30004390:	00b7c783          	lbu	a5,11(a5)
30004394:	0c051e63          	bnez	a0,30004470 <follow_path+0x444>
30004398:	0047f793          	andi	a5,a5,4
3000439c:	da079ee3          	bnez	a5,30004158 <follow_path+0x12c>
300043a0:	014da703          	lw	a4,20(s11)
300043a4:	00b74783          	lbu	a5,11(a4)
300043a8:	0107f793          	andi	a5,a5,16
300043ac:	0c078a63          	beqz	a5,30004480 <follow_path+0x454>
300043b0:	01574783          	lbu	a5,21(a4)
300043b4:	01474583          	lbu	a1,20(a4)
300043b8:	01b74683          	lbu	a3,27(a4)
300043bc:	01a74603          	lbu	a2,26(a4)
300043c0:	00879793          	slli	a5,a5,0x8
300043c4:	00b7e7b3          	or	a5,a5,a1
300043c8:	00869713          	slli	a4,a3,0x8
300043cc:	01079793          	slli	a5,a5,0x10
300043d0:	00c76733          	or	a4,a4,a2
300043d4:	00e7e7b3          	or	a5,a5,a4
300043d8:	00fda423          	sw	a5,8(s11)
300043dc:	000a8a13          	mv	s4,s5
300043e0:	cc1ff06f          	j	300040a0 <follow_path+0x74>
300043e4:	0f4c0e63          	beq	s8,s4,300044e0 <follow_path+0x4b4>
300043e8:	002c9c93          	slli	s9,s9,0x2
300043ec:	0ffcfc93          	andi	s9,s9,255
300043f0:	00040b13          	mv	s6,s0
300043f4:	00b00c13          	li	s8,11
300043f8:	00800d13          	li	s10,8
300043fc:	f11ff06f          	j	3000430c <follow_path+0x2e0>
30004400:	0f4c0063          	beq	s8,s4,300044e0 <follow_path+0x4b4>
30004404:	ff6402e3          	beq	s0,s6,300043e8 <follow_path+0x3bc>
30004408:	003beb93          	ori	s7,s7,3
3000440c:	fd647ee3          	bgeu	s0,s6,300043e8 <follow_path+0x3bc>
30004410:	018da783          	lw	a5,24(s11)
30004414:	0e500713          	li	a4,229
30004418:	0007c683          	lbu	a3,0(a5)
3000441c:	f0e69ae3          	bne	a3,a4,30004330 <follow_path+0x304>
30004420:	00500713          	li	a4,5
30004424:	00e78023          	sb	a4,0(a5)
30004428:	00800713          	li	a4,8
3000442c:	018da783          	lw	a5,24(s11)
30004430:	f0ec14e3          	bne	s8,a4,30004338 <follow_path+0x30c>
30004434:	002c9c93          	slli	s9,s9,0x2
30004438:	00ccf713          	andi	a4,s9,12
3000443c:	00c00693          	li	a3,12
30004440:	00d70863          	beq	a4,a3,30004450 <follow_path+0x424>
30004444:	002bf693          	andi	a3,s7,2
30004448:	f0068ee3          	beqz	a3,30004364 <follow_path+0x338>
3000444c:	f25ff06f          	j	30004370 <follow_path+0x344>
30004450:	002beb93          	ori	s7,s7,2
30004454:	017785a3          	sb	s7,11(a5)
30004458:	00000593          	li	a1,0
3000445c:	000d8513          	mv	a0,s11
30004460:	8fcff0ef          	jal	ra,3000355c <dir_sdi>
30004464:	f20500e3          	beqz	a0,30004384 <follow_path+0x358>
30004468:	018da783          	lw	a5,24(s11)
3000446c:	00b7c783          	lbu	a5,11(a5)
30004470:	00400713          	li	a4,4
30004474:	cee512e3          	bne	a0,a4,30004158 <follow_path+0x12c>
30004478:	0047f793          	andi	a5,a5,4
3000447c:	cc079ee3          	bnez	a5,30004158 <follow_path+0x12c>
30004480:	00500513          	li	a0,5
30004484:	cd5ff06f          	j	30004158 <follow_path+0x12c>
30004488:	00000593          	li	a1,0
3000448c:	adcfe0ef          	jal	ra,30002768 <ff_convert>
30004490:	002beb93          	ori	s7,s7,2
30004494:	02000813          	li	a6,32
30004498:	02e00693          	li	a3,46
3000449c:	00050a63          	beqz	a0,300044b0 <follow_path+0x484>
300044a0:	00c12783          	lw	a5,12(sp)
300044a4:	00a78533          	add	a0,a5,a0
300044a8:	f9054503          	lbu	a0,-112(a0)
300044ac:	e00510e3          	bnez	a0,300042ac <follow_path+0x280>
300044b0:	003beb93          	ori	s7,s7,3
300044b4:	05f00513          	li	a0,95
300044b8:	018da783          	lw	a5,24(s11)
300044bc:	01a787b3          	add	a5,a5,s10
300044c0:	00a78023          	sb	a0,0(a5)
300044c4:	001d0d13          	addi	s10,s10,1
300044c8:	e45ff06f          	j	3000430c <follow_path+0x2e0>
300044cc:	00400b93          	li	s7,4
300044d0:	cf1ff06f          	j	300041c0 <follow_path+0x194>
300044d4:	002cec93          	ori	s9,s9,2
300044d8:	0ff57513          	andi	a0,a0,255
300044dc:	fddff06f          	j	300044b8 <follow_path+0x48c>
300044e0:	018da783          	lw	a5,24(s11)
300044e4:	0e500713          	li	a4,229
300044e8:	003beb93          	ori	s7,s7,3
300044ec:	0007c683          	lbu	a3,0(a5)
300044f0:	e4e694e3          	bne	a3,a4,30004338 <follow_path+0x30c>
300044f4:	00500713          	li	a4,5
300044f8:	00e78023          	sb	a4,0(a5)
300044fc:	018da783          	lw	a5,24(s11)
30004500:	e39ff06f          	j	30004338 <follow_path+0x30c>
30004504:	018da783          	lw	a5,24(s11)
30004508:	0e500713          	li	a4,229
3000450c:	0007c683          	lbu	a3,0(a5)
30004510:	00e68663          	beq	a3,a4,3000451c <follow_path+0x4f0>
30004514:	00000713          	li	a4,0
30004518:	f2dff06f          	j	30004444 <follow_path+0x418>
3000451c:	00800c13          	li	s8,8
30004520:	00000c93          	li	s9,0
30004524:	efdff06f          	j	30004420 <follow_path+0x3f4>

30004528 <dir_read>:
30004528:	fb010113          	addi	sp,sp,-80
3000452c:	03912223          	sw	s9,36(sp)
30004530:	01052c83          	lw	s9,16(a0)
30004534:	01b12e23          	sw	s11,28(sp)
30004538:	04112623          	sw	ra,76(sp)
3000453c:	04812423          	sw	s0,72(sp)
30004540:	04912223          	sw	s1,68(sp)
30004544:	05212023          	sw	s2,64(sp)
30004548:	03312e23          	sw	s3,60(sp)
3000454c:	03412c23          	sw	s4,56(sp)
30004550:	03512a23          	sw	s5,52(sp)
30004554:	03612823          	sw	s6,48(sp)
30004558:	03712623          	sw	s7,44(sp)
3000455c:	03812423          	sw	s8,40(sp)
30004560:	03a12023          	sw	s10,32(sp)
30004564:	00050d93          	mv	s11,a0
30004568:	2a0c8463          	beqz	s9,30004810 <dir_read+0x2e8>
3000456c:	00010ab7          	lui	s5,0x10
30004570:	00052d03          	lw	s10,0(a0)
30004574:	fffa8793          	addi	a5,s5,-1 # ffff <stackPointer+0xa57f>
30004578:	0ff00b13          	li	s6,255
3000457c:	0ff00493          	li	s1,255
30004580:	0e500913          	li	s2,229
30004584:	0ff00b93          	li	s7,255
30004588:	02e00993          	li	s3,46
3000458c:	00f12623          	sw	a5,12(sp)
30004590:	00f00a13          	li	s4,15
30004594:	02cd2403          	lw	s0,44(s10)
30004598:	028c8663          	beq	s9,s0,300045c4 <dir_read+0x9c>
3000459c:	004d4703          	lbu	a4,4(s10)
300045a0:	001d4503          	lbu	a0,1(s10)
300045a4:	030d0c13          	addi	s8,s10,48
300045a8:	2c071a63          	bnez	a4,3000487c <dir_read+0x354>
300045ac:	00100693          	li	a3,1
300045b0:	000c8613          	mv	a2,s9
300045b4:	000c0593          	mv	a1,s8
300045b8:	a01fd0ef          	jal	ra,30001fb8 <disk_read>
300045bc:	2a051863          	bnez	a0,3000486c <dir_read+0x344>
300045c0:	039d2623          	sw	s9,44(s10)
300045c4:	014da703          	lw	a4,20(s11)
300045c8:	00074783          	lbu	a5,0(a4)
300045cc:	24078263          	beqz	a5,30004810 <dir_read+0x2e8>
300045d0:	01278e63          	beq	a5,s2,300045ec <dir_read+0xc4>
300045d4:	01378c63          	beq	a5,s3,300045ec <dir_read+0xc4>
300045d8:	00b74683          	lbu	a3,11(a4)
300045dc:	0086f613          	andi	a2,a3,8
300045e0:	03f6f693          	andi	a3,a3,63
300045e4:	06060263          	beqz	a2,30004648 <dir_read+0x120>
300045e8:	07468263          	beq	a3,s4,3000464c <dir_read+0x124>
300045ec:	006dd403          	lhu	s0,6(s11)
300045f0:	0ff00493          	li	s1,255
300045f4:	00140413          	addi	s0,s0,1
300045f8:	01041413          	slli	s0,s0,0x10
300045fc:	01045413          	srli	s0,s0,0x10
30004600:	20040863          	beqz	s0,30004810 <dir_read+0x2e8>
30004604:	010dac83          	lw	s9,16(s11)
30004608:	200c8463          	beqz	s9,30004810 <dir_read+0x2e8>
3000460c:	00f47713          	andi	a4,s0,15
30004610:	000dad03          	lw	s10,0(s11)
30004614:	24071063          	bnez	a4,30004854 <dir_read+0x32c>
30004618:	00cda583          	lw	a1,12(s11)
3000461c:	001c8c93          	addi	s9,s9,1
30004620:	019da823          	sw	s9,16(s11)
30004624:	2c059463          	bnez	a1,300048ec <dir_read+0x3c4>
30004628:	008d5703          	lhu	a4,8(s10)
3000462c:	1ee47263          	bgeu	s0,a4,30004810 <dir_read+0x2e8>
30004630:	030d0713          	addi	a4,s10,48
30004634:	008d9323          	sh	s0,6(s11)
30004638:	00edaa23          	sw	a4,20(s11)
3000463c:	f40c9ce3          	bnez	s9,30004594 <dir_read+0x6c>
30004640:	00000513          	li	a0,0
30004644:	1d40006f          	j	30004818 <dir_read+0x2f0>
30004648:	49469863          	bne	a3,s4,30004ad8 <dir_read+0x5b0>
3000464c:	0407f693          	andi	a3,a5,64
30004650:	22068263          	beqz	a3,30004874 <dir_read+0x34c>
30004654:	006dd683          	lhu	a3,6(s11)
30004658:	00d74b03          	lbu	s6,13(a4)
3000465c:	0bf7f493          	andi	s1,a5,191
30004660:	02dd9023          	sh	a3,32(s11)
30004664:	00d74783          	lbu	a5,13(a4)
30004668:	f96792e3          	bne	a5,s6,300045ec <dir_read+0xc4>
3000466c:	00074783          	lbu	a5,0(a4)
30004670:	00274603          	lbu	a2,2(a4)
30004674:	00174583          	lbu	a1,1(a4)
30004678:	03f7f793          	andi	a5,a5,63
3000467c:	fff78693          	addi	a3,a5,-1
30004680:	00169793          	slli	a5,a3,0x1
30004684:	00d787b3          	add	a5,a5,a3
30004688:	00861613          	slli	a2,a2,0x8
3000468c:	00279793          	slli	a5,a5,0x2
30004690:	00d787b3          	add	a5,a5,a3
30004694:	00b666b3          	or	a3,a2,a1
30004698:	0fe00613          	li	a2,254
3000469c:	01cda803          	lw	a6,28(s11)
300046a0:	f4f666e3          	bltu	a2,a5,300045ec <dir_read+0xc4>
300046a4:	00179613          	slli	a2,a5,0x1
300046a8:	00c80633          	add	a2,a6,a2
300046ac:	00d61023          	sh	a3,0(a2)
300046b0:	00474603          	lbu	a2,4(a4)
300046b4:	00374503          	lbu	a0,3(a4)
300046b8:	00178593          	addi	a1,a5,1
300046bc:	00861613          	slli	a2,a2,0x8
300046c0:	00a66633          	or	a2,a2,a0
300046c4:	28069e63          	bnez	a3,30004960 <dir_read+0x438>
300046c8:	00c12783          	lw	a5,12(sp)
300046cc:	f2f610e3          	bne	a2,a5,300045ec <dir_read+0xc4>
300046d0:	00674683          	lbu	a3,6(a4)
300046d4:	00574783          	lbu	a5,5(a4)
300046d8:	00869693          	slli	a3,a3,0x8
300046dc:	00f6e6b3          	or	a3,a3,a5
300046e0:	00c12783          	lw	a5,12(sp)
300046e4:	f0f694e3          	bne	a3,a5,300045ec <dir_read+0xc4>
300046e8:	00874603          	lbu	a2,8(a4)
300046ec:	00774783          	lbu	a5,7(a4)
300046f0:	00861613          	slli	a2,a2,0x8
300046f4:	00f66633          	or	a2,a2,a5
300046f8:	00c12783          	lw	a5,12(sp)
300046fc:	eef618e3          	bne	a2,a5,300045ec <dir_read+0xc4>
30004700:	00a74683          	lbu	a3,10(a4)
30004704:	00974783          	lbu	a5,9(a4)
30004708:	00869693          	slli	a3,a3,0x8
3000470c:	00f6e6b3          	or	a3,a3,a5
30004710:	00c12783          	lw	a5,12(sp)
30004714:	ecf69ce3          	bne	a3,a5,300045ec <dir_read+0xc4>
30004718:	00f74603          	lbu	a2,15(a4)
3000471c:	00e74783          	lbu	a5,14(a4)
30004720:	00861613          	slli	a2,a2,0x8
30004724:	00f66633          	or	a2,a2,a5
30004728:	00c12783          	lw	a5,12(sp)
3000472c:	ecf610e3          	bne	a2,a5,300045ec <dir_read+0xc4>
30004730:	01174683          	lbu	a3,17(a4)
30004734:	01074783          	lbu	a5,16(a4)
30004738:	00869693          	slli	a3,a3,0x8
3000473c:	00f6e6b3          	or	a3,a3,a5
30004740:	00c12783          	lw	a5,12(sp)
30004744:	eaf694e3          	bne	a3,a5,300045ec <dir_read+0xc4>
30004748:	01374603          	lbu	a2,19(a4)
3000474c:	01274783          	lbu	a5,18(a4)
30004750:	00861613          	slli	a2,a2,0x8
30004754:	00f66633          	or	a2,a2,a5
30004758:	00c12783          	lw	a5,12(sp)
3000475c:	e8f618e3          	bne	a2,a5,300045ec <dir_read+0xc4>
30004760:	01574683          	lbu	a3,21(a4)
30004764:	01474783          	lbu	a5,20(a4)
30004768:	00869693          	slli	a3,a3,0x8
3000476c:	00f6e6b3          	or	a3,a3,a5
30004770:	00c12783          	lw	a5,12(sp)
30004774:	e6f69ce3          	bne	a3,a5,300045ec <dir_read+0xc4>
30004778:	01774603          	lbu	a2,23(a4)
3000477c:	01674783          	lbu	a5,22(a4)
30004780:	00861613          	slli	a2,a2,0x8
30004784:	00f66633          	or	a2,a2,a5
30004788:	00c12783          	lw	a5,12(sp)
3000478c:	e6f610e3          	bne	a2,a5,300045ec <dir_read+0xc4>
30004790:	01974683          	lbu	a3,25(a4)
30004794:	01874783          	lbu	a5,24(a4)
30004798:	00869693          	slli	a3,a3,0x8
3000479c:	00f6e6b3          	or	a3,a3,a5
300047a0:	00c12783          	lw	a5,12(sp)
300047a4:	e4f694e3          	bne	a3,a5,300045ec <dir_read+0xc4>
300047a8:	01d74603          	lbu	a2,29(a4)
300047ac:	01c74783          	lbu	a5,28(a4)
300047b0:	00861613          	slli	a2,a2,0x8
300047b4:	00f66633          	or	a2,a2,a5
300047b8:	00c12783          	lw	a5,12(sp)
300047bc:	e2f618e3          	bne	a2,a5,300045ec <dir_read+0xc4>
300047c0:	01f74683          	lbu	a3,31(a4)
300047c4:	01e74783          	lbu	a5,30(a4)
300047c8:	00869693          	slli	a3,a3,0x8
300047cc:	00f6e6b3          	or	a3,a3,a5
300047d0:	00c12783          	lw	a5,12(sp)
300047d4:	e0f69ce3          	bne	a3,a5,300045ec <dir_read+0xc4>
300047d8:	00074783          	lbu	a5,0(a4)
300047dc:	0407f793          	andi	a5,a5,64
300047e0:	00078a63          	beqz	a5,300047f4 <dir_read+0x2cc>
300047e4:	e17584e3          	beq	a1,s7,300045ec <dir_read+0xc4>
300047e8:	00159593          	slli	a1,a1,0x1
300047ec:	00b80833          	add	a6,a6,a1
300047f0:	00081023          	sh	zero,0(a6)
300047f4:	006dd403          	lhu	s0,6(s11)
300047f8:	fff48493          	addi	s1,s1,-1
300047fc:	0ff4f493          	andi	s1,s1,255
30004800:	00140413          	addi	s0,s0,1
30004804:	01041413          	slli	s0,s0,0x10
30004808:	01045413          	srli	s0,s0,0x10
3000480c:	de041ce3          	bnez	s0,30004604 <dir_read+0xdc>
30004810:	00400513          	li	a0,4
30004814:	000da823          	sw	zero,16(s11)
30004818:	04c12083          	lw	ra,76(sp)
3000481c:	04812403          	lw	s0,72(sp)
30004820:	04412483          	lw	s1,68(sp)
30004824:	04012903          	lw	s2,64(sp)
30004828:	03c12983          	lw	s3,60(sp)
3000482c:	03812a03          	lw	s4,56(sp)
30004830:	03412a83          	lw	s5,52(sp)
30004834:	03012b03          	lw	s6,48(sp)
30004838:	02c12b83          	lw	s7,44(sp)
3000483c:	02812c03          	lw	s8,40(sp)
30004840:	02412c83          	lw	s9,36(sp)
30004844:	02012d03          	lw	s10,32(sp)
30004848:	01c12d83          	lw	s11,28(sp)
3000484c:	05010113          	addi	sp,sp,80
30004850:	00008067          	ret
30004854:	030d0693          	addi	a3,s10,48
30004858:	00571713          	slli	a4,a4,0x5
3000485c:	00e68733          	add	a4,a3,a4
30004860:	008d9323          	sh	s0,6(s11)
30004864:	00edaa23          	sw	a4,20(s11)
30004868:	d2dff06f          	j	30004594 <dir_read+0x6c>
3000486c:	00100513          	li	a0,1
30004870:	fa5ff06f          	j	30004814 <dir_read+0x2ec>
30004874:	d6979ce3          	bne	a5,s1,300045ec <dir_read+0xc4>
30004878:	dedff06f          	j	30004664 <dir_read+0x13c>
3000487c:	00100693          	li	a3,1
30004880:	00040613          	mv	a2,s0
30004884:	000c0593          	mv	a1,s8
30004888:	881fd0ef          	jal	ra,30002108 <disk_write>
3000488c:	fe0510e3          	bnez	a0,3000486c <dir_read+0x344>
30004890:	01cd2683          	lw	a3,28(s10)
30004894:	020d2703          	lw	a4,32(s10)
30004898:	000d0223          	sb	zero,4(s10)
3000489c:	001d4503          	lbu	a0,1(s10)
300048a0:	00e68733          	add	a4,a3,a4
300048a4:	d0e474e3          	bgeu	s0,a4,300045ac <dir_read+0x84>
300048a8:	003d4a83          	lbu	s5,3(s10)
300048ac:	00100613          	li	a2,1
300048b0:	01566863          	bltu	a2,s5,300048c0 <dir_read+0x398>
300048b4:	cf9ff06f          	j	300045ac <dir_read+0x84>
300048b8:	01cd2683          	lw	a3,28(s10)
300048bc:	001d4503          	lbu	a0,1(s10)
300048c0:	00d40433          	add	s0,s0,a3
300048c4:	00040613          	mv	a2,s0
300048c8:	00100693          	li	a3,1
300048cc:	000c0593          	mv	a1,s8
300048d0:	839fd0ef          	jal	ra,30002108 <disk_write>
300048d4:	fffa8713          	addi	a4,s5,-1
300048d8:	0ff77a93          	andi	s5,a4,255
300048dc:	00100693          	li	a3,1
300048e0:	fcda9ce3          	bne	s5,a3,300048b8 <dir_read+0x390>
300048e4:	001d4503          	lbu	a0,1(s10)
300048e8:	cc5ff06f          	j	300045ac <dir_read+0x84>
300048ec:	002d4683          	lbu	a3,2(s10)
300048f0:	00445713          	srli	a4,s0,0x4
300048f4:	fff68693          	addi	a3,a3,-1
300048f8:	00e6f733          	and	a4,a3,a4
300048fc:	d2071ae3          	bnez	a4,30004630 <dir_read+0x108>
30004900:	00100c93          	li	s9,1
30004904:	04bcfa63          	bgeu	s9,a1,30004958 <dir_read+0x430>
30004908:	018d2703          	lw	a4,24(s10)
3000490c:	04e5f663          	bgeu	a1,a4,30004958 <dir_read+0x430>
30004910:	000d0513          	mv	a0,s10
30004914:	a91fe0ef          	jal	ra,300033a4 <get_fat.part.5>
30004918:	04acf063          	bgeu	s9,a0,30004958 <dir_read+0x430>
3000491c:	fff00793          	li	a5,-1
30004920:	f4f506e3          	beq	a0,a5,3000486c <dir_read+0x344>
30004924:	000dad03          	lw	s10,0(s11)
30004928:	018d2783          	lw	a5,24(s10)
3000492c:	eef572e3          	bgeu	a0,a5,30004810 <dir_read+0x2e8>
30004930:	00ada623          	sw	a0,12(s11)
30004934:	ffe78793          	addi	a5,a5,-2
30004938:	ffe50513          	addi	a0,a0,-2
3000493c:	2cf57463          	bgeu	a0,a5,30004c04 <dir_read+0x6dc>
30004940:	002d4783          	lbu	a5,2(s10)
30004944:	028d2703          	lw	a4,40(s10)
30004948:	02a78533          	mul	a0,a5,a0
3000494c:	00e50cb3          	add	s9,a0,a4
30004950:	019da823          	sw	s9,16(s11)
30004954:	cddff06f          	j	30004630 <dir_read+0x108>
30004958:	00200513          	li	a0,2
3000495c:	eb9ff06f          	j	30004814 <dir_read+0x2ec>
30004960:	c97586e3          	beq	a1,s7,300045ec <dir_read+0xc4>
30004964:	00159593          	slli	a1,a1,0x1
30004968:	00b80533          	add	a0,a6,a1
3000496c:	00c51023          	sh	a2,0(a0)
30004970:	00674683          	lbu	a3,6(a4)
30004974:	00574883          	lbu	a7,5(a4)
30004978:	00278593          	addi	a1,a5,2
3000497c:	00869693          	slli	a3,a3,0x8
30004980:	0116e6b3          	or	a3,a3,a7
30004984:	d4060ee3          	beqz	a2,300046e0 <dir_read+0x1b8>
30004988:	c77582e3          	beq	a1,s7,300045ec <dir_read+0xc4>
3000498c:	00d51123          	sh	a3,2(a0)
30004990:	00874603          	lbu	a2,8(a4)
30004994:	00774883          	lbu	a7,7(a4)
30004998:	00378593          	addi	a1,a5,3
3000499c:	00861613          	slli	a2,a2,0x8
300049a0:	01166633          	or	a2,a2,a7
300049a4:	d4068ae3          	beqz	a3,300046f8 <dir_read+0x1d0>
300049a8:	c57582e3          	beq	a1,s7,300045ec <dir_read+0xc4>
300049ac:	00c51223          	sh	a2,4(a0)
300049b0:	00a74683          	lbu	a3,10(a4)
300049b4:	00974883          	lbu	a7,9(a4)
300049b8:	00478593          	addi	a1,a5,4
300049bc:	00869693          	slli	a3,a3,0x8
300049c0:	0116e6b3          	or	a3,a3,a7
300049c4:	d40606e3          	beqz	a2,30004710 <dir_read+0x1e8>
300049c8:	c37582e3          	beq	a1,s7,300045ec <dir_read+0xc4>
300049cc:	00d51323          	sh	a3,6(a0)
300049d0:	00f74603          	lbu	a2,15(a4)
300049d4:	00e74883          	lbu	a7,14(a4)
300049d8:	00578593          	addi	a1,a5,5
300049dc:	00861613          	slli	a2,a2,0x8
300049e0:	01166633          	or	a2,a2,a7
300049e4:	d40682e3          	beqz	a3,30004728 <dir_read+0x200>
300049e8:	c17582e3          	beq	a1,s7,300045ec <dir_read+0xc4>
300049ec:	00c51423          	sh	a2,8(a0)
300049f0:	01174683          	lbu	a3,17(a4)
300049f4:	01074883          	lbu	a7,16(a4)
300049f8:	00678593          	addi	a1,a5,6
300049fc:	00869693          	slli	a3,a3,0x8
30004a00:	0116e6b3          	or	a3,a3,a7
30004a04:	d2060ee3          	beqz	a2,30004740 <dir_read+0x218>
30004a08:	bf7582e3          	beq	a1,s7,300045ec <dir_read+0xc4>
30004a0c:	00d51523          	sh	a3,10(a0)
30004a10:	01374603          	lbu	a2,19(a4)
30004a14:	01274883          	lbu	a7,18(a4)
30004a18:	00778593          	addi	a1,a5,7
30004a1c:	00861613          	slli	a2,a2,0x8
30004a20:	01166633          	or	a2,a2,a7
30004a24:	d2068ae3          	beqz	a3,30004758 <dir_read+0x230>
30004a28:	bd7582e3          	beq	a1,s7,300045ec <dir_read+0xc4>
30004a2c:	00c51623          	sh	a2,12(a0)
30004a30:	01574683          	lbu	a3,21(a4)
30004a34:	01474883          	lbu	a7,20(a4)
30004a38:	00878593          	addi	a1,a5,8
30004a3c:	00869693          	slli	a3,a3,0x8
30004a40:	0116e6b3          	or	a3,a3,a7
30004a44:	d20606e3          	beqz	a2,30004770 <dir_read+0x248>
30004a48:	bb7582e3          	beq	a1,s7,300045ec <dir_read+0xc4>
30004a4c:	00d51723          	sh	a3,14(a0)
30004a50:	01774603          	lbu	a2,23(a4)
30004a54:	01674883          	lbu	a7,22(a4)
30004a58:	00978593          	addi	a1,a5,9
30004a5c:	00861613          	slli	a2,a2,0x8
30004a60:	01166633          	or	a2,a2,a7
30004a64:	d20682e3          	beqz	a3,30004788 <dir_read+0x260>
30004a68:	b97582e3          	beq	a1,s7,300045ec <dir_read+0xc4>
30004a6c:	00c51823          	sh	a2,16(a0)
30004a70:	01974683          	lbu	a3,25(a4)
30004a74:	01874883          	lbu	a7,24(a4)
30004a78:	00a78593          	addi	a1,a5,10
30004a7c:	00869693          	slli	a3,a3,0x8
30004a80:	0116e6b3          	or	a3,a3,a7
30004a84:	d0060ee3          	beqz	a2,300047a0 <dir_read+0x278>
30004a88:	b77582e3          	beq	a1,s7,300045ec <dir_read+0xc4>
30004a8c:	00d51923          	sh	a3,18(a0)
30004a90:	01d74603          	lbu	a2,29(a4)
30004a94:	01c74883          	lbu	a7,28(a4)
30004a98:	00b78593          	addi	a1,a5,11
30004a9c:	00861613          	slli	a2,a2,0x8
30004aa0:	01166633          	or	a2,a2,a7
30004aa4:	d0068ae3          	beqz	a3,300047b8 <dir_read+0x290>
30004aa8:	b57582e3          	beq	a1,s7,300045ec <dir_read+0xc4>
30004aac:	00c51a23          	sh	a2,20(a0)
30004ab0:	01f74683          	lbu	a3,31(a4)
30004ab4:	01e74883          	lbu	a7,30(a4)
30004ab8:	00c78593          	addi	a1,a5,12
30004abc:	00869693          	slli	a3,a3,0x8
30004ac0:	0116e6b3          	or	a3,a3,a7
30004ac4:	d00606e3          	beqz	a2,300047d0 <dir_read+0x2a8>
30004ac8:	b37582e3          	beq	a1,s7,300045ec <dir_read+0xc4>
30004acc:	00d78593          	addi	a1,a5,13
30004ad0:	00d51b23          	sh	a3,22(a0)
30004ad4:	d05ff06f          	j	300047d8 <dir_read+0x2b0>
30004ad8:	00048a63          	beqz	s1,30004aec <dir_read+0x5c4>
30004adc:	fff00793          	li	a5,-1
30004ae0:	02fd9023          	sh	a5,32(s11)
30004ae4:	00000513          	li	a0,0
30004ae8:	d31ff06f          	j	30004818 <dir_read+0x2f0>
30004aec:	00174603          	lbu	a2,1(a4)
30004af0:	0017d693          	srli	a3,a5,0x1
30004af4:	00779793          	slli	a5,a5,0x7
30004af8:	00f6e7b3          	or	a5,a3,a5
30004afc:	00c787b3          	add	a5,a5,a2
30004b00:	0ff7f693          	andi	a3,a5,255
30004b04:	00274603          	lbu	a2,2(a4)
30004b08:	00779793          	slli	a5,a5,0x7
30004b0c:	0016d693          	srli	a3,a3,0x1
30004b10:	00f6e6b3          	or	a3,a3,a5
30004b14:	0ff6f693          	andi	a3,a3,255
30004b18:	00c686b3          	add	a3,a3,a2
30004b1c:	0ff6f793          	andi	a5,a3,255
30004b20:	00374603          	lbu	a2,3(a4)
30004b24:	00769693          	slli	a3,a3,0x7
30004b28:	0017d793          	srli	a5,a5,0x1
30004b2c:	00d7e7b3          	or	a5,a5,a3
30004b30:	0ff7f793          	andi	a5,a5,255
30004b34:	00c787b3          	add	a5,a5,a2
30004b38:	0ff7f693          	andi	a3,a5,255
30004b3c:	00474603          	lbu	a2,4(a4)
30004b40:	00779793          	slli	a5,a5,0x7
30004b44:	0016d693          	srli	a3,a3,0x1
30004b48:	00f6e6b3          	or	a3,a3,a5
30004b4c:	0ff6f693          	andi	a3,a3,255
30004b50:	00c686b3          	add	a3,a3,a2
30004b54:	0ff6f793          	andi	a5,a3,255
30004b58:	00574603          	lbu	a2,5(a4)
30004b5c:	00769693          	slli	a3,a3,0x7
30004b60:	0017d793          	srli	a5,a5,0x1
30004b64:	00d7e7b3          	or	a5,a5,a3
30004b68:	0ff7f793          	andi	a5,a5,255
30004b6c:	00c787b3          	add	a5,a5,a2
30004b70:	0ff7f693          	andi	a3,a5,255
30004b74:	00674603          	lbu	a2,6(a4)
30004b78:	00779793          	slli	a5,a5,0x7
30004b7c:	0016d693          	srli	a3,a3,0x1
30004b80:	00f6e6b3          	or	a3,a3,a5
30004b84:	0ff6f693          	andi	a3,a3,255
30004b88:	00c686b3          	add	a3,a3,a2
30004b8c:	0ff6f793          	andi	a5,a3,255
30004b90:	00774603          	lbu	a2,7(a4)
30004b94:	00769693          	slli	a3,a3,0x7
30004b98:	0017d793          	srli	a5,a5,0x1
30004b9c:	00d7e7b3          	or	a5,a5,a3
30004ba0:	0ff7f793          	andi	a5,a5,255
30004ba4:	00c787b3          	add	a5,a5,a2
30004ba8:	0ff7f693          	andi	a3,a5,255
30004bac:	00874603          	lbu	a2,8(a4)
30004bb0:	00779793          	slli	a5,a5,0x7
30004bb4:	0016d693          	srli	a3,a3,0x1
30004bb8:	00f6e6b3          	or	a3,a3,a5
30004bbc:	0ff6f693          	andi	a3,a3,255
30004bc0:	00c686b3          	add	a3,a3,a2
30004bc4:	0ff6f793          	andi	a5,a3,255
30004bc8:	00974603          	lbu	a2,9(a4)
30004bcc:	00769693          	slli	a3,a3,0x7
30004bd0:	0017d793          	srli	a5,a5,0x1
30004bd4:	00d7e7b3          	or	a5,a5,a3
30004bd8:	0ff7f793          	andi	a5,a5,255
30004bdc:	00c787b3          	add	a5,a5,a2
30004be0:	0ff7f693          	andi	a3,a5,255
30004be4:	00a74603          	lbu	a2,10(a4)
30004be8:	00779793          	slli	a5,a5,0x7
30004bec:	0016d713          	srli	a4,a3,0x1
30004bf0:	00f767b3          	or	a5,a4,a5
30004bf4:	00c787b3          	add	a5,a5,a2
30004bf8:	0ff7f793          	andi	a5,a5,255
30004bfc:	ef6790e3          	bne	a5,s6,30004adc <dir_read+0x5b4>
30004c00:	a41ff06f          	j	30004640 <dir_read+0x118>
30004c04:	030d0793          	addi	a5,s10,48
30004c08:	000da823          	sw	zero,16(s11)
30004c0c:	008d9323          	sh	s0,6(s11)
30004c10:	00fdaa23          	sw	a5,20(s11)
30004c14:	00000513          	li	a0,0
30004c18:	c01ff06f          	j	30004818 <dir_read+0x2f0>

30004c1c <create_chain>:
30004c1c:	fd010113          	addi	sp,sp,-48
30004c20:	02912223          	sw	s1,36(sp)
30004c24:	01312e23          	sw	s3,28(sp)
30004c28:	02112623          	sw	ra,44(sp)
30004c2c:	02812423          	sw	s0,40(sp)
30004c30:	03212023          	sw	s2,32(sp)
30004c34:	01412c23          	sw	s4,24(sp)
30004c38:	01512a23          	sw	s5,20(sp)
30004c3c:	01612823          	sw	s6,16(sp)
30004c40:	01712623          	sw	s7,12(sp)
30004c44:	01812423          	sw	s8,8(sp)
30004c48:	01912223          	sw	s9,4(sp)
30004c4c:	01a12023          	sw	s10,0(sp)
30004c50:	00058993          	mv	s3,a1
30004c54:	00050493          	mv	s1,a0
30004c58:	1c059463          	bnez	a1,30004e20 <create_chain+0x204>
30004c5c:	00c52b83          	lw	s7,12(a0)
30004c60:	01852783          	lw	a5,24(a0)
30004c64:	140b9c63          	bnez	s7,30004dbc <create_chain+0x1a0>
30004c68:	00100b93          	li	s7,1
30004c6c:	000b8413          	mv	s0,s7
30004c70:	10000a37          	lui	s4,0x10000
30004c74:	00001ab7          	lui	s5,0x1
30004c78:	00140413          	addi	s0,s0,1
30004c7c:	00100b13          	li	s6,1
30004c80:	00200c93          	li	s9,2
30004c84:	00300913          	li	s2,3
30004c88:	fffa0a13          	addi	s4,s4,-1 # fffffff <stackPointer+0xfffa57f>
30004c8c:	fffa8a93          	addi	s5,s5,-1 # fff <stackPointer-0x4a81>
30004c90:	0ef46463          	bltu	s0,a5,30004d78 <create_chain+0x15c>
30004c94:	1b7b7c63          	bgeu	s6,s7,30004e4c <create_chain+0x230>
30004c98:	04fce263          	bltu	s9,a5,30004cdc <create_chain+0xc0>
30004c9c:	00100413          	li	s0,1
30004ca0:	00040513          	mv	a0,s0
30004ca4:	02c12083          	lw	ra,44(sp)
30004ca8:	02812403          	lw	s0,40(sp)
30004cac:	02412483          	lw	s1,36(sp)
30004cb0:	02012903          	lw	s2,32(sp)
30004cb4:	01c12983          	lw	s3,28(sp)
30004cb8:	01812a03          	lw	s4,24(sp)
30004cbc:	01412a83          	lw	s5,20(sp)
30004cc0:	01012b03          	lw	s6,16(sp)
30004cc4:	00c12b83          	lw	s7,12(sp)
30004cc8:	00812c03          	lw	s8,8(sp)
30004ccc:	00412c83          	lw	s9,4(sp)
30004cd0:	00012d03          	lw	s10,0(sp)
30004cd4:	03010113          	addi	sp,sp,48
30004cd8:	00008067          	ret
30004cdc:	0004c783          	lbu	a5,0(s1)
30004ce0:	00200413          	li	s0,2
30004ce4:	0b978063          	beq	a5,s9,30004d84 <create_chain+0x168>
30004ce8:	0d278e63          	beq	a5,s2,30004dc4 <create_chain+0x1a8>
30004cec:	01678663          	beq	a5,s6,30004cf8 <create_chain+0xdc>
30004cf0:	fff00413          	li	s0,-1
30004cf4:	fadff06f          	j	30004ca0 <create_chain+0x84>
30004cf8:	00145c13          	srli	s8,s0,0x1
30004cfc:	0204a783          	lw	a5,32(s1)
30004d00:	008c0c33          	add	s8,s8,s0
30004d04:	009c5593          	srli	a1,s8,0x9
30004d08:	00f585b3          	add	a1,a1,a5
30004d0c:	00048513          	mv	a0,s1
30004d10:	8e0fe0ef          	jal	ra,30002df0 <move_window>
30004d14:	fc051ee3          	bnez	a0,30004cf0 <create_chain+0xd4>
30004d18:	0204a783          	lw	a5,32(s1)
30004d1c:	001c0d13          	addi	s10,s8,1
30004d20:	009d5593          	srli	a1,s10,0x9
30004d24:	1ffc7c13          	andi	s8,s8,511
30004d28:	01848c33          	add	s8,s1,s8
30004d2c:	00f585b3          	add	a1,a1,a5
30004d30:	00048513          	mv	a0,s1
30004d34:	030c4c03          	lbu	s8,48(s8)
30004d38:	8b8fe0ef          	jal	ra,30002df0 <move_window>
30004d3c:	fa051ae3          	bnez	a0,30004cf0 <create_chain+0xd4>
30004d40:	1ffd7d13          	andi	s10,s10,511
30004d44:	01a48d33          	add	s10,s1,s10
30004d48:	030d4783          	lbu	a5,48(s10)
30004d4c:	00147713          	andi	a4,s0,1
30004d50:	00879793          	slli	a5,a5,0x8
30004d54:	0187ec33          	or	s8,a5,s8
30004d58:	015c77b3          	and	a5,s8,s5
30004d5c:	0e071c63          	bnez	a4,30004e54 <create_chain+0x238>
30004d60:	0e078e63          	beqz	a5,30004e5c <create_chain+0x240>
30004d64:	f3678ce3          	beq	a5,s6,30004c9c <create_chain+0x80>
30004d68:	0e8b8263          	beq	s7,s0,30004e4c <create_chain+0x230>
30004d6c:	0184a783          	lw	a5,24(s1)
30004d70:	00140413          	addi	s0,s0,1
30004d74:	f2f470e3          	bgeu	s0,a5,30004c94 <create_chain+0x78>
30004d78:	f28b72e3          	bgeu	s6,s0,30004c9c <create_chain+0x80>
30004d7c:	0004c783          	lbu	a5,0(s1)
30004d80:	f79794e3          	bne	a5,s9,30004ce8 <create_chain+0xcc>
30004d84:	0204a783          	lw	a5,32(s1)
30004d88:	00845593          	srli	a1,s0,0x8
30004d8c:	00048513          	mv	a0,s1
30004d90:	00f585b3          	add	a1,a1,a5
30004d94:	85cfe0ef          	jal	ra,30002df0 <move_window>
30004d98:	f4051ce3          	bnez	a0,30004cf0 <create_chain+0xd4>
30004d9c:	00141713          	slli	a4,s0,0x1
30004da0:	1fe77713          	andi	a4,a4,510
30004da4:	00e48733          	add	a4,s1,a4
30004da8:	03174783          	lbu	a5,49(a4)
30004dac:	03074703          	lbu	a4,48(a4)
30004db0:	00879793          	slli	a5,a5,0x8
30004db4:	00e7e7b3          	or	a5,a5,a4
30004db8:	fa9ff06f          	j	30004d60 <create_chain+0x144>
30004dbc:	eafbe8e3          	bltu	s7,a5,30004c6c <create_chain+0x50>
30004dc0:	ea9ff06f          	j	30004c68 <create_chain+0x4c>
30004dc4:	0204a783          	lw	a5,32(s1)
30004dc8:	00745593          	srli	a1,s0,0x7
30004dcc:	00048513          	mv	a0,s1
30004dd0:	00f585b3          	add	a1,a1,a5
30004dd4:	81cfe0ef          	jal	ra,30002df0 <move_window>
30004dd8:	f0051ce3          	bnez	a0,30004cf0 <create_chain+0xd4>
30004ddc:	00241713          	slli	a4,s0,0x2
30004de0:	1fc77713          	andi	a4,a4,508
30004de4:	03070693          	addi	a3,a4,48
30004de8:	00d486b3          	add	a3,s1,a3
30004dec:	0036c783          	lbu	a5,3(a3)
30004df0:	0026c603          	lbu	a2,2(a3)
30004df4:	00e48733          	add	a4,s1,a4
30004df8:	03074583          	lbu	a1,48(a4)
30004dfc:	0016c703          	lbu	a4,1(a3)
30004e00:	01879793          	slli	a5,a5,0x18
30004e04:	01061693          	slli	a3,a2,0x10
30004e08:	00d7e7b3          	or	a5,a5,a3
30004e0c:	00b7e7b3          	or	a5,a5,a1
30004e10:	00871713          	slli	a4,a4,0x8
30004e14:	00e7e7b3          	or	a5,a5,a4
30004e18:	0147f7b3          	and	a5,a5,s4
30004e1c:	f45ff06f          	j	30004d60 <create_chain+0x144>
30004e20:	00100913          	li	s2,1
30004e24:	e6b97ce3          	bgeu	s2,a1,30004c9c <create_chain+0x80>
30004e28:	01852783          	lw	a5,24(a0)
30004e2c:	e6f5f8e3          	bgeu	a1,a5,30004c9c <create_chain+0x80>
30004e30:	d74fe0ef          	jal	ra,300033a4 <get_fat.part.5>
30004e34:	00050413          	mv	s0,a0
30004e38:	e6a972e3          	bgeu	s2,a0,30004c9c <create_chain+0x80>
30004e3c:	0184a783          	lw	a5,24(s1)
30004e40:	00098b93          	mv	s7,s3
30004e44:	e2f574e3          	bgeu	a0,a5,30004c6c <create_chain+0x50>
30004e48:	e59ff06f          	j	30004ca0 <create_chain+0x84>
30004e4c:	00000413          	li	s0,0
30004e50:	e51ff06f          	j	30004ca0 <create_chain+0x84>
30004e54:	004c5793          	srli	a5,s8,0x4
30004e58:	f09ff06f          	j	30004d60 <create_chain+0x144>
30004e5c:	0184a783          	lw	a5,24(s1)
30004e60:	e2f47ee3          	bgeu	s0,a5,30004c9c <create_chain+0x80>
30004e64:	10000637          	lui	a2,0x10000
30004e68:	fff60613          	addi	a2,a2,-1 # fffffff <stackPointer+0xfffa57f>
30004e6c:	00040593          	mv	a1,s0
30004e70:	00048513          	mv	a0,s1
30004e74:	84dfe0ef          	jal	ra,300036c0 <put_fat.part.6>
30004e78:	00050a63          	beqz	a0,30004e8c <create_chain+0x270>
30004e7c:	00100793          	li	a5,1
30004e80:	e0f51ee3          	bne	a0,a5,30004c9c <create_chain+0x80>
30004e84:	fff00413          	li	s0,-1
30004e88:	e19ff06f          	j	30004ca0 <create_chain+0x84>
30004e8c:	02098463          	beqz	s3,30004eb4 <create_chain+0x298>
30004e90:	00100793          	li	a5,1
30004e94:	e137f4e3          	bgeu	a5,s3,30004c9c <create_chain+0x80>
30004e98:	0184a783          	lw	a5,24(s1)
30004e9c:	e0f9f0e3          	bgeu	s3,a5,30004c9c <create_chain+0x80>
30004ea0:	00040613          	mv	a2,s0
30004ea4:	00098593          	mv	a1,s3
30004ea8:	00048513          	mv	a0,s1
30004eac:	815fe0ef          	jal	ra,300036c0 <put_fat.part.6>
30004eb0:	fc0516e3          	bnez	a0,30004e7c <create_chain+0x260>
30004eb4:	0104a783          	lw	a5,16(s1)
30004eb8:	0084a623          	sw	s0,12(s1)
30004ebc:	fff00713          	li	a4,-1
30004ec0:	dee780e3          	beq	a5,a4,30004ca0 <create_chain+0x84>
30004ec4:	fff78793          	addi	a5,a5,-1
30004ec8:	00f4a823          	sw	a5,16(s1)
30004ecc:	00100793          	li	a5,1
30004ed0:	00f482a3          	sb	a5,5(s1)
30004ed4:	dcdff06f          	j	30004ca0 <create_chain+0x84>

30004ed8 <remove_chain.part.8>:
30004ed8:	fd010113          	addi	sp,sp,-48
30004edc:	01312e23          	sw	s3,28(sp)
30004ee0:	01412c23          	sw	s4,24(sp)
30004ee4:	100009b7          	lui	s3,0x10000
30004ee8:	00001a37          	lui	s4,0x1
30004eec:	02812423          	sw	s0,40(sp)
30004ef0:	02912223          	sw	s1,36(sp)
30004ef4:	01512a23          	sw	s5,20(sp)
30004ef8:	01612823          	sw	s6,16(sp)
30004efc:	01712623          	sw	s7,12(sp)
30004f00:	01812423          	sw	s8,8(sp)
30004f04:	02112623          	sw	ra,44(sp)
30004f08:	03212023          	sw	s2,32(sp)
30004f0c:	01912223          	sw	s9,4(sp)
30004f10:	00050413          	mv	s0,a0
30004f14:	00058493          	mv	s1,a1
30004f18:	00100c13          	li	s8,1
30004f1c:	00200b13          	li	s6,2
30004f20:	00300a93          	li	s5,3
30004f24:	fff98993          	addi	s3,s3,-1 # fffffff <stackPointer+0xfffa57f>
30004f28:	fffa0a13          	addi	s4,s4,-1 # fff <stackPointer-0x4a81>
30004f2c:	fff00b93          	li	s7,-1
30004f30:	01842783          	lw	a5,24(s0)
30004f34:	18f4fa63          	bgeu	s1,a5,300050c8 <remove_chain.part.8+0x1f0>
30004f38:	049c7663          	bgeu	s8,s1,30004f84 <remove_chain.part.8+0xac>
30004f3c:	00044783          	lbu	a5,0(s0)
30004f40:	15678863          	beq	a5,s6,30005090 <remove_chain.part.8+0x1b8>
30004f44:	0f578863          	beq	a5,s5,30005034 <remove_chain.part.8+0x15c>
30004f48:	05878263          	beq	a5,s8,30004f8c <remove_chain.part.8+0xb4>
30004f4c:	00100513          	li	a0,1
30004f50:	02c12083          	lw	ra,44(sp)
30004f54:	02812403          	lw	s0,40(sp)
30004f58:	02412483          	lw	s1,36(sp)
30004f5c:	02012903          	lw	s2,32(sp)
30004f60:	01c12983          	lw	s3,28(sp)
30004f64:	01812a03          	lw	s4,24(sp)
30004f68:	01412a83          	lw	s5,20(sp)
30004f6c:	01012b03          	lw	s6,16(sp)
30004f70:	00c12b83          	lw	s7,12(sp)
30004f74:	00812c03          	lw	s8,8(sp)
30004f78:	00412c83          	lw	s9,4(sp)
30004f7c:	03010113          	addi	sp,sp,48
30004f80:	00008067          	ret
30004f84:	00200513          	li	a0,2
30004f88:	fc9ff06f          	j	30004f50 <remove_chain.part.8+0x78>
30004f8c:	0014d913          	srli	s2,s1,0x1
30004f90:	02042783          	lw	a5,32(s0)
30004f94:	00990933          	add	s2,s2,s1
30004f98:	00995593          	srli	a1,s2,0x9
30004f9c:	00f585b3          	add	a1,a1,a5
30004fa0:	00040513          	mv	a0,s0
30004fa4:	e4dfd0ef          	jal	ra,30002df0 <move_window>
30004fa8:	fa0512e3          	bnez	a0,30004f4c <remove_chain.part.8+0x74>
30004fac:	02042783          	lw	a5,32(s0)
30004fb0:	00190c93          	addi	s9,s2,1
30004fb4:	009cd593          	srli	a1,s9,0x9
30004fb8:	1ff97913          	andi	s2,s2,511
30004fbc:	01240933          	add	s2,s0,s2
30004fc0:	00f585b3          	add	a1,a1,a5
30004fc4:	00040513          	mv	a0,s0
30004fc8:	03094903          	lbu	s2,48(s2)
30004fcc:	e25fd0ef          	jal	ra,30002df0 <move_window>
30004fd0:	f6051ee3          	bnez	a0,30004f4c <remove_chain.part.8+0x74>
30004fd4:	1ffcfc93          	andi	s9,s9,511
30004fd8:	01940cb3          	add	s9,s0,s9
30004fdc:	030cc783          	lbu	a5,48(s9)
30004fe0:	0014f713          	andi	a4,s1,1
30004fe4:	00879793          	slli	a5,a5,0x8
30004fe8:	0127e7b3          	or	a5,a5,s2
30004fec:	0147f933          	and	s2,a5,s4
30004ff0:	0e071063          	bnez	a4,300050d0 <remove_chain.part.8+0x1f8>
30004ff4:	0c090a63          	beqz	s2,300050c8 <remove_chain.part.8+0x1f0>
30004ff8:	f98906e3          	beq	s2,s8,30004f84 <remove_chain.part.8+0xac>
30004ffc:	01842783          	lw	a5,24(s0)
30005000:	f8f4f2e3          	bgeu	s1,a5,30004f84 <remove_chain.part.8+0xac>
30005004:	00000613          	li	a2,0
30005008:	00048593          	mv	a1,s1
3000500c:	00040513          	mv	a0,s0
30005010:	eb0fe0ef          	jal	ra,300036c0 <put_fat.part.6>
30005014:	f2051ee3          	bnez	a0,30004f50 <remove_chain.part.8+0x78>
30005018:	01042783          	lw	a5,16(s0)
3000501c:	01778863          	beq	a5,s7,3000502c <remove_chain.part.8+0x154>
30005020:	00178793          	addi	a5,a5,1
30005024:	00f42823          	sw	a5,16(s0)
30005028:	018402a3          	sb	s8,5(s0)
3000502c:	00090493          	mv	s1,s2
30005030:	f01ff06f          	j	30004f30 <remove_chain.part.8+0x58>
30005034:	02042783          	lw	a5,32(s0)
30005038:	0074d593          	srli	a1,s1,0x7
3000503c:	00040513          	mv	a0,s0
30005040:	00f585b3          	add	a1,a1,a5
30005044:	dadfd0ef          	jal	ra,30002df0 <move_window>
30005048:	f00512e3          	bnez	a0,30004f4c <remove_chain.part.8+0x74>
3000504c:	00249793          	slli	a5,s1,0x2
30005050:	1fc7f793          	andi	a5,a5,508
30005054:	03078713          	addi	a4,a5,48
30005058:	00e40733          	add	a4,s0,a4
3000505c:	00374903          	lbu	s2,3(a4)
30005060:	00274683          	lbu	a3,2(a4)
30005064:	00f407b3          	add	a5,s0,a5
30005068:	0307c603          	lbu	a2,48(a5)
3000506c:	00174783          	lbu	a5,1(a4)
30005070:	01891913          	slli	s2,s2,0x18
30005074:	01069713          	slli	a4,a3,0x10
30005078:	00e96933          	or	s2,s2,a4
3000507c:	00c96933          	or	s2,s2,a2
30005080:	00879793          	slli	a5,a5,0x8
30005084:	00f96933          	or	s2,s2,a5
30005088:	01397933          	and	s2,s2,s3
3000508c:	f69ff06f          	j	30004ff4 <remove_chain.part.8+0x11c>
30005090:	02042783          	lw	a5,32(s0)
30005094:	0084d593          	srli	a1,s1,0x8
30005098:	00040513          	mv	a0,s0
3000509c:	00f585b3          	add	a1,a1,a5
300050a0:	d51fd0ef          	jal	ra,30002df0 <move_window>
300050a4:	ea0514e3          	bnez	a0,30004f4c <remove_chain.part.8+0x74>
300050a8:	00149793          	slli	a5,s1,0x1
300050ac:	1fe7f793          	andi	a5,a5,510
300050b0:	00f407b3          	add	a5,s0,a5
300050b4:	0317c903          	lbu	s2,49(a5)
300050b8:	0307c783          	lbu	a5,48(a5)
300050bc:	00891913          	slli	s2,s2,0x8
300050c0:	00f96933          	or	s2,s2,a5
300050c4:	f31ff06f          	j	30004ff4 <remove_chain.part.8+0x11c>
300050c8:	00000513          	li	a0,0
300050cc:	e85ff06f          	j	30004f50 <remove_chain.part.8+0x78>
300050d0:	0047d913          	srli	s2,a5,0x4
300050d4:	f21ff06f          	j	30004ff4 <remove_chain.part.8+0x11c>

300050d8 <dir_register>:
300050d8:	f7010113          	addi	sp,sp,-144
300050dc:	07612823          	sw	s6,112(sp)
300050e0:	01852b03          	lw	s6,24(a0)
300050e4:	07512a23          	sw	s5,116(sp)
300050e8:	07a12023          	sw	s10,96(sp)
300050ec:	08112623          	sw	ra,140(sp)
300050f0:	08812423          	sw	s0,136(sp)
300050f4:	08912223          	sw	s1,132(sp)
300050f8:	09212023          	sw	s2,128(sp)
300050fc:	07312e23          	sw	s3,124(sp)
30005100:	07412c23          	sw	s4,120(sp)
30005104:	07712623          	sw	s7,108(sp)
30005108:	07812423          	sw	s8,104(sp)
3000510c:	07912223          	sw	s9,100(sp)
30005110:	05b12e23          	sw	s11,92(sp)
30005114:	00bb4703          	lbu	a4,11(s6)
30005118:	000b4283          	lbu	t0,0(s6)
3000511c:	001b4f83          	lbu	t6,1(s6)
30005120:	002b4f03          	lbu	t5,2(s6)
30005124:	003b4e83          	lbu	t4,3(s6)
30005128:	01c52a83          	lw	s5,28(a0)
3000512c:	005b4303          	lbu	t1,5(s6)
30005130:	006b4883          	lbu	a7,6(s6)
30005134:	008b4583          	lbu	a1,8(s6)
30005138:	009b4603          	lbu	a2,9(s6)
3000513c:	00ab4683          	lbu	a3,10(s6)
30005140:	00050d13          	mv	s10,a0
30005144:	004b4e03          	lbu	t3,4(s6)
30005148:	007b4503          	lbu	a0,7(s6)
3000514c:	02e12623          	sw	a4,44(sp)
30005150:	04510223          	sb	t0,68(sp)
30005154:	05f102a3          	sb	t6,69(sp)
30005158:	05e10323          	sb	t5,70(sp)
3000515c:	05d103a3          	sb	t4,71(sp)
30005160:	05c10423          	sb	t3,72(sp)
30005164:	04e107a3          	sb	a4,79(sp)
30005168:	046104a3          	sb	t1,73(sp)
3000516c:	05110523          	sb	a7,74(sp)
30005170:	04a105a3          	sb	a0,75(sp)
30005174:	04b10623          	sb	a1,76(sp)
30005178:	04c106a3          	sb	a2,77(sp)
3000517c:	04d10723          	sb	a3,78(sp)
30005180:	00177713          	andi	a4,a4,1
30005184:	36070463          	beqz	a4,300054ec <dir_register+0x414>
30005188:	0fff7793          	andi	a5,t5,255
3000518c:	00f12823          	sw	a5,16(sp)
30005190:	0ffe7793          	andi	a5,t3,255
30005194:	00f12623          	sw	a5,12(sp)
30005198:	0ff37793          	andi	a5,t1,255
3000519c:	02f12423          	sw	a5,40(sp)
300051a0:	0ff8f793          	andi	a5,a7,255
300051a4:	02f12223          	sw	a5,36(sp)
300051a8:	0ff57793          	andi	a5,a0,255
300051ac:	02f12023          	sw	a5,32(sp)
300051b0:	0ff5f793          	andi	a5,a1,255
300051b4:	00f12e23          	sw	a5,28(sp)
300051b8:	0ff67793          	andi	a5,a2,255
300051bc:	000b05a3          	sb	zero,11(s6)
300051c0:	00f12c23          	sw	a5,24(sp)
300051c4:	0ff6f793          	andi	a5,a3,255
300051c8:	000d2e23          	sw	zero,28(s10)
300051cc:	0ff2f993          	andi	s3,t0,255
300051d0:	0ffffd93          	andi	s11,t6,255
300051d4:	0ffefc93          	andi	s9,t4,255
300051d8:	00f12a23          	sw	a5,20(sp)
300051dc:	00100c13          	li	s8,1
300051e0:	03900413          	li	s0,57
300051e4:	00f00493          	li	s1,15
300051e8:	00800b93          	li	s7,8
300051ec:	02000913          	li	s2,32
300051f0:	00700a13          	li	s4,7
300051f4:	01012783          	lw	a5,16(sp)
300051f8:	013b0023          	sb	s3,0(s6)
300051fc:	01bb00a3          	sb	s11,1(s6)
30005200:	00fb0123          	sb	a5,2(s6)
30005204:	00c12783          	lw	a5,12(sp)
30005208:	019b01a3          	sb	s9,3(s6)
3000520c:	000c0713          	mv	a4,s8
30005210:	00fb0223          	sb	a5,4(s6)
30005214:	02812783          	lw	a5,40(sp)
30005218:	00fb02a3          	sb	a5,5(s6)
3000521c:	02412783          	lw	a5,36(sp)
30005220:	00fb0323          	sb	a5,6(s6)
30005224:	02012783          	lw	a5,32(sp)
30005228:	00fb03a3          	sb	a5,7(s6)
3000522c:	01c12783          	lw	a5,28(sp)
30005230:	00fb0423          	sb	a5,8(s6)
30005234:	01812783          	lw	a5,24(sp)
30005238:	00fb04a3          	sb	a5,9(s6)
3000523c:	01412783          	lw	a5,20(sp)
30005240:	00fb0523          	sb	a5,10(s6)
30005244:	00500793          	li	a5,5
30005248:	0387fa63          	bgeu	a5,s8,3000527c <dir_register+0x1a4>
3000524c:	000ad503          	lhu	a0,0(s5)
30005250:	000c0713          	mv	a4,s8
30005254:	000a8593          	mv	a1,s5
30005258:	00175693          	srli	a3,a4,0x1
3000525c:	00f71713          	slli	a4,a4,0xf
30005260:	00e6e733          	or	a4,a3,a4
30005264:	00258593          	addi	a1,a1,2
30005268:	00a70733          	add	a4,a4,a0
3000526c:	0005d503          	lhu	a0,0(a1)
30005270:	01071713          	slli	a4,a4,0x10
30005274:	01075713          	srli	a4,a4,0x10
30005278:	fe0510e3          	bnez	a0,30005258 <dir_register+0x180>
3000527c:	00f77693          	andi	a3,a4,15
30005280:	03068593          	addi	a1,a3,48
30005284:	00b47463          	bgeu	s0,a1,3000528c <dir_register+0x1b4>
30005288:	03768593          	addi	a1,a3,55
3000528c:	00475693          	srli	a3,a4,0x4
30005290:	01069693          	slli	a3,a3,0x10
30005294:	04b101a3          	sb	a1,67(sp)
30005298:	0106d693          	srli	a3,a3,0x10
3000529c:	1ee4f463          	bgeu	s1,a4,30005484 <dir_register+0x3ac>
300052a0:	00f6f593          	andi	a1,a3,15
300052a4:	03058513          	addi	a0,a1,48
300052a8:	00a47463          	bgeu	s0,a0,300052b0 <dir_register+0x1d8>
300052ac:	03758513          	addi	a0,a1,55
300052b0:	00875593          	srli	a1,a4,0x8
300052b4:	01059593          	slli	a1,a1,0x10
300052b8:	04a10123          	sb	a0,66(sp)
300052bc:	0105d593          	srli	a1,a1,0x10
300052c0:	1ed4f863          	bgeu	s1,a3,300054b0 <dir_register+0x3d8>
300052c4:	00f5f513          	andi	a0,a1,15
300052c8:	03050693          	addi	a3,a0,48
300052cc:	00d47463          	bgeu	s0,a3,300052d4 <dir_register+0x1fc>
300052d0:	03750693          	addi	a3,a0,55
300052d4:	00c75713          	srli	a4,a4,0xc
300052d8:	01071713          	slli	a4,a4,0x10
300052dc:	04d100a3          	sb	a3,65(sp)
300052e0:	01075713          	srli	a4,a4,0x10
300052e4:	1eb4f063          	bgeu	s1,a1,300054c4 <dir_register+0x3ec>
300052e8:	0ff77713          	andi	a4,a4,255
300052ec:	03070693          	addi	a3,a4,48
300052f0:	0ff6f693          	andi	a3,a3,255
300052f4:	00d47663          	bgeu	s0,a3,30005300 <dir_register+0x228>
300052f8:	03770713          	addi	a4,a4,55
300052fc:	0ff77693          	andi	a3,a4,255
30005300:	07e00713          	li	a4,126
30005304:	04d10023          	sb	a3,64(sp)
30005308:	02e10fa3          	sb	a4,63(sp)
3000530c:	00300693          	li	a3,3
30005310:	19298263          	beq	s3,s2,30005494 <dir_register+0x3bc>
30005314:	00000713          	li	a4,0
30005318:	00c0006f          	j	30005324 <dir_register+0x24c>
3000531c:	0005c503          	lbu	a0,0(a1)
30005320:	01250863          	beq	a0,s2,30005330 <dir_register+0x258>
30005324:	00170713          	addi	a4,a4,1
30005328:	00eb05b3          	add	a1,s6,a4
3000532c:	fed718e3          	bne	a4,a3,3000531c <dir_register+0x244>
30005330:	05010793          	addi	a5,sp,80
30005334:	00d78533          	add	a0,a5,a3
30005338:	fec54303          	lbu	t1,-20(a0)
3000533c:	00170713          	addi	a4,a4,1
30005340:	00168513          	addi	a0,a3,1
30005344:	00658023          	sb	t1,0(a1)
30005348:	0cea6063          	bltu	s4,a4,30005408 <dir_register+0x330>
3000534c:	05010793          	addi	a5,sp,80
30005350:	00a786b3          	add	a3,a5,a0
30005354:	fec6c303          	lbu	t1,-20(a3)
30005358:	00eb06b3          	add	a3,s6,a4
3000535c:	00170593          	addi	a1,a4,1
30005360:	00668023          	sb	t1,0(a3)
30005364:	00150693          	addi	a3,a0,1
30005368:	0b758063          	beq	a1,s7,30005408 <dir_register+0x330>
3000536c:	02000313          	li	t1,32
30005370:	01768863          	beq	a3,s7,30005380 <dir_register+0x2a8>
30005374:	00d786b3          	add	a3,a5,a3
30005378:	fec6c303          	lbu	t1,-20(a3)
3000537c:	00250693          	addi	a3,a0,2
30005380:	00bb05b3          	add	a1,s6,a1
30005384:	00270513          	addi	a0,a4,2
30005388:	00658023          	sb	t1,0(a1)
3000538c:	07750e63          	beq	a0,s7,30005408 <dir_register+0x330>
30005390:	02000313          	li	t1,32
30005394:	01768a63          	beq	a3,s7,300053a8 <dir_register+0x2d0>
30005398:	05010793          	addi	a5,sp,80
3000539c:	00d785b3          	add	a1,a5,a3
300053a0:	fec5c303          	lbu	t1,-20(a1)
300053a4:	00168693          	addi	a3,a3,1
300053a8:	00ab0533          	add	a0,s6,a0
300053ac:	00370593          	addi	a1,a4,3
300053b0:	00650023          	sb	t1,0(a0)
300053b4:	05758a63          	beq	a1,s7,30005408 <dir_register+0x330>
300053b8:	02000513          	li	a0,32
300053bc:	01469463          	bne	a3,s4,300053c4 <dir_register+0x2ec>
300053c0:	04314503          	lbu	a0,67(sp)
300053c4:	00bb05b3          	add	a1,s6,a1
300053c8:	00470693          	addi	a3,a4,4
300053cc:	00a58023          	sb	a0,0(a1)
300053d0:	03768c63          	beq	a3,s7,30005408 <dir_register+0x330>
300053d4:	00db06b3          	add	a3,s6,a3
300053d8:	02000513          	li	a0,32
300053dc:	00570593          	addi	a1,a4,5
300053e0:	00a68023          	sb	a0,0(a3)
300053e4:	03758263          	beq	a1,s7,30005408 <dir_register+0x330>
300053e8:	00bb05b3          	add	a1,s6,a1
300053ec:	00670693          	addi	a3,a4,6
300053f0:	00a58023          	sb	a0,0(a1)
300053f4:	01768a63          	beq	a3,s7,30005408 <dir_register+0x330>
300053f8:	00db06b3          	add	a3,s6,a3
300053fc:	00a68023          	sb	a0,0(a3)
30005400:	00071463          	bnez	a4,30005408 <dir_register+0x330>
30005404:	00ab03a3          	sb	a0,7(s6)
30005408:	00000593          	li	a1,0
3000540c:	000d0513          	mv	a0,s10
30005410:	94cfe0ef          	jal	ra,3000355c <dir_sdi>
30005414:	00050693          	mv	a3,a0
30005418:	0c051063          	bnez	a0,300054d8 <dir_register+0x400>
3000541c:	000d0513          	mv	a0,s10
30005420:	f0cfe0ef          	jal	ra,30003b2c <dir_find.part.7>
30005424:	00050693          	mv	a3,a0
30005428:	0a051863          	bnez	a0,300054d8 <dir_register+0x400>
3000542c:	001c0613          	addi	a2,s8,1
30005430:	01061c13          	slli	s8,a2,0x10
30005434:	010c5c13          	srli	s8,s8,0x10
30005438:	06400713          	li	a4,100
3000543c:	daec1ce3          	bne	s8,a4,300051f4 <dir_register+0x11c>
30005440:	00700693          	li	a3,7
30005444:	08c12083          	lw	ra,140(sp)
30005448:	08812403          	lw	s0,136(sp)
3000544c:	08412483          	lw	s1,132(sp)
30005450:	08012903          	lw	s2,128(sp)
30005454:	07c12983          	lw	s3,124(sp)
30005458:	07812a03          	lw	s4,120(sp)
3000545c:	07412a83          	lw	s5,116(sp)
30005460:	07012b03          	lw	s6,112(sp)
30005464:	06c12b83          	lw	s7,108(sp)
30005468:	06812c03          	lw	s8,104(sp)
3000546c:	06412c83          	lw	s9,100(sp)
30005470:	06012d03          	lw	s10,96(sp)
30005474:	05c12d83          	lw	s11,92(sp)
30005478:	00068513          	mv	a0,a3
3000547c:	09010113          	addi	sp,sp,144
30005480:	00008067          	ret
30005484:	07e00713          	li	a4,126
30005488:	04e10123          	sb	a4,66(sp)
3000548c:	00600693          	li	a3,6
30005490:	e92992e3          	bne	s3,s2,30005314 <dir_register+0x23c>
30005494:	05010793          	addi	a5,sp,80
30005498:	00d78733          	add	a4,a5,a3
3000549c:	fec74583          	lbu	a1,-20(a4)
300054a0:	00168513          	addi	a0,a3,1
300054a4:	00100713          	li	a4,1
300054a8:	00bb0023          	sb	a1,0(s6)
300054ac:	ea1ff06f          	j	3000534c <dir_register+0x274>
300054b0:	07e00713          	li	a4,126
300054b4:	04e100a3          	sb	a4,65(sp)
300054b8:	00500693          	li	a3,5
300054bc:	e5299ce3          	bne	s3,s2,30005314 <dir_register+0x23c>
300054c0:	fd5ff06f          	j	30005494 <dir_register+0x3bc>
300054c4:	07e00713          	li	a4,126
300054c8:	04e10023          	sb	a4,64(sp)
300054cc:	00400693          	li	a3,4
300054d0:	e52992e3          	bne	s3,s2,30005314 <dir_register+0x23c>
300054d4:	fc1ff06f          	j	30005494 <dir_register+0x3bc>
300054d8:	00400713          	li	a4,4
300054dc:	f6e694e3          	bne	a3,a4,30005444 <dir_register+0x36c>
300054e0:	02c12783          	lw	a5,44(sp)
300054e4:	00fb05a3          	sb	a5,11(s6)
300054e8:	015d2e23          	sw	s5,28(s10)
300054ec:	02c12783          	lw	a5,44(sp)
300054f0:	00100493          	li	s1,1
300054f4:	0027f793          	andi	a5,a5,2
300054f8:	04078063          	beqz	a5,30005538 <dir_register+0x460>
300054fc:	000ad783          	lhu	a5,0(s5)
30005500:	02078c63          	beqz	a5,30005538 <dir_register+0x460>
30005504:	00000793          	li	a5,0
30005508:	00178793          	addi	a5,a5,1
3000550c:	01079793          	slli	a5,a5,0x10
30005510:	0107d793          	srli	a5,a5,0x10
30005514:	00179713          	slli	a4,a5,0x1
30005518:	00ea8733          	add	a4,s5,a4
3000551c:	00075703          	lhu	a4,0(a4)
30005520:	fe0714e3          	bnez	a4,30005508 <dir_register+0x430>
30005524:	01978493          	addi	s1,a5,25
30005528:	00d00793          	li	a5,13
3000552c:	02f4c4b3          	div	s1,s1,a5
30005530:	01049493          	slli	s1,s1,0x10
30005534:	0104d493          	srli	s1,s1,0x10
30005538:	00000593          	li	a1,0
3000553c:	000d0513          	mv	a0,s10
30005540:	81cfe0ef          	jal	ra,3000355c <dir_sdi>
30005544:	00050693          	mv	a3,a0
30005548:	ee051ee3          	bnez	a0,30005444 <dir_register+0x36c>
3000554c:	000d2c83          	lw	s9,0(s10)
30005550:	010d2583          	lw	a1,16(s10)
30005554:	00000993          	li	s3,0
30005558:	000c8513          	mv	a0,s9
3000555c:	895fd0ef          	jal	ra,30002df0 <move_window>
30005560:	00000413          	li	s0,0
30005564:	0e500913          	li	s2,229
30005568:	00100a13          	li	s4,1
3000556c:	fff00a93          	li	s5,-1
30005570:	00100b13          	li	s6,1
30005574:	00050693          	mv	a3,a0
30005578:	ec0516e3          	bnez	a0,30005444 <dir_register+0x36c>
3000557c:	014d2783          	lw	a5,20(s10)
30005580:	0007c783          	lbu	a5,0(a5)
30005584:	09278063          	beq	a5,s2,30005604 <dir_register+0x52c>
30005588:	06078e63          	beqz	a5,30005604 <dir_register+0x52c>
3000558c:	00000b93          	li	s7,0
30005590:	006d5403          	lhu	s0,6(s10)
30005594:	00140413          	addi	s0,s0,1
30005598:	01041413          	slli	s0,s0,0x10
3000559c:	01045413          	srli	s0,s0,0x10
300055a0:	12040863          	beqz	s0,300056d0 <dir_register+0x5f8>
300055a4:	010d2583          	lw	a1,16(s10)
300055a8:	12058463          	beqz	a1,300056d0 <dir_register+0x5f8>
300055ac:	00f47d93          	andi	s11,s0,15
300055b0:	000d2c83          	lw	s9,0(s10)
300055b4:	000d9e63          	bnez	s11,300055d0 <dir_register+0x4f8>
300055b8:	00cd2683          	lw	a3,12(s10)
300055bc:	00158593          	addi	a1,a1,1
300055c0:	00bd2823          	sw	a1,16(s10)
300055c4:	10069a63          	bnez	a3,300056d8 <dir_register+0x600>
300055c8:	008cd783          	lhu	a5,8(s9)
300055cc:	10f47263          	bgeu	s0,a5,300056d0 <dir_register+0x5f8>
300055d0:	030c8793          	addi	a5,s9,48
300055d4:	005d9d93          	slli	s11,s11,0x5
300055d8:	01b787b3          	add	a5,a5,s11
300055dc:	008d1323          	sh	s0,6(s10)
300055e0:	00fd2a23          	sw	a5,20(s10)
300055e4:	000c8513          	mv	a0,s9
300055e8:	809fd0ef          	jal	ra,30002df0 <move_window>
300055ec:	000b8413          	mv	s0,s7
300055f0:	00050693          	mv	a3,a0
300055f4:	e40518e3          	bnez	a0,30005444 <dir_register+0x36c>
300055f8:	014d2783          	lw	a5,20(s10)
300055fc:	0007c783          	lbu	a5,0(a5)
30005600:	f92794e3          	bne	a5,s2,30005588 <dir_register+0x4b0>
30005604:	00041463          	bnez	s0,3000560c <dir_register+0x534>
30005608:	006d5983          	lhu	s3,6(s10)
3000560c:	00140b93          	addi	s7,s0,1
30005610:	010b9b93          	slli	s7,s7,0x10
30005614:	010bdb93          	srli	s7,s7,0x10
30005618:	f7749ce3          	bne	s1,s7,30005590 <dir_register+0x4b8>
3000561c:	00100793          	li	a5,1
30005620:	12f49c63          	bne	s1,a5,30005758 <dir_register+0x680>
30005624:	010d2583          	lw	a1,16(s10)
30005628:	000d2503          	lw	a0,0(s10)
3000562c:	fc4fd0ef          	jal	ra,30002df0 <move_window>
30005630:	00050693          	mv	a3,a0
30005634:	e00518e3          	bnez	a0,30005444 <dir_register+0x36c>
30005638:	014d2783          	lw	a5,20(s10)
3000563c:	00a12623          	sw	a0,12(sp)
30005640:	02000613          	li	a2,32
30005644:	00000593          	li	a1,0
30005648:	00078513          	mv	a0,a5
3000564c:	1e4070ef          	jal	ra,3000c830 <memset>
30005650:	018d2703          	lw	a4,24(s10)
30005654:	00450613          	addi	a2,a0,4
30005658:	00050793          	mv	a5,a0
3000565c:	00470593          	addi	a1,a4,4
30005660:	00c73633          	sltu	a2,a4,a2
30005664:	00b535b3          	sltu	a1,a0,a1
30005668:	00164613          	xori	a2,a2,1
3000566c:	0015c593          	xori	a1,a1,1
30005670:	00b66633          	or	a2,a2,a1
30005674:	00c12683          	lw	a3,12(sp)
30005678:	5a060863          	beqz	a2,30005c28 <dir_register+0xb50>
3000567c:	00e56633          	or	a2,a0,a4
30005680:	00367613          	andi	a2,a2,3
30005684:	5a061263          	bnez	a2,30005c28 <dir_register+0xb50>
30005688:	00072603          	lw	a2,0(a4)
3000568c:	00c52023          	sw	a2,0(a0)
30005690:	00472603          	lw	a2,4(a4)
30005694:	00c52223          	sw	a2,4(a0)
30005698:	00874603          	lbu	a2,8(a4)
3000569c:	00c78423          	sb	a2,8(a5)
300056a0:	00974603          	lbu	a2,9(a4)
300056a4:	00c784a3          	sb	a2,9(a5)
300056a8:	00a74703          	lbu	a4,10(a4)
300056ac:	00e78523          	sb	a4,10(a5)
300056b0:	018d2703          	lw	a4,24(s10)
300056b4:	00b74703          	lbu	a4,11(a4)
300056b8:	01877713          	andi	a4,a4,24
300056bc:	00e78623          	sb	a4,12(a5)
300056c0:	000d2783          	lw	a5,0(s10)
300056c4:	00100713          	li	a4,1
300056c8:	00e78223          	sb	a4,4(a5)
300056cc:	d79ff06f          	j	30005444 <dir_register+0x36c>
300056d0:	00400693          	li	a3,4
300056d4:	d71ff06f          	j	30005444 <dir_register+0x36c>
300056d8:	002cc703          	lbu	a4,2(s9)
300056dc:	00445793          	srli	a5,s0,0x4
300056e0:	fff70713          	addi	a4,a4,-1
300056e4:	00f777b3          	and	a5,a4,a5
300056e8:	ee0794e3          	bnez	a5,300055d0 <dir_register+0x4f8>
300056ec:	06da7263          	bgeu	s4,a3,30005750 <dir_register+0x678>
300056f0:	018ca783          	lw	a5,24(s9)
300056f4:	04f6fe63          	bgeu	a3,a5,30005750 <dir_register+0x678>
300056f8:	00068593          	mv	a1,a3
300056fc:	000c8513          	mv	a0,s9
30005700:	ca5fd0ef          	jal	ra,300033a4 <get_fat.part.5>
30005704:	00050713          	mv	a4,a0
30005708:	04aa7463          	bgeu	s4,a0,30005750 <dir_register+0x678>
3000570c:	3d550863          	beq	a0,s5,30005adc <dir_register+0xa04>
30005710:	000d2c83          	lw	s9,0(s10)
30005714:	018ca683          	lw	a3,24(s9)
30005718:	26d57e63          	bgeu	a0,a3,30005994 <dir_register+0x8bc>
3000571c:	ffe50793          	addi	a5,a0,-2
30005720:	00f12c23          	sw	a5,24(sp)
30005724:	00ed2623          	sw	a4,12(s10)
30005728:	01812703          	lw	a4,24(sp)
3000572c:	ffe68693          	addi	a3,a3,-2
30005730:	00000593          	li	a1,0
30005734:	00d77a63          	bgeu	a4,a3,30005748 <dir_register+0x670>
30005738:	002cc583          	lbu	a1,2(s9)
3000573c:	028ca783          	lw	a5,40(s9)
30005740:	02e585b3          	mul	a1,a1,a4
30005744:	00f585b3          	add	a1,a1,a5
30005748:	00bd2823          	sw	a1,16(s10)
3000574c:	e85ff06f          	j	300055d0 <dir_register+0x4f8>
30005750:	00200693          	li	a3,2
30005754:	cf1ff06f          	j	30005444 <dir_register+0x36c>
30005758:	00098593          	mv	a1,s3
3000575c:	000d0513          	mv	a0,s10
30005760:	dfdfd0ef          	jal	ra,3000355c <dir_sdi>
30005764:	00050693          	mv	a3,a0
30005768:	cc051ee3          	bnez	a0,30005444 <dir_register+0x36c>
3000576c:	018d2683          	lw	a3,24(s10)
30005770:	00010ab7          	lui	s5,0x10
30005774:	fffa8493          	addi	s1,s5,-1 # ffff <stackPointer+0xa57f>
30005778:	0006c703          	lbu	a4,0(a3)
3000577c:	0016c583          	lbu	a1,1(a3)
30005780:	0026c603          	lbu	a2,2(a3)
30005784:	00175793          	srli	a5,a4,0x1
30005788:	00771713          	slli	a4,a4,0x7
3000578c:	00e7e7b3          	or	a5,a5,a4
30005790:	00b787b3          	add	a5,a5,a1
30005794:	0ff7f713          	andi	a4,a5,255
30005798:	00175713          	srli	a4,a4,0x1
3000579c:	00779793          	slli	a5,a5,0x7
300057a0:	00f76733          	or	a4,a4,a5
300057a4:	0ff77713          	andi	a4,a4,255
300057a8:	00c70733          	add	a4,a4,a2
300057ac:	0ff77793          	andi	a5,a4,255
300057b0:	0036c603          	lbu	a2,3(a3)
300057b4:	00771713          	slli	a4,a4,0x7
300057b8:	0017d793          	srli	a5,a5,0x1
300057bc:	00e7e7b3          	or	a5,a5,a4
300057c0:	0ff7f793          	andi	a5,a5,255
300057c4:	00c787b3          	add	a5,a5,a2
300057c8:	0ff7f713          	andi	a4,a5,255
300057cc:	0046c603          	lbu	a2,4(a3)
300057d0:	00779793          	slli	a5,a5,0x7
300057d4:	00175713          	srli	a4,a4,0x1
300057d8:	00f76733          	or	a4,a4,a5
300057dc:	0ff77713          	andi	a4,a4,255
300057e0:	00c70733          	add	a4,a4,a2
300057e4:	0ff77793          	andi	a5,a4,255
300057e8:	0056c603          	lbu	a2,5(a3)
300057ec:	00771713          	slli	a4,a4,0x7
300057f0:	0017d793          	srli	a5,a5,0x1
300057f4:	00e7e7b3          	or	a5,a5,a4
300057f8:	0ff7f793          	andi	a5,a5,255
300057fc:	00c787b3          	add	a5,a5,a2
30005800:	0ff7f713          	andi	a4,a5,255
30005804:	0066c603          	lbu	a2,6(a3)
30005808:	00779793          	slli	a5,a5,0x7
3000580c:	00175713          	srli	a4,a4,0x1
30005810:	00f76733          	or	a4,a4,a5
30005814:	0ff77713          	andi	a4,a4,255
30005818:	00c70733          	add	a4,a4,a2
3000581c:	0ff77793          	andi	a5,a4,255
30005820:	0076c603          	lbu	a2,7(a3)
30005824:	00771713          	slli	a4,a4,0x7
30005828:	0017d793          	srli	a5,a5,0x1
3000582c:	00e7e7b3          	or	a5,a5,a4
30005830:	0ff7f793          	andi	a5,a5,255
30005834:	00c787b3          	add	a5,a5,a2
30005838:	0ff7f713          	andi	a4,a5,255
3000583c:	0086c603          	lbu	a2,8(a3)
30005840:	00779793          	slli	a5,a5,0x7
30005844:	00175713          	srli	a4,a4,0x1
30005848:	00f76733          	or	a4,a4,a5
3000584c:	0ff77713          	andi	a4,a4,255
30005850:	00c70733          	add	a4,a4,a2
30005854:	0ff77793          	andi	a5,a4,255
30005858:	0017d793          	srli	a5,a5,0x1
3000585c:	00771713          	slli	a4,a4,0x7
30005860:	0096c603          	lbu	a2,9(a3)
30005864:	00e7e7b3          	or	a5,a5,a4
30005868:	0ff7f793          	andi	a5,a5,255
3000586c:	00c787b3          	add	a5,a5,a2
30005870:	0ff7f913          	andi	s2,a5,255
30005874:	00a6c703          	lbu	a4,10(a3)
30005878:	00195913          	srli	s2,s2,0x1
3000587c:	00779793          	slli	a5,a5,0x7
30005880:	00f967b3          	or	a5,s2,a5
30005884:	00e78933          	add	s2,a5,a4
30005888:	00f00a13          	li	s4,15
3000588c:	0ff97913          	andi	s2,s2,255
30005890:	fff00b13          	li	s6,-1
30005894:	ffda8a93          	addi	s5,s5,-3
30005898:	00100993          	li	s3,1
3000589c:	010d2583          	lw	a1,16(s10)
300058a0:	000d2503          	lw	a0,0(s10)
300058a4:	d4cfd0ef          	jal	ra,30002df0 <move_window>
300058a8:	00050693          	mv	a3,a0
300058ac:	b8051ce3          	bnez	a0,30005444 <dir_register+0x36c>
300058b0:	0ff47613          	andi	a2,s0,255
300058b4:	fff60693          	addi	a3,a2,-1
300058b8:	00169713          	slli	a4,a3,0x1
300058bc:	00d70733          	add	a4,a4,a3
300058c0:	01cd2583          	lw	a1,28(s10)
300058c4:	014d2783          	lw	a5,20(s10)
300058c8:	00271713          	slli	a4,a4,0x2
300058cc:	00d70733          	add	a4,a4,a3
300058d0:	00171513          	slli	a0,a4,0x1
300058d4:	012786a3          	sb	s2,13(a5)
300058d8:	014785a3          	sb	s4,11(a5)
300058dc:	00078623          	sb	zero,12(a5)
300058e0:	00078d23          	sb	zero,26(a5)
300058e4:	00078da3          	sb	zero,27(a5)
300058e8:	00a58533          	add	a0,a1,a0
300058ec:	00055683          	lhu	a3,0(a0)
300058f0:	0086d893          	srli	a7,a3,0x8
300058f4:	00d780a3          	sb	a3,1(a5)
300058f8:	01178123          	sb	a7,2(a5)
300058fc:	1e069463          	bnez	a3,30005ae4 <dir_register+0xa0c>
30005900:	016781a3          	sb	s6,3(a5)
30005904:	01678223          	sb	s6,4(a5)
30005908:	016782a3          	sb	s6,5(a5)
3000590c:	01678323          	sb	s6,6(a5)
30005910:	016783a3          	sb	s6,7(a5)
30005914:	01678423          	sb	s6,8(a5)
30005918:	016784a3          	sb	s6,9(a5)
3000591c:	01678523          	sb	s6,10(a5)
30005920:	01678723          	sb	s6,14(a5)
30005924:	016787a3          	sb	s6,15(a5)
30005928:	01678823          	sb	s6,16(a5)
3000592c:	016788a3          	sb	s6,17(a5)
30005930:	01678923          	sb	s6,18(a5)
30005934:	016789a3          	sb	s6,19(a5)
30005938:	01678a23          	sb	s6,20(a5)
3000593c:	01678aa3          	sb	s6,21(a5)
30005940:	01678b23          	sb	s6,22(a5)
30005944:	01678ba3          	sb	s6,23(a5)
30005948:	01678c23          	sb	s6,24(a5)
3000594c:	01678ca3          	sb	s6,25(a5)
30005950:	01678e23          	sb	s6,28(a5)
30005954:	01678ea3          	sb	s6,29(a5)
30005958:	01678f23          	sb	s6,30(a5)
3000595c:	01678fa3          	sb	s6,31(a5)
30005960:	04066613          	ori	a2,a2,64
30005964:	00c78023          	sb	a2,0(a5)
30005968:	000d2783          	lw	a5,0(s10)
3000596c:	000d0513          	mv	a0,s10
30005970:	01378223          	sb	s3,4(a5)
30005974:	f3dfd0ef          	jal	ra,300038b0 <dir_next.constprop.11>
30005978:	00050693          	mv	a3,a0
3000597c:	ac0514e3          	bnez	a0,30005444 <dir_register+0x36c>
30005980:	fff40413          	addi	s0,s0,-1
30005984:	01041413          	slli	s0,s0,0x10
30005988:	01045413          	srli	s0,s0,0x10
3000598c:	f00418e3          	bnez	s0,3000589c <dir_register+0x7c4>
30005990:	c95ff06f          	j	30005624 <dir_register+0x54c>
30005994:	00cd2583          	lw	a1,12(s10)
30005998:	000c8513          	mv	a0,s9
3000599c:	a80ff0ef          	jal	ra,30004c1c <create_chain>
300059a0:	00050713          	mv	a4,a0
300059a4:	a8050ee3          	beqz	a0,30005440 <dir_register+0x368>
300059a8:	db4504e3          	beq	a0,s4,30005750 <dir_register+0x678>
300059ac:	13550863          	beq	a0,s5,30005adc <dir_register+0xa04>
300059b0:	000d2c03          	lw	s8,0(s10)
300059b4:	02cc2803          	lw	a6,44(s8)
300059b8:	030c0c93          	addi	s9,s8,48
300059bc:	00080663          	beqz	a6,300059c8 <dir_register+0x8f0>
300059c0:	004c4783          	lbu	a5,4(s8)
300059c4:	2a079463          	bnez	a5,30005c6c <dir_register+0xb94>
300059c8:	20000613          	li	a2,512
300059cc:	00000593          	li	a1,0
300059d0:	000c8513          	mv	a0,s9
300059d4:	00e12623          	sw	a4,12(sp)
300059d8:	659060ef          	jal	ra,3000c830 <memset>
300059dc:	000d2c83          	lw	s9,0(s10)
300059e0:	00c12703          	lw	a4,12(sp)
300059e4:	00000793          	li	a5,0
300059e8:	018ca603          	lw	a2,24(s9)
300059ec:	ffe70593          	addi	a1,a4,-2
300059f0:	00b12c23          	sw	a1,24(sp)
300059f4:	ffe60613          	addi	a2,a2,-2
300059f8:	002cc683          	lbu	a3,2(s9)
300059fc:	00c5f863          	bgeu	a1,a2,30005a0c <dir_register+0x934>
30005a00:	02b687b3          	mul	a5,a3,a1
30005a04:	028ca603          	lw	a2,40(s9)
30005a08:	00c787b3          	add	a5,a5,a2
30005a0c:	02fca623          	sw	a5,44(s9)
30005a10:	00000c13          	li	s8,0
30005a14:	0a068c63          	beqz	a3,30005acc <dir_register+0x9f4>
30005a18:	016c8223          	sb	s6,4(s9)
30005a1c:	08078e63          	beqz	a5,30005ab8 <dir_register+0x9e0>
30005a20:	001cc503          	lbu	a0,1(s9)
30005a24:	030c8593          	addi	a1,s9,48
30005a28:	00100693          	li	a3,1
30005a2c:	00078613          	mv	a2,a5
30005a30:	00e12823          	sw	a4,16(sp)
30005a34:	00b12e23          	sw	a1,28(sp)
30005a38:	00f12623          	sw	a5,12(sp)
30005a3c:	eccfc0ef          	jal	ra,30002108 <disk_write>
30005a40:	08051e63          	bnez	a0,30005adc <dir_register+0xa04>
30005a44:	01cca683          	lw	a3,28(s9)
30005a48:	020ca603          	lw	a2,32(s9)
30005a4c:	00c12783          	lw	a5,12(sp)
30005a50:	000c8223          	sb	zero,4(s9)
30005a54:	00c68633          	add	a2,a3,a2
30005a58:	01012703          	lw	a4,16(sp)
30005a5c:	04c7f863          	bgeu	a5,a2,30005aac <dir_register+0x9d4>
30005a60:	003cc303          	lbu	t1,3(s9)
30005a64:	006a6663          	bltu	s4,t1,30005a70 <dir_register+0x998>
30005a68:	0440006f          	j	30005aac <dir_register+0x9d4>
30005a6c:	01cca683          	lw	a3,28(s9)
30005a70:	001cc503          	lbu	a0,1(s9)
30005a74:	01c12583          	lw	a1,28(sp)
30005a78:	00d787b3          	add	a5,a5,a3
30005a7c:	00078613          	mv	a2,a5
30005a80:	00100693          	li	a3,1
30005a84:	00612a23          	sw	t1,20(sp)
30005a88:	00e12823          	sw	a4,16(sp)
30005a8c:	00f12623          	sw	a5,12(sp)
30005a90:	e78fc0ef          	jal	ra,30002108 <disk_write>
30005a94:	01412303          	lw	t1,20(sp)
30005a98:	00c12783          	lw	a5,12(sp)
30005a9c:	01012703          	lw	a4,16(sp)
30005aa0:	fff30313          	addi	t1,t1,-1
30005aa4:	0ff37313          	andi	t1,t1,255
30005aa8:	fd4312e3          	bne	t1,s4,30005a6c <dir_register+0x994>
30005aac:	000d2c83          	lw	s9,0(s10)
30005ab0:	02cca783          	lw	a5,44(s9)
30005ab4:	002cc683          	lbu	a3,2(s9)
30005ab8:	00178793          	addi	a5,a5,1
30005abc:	001c0893          	addi	a7,s8,1
30005ac0:	02fca623          	sw	a5,44(s9)
30005ac4:	0ff8fc13          	andi	s8,a7,255
30005ac8:	f4dc68e3          	bltu	s8,a3,30005a18 <dir_register+0x940>
30005acc:	418787b3          	sub	a5,a5,s8
30005ad0:	018ca683          	lw	a3,24(s9)
30005ad4:	02fca623          	sw	a5,44(s9)
30005ad8:	c4dff06f          	j	30005724 <dir_register+0x64c>
30005adc:	00100693          	li	a3,1
30005ae0:	965ff06f          	j	30005444 <dir_register+0x36c>
30005ae4:	e0968ee3          	beq	a3,s1,30005900 <dir_register+0x828>
30005ae8:	00170713          	addi	a4,a4,1
30005aec:	00171713          	slli	a4,a4,0x1
30005af0:	00e58733          	add	a4,a1,a4
30005af4:	00075683          	lhu	a3,0(a4)
30005af8:	0086d593          	srli	a1,a3,0x8
30005afc:	00d781a3          	sb	a3,3(a5)
30005b00:	00b78223          	sb	a1,4(a5)
30005b04:	e00682e3          	beqz	a3,30005908 <dir_register+0x830>
30005b08:	e09680e3          	beq	a3,s1,30005908 <dir_register+0x830>
30005b0c:	00275683          	lhu	a3,2(a4)
30005b10:	0086d593          	srli	a1,a3,0x8
30005b14:	00d782a3          	sb	a3,5(a5)
30005b18:	00b78323          	sb	a1,6(a5)
30005b1c:	de068ae3          	beqz	a3,30005910 <dir_register+0x838>
30005b20:	de9688e3          	beq	a3,s1,30005910 <dir_register+0x838>
30005b24:	00475683          	lhu	a3,4(a4)
30005b28:	0086d593          	srli	a1,a3,0x8
30005b2c:	00d783a3          	sb	a3,7(a5)
30005b30:	00b78423          	sb	a1,8(a5)
30005b34:	de0682e3          	beqz	a3,30005918 <dir_register+0x840>
30005b38:	de9680e3          	beq	a3,s1,30005918 <dir_register+0x840>
30005b3c:	00675683          	lhu	a3,6(a4)
30005b40:	0086d593          	srli	a1,a3,0x8
30005b44:	00d784a3          	sb	a3,9(a5)
30005b48:	00b78523          	sb	a1,10(a5)
30005b4c:	dc068ae3          	beqz	a3,30005920 <dir_register+0x848>
30005b50:	dc9688e3          	beq	a3,s1,30005920 <dir_register+0x848>
30005b54:	00875683          	lhu	a3,8(a4)
30005b58:	0086d593          	srli	a1,a3,0x8
30005b5c:	00d78723          	sb	a3,14(a5)
30005b60:	00b787a3          	sb	a1,15(a5)
30005b64:	dc0682e3          	beqz	a3,30005928 <dir_register+0x850>
30005b68:	dc9680e3          	beq	a3,s1,30005928 <dir_register+0x850>
30005b6c:	00a75683          	lhu	a3,10(a4)
30005b70:	0086d593          	srli	a1,a3,0x8
30005b74:	00d78823          	sb	a3,16(a5)
30005b78:	00b788a3          	sb	a1,17(a5)
30005b7c:	da068ae3          	beqz	a3,30005930 <dir_register+0x858>
30005b80:	da9688e3          	beq	a3,s1,30005930 <dir_register+0x858>
30005b84:	00c75683          	lhu	a3,12(a4)
30005b88:	0086d593          	srli	a1,a3,0x8
30005b8c:	00d78923          	sb	a3,18(a5)
30005b90:	00b789a3          	sb	a1,19(a5)
30005b94:	da0682e3          	beqz	a3,30005938 <dir_register+0x860>
30005b98:	da9680e3          	beq	a3,s1,30005938 <dir_register+0x860>
30005b9c:	00e75683          	lhu	a3,14(a4)
30005ba0:	0086d593          	srli	a1,a3,0x8
30005ba4:	00d78a23          	sb	a3,20(a5)
30005ba8:	00b78aa3          	sb	a1,21(a5)
30005bac:	d8068ae3          	beqz	a3,30005940 <dir_register+0x868>
30005bb0:	d89688e3          	beq	a3,s1,30005940 <dir_register+0x868>
30005bb4:	01075683          	lhu	a3,16(a4)
30005bb8:	0086d593          	srli	a1,a3,0x8
30005bbc:	00d78b23          	sb	a3,22(a5)
30005bc0:	00b78ba3          	sb	a1,23(a5)
30005bc4:	d80682e3          	beqz	a3,30005948 <dir_register+0x870>
30005bc8:	d89680e3          	beq	a3,s1,30005948 <dir_register+0x870>
30005bcc:	01275683          	lhu	a3,18(a4)
30005bd0:	0086d593          	srli	a1,a3,0x8
30005bd4:	00d78c23          	sb	a3,24(a5)
30005bd8:	00b78ca3          	sb	a1,25(a5)
30005bdc:	d6068ae3          	beqz	a3,30005950 <dir_register+0x878>
30005be0:	d69688e3          	beq	a3,s1,30005950 <dir_register+0x878>
30005be4:	01475683          	lhu	a3,20(a4)
30005be8:	0086d593          	srli	a1,a3,0x8
30005bec:	00d78e23          	sb	a3,28(a5)
30005bf0:	00b78ea3          	sb	a1,29(a5)
30005bf4:	d60682e3          	beqz	a3,30005958 <dir_register+0x880>
30005bf8:	d69680e3          	beq	a3,s1,30005958 <dir_register+0x880>
30005bfc:	01675683          	lhu	a3,22(a4)
30005c00:	fff68713          	addi	a4,a3,-1
30005c04:	0086d593          	srli	a1,a3,0x8
30005c08:	01071713          	slli	a4,a4,0x10
30005c0c:	00d78f23          	sb	a3,30(a5)
30005c10:	00b78fa3          	sb	a1,31(a5)
30005c14:	01075713          	srli	a4,a4,0x10
30005c18:	d4eae4e3          	bltu	s5,a4,30005960 <dir_register+0x888>
30005c1c:	01a55703          	lhu	a4,26(a0)
30005c20:	d40712e3          	bnez	a4,30005964 <dir_register+0x88c>
30005c24:	d3dff06f          	j	30005960 <dir_register+0x888>
30005c28:	00074603          	lbu	a2,0(a4)
30005c2c:	00c78023          	sb	a2,0(a5)
30005c30:	00174603          	lbu	a2,1(a4)
30005c34:	00c780a3          	sb	a2,1(a5)
30005c38:	00274603          	lbu	a2,2(a4)
30005c3c:	00c78123          	sb	a2,2(a5)
30005c40:	00374603          	lbu	a2,3(a4)
30005c44:	00c781a3          	sb	a2,3(a5)
30005c48:	00474603          	lbu	a2,4(a4)
30005c4c:	00c78223          	sb	a2,4(a5)
30005c50:	00574603          	lbu	a2,5(a4)
30005c54:	00c782a3          	sb	a2,5(a5)
30005c58:	00674603          	lbu	a2,6(a4)
30005c5c:	00c78323          	sb	a2,6(a5)
30005c60:	00774603          	lbu	a2,7(a4)
30005c64:	00c783a3          	sb	a2,7(a5)
30005c68:	a31ff06f          	j	30005698 <dir_register+0x5c0>
30005c6c:	00a12823          	sw	a0,16(sp)
30005c70:	001c4503          	lbu	a0,1(s8)
30005c74:	00100693          	li	a3,1
30005c78:	00080613          	mv	a2,a6
30005c7c:	000c8593          	mv	a1,s9
30005c80:	01012623          	sw	a6,12(sp)
30005c84:	c84fc0ef          	jal	ra,30002108 <disk_write>
30005c88:	e4051ae3          	bnez	a0,30005adc <dir_register+0xa04>
30005c8c:	01cc2683          	lw	a3,28(s8)
30005c90:	020c2783          	lw	a5,32(s8)
30005c94:	00c12803          	lw	a6,12(sp)
30005c98:	000c0223          	sb	zero,4(s8)
30005c9c:	00f687b3          	add	a5,a3,a5
30005ca0:	01012703          	lw	a4,16(sp)
30005ca4:	04f87863          	bgeu	a6,a5,30005cf4 <dir_register+0xc1c>
30005ca8:	003c4783          	lbu	a5,3(s8)
30005cac:	00fa6663          	bltu	s4,a5,30005cb8 <dir_register+0xbe0>
30005cb0:	0440006f          	j	30005cf4 <dir_register+0xc1c>
30005cb4:	01cc2683          	lw	a3,28(s8)
30005cb8:	001c4503          	lbu	a0,1(s8)
30005cbc:	00d80833          	add	a6,a6,a3
30005cc0:	00080613          	mv	a2,a6
30005cc4:	00100693          	li	a3,1
30005cc8:	000c8593          	mv	a1,s9
30005ccc:	00f12a23          	sw	a5,20(sp)
30005cd0:	00e12823          	sw	a4,16(sp)
30005cd4:	01012623          	sw	a6,12(sp)
30005cd8:	c30fc0ef          	jal	ra,30002108 <disk_write>
30005cdc:	01412783          	lw	a5,20(sp)
30005ce0:	00c12803          	lw	a6,12(sp)
30005ce4:	01012703          	lw	a4,16(sp)
30005ce8:	fff78793          	addi	a5,a5,-1
30005cec:	0ff7f793          	andi	a5,a5,255
30005cf0:	fd4792e3          	bne	a5,s4,30005cb4 <dir_register+0xbdc>
30005cf4:	000d2c83          	lw	s9,0(s10)
30005cf8:	030c8c93          	addi	s9,s9,48
30005cfc:	ccdff06f          	j	300059c8 <dir_register+0x8f0>

30005d00 <clust2sect>:
30005d00:	01852703          	lw	a4,24(a0)
30005d04:	ffe58593          	addi	a1,a1,-2
30005d08:	ffe70713          	addi	a4,a4,-2
30005d0c:	00e5fc63          	bgeu	a1,a4,30005d24 <clust2sect+0x24>
30005d10:	00254783          	lbu	a5,2(a0)
30005d14:	02852703          	lw	a4,40(a0)
30005d18:	02b78533          	mul	a0,a5,a1
30005d1c:	00e50533          	add	a0,a0,a4
30005d20:	00008067          	ret
30005d24:	00000513          	li	a0,0
30005d28:	00008067          	ret

30005d2c <get_fat>:
30005d2c:	00100713          	li	a4,1
30005d30:	06b77663          	bgeu	a4,a1,30005d9c <get_fat+0x70>
30005d34:	01852683          	lw	a3,24(a0)
30005d38:	fe010113          	addi	sp,sp,-32
30005d3c:	00912a23          	sw	s1,20(sp)
30005d40:	00112e23          	sw	ra,28(sp)
30005d44:	00812c23          	sw	s0,24(sp)
30005d48:	01212823          	sw	s2,16(sp)
30005d4c:	01312623          	sw	s3,12(sp)
30005d50:	00050493          	mv	s1,a0
30005d54:	00100793          	li	a5,1
30005d58:	02d5f263          	bgeu	a1,a3,30005d7c <get_fat+0x50>
30005d5c:	00054683          	lbu	a3,0(a0)
30005d60:	00200793          	li	a5,2
30005d64:	00058413          	mv	s0,a1
30005d68:	12f68663          	beq	a3,a5,30005e94 <get_fat+0x168>
30005d6c:	00300793          	li	a5,3
30005d70:	0cf68463          	beq	a3,a5,30005e38 <get_fat+0x10c>
30005d74:	fff00793          	li	a5,-1
30005d78:	02e68863          	beq	a3,a4,30005da8 <get_fat+0x7c>
30005d7c:	01c12083          	lw	ra,28(sp)
30005d80:	01812403          	lw	s0,24(sp)
30005d84:	01412483          	lw	s1,20(sp)
30005d88:	01012903          	lw	s2,16(sp)
30005d8c:	00c12983          	lw	s3,12(sp)
30005d90:	00078513          	mv	a0,a5
30005d94:	02010113          	addi	sp,sp,32
30005d98:	00008067          	ret
30005d9c:	00100793          	li	a5,1
30005da0:	00078513          	mv	a0,a5
30005da4:	00008067          	ret
30005da8:	0015d913          	srli	s2,a1,0x1
30005dac:	02052783          	lw	a5,32(a0)
30005db0:	00b90933          	add	s2,s2,a1
30005db4:	00995593          	srli	a1,s2,0x9
30005db8:	00f585b3          	add	a1,a1,a5
30005dbc:	834fd0ef          	jal	ra,30002df0 <move_window>
30005dc0:	04051a63          	bnez	a0,30005e14 <get_fat+0xe8>
30005dc4:	0204a783          	lw	a5,32(s1)
30005dc8:	00190993          	addi	s3,s2,1
30005dcc:	0099d593          	srli	a1,s3,0x9
30005dd0:	1ff97913          	andi	s2,s2,511
30005dd4:	01248933          	add	s2,s1,s2
30005dd8:	00f585b3          	add	a1,a1,a5
30005ddc:	00048513          	mv	a0,s1
30005de0:	03094903          	lbu	s2,48(s2)
30005de4:	80cfd0ef          	jal	ra,30002df0 <move_window>
30005de8:	02051663          	bnez	a0,30005e14 <get_fat+0xe8>
30005dec:	1ff9f593          	andi	a1,s3,511
30005df0:	00b485b3          	add	a1,s1,a1
30005df4:	0305c783          	lbu	a5,48(a1)
30005df8:	00147593          	andi	a1,s0,1
30005dfc:	00879793          	slli	a5,a5,0x8
30005e00:	0127e7b3          	or	a5,a5,s2
30005e04:	08059463          	bnez	a1,30005e8c <get_fat+0x160>
30005e08:	01479793          	slli	a5,a5,0x14
30005e0c:	0147d793          	srli	a5,a5,0x14
30005e10:	f6dff06f          	j	30005d7c <get_fat+0x50>
30005e14:	01c12083          	lw	ra,28(sp)
30005e18:	01812403          	lw	s0,24(sp)
30005e1c:	fff00793          	li	a5,-1
30005e20:	01412483          	lw	s1,20(sp)
30005e24:	01012903          	lw	s2,16(sp)
30005e28:	00c12983          	lw	s3,12(sp)
30005e2c:	00078513          	mv	a0,a5
30005e30:	02010113          	addi	sp,sp,32
30005e34:	00008067          	ret
30005e38:	02052783          	lw	a5,32(a0)
30005e3c:	0075d593          	srli	a1,a1,0x7
30005e40:	00f585b3          	add	a1,a1,a5
30005e44:	fadfc0ef          	jal	ra,30002df0 <move_window>
30005e48:	fc0516e3          	bnez	a0,30005e14 <get_fat+0xe8>
30005e4c:	00241593          	slli	a1,s0,0x2
30005e50:	1fc5f593          	andi	a1,a1,508
30005e54:	03058713          	addi	a4,a1,48
30005e58:	00e48733          	add	a4,s1,a4
30005e5c:	00374783          	lbu	a5,3(a4)
30005e60:	00274683          	lbu	a3,2(a4)
30005e64:	00b485b3          	add	a1,s1,a1
30005e68:	0305c603          	lbu	a2,48(a1)
30005e6c:	00174703          	lbu	a4,1(a4)
30005e70:	01879793          	slli	a5,a5,0x18
30005e74:	01069693          	slli	a3,a3,0x10
30005e78:	00d7e7b3          	or	a5,a5,a3
30005e7c:	00c7e7b3          	or	a5,a5,a2
30005e80:	00871713          	slli	a4,a4,0x8
30005e84:	00e7e7b3          	or	a5,a5,a4
30005e88:	00479793          	slli	a5,a5,0x4
30005e8c:	0047d793          	srli	a5,a5,0x4
30005e90:	eedff06f          	j	30005d7c <get_fat+0x50>
30005e94:	02052783          	lw	a5,32(a0)
30005e98:	0085d593          	srli	a1,a1,0x8
30005e9c:	00f585b3          	add	a1,a1,a5
30005ea0:	f51fc0ef          	jal	ra,30002df0 <move_window>
30005ea4:	f60518e3          	bnez	a0,30005e14 <get_fat+0xe8>
30005ea8:	00141593          	slli	a1,s0,0x1
30005eac:	1fe5f593          	andi	a1,a1,510
30005eb0:	00b485b3          	add	a1,s1,a1
30005eb4:	0315c783          	lbu	a5,49(a1)
30005eb8:	0305c703          	lbu	a4,48(a1)
30005ebc:	00879793          	slli	a5,a5,0x8
30005ec0:	00e7e7b3          	or	a5,a5,a4
30005ec4:	eb9ff06f          	j	30005d7c <get_fat+0x50>

30005ec8 <put_fat>:
30005ec8:	fe010113          	addi	sp,sp,-32
30005ecc:	01312623          	sw	s3,12(sp)
30005ed0:	00112e23          	sw	ra,28(sp)
30005ed4:	00812c23          	sw	s0,24(sp)
30005ed8:	00912a23          	sw	s1,20(sp)
30005edc:	01212823          	sw	s2,16(sp)
30005ee0:	01412423          	sw	s4,8(sp)
30005ee4:	01512223          	sw	s5,4(sp)
30005ee8:	01612023          	sw	s6,0(sp)
30005eec:	00100793          	li	a5,1
30005ef0:	00200993          	li	s3,2
30005ef4:	02b7fc63          	bgeu	a5,a1,30005f2c <put_fat+0x64>
30005ef8:	01852703          	lw	a4,24(a0)
30005efc:	00050493          	mv	s1,a0
30005f00:	00200993          	li	s3,2
30005f04:	02e5f463          	bgeu	a1,a4,30005f2c <put_fat+0x64>
30005f08:	00054a03          	lbu	s4,0(a0)
30005f0c:	00060913          	mv	s2,a2
30005f10:	00058413          	mv	s0,a1
30005f14:	053a0263          	beq	s4,s3,30005f58 <put_fat+0x90>
30005f18:	00300713          	li	a4,3
30005f1c:	10ea0063          	beq	s4,a4,3000601c <put_fat+0x154>
30005f20:	06fa0a63          	beq	s4,a5,30005f94 <put_fat+0xcc>
30005f24:	00100793          	li	a5,1
30005f28:	00f48223          	sb	a5,4(s1)
30005f2c:	01c12083          	lw	ra,28(sp)
30005f30:	01812403          	lw	s0,24(sp)
30005f34:	00098513          	mv	a0,s3
30005f38:	01412483          	lw	s1,20(sp)
30005f3c:	01012903          	lw	s2,16(sp)
30005f40:	00c12983          	lw	s3,12(sp)
30005f44:	00812a03          	lw	s4,8(sp)
30005f48:	00412a83          	lw	s5,4(sp)
30005f4c:	00012b03          	lw	s6,0(sp)
30005f50:	02010113          	addi	sp,sp,32
30005f54:	00008067          	ret
30005f58:	02052783          	lw	a5,32(a0)
30005f5c:	0085d593          	srli	a1,a1,0x8
30005f60:	00f585b3          	add	a1,a1,a5
30005f64:	e8dfc0ef          	jal	ra,30002df0 <move_window>
30005f68:	00050993          	mv	s3,a0
30005f6c:	fa051ce3          	bnez	a0,30005f24 <put_fat+0x5c>
30005f70:	00141793          	slli	a5,s0,0x1
30005f74:	01091713          	slli	a4,s2,0x10
30005f78:	1fe7f793          	andi	a5,a5,510
30005f7c:	01075713          	srli	a4,a4,0x10
30005f80:	00f487b3          	add	a5,s1,a5
30005f84:	00875713          	srli	a4,a4,0x8
30005f88:	03278823          	sb	s2,48(a5)
30005f8c:	02e788a3          	sb	a4,49(a5)
30005f90:	f95ff06f          	j	30005f24 <put_fat+0x5c>
30005f94:	02052783          	lw	a5,32(a0)
30005f98:	0015da93          	srli	s5,a1,0x1
30005f9c:	00ba8ab3          	add	s5,s5,a1
30005fa0:	009ad593          	srli	a1,s5,0x9
30005fa4:	00f585b3          	add	a1,a1,a5
30005fa8:	e49fc0ef          	jal	ra,30002df0 <move_window>
30005fac:	00050993          	mv	s3,a0
30005fb0:	f6051ae3          	bnez	a0,30005f24 <put_fat+0x5c>
30005fb4:	0204a783          	lw	a5,32(s1)
30005fb8:	001a8b13          	addi	s6,s5,1
30005fbc:	009b5593          	srli	a1,s6,0x9
30005fc0:	1ffafa93          	andi	s5,s5,511
30005fc4:	00147413          	andi	s0,s0,1
30005fc8:	00f585b3          	add	a1,a1,a5
30005fcc:	01548ab3          	add	s5,s1,s5
30005fd0:	0a040a63          	beqz	s0,30006084 <put_fat+0x1bc>
30005fd4:	030ac783          	lbu	a5,48(s5)
30005fd8:	000016b7          	lui	a3,0x1
30005fdc:	00491713          	slli	a4,s2,0x4
30005fe0:	ff068693          	addi	a3,a3,-16 # ff0 <stackPointer-0x4a90>
30005fe4:	00f7f793          	andi	a5,a5,15
30005fe8:	00d77733          	and	a4,a4,a3
30005fec:	00e7e7b3          	or	a5,a5,a4
30005ff0:	02fa8823          	sb	a5,48(s5)
30005ff4:	01448223          	sb	s4,4(s1)
30005ff8:	00048513          	mv	a0,s1
30005ffc:	df5fc0ef          	jal	ra,30002df0 <move_window>
30006000:	0a051e63          	bnez	a0,300060bc <put_fat+0x1f4>
30006004:	1ffb7b13          	andi	s6,s6,511
30006008:	00495793          	srli	a5,s2,0x4
3000600c:	0ff7f793          	andi	a5,a5,255
30006010:	01648b33          	add	s6,s1,s6
30006014:	02fb0823          	sb	a5,48(s6)
30006018:	f0dff06f          	j	30005f24 <put_fat+0x5c>
3000601c:	02052783          	lw	a5,32(a0)
30006020:	0075d593          	srli	a1,a1,0x7
30006024:	00f585b3          	add	a1,a1,a5
30006028:	dc9fc0ef          	jal	ra,30002df0 <move_window>
3000602c:	00050993          	mv	s3,a0
30006030:	ee051ae3          	bnez	a0,30005f24 <put_fat+0x5c>
30006034:	00241593          	slli	a1,s0,0x2
30006038:	1fc5f593          	andi	a1,a1,508
3000603c:	03058713          	addi	a4,a1,48
30006040:	00e48733          	add	a4,s1,a4
30006044:	00374783          	lbu	a5,3(a4)
30006048:	f00006b7          	lui	a3,0xf0000
3000604c:	00b485b3          	add	a1,s1,a1
30006050:	01879793          	slli	a5,a5,0x18
30006054:	00d7f7b3          	and	a5,a5,a3
30006058:	0127e933          	or	s2,a5,s2
3000605c:	01091793          	slli	a5,s2,0x10
30006060:	0107d793          	srli	a5,a5,0x10
30006064:	03258823          	sb	s2,48(a1)
30006068:	01095693          	srli	a3,s2,0x10
3000606c:	0087d793          	srli	a5,a5,0x8
30006070:	01895913          	srli	s2,s2,0x18
30006074:	00f700a3          	sb	a5,1(a4)
30006078:	00d70123          	sb	a3,2(a4)
3000607c:	012701a3          	sb	s2,3(a4)
30006080:	ea5ff06f          	j	30005f24 <put_fat+0x5c>
30006084:	032a8823          	sb	s2,48(s5)
30006088:	01448223          	sb	s4,4(s1)
3000608c:	00048513          	mv	a0,s1
30006090:	d61fc0ef          	jal	ra,30002df0 <move_window>
30006094:	02051463          	bnez	a0,300060bc <put_fat+0x1f4>
30006098:	1ffb7b13          	andi	s6,s6,511
3000609c:	01648b33          	add	s6,s1,s6
300060a0:	030b4703          	lbu	a4,48(s6)
300060a4:	00895793          	srli	a5,s2,0x8
300060a8:	00f7f793          	andi	a5,a5,15
300060ac:	ff077713          	andi	a4,a4,-16
300060b0:	00f767b3          	or	a5,a4,a5
300060b4:	02fb0823          	sb	a5,48(s6)
300060b8:	e6dff06f          	j	30005f24 <put_fat+0x5c>
300060bc:	00050993          	mv	s3,a0
300060c0:	e65ff06f          	j	30005f24 <put_fat+0x5c>

300060c4 <gen_numname>:
300060c4:	00458793          	addi	a5,a1,4
300060c8:	00450713          	addi	a4,a0,4
300060cc:	00f537b3          	sltu	a5,a0,a5
300060d0:	00e5b733          	sltu	a4,a1,a4
300060d4:	0017c793          	xori	a5,a5,1
300060d8:	00174713          	xori	a4,a4,1
300060dc:	00e7e7b3          	or	a5,a5,a4
300060e0:	ff010113          	addi	sp,sp,-16
300060e4:	24078a63          	beqz	a5,30006338 <gen_numname+0x274>
300060e8:	00b567b3          	or	a5,a0,a1
300060ec:	0037f793          	andi	a5,a5,3
300060f0:	24079463          	bnez	a5,30006338 <gen_numname+0x274>
300060f4:	0005a783          	lw	a5,0(a1)
300060f8:	00f52023          	sw	a5,0(a0)
300060fc:	0045a783          	lw	a5,4(a1)
30006100:	00f52223          	sw	a5,4(a0)
30006104:	0085c783          	lbu	a5,8(a1)
30006108:	00f50423          	sb	a5,8(a0)
3000610c:	0095c783          	lbu	a5,9(a1)
30006110:	00f504a3          	sb	a5,9(a0)
30006114:	00a5c783          	lbu	a5,10(a1)
30006118:	00f50523          	sb	a5,10(a0)
3000611c:	00500793          	li	a5,5
30006120:	02d7f663          	bgeu	a5,a3,3000614c <gen_numname+0x88>
30006124:	00065703          	lhu	a4,0(a2)
30006128:	0016d793          	srli	a5,a3,0x1
3000612c:	00f69693          	slli	a3,a3,0xf
30006130:	00d7e6b3          	or	a3,a5,a3
30006134:	00260613          	addi	a2,a2,2
30006138:	00e686b3          	add	a3,a3,a4
3000613c:	00065703          	lhu	a4,0(a2)
30006140:	01069693          	slli	a3,a3,0x10
30006144:	0106d693          	srli	a3,a3,0x10
30006148:	fe0710e3          	bnez	a4,30006128 <gen_numname+0x64>
3000614c:	00f6f713          	andi	a4,a3,15
30006150:	03070793          	addi	a5,a4,48
30006154:	03900613          	li	a2,57
30006158:	00f67463          	bgeu	a2,a5,30006160 <gen_numname+0x9c>
3000615c:	03770793          	addi	a5,a4,55
30006160:	00f107a3          	sb	a5,15(sp)
30006164:	00f00793          	li	a5,15
30006168:	0046d713          	srli	a4,a3,0x4
3000616c:	20d7f863          	bgeu	a5,a3,3000637c <gen_numname+0x2b8>
30006170:	00f77613          	andi	a2,a4,15
30006174:	03060793          	addi	a5,a2,48
30006178:	03900593          	li	a1,57
3000617c:	14f5ee63          	bltu	a1,a5,300062d8 <gen_numname+0x214>
30006180:	00f10723          	sb	a5,14(sp)
30006184:	00f00793          	li	a5,15
30006188:	0086d613          	srli	a2,a3,0x8
3000618c:	16e7f063          	bgeu	a5,a4,300062ec <gen_numname+0x228>
30006190:	00f67713          	andi	a4,a2,15
30006194:	03070793          	addi	a5,a4,48
30006198:	03900593          	li	a1,57
3000619c:	16f5e663          	bltu	a1,a5,30006308 <gen_numname+0x244>
300061a0:	00f106a3          	sb	a5,13(sp)
300061a4:	00f00793          	li	a5,15
300061a8:	00c6d693          	srli	a3,a3,0xc
300061ac:	1ec7f263          	bgeu	a5,a2,30006390 <gen_numname+0x2cc>
300061b0:	0ff6f693          	andi	a3,a3,255
300061b4:	03068793          	addi	a5,a3,48 # f0000030 <__bss_end__+0xbff00030>
300061b8:	0ff7f793          	andi	a5,a5,255
300061bc:	03900713          	li	a4,57
300061c0:	16f76263          	bltu	a4,a5,30006324 <gen_numname+0x260>
300061c4:	00f10623          	sb	a5,12(sp)
300061c8:	00300613          	li	a2,3
300061cc:	01010793          	addi	a5,sp,16
300061d0:	00c78833          	add	a6,a5,a2
300061d4:	07e00793          	li	a5,126
300061d8:	fef80c23          	sb	a5,-8(a6)
300061dc:	00054703          	lbu	a4,0(a0)
300061e0:	02000793          	li	a5,32
300061e4:	1af70a63          	beq	a4,a5,30006398 <gen_numname+0x2d4>
300061e8:	00000793          	li	a5,0
300061ec:	02000593          	li	a1,32
300061f0:	00c0006f          	j	300061fc <gen_numname+0x138>
300061f4:	00074683          	lbu	a3,0(a4)
300061f8:	00b68863          	beq	a3,a1,30006208 <gen_numname+0x144>
300061fc:	00178793          	addi	a5,a5,1
30006200:	00f50733          	add	a4,a0,a5
30006204:	fec798e3          	bne	a5,a2,300061f4 <gen_numname+0x130>
30006208:	ff884583          	lbu	a1,-8(a6)
3000620c:	00178793          	addi	a5,a5,1
30006210:	00700693          	li	a3,7
30006214:	00b70023          	sb	a1,0(a4)
30006218:	00160613          	addi	a2,a2,1
3000621c:	0af6ea63          	bltu	a3,a5,300062d0 <gen_numname+0x20c>
30006220:	01010713          	addi	a4,sp,16
30006224:	00c70733          	add	a4,a4,a2
30006228:	ff874583          	lbu	a1,-8(a4)
3000622c:	00f50733          	add	a4,a0,a5
30006230:	00178693          	addi	a3,a5,1
30006234:	00b70023          	sb	a1,0(a4)
30006238:	00800593          	li	a1,8
3000623c:	00160713          	addi	a4,a2,1
30006240:	08b68863          	beq	a3,a1,300062d0 <gen_numname+0x20c>
30006244:	02000813          	li	a6,32
30006248:	0ab71663          	bne	a4,a1,300062f4 <gen_numname+0x230>
3000624c:	00d506b3          	add	a3,a0,a3
30006250:	01068023          	sb	a6,0(a3)
30006254:	00278613          	addi	a2,a5,2
30006258:	00800693          	li	a3,8
3000625c:	06d60a63          	beq	a2,a3,300062d0 <gen_numname+0x20c>
30006260:	02000593          	li	a1,32
30006264:	0ad71663          	bne	a4,a3,30006310 <gen_numname+0x24c>
30006268:	00c50633          	add	a2,a0,a2
3000626c:	00b60023          	sb	a1,0(a2)
30006270:	00378693          	addi	a3,a5,3
30006274:	00800613          	li	a2,8
30006278:	04c68c63          	beq	a3,a2,300062d0 <gen_numname+0x20c>
3000627c:	00700593          	li	a1,7
30006280:	02000613          	li	a2,32
30006284:	0ab70663          	beq	a4,a1,30006330 <gen_numname+0x26c>
30006288:	00d506b3          	add	a3,a0,a3
3000628c:	00478713          	addi	a4,a5,4
30006290:	00c68023          	sb	a2,0(a3)
30006294:	00800593          	li	a1,8
30006298:	02b70c63          	beq	a4,a1,300062d0 <gen_numname+0x20c>
3000629c:	00e50733          	add	a4,a0,a4
300062a0:	02000613          	li	a2,32
300062a4:	00578693          	addi	a3,a5,5
300062a8:	00c70023          	sb	a2,0(a4)
300062ac:	02b68263          	beq	a3,a1,300062d0 <gen_numname+0x20c>
300062b0:	00d506b3          	add	a3,a0,a3
300062b4:	00678713          	addi	a4,a5,6
300062b8:	00c68023          	sb	a2,0(a3)
300062bc:	00b70a63          	beq	a4,a1,300062d0 <gen_numname+0x20c>
300062c0:	00e50733          	add	a4,a0,a4
300062c4:	00c70023          	sb	a2,0(a4)
300062c8:	00079463          	bnez	a5,300062d0 <gen_numname+0x20c>
300062cc:	00c503a3          	sb	a2,7(a0)
300062d0:	01010113          	addi	sp,sp,16
300062d4:	00008067          	ret
300062d8:	03760793          	addi	a5,a2,55
300062dc:	00f10723          	sb	a5,14(sp)
300062e0:	00f00793          	li	a5,15
300062e4:	0086d613          	srli	a2,a3,0x8
300062e8:	eae7e4e3          	bltu	a5,a4,30006190 <gen_numname+0xcc>
300062ec:	00500613          	li	a2,5
300062f0:	eddff06f          	j	300061cc <gen_numname+0x108>
300062f4:	01010593          	addi	a1,sp,16
300062f8:	00e58733          	add	a4,a1,a4
300062fc:	ff874803          	lbu	a6,-8(a4)
30006300:	00260713          	addi	a4,a2,2
30006304:	f49ff06f          	j	3000624c <gen_numname+0x188>
30006308:	03770793          	addi	a5,a4,55
3000630c:	e95ff06f          	j	300061a0 <gen_numname+0xdc>
30006310:	01010693          	addi	a3,sp,16
30006314:	00e686b3          	add	a3,a3,a4
30006318:	ff86c583          	lbu	a1,-8(a3)
3000631c:	00170713          	addi	a4,a4,1
30006320:	f49ff06f          	j	30006268 <gen_numname+0x1a4>
30006324:	03768693          	addi	a3,a3,55
30006328:	0ff6f793          	andi	a5,a3,255
3000632c:	e99ff06f          	j	300061c4 <gen_numname+0x100>
30006330:	00f14603          	lbu	a2,15(sp)
30006334:	f55ff06f          	j	30006288 <gen_numname+0x1c4>
30006338:	0005c783          	lbu	a5,0(a1)
3000633c:	00f50023          	sb	a5,0(a0)
30006340:	0015c783          	lbu	a5,1(a1)
30006344:	00f500a3          	sb	a5,1(a0)
30006348:	0025c783          	lbu	a5,2(a1)
3000634c:	00f50123          	sb	a5,2(a0)
30006350:	0035c783          	lbu	a5,3(a1)
30006354:	00f501a3          	sb	a5,3(a0)
30006358:	0045c783          	lbu	a5,4(a1)
3000635c:	00f50223          	sb	a5,4(a0)
30006360:	0055c783          	lbu	a5,5(a1)
30006364:	00f502a3          	sb	a5,5(a0)
30006368:	0065c783          	lbu	a5,6(a1)
3000636c:	00f50323          	sb	a5,6(a0)
30006370:	0075c783          	lbu	a5,7(a1)
30006374:	00f503a3          	sb	a5,7(a0)
30006378:	d8dff06f          	j	30006104 <gen_numname+0x40>
3000637c:	07e00793          	li	a5,126
30006380:	00f10723          	sb	a5,14(sp)
30006384:	00600613          	li	a2,6
30006388:	01610813          	addi	a6,sp,22
3000638c:	e51ff06f          	j	300061dc <gen_numname+0x118>
30006390:	00400613          	li	a2,4
30006394:	e39ff06f          	j	300061cc <gen_numname+0x108>
30006398:	ff884703          	lbu	a4,-8(a6)
3000639c:	00160613          	addi	a2,a2,1
300063a0:	00100793          	li	a5,1
300063a4:	00e50023          	sb	a4,0(a0)
300063a8:	e79ff06f          	j	30006220 <gen_numname+0x15c>

300063ac <f_mount>:
300063ac:	02051463          	bnez	a0,300063d4 <f_mount+0x28>
300063b0:	3000f7b7          	lui	a5,0x3000f
300063b4:	0287a703          	lw	a4,40(a5) # 3000f028 <FatFs>
300063b8:	00070463          	beqz	a4,300063c0 <f_mount+0x14>
300063bc:	00070023          	sb	zero,0(a4)
300063c0:	00058463          	beqz	a1,300063c8 <f_mount+0x1c>
300063c4:	00058023          	sb	zero,0(a1)
300063c8:	02b7a423          	sw	a1,40(a5)
300063cc:	00000513          	li	a0,0
300063d0:	00008067          	ret
300063d4:	00b00513          	li	a0,11
300063d8:	00008067          	ret

300063dc <f_open>:
300063dc:	fa010113          	addi	sp,sp,-96
300063e0:	04912a23          	sw	s1,84(sp)
300063e4:	05212823          	sw	s2,80(sp)
300063e8:	05312623          	sw	s3,76(sp)
300063ec:	05412423          	sw	s4,72(sp)
300063f0:	04112e23          	sw	ra,92(sp)
300063f4:	04812c23          	sw	s0,88(sp)
300063f8:	00060913          	mv	s2,a2
300063fc:	00b12623          	sw	a1,12(sp)
30006400:	00052023          	sw	zero,0(a0)
30006404:	00050493          	mv	s1,a0
30006408:	01e67613          	andi	a2,a2,30
3000640c:	01c10593          	addi	a1,sp,28
30006410:	00c10513          	addi	a0,sp,12
30006414:	bc5fc0ef          	jal	ra,30002fd8 <chk_mounted>
30006418:	01010793          	addi	a5,sp,16
3000641c:	02f12a23          	sw	a5,52(sp)
30006420:	3000f7b7          	lui	a5,0x3000f
30006424:	b7878793          	addi	a5,a5,-1160 # 3000eb78 <LfnBuf>
30006428:	02f12c23          	sw	a5,56(sp)
3000642c:	01f97993          	andi	s3,s2,31
30006430:	01c97a13          	andi	s4,s2,28
30006434:	02050863          	beqz	a0,30006464 <f_open+0x88>
30006438:	000a0663          	beqz	s4,30006444 <f_open+0x68>
3000643c:	00400793          	li	a5,4
30006440:	14f50063          	beq	a0,a5,30006580 <f_open+0x1a4>
30006444:	05c12083          	lw	ra,92(sp)
30006448:	05812403          	lw	s0,88(sp)
3000644c:	05412483          	lw	s1,84(sp)
30006450:	05012903          	lw	s2,80(sp)
30006454:	04c12983          	lw	s3,76(sp)
30006458:	04812a03          	lw	s4,72(sp)
3000645c:	06010113          	addi	sp,sp,96
30006460:	00008067          	ret
30006464:	00c12583          	lw	a1,12(sp)
30006468:	01c10513          	addi	a0,sp,28
3000646c:	bc1fd0ef          	jal	ra,3000402c <follow_path>
30006470:	03012403          	lw	s0,48(sp)
30006474:	fc0512e3          	bnez	a0,30006438 <f_open+0x5c>
30006478:	00600513          	li	a0,6
3000647c:	fc0404e3          	beqz	s0,30006444 <f_open+0x68>
30006480:	00b44783          	lbu	a5,11(s0)
30006484:	0c0a0463          	beqz	s4,3000654c <f_open+0x170>
30006488:	0117f793          	andi	a5,a5,17
3000648c:	00700513          	li	a0,7
30006490:	fa079ae3          	bnez	a5,30006444 <f_open+0x68>
30006494:	00497793          	andi	a5,s2,4
30006498:	00800513          	li	a0,8
3000649c:	fa0794e3          	bnez	a5,30006444 <f_open+0x68>
300064a0:	00897913          	andi	s2,s2,8
300064a4:	0e091863          	bnez	s2,30006594 <f_open+0x1b8>
300064a8:	01c12603          	lw	a2,28(sp)
300064ac:	02c62783          	lw	a5,44(a2)
300064b0:	01348323          	sb	s3,6(s1)
300064b4:	0284a023          	sw	s0,32(s1)
300064b8:	00f4ae23          	sw	a5,28(s1)
300064bc:	01544783          	lbu	a5,21(s0)
300064c0:	01444583          	lbu	a1,20(s0)
300064c4:	01b44703          	lbu	a4,27(s0)
300064c8:	01a44683          	lbu	a3,26(s0)
300064cc:	00879793          	slli	a5,a5,0x8
300064d0:	00b7e7b3          	or	a5,a5,a1
300064d4:	00871713          	slli	a4,a4,0x8
300064d8:	00d76733          	or	a4,a4,a3
300064dc:	01079793          	slli	a5,a5,0x10
300064e0:	00e7e7b3          	or	a5,a5,a4
300064e4:	00f4a823          	sw	a5,16(s1)
300064e8:	01d44683          	lbu	a3,29(s0)
300064ec:	01c44583          	lbu	a1,28(s0)
300064f0:	01e44703          	lbu	a4,30(s0)
300064f4:	01f44783          	lbu	a5,31(s0)
300064f8:	00869693          	slli	a3,a3,0x8
300064fc:	00b6e6b3          	or	a3,a3,a1
30006500:	01071713          	slli	a4,a4,0x10
30006504:	00665583          	lhu	a1,6(a2)
30006508:	05c12083          	lw	ra,92(sp)
3000650c:	05812403          	lw	s0,88(sp)
30006510:	00d76733          	or	a4,a4,a3
30006514:	01879793          	slli	a5,a5,0x18
30006518:	00e7e7b3          	or	a5,a5,a4
3000651c:	00f4a623          	sw	a5,12(s1)
30006520:	0004a423          	sw	zero,8(s1)
30006524:	0004ac23          	sw	zero,24(s1)
30006528:	00c4a023          	sw	a2,0(s1)
3000652c:	00b49223          	sh	a1,4(s1)
30006530:	05012903          	lw	s2,80(sp)
30006534:	05412483          	lw	s1,84(sp)
30006538:	04c12983          	lw	s3,76(sp)
3000653c:	04812a03          	lw	s4,72(sp)
30006540:	00000513          	li	a0,0
30006544:	06010113          	addi	sp,sp,96
30006548:	00008067          	ret
3000654c:	0107f713          	andi	a4,a5,16
30006550:	00400513          	li	a0,4
30006554:	ee0718e3          	bnez	a4,30006444 <f_open+0x68>
30006558:	00297713          	andi	a4,s2,2
3000655c:	00070863          	beqz	a4,3000656c <f_open+0x190>
30006560:	0017f793          	andi	a5,a5,1
30006564:	00700513          	li	a0,7
30006568:	ec079ee3          	bnez	a5,30006444 <f_open+0x68>
3000656c:	00897913          	andi	s2,s2,8
30006570:	01c12603          	lw	a2,28(sp)
30006574:	f2090ce3          	beqz	s2,300064ac <f_open+0xd0>
30006578:	0209e993          	ori	s3,s3,32
3000657c:	f31ff06f          	j	300064ac <f_open+0xd0>
30006580:	01c10513          	addi	a0,sp,28
30006584:	b55fe0ef          	jal	ra,300050d8 <dir_register>
30006588:	0089e993          	ori	s3,s3,8
3000658c:	03012403          	lw	s0,48(sp)
30006590:	ea051ae3          	bnez	a0,30006444 <f_open+0x68>
30006594:	f30fb0ef          	jal	ra,30001cc4 <get_fattime>
30006598:	01544783          	lbu	a5,21(s0)
3000659c:	01444883          	lbu	a7,20(s0)
300065a0:	01b44903          	lbu	s2,27(s0)
300065a4:	01a44683          	lbu	a3,26(s0)
300065a8:	01051713          	slli	a4,a0,0x10
300065ac:	00879793          	slli	a5,a5,0x8
300065b0:	01075713          	srli	a4,a4,0x10
300065b4:	01c12603          	lw	a2,28(sp)
300065b8:	0117e7b3          	or	a5,a5,a7
300065bc:	00891913          	slli	s2,s2,0x8
300065c0:	01079793          	slli	a5,a5,0x10
300065c4:	00875713          	srli	a4,a4,0x8
300065c8:	01055813          	srli	a6,a0,0x10
300065cc:	01855593          	srli	a1,a0,0x18
300065d0:	00d96933          	or	s2,s2,a3
300065d4:	00a40723          	sb	a0,14(s0)
300065d8:	00e407a3          	sb	a4,15(s0)
300065dc:	01040823          	sb	a6,16(s0)
300065e0:	00b408a3          	sb	a1,17(s0)
300065e4:	000405a3          	sb	zero,11(s0)
300065e8:	00040e23          	sb	zero,28(s0)
300065ec:	00040ea3          	sb	zero,29(s0)
300065f0:	00040f23          	sb	zero,30(s0)
300065f4:	00040fa3          	sb	zero,31(s0)
300065f8:	00040d23          	sb	zero,26(s0)
300065fc:	00040da3          	sb	zero,27(s0)
30006600:	00040a23          	sb	zero,20(s0)
30006604:	00040aa3          	sb	zero,21(s0)
30006608:	0127e933          	or	s2,a5,s2
3000660c:	00100793          	li	a5,1
30006610:	00f60223          	sb	a5,4(a2)
30006614:	f60902e3          	beqz	s2,30006578 <f_open+0x19c>
30006618:	00100793          	li	a5,1
3000661c:	00200513          	li	a0,2
30006620:	e2f902e3          	beq	s2,a5,30006444 <f_open+0x68>
30006624:	01862783          	lw	a5,24(a2)
30006628:	e0f97ee3          	bgeu	s2,a5,30006444 <f_open+0x68>
3000662c:	00090593          	mv	a1,s2
30006630:	00060513          	mv	a0,a2
30006634:	02c62a03          	lw	s4,44(a2)
30006638:	8a1fe0ef          	jal	ra,30004ed8 <remove_chain.part.8>
3000663c:	e00514e3          	bnez	a0,30006444 <f_open+0x68>
30006640:	01c12503          	lw	a0,28(sp)
30006644:	fff90913          	addi	s2,s2,-1
30006648:	000a0593          	mv	a1,s4
3000664c:	01252623          	sw	s2,12(a0)
30006650:	fa0fc0ef          	jal	ra,30002df0 <move_window>
30006654:	de0518e3          	bnez	a0,30006444 <f_open+0x68>
30006658:	01c12603          	lw	a2,28(sp)
3000665c:	0209e993          	ori	s3,s3,32
30006660:	e4dff06f          	j	300064ac <f_open+0xd0>

30006664 <f_read>:
30006664:	fb010113          	addi	sp,sp,-80
30006668:	00052783          	lw	a5,0(a0)
3000666c:	04112623          	sw	ra,76(sp)
30006670:	04812423          	sw	s0,72(sp)
30006674:	04912223          	sw	s1,68(sp)
30006678:	05212023          	sw	s2,64(sp)
3000667c:	03312e23          	sw	s3,60(sp)
30006680:	03412c23          	sw	s4,56(sp)
30006684:	03512a23          	sw	s5,52(sp)
30006688:	03612823          	sw	s6,48(sp)
3000668c:	03712623          	sw	s7,44(sp)
30006690:	03812423          	sw	s8,40(sp)
30006694:	03912223          	sw	s9,36(sp)
30006698:	03a12023          	sw	s10,32(sp)
3000669c:	01b12e23          	sw	s11,28(sp)
300066a0:	0006a023          	sw	zero,0(a3)
300066a4:	00c12623          	sw	a2,12(sp)
300066a8:	14078c63          	beqz	a5,30006800 <f_read+0x19c>
300066ac:	0007c703          	lbu	a4,0(a5)
300066b0:	00050413          	mv	s0,a0
300066b4:	00900513          	li	a0,9
300066b8:	00070a63          	beqz	a4,300066cc <f_read+0x68>
300066bc:	00068913          	mv	s2,a3
300066c0:	0067d703          	lhu	a4,6(a5)
300066c4:	00445683          	lhu	a3,4(s0)
300066c8:	04e68063          	beq	a3,a4,30006708 <f_read+0xa4>
300066cc:	04c12083          	lw	ra,76(sp)
300066d0:	04812403          	lw	s0,72(sp)
300066d4:	04412483          	lw	s1,68(sp)
300066d8:	04012903          	lw	s2,64(sp)
300066dc:	03c12983          	lw	s3,60(sp)
300066e0:	03812a03          	lw	s4,56(sp)
300066e4:	03412a83          	lw	s5,52(sp)
300066e8:	03012b03          	lw	s6,48(sp)
300066ec:	02c12b83          	lw	s7,44(sp)
300066f0:	02812c03          	lw	s8,40(sp)
300066f4:	02412c83          	lw	s9,36(sp)
300066f8:	02012d03          	lw	s10,32(sp)
300066fc:	01c12d83          	lw	s11,28(sp)
30006700:	05010113          	addi	sp,sp,80
30006704:	00008067          	ret
30006708:	0017c503          	lbu	a0,1(a5)
3000670c:	00058c93          	mv	s9,a1
30006710:	dbcfb0ef          	jal	ra,30001ccc <disk_status>
30006714:	00157793          	andi	a5,a0,1
30006718:	00300513          	li	a0,3
3000671c:	fa0798e3          	bnez	a5,300066cc <f_read+0x68>
30006720:	00644783          	lbu	a5,6(s0)
30006724:	01879713          	slli	a4,a5,0x18
30006728:	41875713          	srai	a4,a4,0x18
3000672c:	2a074a63          	bltz	a4,300069e0 <f_read+0x37c>
30006730:	0017f793          	andi	a5,a5,1
30006734:	00700513          	li	a0,7
30006738:	f8078ae3          	beqz	a5,300066cc <f_read+0x68>
3000673c:	00842783          	lw	a5,8(s0)
30006740:	00c42d03          	lw	s10,12(s0)
30006744:	00c12603          	lw	a2,12(sp)
30006748:	40fd0d33          	sub	s10,s10,a5
3000674c:	01a67463          	bgeu	a2,s10,30006754 <f_read+0xf0>
30006750:	00060d13          	mv	s10,a2
30006754:	1c0d0c63          	beqz	s10,3000692c <f_read+0x2c8>
30006758:	20000b13          	li	s6,512
3000675c:	00100a13          	li	s4,1
30006760:	1ff00a93          	li	s5,511
30006764:	fff00b93          	li	s7,-1
30006768:	1ff7f493          	andi	s1,a5,511
3000676c:	00042503          	lw	a0,0(s0)
30006770:	0c049863          	bnez	s1,30006840 <f_read+0x1dc>
30006774:	00254703          	lbu	a4,2(a0)
30006778:	0097d993          	srli	s3,a5,0x9
3000677c:	fff70713          	addi	a4,a4,-1
30006780:	013779b3          	and	s3,a4,s3
30006784:	0ff9f993          	andi	s3,s3,255
30006788:	08098063          	beqz	s3,30006808 <f_read+0x1a4>
3000678c:	01442783          	lw	a5,20(s0)
30006790:	01852703          	lw	a4,24(a0)
30006794:	ffe78793          	addi	a5,a5,-2
30006798:	ffe70713          	addi	a4,a4,-2
3000679c:	08e7f863          	bgeu	a5,a4,3000682c <f_read+0x1c8>
300067a0:	00254703          	lbu	a4,2(a0)
300067a4:	02852803          	lw	a6,40(a0)
300067a8:	02e78c33          	mul	s8,a5,a4
300067ac:	010c0db3          	add	s11,s8,a6
300067b0:	060d8e63          	beqz	s11,3000682c <f_read+0x1c8>
300067b4:	01b98db3          	add	s11,s3,s11
300067b8:	23aaf863          	bgeu	s5,s10,300069e8 <f_read+0x384>
300067bc:	009d5493          	srli	s1,s10,0x9
300067c0:	009987b3          	add	a5,s3,s1
300067c4:	00f77463          	bgeu	a4,a5,300067cc <f_read+0x168>
300067c8:	413704b3          	sub	s1,a4,s3
300067cc:	00154503          	lbu	a0,1(a0)
300067d0:	0ff4f693          	andi	a3,s1,255
300067d4:	000d8613          	mv	a2,s11
300067d8:	000c8593          	mv	a1,s9
300067dc:	01012623          	sw	a6,12(sp)
300067e0:	fd8fb0ef          	jal	ra,30001fb8 <disk_read>
300067e4:	00c12803          	lw	a6,12(sp)
300067e8:	14050663          	beqz	a0,30006934 <f_read+0x2d0>
300067ec:	00644783          	lbu	a5,6(s0)
300067f0:	00100513          	li	a0,1
300067f4:	f807e793          	ori	a5,a5,-128
300067f8:	00f40323          	sb	a5,6(s0)
300067fc:	ed1ff06f          	j	300066cc <f_read+0x68>
30006800:	00900513          	li	a0,9
30006804:	ec9ff06f          	j	300066cc <f_read+0x68>
30006808:	00079e63          	bnez	a5,30006824 <f_read+0x1c0>
3000680c:	01042783          	lw	a5,16(s0)
30006810:	00fa7e63          	bgeu	s4,a5,3000682c <f_read+0x1c8>
30006814:	fd778ce3          	beq	a5,s7,300067ec <f_read+0x188>
30006818:	00042503          	lw	a0,0(s0)
3000681c:	00f42a23          	sw	a5,20(s0)
30006820:	f71ff06f          	j	30006790 <f_read+0x12c>
30006824:	01442583          	lw	a1,20(s0)
30006828:	12ba6663          	bltu	s4,a1,30006954 <f_read+0x2f0>
3000682c:	00644783          	lbu	a5,6(s0)
30006830:	00200513          	li	a0,2
30006834:	f807e793          	ori	a5,a5,-128
30006838:	00f40323          	sb	a5,6(s0)
3000683c:	e91ff06f          	j	300066cc <f_read+0x68>
30006840:	01842d83          	lw	s11,24(s0)
30006844:	409b04b3          	sub	s1,s6,s1
30006848:	009d7463          	bgeu	s10,s1,30006850 <f_read+0x1ec>
3000684c:	000d0493          	mv	s1,s10
30006850:	000d8593          	mv	a1,s11
30006854:	d9cfc0ef          	jal	ra,30002df0 <move_window>
30006858:	f8051ae3          	bnez	a0,300067ec <f_read+0x188>
3000685c:	00842703          	lw	a4,8(s0)
30006860:	00042783          	lw	a5,0(s0)
30006864:	004c8613          	addi	a2,s9,4
30006868:	1ff77713          	andi	a4,a4,511
3000686c:	03070693          	addi	a3,a4,48
30006870:	03470713          	addi	a4,a4,52
30006874:	00d786b3          	add	a3,a5,a3
30006878:	00e787b3          	add	a5,a5,a4
3000687c:	00fcb7b3          	sltu	a5,s9,a5
30006880:	00c6b633          	sltu	a2,a3,a2
30006884:	0196e733          	or	a4,a3,s9
30006888:	0017c793          	xori	a5,a5,1
3000688c:	00164613          	xori	a2,a2,1
30006890:	00377713          	andi	a4,a4,3
30006894:	00c7e7b3          	or	a5,a5,a2
30006898:	00173713          	seqz	a4,a4
3000689c:	00f777b3          	and	a5,a4,a5
300068a0:	fff48513          	addi	a0,s1,-1
300068a4:	14078a63          	beqz	a5,300069f8 <f_read+0x394>
300068a8:	00953793          	sltiu	a5,a0,9
300068ac:	14079663          	bnez	a5,300069f8 <f_read+0x394>
300068b0:	ffc4f593          	andi	a1,s1,-4
300068b4:	00068793          	mv	a5,a3
300068b8:	000c8713          	mv	a4,s9
300068bc:	00d585b3          	add	a1,a1,a3
300068c0:	0007a603          	lw	a2,0(a5)
300068c4:	00470713          	addi	a4,a4,4
300068c8:	00478793          	addi	a5,a5,4
300068cc:	fec72e23          	sw	a2,-4(a4)
300068d0:	feb798e3          	bne	a5,a1,300068c0 <f_read+0x25c>
300068d4:	ffc4f793          	andi	a5,s1,-4
300068d8:	00f686b3          	add	a3,a3,a5
300068dc:	00fc8733          	add	a4,s9,a5
300068e0:	40f50533          	sub	a0,a0,a5
300068e4:	02f48263          	beq	s1,a5,30006908 <f_read+0x2a4>
300068e8:	0006c783          	lbu	a5,0(a3)
300068ec:	00f70023          	sb	a5,0(a4)
300068f0:	00050c63          	beqz	a0,30006908 <f_read+0x2a4>
300068f4:	0016c783          	lbu	a5,1(a3)
300068f8:	00f700a3          	sb	a5,1(a4)
300068fc:	01450663          	beq	a0,s4,30006908 <f_read+0x2a4>
30006900:	0026c783          	lbu	a5,2(a3)
30006904:	00f70123          	sb	a5,2(a4)
30006908:	00842783          	lw	a5,8(s0)
3000690c:	00092703          	lw	a4,0(s2)
30006910:	409d0d33          	sub	s10,s10,s1
30006914:	00f487b3          	add	a5,s1,a5
30006918:	00f42423          	sw	a5,8(s0)
3000691c:	00970733          	add	a4,a4,s1
30006920:	00e92023          	sw	a4,0(s2)
30006924:	009c8cb3          	add	s9,s9,s1
30006928:	e40d10e3          	bnez	s10,30006768 <f_read+0x104>
3000692c:	00000513          	li	a0,0
30006930:	d9dff06f          	j	300066cc <f_read+0x68>
30006934:	00042683          	lw	a3,0(s0)
30006938:	0046c783          	lbu	a5,4(a3)
3000693c:	00078863          	beqz	a5,3000694c <f_read+0x2e8>
30006940:	02c6a783          	lw	a5,44(a3)
30006944:	41b78db3          	sub	s11,a5,s11
30006948:	029de063          	bltu	s11,s1,30006968 <f_read+0x304>
3000694c:	00949493          	slli	s1,s1,0x9
30006950:	fb9ff06f          	j	30006908 <f_read+0x2a4>
30006954:	01852783          	lw	a5,24(a0)
30006958:	ecf5fae3          	bgeu	a1,a5,3000682c <f_read+0x1c8>
3000695c:	a49fc0ef          	jal	ra,300033a4 <get_fat.part.5>
30006960:	00050793          	mv	a5,a0
30006964:	eadff06f          	j	30006810 <f_read+0x1ac>
30006968:	413787b3          	sub	a5,a5,s3
3000696c:	410787b3          	sub	a5,a5,a6
30006970:	418787b3          	sub	a5,a5,s8
30006974:	00979793          	slli	a5,a5,0x9
30006978:	00478593          	addi	a1,a5,4
3000697c:	00fc8733          	add	a4,s9,a5
30006980:	03068613          	addi	a2,a3,48
30006984:	03468793          	addi	a5,a3,52
30006988:	00bc85b3          	add	a1,s9,a1
3000698c:	00b636b3          	sltu	a3,a2,a1
30006990:	00f737b3          	sltu	a5,a4,a5
30006994:	0017c793          	xori	a5,a5,1
30006998:	0016c693          	xori	a3,a3,1
3000699c:	009d9d93          	slli	s11,s11,0x9
300069a0:	00f6e6b3          	or	a3,a3,a5
300069a4:	01bc87b3          	add	a5,s9,s11
300069a8:	06068863          	beqz	a3,30006a18 <f_read+0x3b4>
300069ac:	00c766b3          	or	a3,a4,a2
300069b0:	0036f693          	andi	a3,a3,3
300069b4:	06069263          	bnez	a3,30006a18 <f_read+0x3b4>
300069b8:	00070793          	mv	a5,a4
300069bc:	00060713          	mv	a4,a2
300069c0:	20078613          	addi	a2,a5,512
300069c4:	00072683          	lw	a3,0(a4)
300069c8:	00478793          	addi	a5,a5,4
300069cc:	00470713          	addi	a4,a4,4
300069d0:	fed7ae23          	sw	a3,-4(a5)
300069d4:	fec798e3          	bne	a5,a2,300069c4 <f_read+0x360>
300069d8:	00949493          	slli	s1,s1,0x9
300069dc:	f2dff06f          	j	30006908 <f_read+0x2a4>
300069e0:	00200513          	li	a0,2
300069e4:	ce9ff06f          	j	300066cc <f_read+0x68>
300069e8:	00842483          	lw	s1,8(s0)
300069ec:	01b42c23          	sw	s11,24(s0)
300069f0:	1ff4f493          	andi	s1,s1,511
300069f4:	e51ff06f          	j	30006844 <f_read+0x1e0>
300069f8:	00968633          	add	a2,a3,s1
300069fc:	000c8793          	mv	a5,s9
30006a00:	00168693          	addi	a3,a3,1
30006a04:	fff6c703          	lbu	a4,-1(a3)
30006a08:	00178793          	addi	a5,a5,1
30006a0c:	fee78fa3          	sb	a4,-1(a5)
30006a10:	fec698e3          	bne	a3,a2,30006a00 <f_read+0x39c>
30006a14:	ef5ff06f          	j	30006908 <f_read+0x2a4>
30006a18:	20078693          	addi	a3,a5,512
30006a1c:	00160613          	addi	a2,a2,1
30006a20:	fff64703          	lbu	a4,-1(a2)
30006a24:	00178793          	addi	a5,a5,1
30006a28:	fee78fa3          	sb	a4,-1(a5)
30006a2c:	fef698e3          	bne	a3,a5,30006a1c <f_read+0x3b8>
30006a30:	00949493          	slli	s1,s1,0x9
30006a34:	ed5ff06f          	j	30006908 <f_read+0x2a4>

30006a38 <f_write>:
30006a38:	00052783          	lw	a5,0(a0)
30006a3c:	0006a023          	sw	zero,0(a3)
30006a40:	1c078463          	beqz	a5,30006c08 <f_write+0x1d0>
30006a44:	fb010113          	addi	sp,sp,-80
30006a48:	04812423          	sw	s0,72(sp)
30006a4c:	04112623          	sw	ra,76(sp)
30006a50:	04912223          	sw	s1,68(sp)
30006a54:	05212023          	sw	s2,64(sp)
30006a58:	03312e23          	sw	s3,60(sp)
30006a5c:	03412c23          	sw	s4,56(sp)
30006a60:	03512a23          	sw	s5,52(sp)
30006a64:	03612823          	sw	s6,48(sp)
30006a68:	03712623          	sw	s7,44(sp)
30006a6c:	03812423          	sw	s8,40(sp)
30006a70:	03912223          	sw	s9,36(sp)
30006a74:	03a12023          	sw	s10,32(sp)
30006a78:	01b12e23          	sw	s11,28(sp)
30006a7c:	0007c703          	lbu	a4,0(a5)
30006a80:	00050413          	mv	s0,a0
30006a84:	00900513          	li	a0,9
30006a88:	00070a63          	beqz	a4,30006a9c <f_write+0x64>
30006a8c:	00068993          	mv	s3,a3
30006a90:	0067d703          	lhu	a4,6(a5)
30006a94:	00445683          	lhu	a3,4(s0)
30006a98:	04e68063          	beq	a3,a4,30006ad8 <f_write+0xa0>
30006a9c:	04c12083          	lw	ra,76(sp)
30006aa0:	04812403          	lw	s0,72(sp)
30006aa4:	04412483          	lw	s1,68(sp)
30006aa8:	04012903          	lw	s2,64(sp)
30006aac:	03c12983          	lw	s3,60(sp)
30006ab0:	03812a03          	lw	s4,56(sp)
30006ab4:	03412a83          	lw	s5,52(sp)
30006ab8:	03012b03          	lw	s6,48(sp)
30006abc:	02c12b83          	lw	s7,44(sp)
30006ac0:	02812c03          	lw	s8,40(sp)
30006ac4:	02412c83          	lw	s9,36(sp)
30006ac8:	02012d03          	lw	s10,32(sp)
30006acc:	01c12d83          	lw	s11,28(sp)
30006ad0:	05010113          	addi	sp,sp,80
30006ad4:	00008067          	ret
30006ad8:	0017c503          	lbu	a0,1(a5)
30006adc:	00058913          	mv	s2,a1
30006ae0:	00060c93          	mv	s9,a2
30006ae4:	9e8fb0ef          	jal	ra,30001ccc <disk_status>
30006ae8:	00157793          	andi	a5,a0,1
30006aec:	00300513          	li	a0,3
30006af0:	fa0796e3          	bnez	a5,30006a9c <f_write+0x64>
30006af4:	00644703          	lbu	a4,6(s0)
30006af8:	01871793          	slli	a5,a4,0x18
30006afc:	4187d793          	srai	a5,a5,0x18
30006b00:	3a07c463          	bltz	a5,30006ea8 <f_write+0x470>
30006b04:	00277793          	andi	a5,a4,2
30006b08:	00700513          	li	a0,7
30006b0c:	f80788e3          	beqz	a5,30006a9c <f_write+0x64>
30006b10:	00c42683          	lw	a3,12(s0)
30006b14:	00842783          	lw	a5,8(s0)
30006b18:	01968633          	add	a2,a3,s9
30006b1c:	1ed66a63          	bltu	a2,a3,30006d10 <f_write+0x2d8>
30006b20:	1e0c8863          	beqz	s9,30006d10 <f_write+0x2d8>
30006b24:	20000a93          	li	s5,512
30006b28:	00100b13          	li	s6,1
30006b2c:	00100a13          	li	s4,1
30006b30:	1ff00b93          	li	s7,511
30006b34:	fff00c13          	li	s8,-1
30006b38:	1ff7f493          	andi	s1,a5,511
30006b3c:	00042d03          	lw	s10,0(s0)
30006b40:	0c049863          	bnez	s1,30006c10 <f_write+0x1d8>
30006b44:	002d4703          	lbu	a4,2(s10)
30006b48:	0097d493          	srli	s1,a5,0x9
30006b4c:	fff70713          	addi	a4,a4,-1
30006b50:	009774b3          	and	s1,a4,s1
30006b54:	0ff4f493          	andi	s1,s1,255
30006b58:	02049063          	bnez	s1,30006b78 <f_write+0x140>
30006b5c:	34079a63          	bnez	a5,30006eb0 <f_write+0x478>
30006b60:	01042503          	lw	a0,16(s0)
30006b64:	20050463          	beqz	a0,30006d6c <f_write+0x334>
30006b68:	1d450063          	beq	a0,s4,30006d28 <f_write+0x2f0>
30006b6c:	09850463          	beq	a0,s8,30006bf4 <f_write+0x1bc>
30006b70:	00042d03          	lw	s10,0(s0)
30006b74:	00a42a23          	sw	a0,20(s0)
30006b78:	02cd2783          	lw	a5,44(s10)
30006b7c:	01842703          	lw	a4,24(s0)
30006b80:	2ae78063          	beq	a5,a4,30006e20 <f_write+0x3e8>
30006b84:	01442783          	lw	a5,20(s0)
30006b88:	018d2703          	lw	a4,24(s10)
30006b8c:	ffe78793          	addi	a5,a5,-2
30006b90:	ffe70713          	addi	a4,a4,-2
30006b94:	18e7fa63          	bgeu	a5,a4,30006d28 <f_write+0x2f0>
30006b98:	002d4703          	lbu	a4,2(s10)
30006b9c:	028d2803          	lw	a6,40(s10)
30006ba0:	02e78db3          	mul	s11,a5,a4
30006ba4:	010d87b3          	add	a5,s11,a6
30006ba8:	18078063          	beqz	a5,30006d28 <f_write+0x2f0>
30006bac:	00f487b3          	add	a5,s1,a5
30006bb0:	199bf663          	bgeu	s7,s9,30006d3c <f_write+0x304>
30006bb4:	009cd893          	srli	a7,s9,0x9
30006bb8:	011486b3          	add	a3,s1,a7
30006bbc:	00d77463          	bgeu	a4,a3,30006bc4 <f_write+0x18c>
30006bc0:	409708b3          	sub	a7,a4,s1
30006bc4:	001d4503          	lbu	a0,1(s10)
30006bc8:	0ff8f693          	andi	a3,a7,255
30006bcc:	00078613          	mv	a2,a5
30006bd0:	00090593          	mv	a1,s2
30006bd4:	01012623          	sw	a6,12(sp)
30006bd8:	01112423          	sw	a7,8(sp)
30006bdc:	00f12223          	sw	a5,4(sp)
30006be0:	d28fb0ef          	jal	ra,30002108 <disk_write>
30006be4:	00412783          	lw	a5,4(sp)
30006be8:	00812883          	lw	a7,8(sp)
30006bec:	00c12803          	lw	a6,12(sp)
30006bf0:	16050263          	beqz	a0,30006d54 <f_write+0x31c>
30006bf4:	00644783          	lbu	a5,6(s0)
30006bf8:	00100513          	li	a0,1
30006bfc:	f807e793          	ori	a5,a5,-128
30006c00:	00f40323          	sb	a5,6(s0)
30006c04:	e99ff06f          	j	30006a9c <f_write+0x64>
30006c08:	00900513          	li	a0,9
30006c0c:	00008067          	ret
30006c10:	01842783          	lw	a5,24(s0)
30006c14:	409a84b3          	sub	s1,s5,s1
30006c18:	009cf463          	bgeu	s9,s1,30006c20 <f_write+0x1e8>
30006c1c:	000c8493          	mv	s1,s9
30006c20:	00078593          	mv	a1,a5
30006c24:	000d0513          	mv	a0,s10
30006c28:	9c8fc0ef          	jal	ra,30002df0 <move_window>
30006c2c:	fc0514e3          	bnez	a0,30006bf4 <f_write+0x1bc>
30006c30:	00842683          	lw	a3,8(s0)
30006c34:	00042783          	lw	a5,0(s0)
30006c38:	00490613          	addi	a2,s2,4
30006c3c:	1ff6f693          	andi	a3,a3,511
30006c40:	03068713          	addi	a4,a3,48
30006c44:	03468693          	addi	a3,a3,52
30006c48:	00e78733          	add	a4,a5,a4
30006c4c:	00d787b3          	add	a5,a5,a3
30006c50:	00f937b3          	sltu	a5,s2,a5
30006c54:	00c73633          	sltu	a2,a4,a2
30006c58:	012766b3          	or	a3,a4,s2
30006c5c:	0017c793          	xori	a5,a5,1
30006c60:	00164613          	xori	a2,a2,1
30006c64:	0036f693          	andi	a3,a3,3
30006c68:	00c7e7b3          	or	a5,a5,a2
30006c6c:	0016b693          	seqz	a3,a3
30006c70:	00f6f7b3          	and	a5,a3,a5
30006c74:	fff48513          	addi	a0,s1,-1
30006c78:	24078463          	beqz	a5,30006ec0 <f_write+0x488>
30006c7c:	00953793          	sltiu	a5,a0,9
30006c80:	24079063          	bnez	a5,30006ec0 <f_write+0x488>
30006c84:	ffc4f593          	andi	a1,s1,-4
30006c88:	00090793          	mv	a5,s2
30006c8c:	00070693          	mv	a3,a4
30006c90:	012585b3          	add	a1,a1,s2
30006c94:	0007a603          	lw	a2,0(a5)
30006c98:	00468693          	addi	a3,a3,4
30006c9c:	00478793          	addi	a5,a5,4
30006ca0:	fec6ae23          	sw	a2,-4(a3)
30006ca4:	feb798e3          	bne	a5,a1,30006c94 <f_write+0x25c>
30006ca8:	ffc4f793          	andi	a5,s1,-4
30006cac:	00f906b3          	add	a3,s2,a5
30006cb0:	00f70733          	add	a4,a4,a5
30006cb4:	40f50533          	sub	a0,a0,a5
30006cb8:	02978263          	beq	a5,s1,30006cdc <f_write+0x2a4>
30006cbc:	0006c783          	lbu	a5,0(a3)
30006cc0:	00f70023          	sb	a5,0(a4)
30006cc4:	00050c63          	beqz	a0,30006cdc <f_write+0x2a4>
30006cc8:	0016c783          	lbu	a5,1(a3)
30006ccc:	00f700a3          	sb	a5,1(a4)
30006cd0:	01450663          	beq	a0,s4,30006cdc <f_write+0x2a4>
30006cd4:	0026c783          	lbu	a5,2(a3)
30006cd8:	00f70123          	sb	a5,2(a4)
30006cdc:	00042783          	lw	a5,0(s0)
30006ce0:	01678223          	sb	s6,4(a5)
30006ce4:	00842783          	lw	a5,8(s0)
30006ce8:	0009a703          	lw	a4,0(s3)
30006cec:	409c8cb3          	sub	s9,s9,s1
30006cf0:	00f487b3          	add	a5,s1,a5
30006cf4:	00f42423          	sw	a5,8(s0)
30006cf8:	00970733          	add	a4,a4,s1
30006cfc:	00e9a023          	sw	a4,0(s3)
30006d00:	00990933          	add	s2,s2,s1
30006d04:	e20c9ae3          	bnez	s9,30006b38 <f_write+0x100>
30006d08:	00c42683          	lw	a3,12(s0)
30006d0c:	00644703          	lbu	a4,6(s0)
30006d10:	00f6f463          	bgeu	a3,a5,30006d18 <f_write+0x2e0>
30006d14:	00f42623          	sw	a5,12(s0)
30006d18:	02076713          	ori	a4,a4,32
30006d1c:	00e40323          	sb	a4,6(s0)
30006d20:	00000513          	li	a0,0
30006d24:	d79ff06f          	j	30006a9c <f_write+0x64>
30006d28:	00644783          	lbu	a5,6(s0)
30006d2c:	00200513          	li	a0,2
30006d30:	f807e793          	ori	a5,a5,-128
30006d34:	00f40323          	sb	a5,6(s0)
30006d38:	d65ff06f          	j	30006a9c <f_write+0x64>
30006d3c:	00842483          	lw	s1,8(s0)
30006d40:	00c42703          	lw	a4,12(s0)
30006d44:	18e4fe63          	bgeu	s1,a4,30006ee0 <f_write+0x4a8>
30006d48:	00f42c23          	sw	a5,24(s0)
30006d4c:	1ff4f493          	andi	s1,s1,511
30006d50:	ec5ff06f          	j	30006c14 <f_write+0x1dc>
30006d54:	00042683          	lw	a3,0(s0)
30006d58:	02c6a703          	lw	a4,44(a3)
30006d5c:	40f70633          	sub	a2,a4,a5
30006d60:	03166863          	bltu	a2,a7,30006d90 <f_write+0x358>
30006d64:	00989493          	slli	s1,a7,0x9
30006d68:	f7dff06f          	j	30006ce4 <f_write+0x2ac>
30006d6c:	00000593          	li	a1,0
30006d70:	000d0513          	mv	a0,s10
30006d74:	ea9fd0ef          	jal	ra,30004c1c <create_chain>
30006d78:	00a42823          	sw	a0,16(s0)
30006d7c:	de0516e3          	bnez	a0,30006b68 <f_write+0x130>
30006d80:	00c42683          	lw	a3,12(s0)
30006d84:	00644703          	lbu	a4,6(s0)
30006d88:	00842783          	lw	a5,8(s0)
30006d8c:	f85ff06f          	j	30006d10 <f_write+0x2d8>
30006d90:	40970733          	sub	a4,a4,s1
30006d94:	41070733          	sub	a4,a4,a6
30006d98:	41b70733          	sub	a4,a4,s11
30006d9c:	00971713          	slli	a4,a4,0x9
30006da0:	00470593          	addi	a1,a4,4
30006da4:	03068793          	addi	a5,a3,48
30006da8:	03468513          	addi	a0,a3,52
30006dac:	00e90733          	add	a4,s2,a4
30006db0:	00b905b3          	add	a1,s2,a1
30006db4:	00b7b5b3          	sltu	a1,a5,a1
30006db8:	00a73533          	sltu	a0,a4,a0
30006dbc:	0015c593          	xori	a1,a1,1
30006dc0:	00154513          	xori	a0,a0,1
30006dc4:	00961613          	slli	a2,a2,0x9
30006dc8:	00a5e5b3          	or	a1,a1,a0
30006dcc:	00c90633          	add	a2,s2,a2
30006dd0:	23068693          	addi	a3,a3,560
30006dd4:	02058a63          	beqz	a1,30006e08 <f_write+0x3d0>
30006dd8:	00e7e5b3          	or	a1,a5,a4
30006ddc:	0035f593          	andi	a1,a1,3
30006de0:	02059463          	bnez	a1,30006e08 <f_write+0x3d0>
30006de4:	00072603          	lw	a2,0(a4)
30006de8:	00478793          	addi	a5,a5,4
30006dec:	00470713          	addi	a4,a4,4
30006df0:	fec7ae23          	sw	a2,-4(a5)
30006df4:	fed798e3          	bne	a5,a3,30006de4 <f_write+0x3ac>
30006df8:	00042783          	lw	a5,0(s0)
30006dfc:	00989493          	slli	s1,a7,0x9
30006e00:	00078223          	sb	zero,4(a5)
30006e04:	ee1ff06f          	j	30006ce4 <f_write+0x2ac>
30006e08:	00160613          	addi	a2,a2,1
30006e0c:	fff64703          	lbu	a4,-1(a2)
30006e10:	00178793          	addi	a5,a5,1
30006e14:	fee78fa3          	sb	a4,-1(a5)
30006e18:	fef698e3          	bne	a3,a5,30006e08 <f_write+0x3d0>
30006e1c:	fddff06f          	j	30006df8 <f_write+0x3c0>
30006e20:	d60782e3          	beqz	a5,30006b84 <f_write+0x14c>
30006e24:	004d4703          	lbu	a4,4(s10)
30006e28:	d4070ee3          	beqz	a4,30006b84 <f_write+0x14c>
30006e2c:	001d4503          	lbu	a0,1(s10)
30006e30:	030d0593          	addi	a1,s10,48
30006e34:	00078613          	mv	a2,a5
30006e38:	00100693          	li	a3,1
30006e3c:	00f12223          	sw	a5,4(sp)
30006e40:	00b12423          	sw	a1,8(sp)
30006e44:	ac4fb0ef          	jal	ra,30002108 <disk_write>
30006e48:	00412783          	lw	a5,4(sp)
30006e4c:	da0514e3          	bnez	a0,30006bf4 <f_write+0x1bc>
30006e50:	01cd2683          	lw	a3,28(s10)
30006e54:	020d2703          	lw	a4,32(s10)
30006e58:	000d0223          	sb	zero,4(s10)
30006e5c:	00e68733          	add	a4,a3,a4
30006e60:	04e7f063          	bgeu	a5,a4,30006ea0 <f_write+0x468>
30006e64:	003d4d83          	lbu	s11,3(s10)
30006e68:	01ba6663          	bltu	s4,s11,30006e74 <f_write+0x43c>
30006e6c:	0340006f          	j	30006ea0 <f_write+0x468>
30006e70:	01cd2683          	lw	a3,28(s10)
30006e74:	001d4503          	lbu	a0,1(s10)
30006e78:	00812583          	lw	a1,8(sp)
30006e7c:	00d787b3          	add	a5,a5,a3
30006e80:	00078613          	mv	a2,a5
30006e84:	00100693          	li	a3,1
30006e88:	00f12223          	sw	a5,4(sp)
30006e8c:	a7cfb0ef          	jal	ra,30002108 <disk_write>
30006e90:	fffd8713          	addi	a4,s11,-1
30006e94:	0ff77d93          	andi	s11,a4,255
30006e98:	00412783          	lw	a5,4(sp)
30006e9c:	fd4d9ae3          	bne	s11,s4,30006e70 <f_write+0x438>
30006ea0:	00042d03          	lw	s10,0(s0)
30006ea4:	ce1ff06f          	j	30006b84 <f_write+0x14c>
30006ea8:	00200513          	li	a0,2
30006eac:	bf1ff06f          	j	30006a9c <f_write+0x64>
30006eb0:	01442583          	lw	a1,20(s0)
30006eb4:	000d0513          	mv	a0,s10
30006eb8:	d65fd0ef          	jal	ra,30004c1c <create_chain>
30006ebc:	ec1ff06f          	j	30006d7c <f_write+0x344>
30006ec0:	00970633          	add	a2,a4,s1
30006ec4:	00090793          	mv	a5,s2
30006ec8:	00178793          	addi	a5,a5,1
30006ecc:	fff7c683          	lbu	a3,-1(a5)
30006ed0:	00170713          	addi	a4,a4,1
30006ed4:	fed70fa3          	sb	a3,-1(a4)
30006ed8:	fec718e3          	bne	a4,a2,30006ec8 <f_write+0x490>
30006edc:	e01ff06f          	j	30006cdc <f_write+0x2a4>
30006ee0:	02cd2d83          	lw	s11,44(s10)
30006ee4:	000d8663          	beqz	s11,30006ef0 <f_write+0x4b8>
30006ee8:	004d4703          	lbu	a4,4(s10)
30006eec:	00071663          	bnez	a4,30006ef8 <f_write+0x4c0>
30006ef0:	02fd2623          	sw	a5,44(s10)
30006ef4:	e55ff06f          	j	30006d48 <f_write+0x310>
30006ef8:	001d4503          	lbu	a0,1(s10)
30006efc:	00f12223          	sw	a5,4(sp)
30006f00:	030d0793          	addi	a5,s10,48
30006f04:	00078593          	mv	a1,a5
30006f08:	00100693          	li	a3,1
30006f0c:	000d8613          	mv	a2,s11
30006f10:	00f12423          	sw	a5,8(sp)
30006f14:	9f4fb0ef          	jal	ra,30002108 <disk_write>
30006f18:	00412783          	lw	a5,4(sp)
30006f1c:	cc051ce3          	bnez	a0,30006bf4 <f_write+0x1bc>
30006f20:	01cd2683          	lw	a3,28(s10)
30006f24:	020d2703          	lw	a4,32(s10)
30006f28:	000d0223          	sb	zero,4(s10)
30006f2c:	00e68733          	add	a4,a3,a4
30006f30:	04edf063          	bgeu	s11,a4,30006f70 <f_write+0x538>
30006f34:	003d4483          	lbu	s1,3(s10)
30006f38:	009a6663          	bltu	s4,s1,30006f44 <f_write+0x50c>
30006f3c:	0340006f          	j	30006f70 <f_write+0x538>
30006f40:	01cd2683          	lw	a3,28(s10)
30006f44:	001d4503          	lbu	a0,1(s10)
30006f48:	00812583          	lw	a1,8(sp)
30006f4c:	00dd8db3          	add	s11,s11,a3
30006f50:	000d8613          	mv	a2,s11
30006f54:	00100693          	li	a3,1
30006f58:	00f12223          	sw	a5,4(sp)
30006f5c:	9acfb0ef          	jal	ra,30002108 <disk_write>
30006f60:	fff48713          	addi	a4,s1,-1
30006f64:	0ff77493          	andi	s1,a4,255
30006f68:	00412783          	lw	a5,4(sp)
30006f6c:	fd449ae3          	bne	s1,s4,30006f40 <f_write+0x508>
30006f70:	00042d03          	lw	s10,0(s0)
30006f74:	00842483          	lw	s1,8(s0)
30006f78:	02fd2623          	sw	a5,44(s10)
30006f7c:	dcdff06f          	j	30006d48 <f_write+0x310>

30006f80 <f_sync>:
30006f80:	00052783          	lw	a5,0(a0)
30006f84:	12078063          	beqz	a5,300070a4 <f_sync+0x124>
30006f88:	0007c683          	lbu	a3,0(a5)
30006f8c:	10068c63          	beqz	a3,300070a4 <f_sync+0x124>
30006f90:	00455603          	lhu	a2,4(a0)
30006f94:	0067d683          	lhu	a3,6(a5)
30006f98:	ff010113          	addi	sp,sp,-16
30006f9c:	00812423          	sw	s0,8(sp)
30006fa0:	00112623          	sw	ra,12(sp)
30006fa4:	00912223          	sw	s1,4(sp)
30006fa8:	00050413          	mv	s0,a0
30006fac:	00900513          	li	a0,9
30006fb0:	00d60c63          	beq	a2,a3,30006fc8 <f_sync+0x48>
30006fb4:	00c12083          	lw	ra,12(sp)
30006fb8:	00812403          	lw	s0,8(sp)
30006fbc:	00412483          	lw	s1,4(sp)
30006fc0:	01010113          	addi	sp,sp,16
30006fc4:	00008067          	ret
30006fc8:	0017c503          	lbu	a0,1(a5)
30006fcc:	d01fa0ef          	jal	ra,30001ccc <disk_status>
30006fd0:	00157513          	andi	a0,a0,1
30006fd4:	0c051c63          	bnez	a0,300070ac <f_sync+0x12c>
30006fd8:	00644783          	lbu	a5,6(s0)
30006fdc:	0207f793          	andi	a5,a5,32
30006fe0:	fc078ae3          	beqz	a5,30006fb4 <f_sync+0x34>
30006fe4:	01c42583          	lw	a1,28(s0)
30006fe8:	00042503          	lw	a0,0(s0)
30006fec:	e05fb0ef          	jal	ra,30002df0 <move_window>
30006ff0:	fc0512e3          	bnez	a0,30006fb4 <f_sync+0x34>
30006ff4:	02042483          	lw	s1,32(s0)
30006ff8:	00b4c783          	lbu	a5,11(s1)
30006ffc:	0207e793          	ori	a5,a5,32
30007000:	00f485a3          	sb	a5,11(s1)
30007004:	00c42783          	lw	a5,12(s0)
30007008:	00f48e23          	sb	a5,28(s1)
3000700c:	00c45783          	lhu	a5,12(s0)
30007010:	0087d793          	srli	a5,a5,0x8
30007014:	00f48ea3          	sb	a5,29(s1)
30007018:	00e45783          	lhu	a5,14(s0)
3000701c:	00f48f23          	sb	a5,30(s1)
30007020:	00f44783          	lbu	a5,15(s0)
30007024:	00f48fa3          	sb	a5,31(s1)
30007028:	01042783          	lw	a5,16(s0)
3000702c:	00f48d23          	sb	a5,26(s1)
30007030:	01045783          	lhu	a5,16(s0)
30007034:	0087d793          	srli	a5,a5,0x8
30007038:	00f48da3          	sb	a5,27(s1)
3000703c:	01245783          	lhu	a5,18(s0)
30007040:	00f48a23          	sb	a5,20(s1)
30007044:	01245783          	lhu	a5,18(s0)
30007048:	0087d793          	srli	a5,a5,0x8
3000704c:	00f48aa3          	sb	a5,21(s1)
30007050:	c75fa0ef          	jal	ra,30001cc4 <get_fattime>
30007054:	01051793          	slli	a5,a0,0x10
30007058:	0107d793          	srli	a5,a5,0x10
3000705c:	0087d793          	srli	a5,a5,0x8
30007060:	01055693          	srli	a3,a0,0x10
30007064:	01855713          	srli	a4,a0,0x18
30007068:	00a48b23          	sb	a0,22(s1)
3000706c:	00f48ba3          	sb	a5,23(s1)
30007070:	00d48c23          	sb	a3,24(s1)
30007074:	00e48ca3          	sb	a4,25(s1)
30007078:	00644783          	lbu	a5,6(s0)
3000707c:	00042503          	lw	a0,0(s0)
30007080:	fdf7f793          	andi	a5,a5,-33
30007084:	00f40323          	sb	a5,6(s0)
30007088:	00100793          	li	a5,1
3000708c:	00f50223          	sb	a5,4(a0)
30007090:	00812403          	lw	s0,8(sp)
30007094:	00c12083          	lw	ra,12(sp)
30007098:	00412483          	lw	s1,4(sp)
3000709c:	01010113          	addi	sp,sp,16
300070a0:	93dfc06f          	j	300039dc <sync>
300070a4:	00900513          	li	a0,9
300070a8:	00008067          	ret
300070ac:	00300513          	li	a0,3
300070b0:	f05ff06f          	j	30006fb4 <f_sync+0x34>

300070b4 <f_close>:
300070b4:	00052783          	lw	a5,0(a0)
300070b8:	14078063          	beqz	a5,300071f8 <f_close+0x144>
300070bc:	ff010113          	addi	sp,sp,-16
300070c0:	00812423          	sw	s0,8(sp)
300070c4:	00112623          	sw	ra,12(sp)
300070c8:	00912223          	sw	s1,4(sp)
300070cc:	0007c703          	lbu	a4,0(a5)
300070d0:	00050413          	mv	s0,a0
300070d4:	00900513          	li	a0,9
300070d8:	00070863          	beqz	a4,300070e8 <f_close+0x34>
300070dc:	00445683          	lhu	a3,4(s0)
300070e0:	0067d703          	lhu	a4,6(a5)
300070e4:	00e68c63          	beq	a3,a4,300070fc <f_close+0x48>
300070e8:	00c12083          	lw	ra,12(sp)
300070ec:	00812403          	lw	s0,8(sp)
300070f0:	00412483          	lw	s1,4(sp)
300070f4:	01010113          	addi	sp,sp,16
300070f8:	00008067          	ret
300070fc:	0017c503          	lbu	a0,1(a5)
30007100:	bcdfa0ef          	jal	ra,30001ccc <disk_status>
30007104:	00157793          	andi	a5,a0,1
30007108:	00300513          	li	a0,3
3000710c:	fc079ee3          	bnez	a5,300070e8 <f_close+0x34>
30007110:	00644783          	lbu	a5,6(s0)
30007114:	0207f793          	andi	a5,a5,32
30007118:	02079063          	bnez	a5,30007138 <f_close+0x84>
3000711c:	00042023          	sw	zero,0(s0)
30007120:	00000513          	li	a0,0
30007124:	00c12083          	lw	ra,12(sp)
30007128:	00812403          	lw	s0,8(sp)
3000712c:	00412483          	lw	s1,4(sp)
30007130:	01010113          	addi	sp,sp,16
30007134:	00008067          	ret
30007138:	01c42583          	lw	a1,28(s0)
3000713c:	00042503          	lw	a0,0(s0)
30007140:	cb1fb0ef          	jal	ra,30002df0 <move_window>
30007144:	fa0512e3          	bnez	a0,300070e8 <f_close+0x34>
30007148:	02042483          	lw	s1,32(s0)
3000714c:	00b4c783          	lbu	a5,11(s1)
30007150:	0207e793          	ori	a5,a5,32
30007154:	00f485a3          	sb	a5,11(s1)
30007158:	00c42783          	lw	a5,12(s0)
3000715c:	00f48e23          	sb	a5,28(s1)
30007160:	00c45783          	lhu	a5,12(s0)
30007164:	0087d793          	srli	a5,a5,0x8
30007168:	00f48ea3          	sb	a5,29(s1)
3000716c:	00e45783          	lhu	a5,14(s0)
30007170:	00f48f23          	sb	a5,30(s1)
30007174:	00f44783          	lbu	a5,15(s0)
30007178:	00f48fa3          	sb	a5,31(s1)
3000717c:	01042783          	lw	a5,16(s0)
30007180:	00f48d23          	sb	a5,26(s1)
30007184:	01045783          	lhu	a5,16(s0)
30007188:	0087d793          	srli	a5,a5,0x8
3000718c:	00f48da3          	sb	a5,27(s1)
30007190:	01245783          	lhu	a5,18(s0)
30007194:	00f48a23          	sb	a5,20(s1)
30007198:	01245783          	lhu	a5,18(s0)
3000719c:	0087d793          	srli	a5,a5,0x8
300071a0:	00f48aa3          	sb	a5,21(s1)
300071a4:	b21fa0ef          	jal	ra,30001cc4 <get_fattime>
300071a8:	01051793          	slli	a5,a0,0x10
300071ac:	0107d793          	srli	a5,a5,0x10
300071b0:	0087d793          	srli	a5,a5,0x8
300071b4:	01055693          	srli	a3,a0,0x10
300071b8:	01855713          	srli	a4,a0,0x18
300071bc:	00a48b23          	sb	a0,22(s1)
300071c0:	00f48ba3          	sb	a5,23(s1)
300071c4:	00d48c23          	sb	a3,24(s1)
300071c8:	00e48ca3          	sb	a4,25(s1)
300071cc:	00644783          	lbu	a5,6(s0)
300071d0:	00042503          	lw	a0,0(s0)
300071d4:	fdf7f793          	andi	a5,a5,-33
300071d8:	00f40323          	sb	a5,6(s0)
300071dc:	00100793          	li	a5,1
300071e0:	00f50223          	sb	a5,4(a0)
300071e4:	ff8fc0ef          	jal	ra,300039dc <sync>
300071e8:	f00510e3          	bnez	a0,300070e8 <f_close+0x34>
300071ec:	00042023          	sw	zero,0(s0)
300071f0:	00000513          	li	a0,0
300071f4:	f31ff06f          	j	30007124 <f_close+0x70>
300071f8:	00900513          	li	a0,9
300071fc:	00008067          	ret

30007200 <f_lseek>:
30007200:	00052783          	lw	a5,0(a0)
30007204:	1a078a63          	beqz	a5,300073b8 <f_lseek+0x1b8>
30007208:	fe010113          	addi	sp,sp,-32
3000720c:	00812c23          	sw	s0,24(sp)
30007210:	00112e23          	sw	ra,28(sp)
30007214:	00912a23          	sw	s1,20(sp)
30007218:	01212823          	sw	s2,16(sp)
3000721c:	01312623          	sw	s3,12(sp)
30007220:	01412423          	sw	s4,8(sp)
30007224:	0007c703          	lbu	a4,0(a5)
30007228:	00050413          	mv	s0,a0
3000722c:	00900513          	li	a0,9
30007230:	00070863          	beqz	a4,30007240 <f_lseek+0x40>
30007234:	00445683          	lhu	a3,4(s0)
30007238:	0067d703          	lhu	a4,6(a5)
3000723c:	02e68263          	beq	a3,a4,30007260 <f_lseek+0x60>
30007240:	01c12083          	lw	ra,28(sp)
30007244:	01812403          	lw	s0,24(sp)
30007248:	01412483          	lw	s1,20(sp)
3000724c:	01012903          	lw	s2,16(sp)
30007250:	00c12983          	lw	s3,12(sp)
30007254:	00812a03          	lw	s4,8(sp)
30007258:	02010113          	addi	sp,sp,32
3000725c:	00008067          	ret
30007260:	0017c503          	lbu	a0,1(a5)
30007264:	00058493          	mv	s1,a1
30007268:	a65fa0ef          	jal	ra,30001ccc <disk_status>
3000726c:	00157793          	andi	a5,a0,1
30007270:	00300513          	li	a0,3
30007274:	fc0796e3          	bnez	a5,30007240 <f_lseek+0x40>
30007278:	00644783          	lbu	a5,6(s0)
3000727c:	01879713          	slli	a4,a5,0x18
30007280:	41875713          	srai	a4,a4,0x18
30007284:	1a074a63          	bltz	a4,30007438 <f_lseek+0x238>
30007288:	00c42703          	lw	a4,12(s0)
3000728c:	10976463          	bltu	a4,s1,30007394 <f_lseek+0x194>
30007290:	00842783          	lw	a5,8(s0)
30007294:	00042423          	sw	zero,8(s0)
30007298:	00000513          	li	a0,0
3000729c:	fa0482e3          	beqz	s1,30007240 <f_lseek+0x40>
300072a0:	00042503          	lw	a0,0(s0)
300072a4:	00254903          	lbu	s2,2(a0)
300072a8:	00991913          	slli	s2,s2,0x9
300072ac:	0e078c63          	beqz	a5,300073a4 <f_lseek+0x1a4>
300072b0:	fff78793          	addi	a5,a5,-1
300072b4:	fff48713          	addi	a4,s1,-1
300072b8:	03275733          	divu	a4,a4,s2
300072bc:	0327d6b3          	divu	a3,a5,s2
300072c0:	0ed76263          	bltu	a4,a3,300073a4 <f_lseek+0x1a4>
300072c4:	41200733          	neg	a4,s2
300072c8:	00f777b3          	and	a5,a4,a5
300072cc:	00f42423          	sw	a5,8(s0)
300072d0:	40f484b3          	sub	s1,s1,a5
300072d4:	01442783          	lw	a5,20(s0)
300072d8:	0e078463          	beqz	a5,300073c0 <f_lseek+0x1c0>
300072dc:	18997a63          	bgeu	s2,s1,30007470 <f_lseek+0x270>
300072e0:	00042683          	lw	a3,0(s0)
300072e4:	00100993          	li	s3,1
300072e8:	fff00a13          	li	s4,-1
300072ec:	00644703          	lbu	a4,6(s0)
300072f0:	412484b3          	sub	s1,s1,s2
300072f4:	00068513          	mv	a0,a3
300072f8:	00277613          	andi	a2,a4,2
300072fc:	00078593          	mv	a1,a5
30007300:	12061063          	bnez	a2,30007420 <f_lseek+0x220>
30007304:	14f9f063          	bgeu	s3,a5,30007444 <f_lseek+0x244>
30007308:	0186a683          	lw	a3,24(a3)
3000730c:	12d7fc63          	bgeu	a5,a3,30007444 <f_lseek+0x244>
30007310:	894fc0ef          	jal	ra,300033a4 <get_fat.part.5>
30007314:	00050793          	mv	a5,a0
30007318:	13478e63          	beq	a5,s4,30007454 <f_lseek+0x254>
3000731c:	12f9f263          	bgeu	s3,a5,30007440 <f_lseek+0x240>
30007320:	00042683          	lw	a3,0(s0)
30007324:	0186a703          	lw	a4,24(a3)
30007328:	10e7fc63          	bgeu	a5,a4,30007440 <f_lseek+0x240>
3000732c:	00842703          	lw	a4,8(s0)
30007330:	00f42a23          	sw	a5,20(s0)
30007334:	00e90733          	add	a4,s2,a4
30007338:	00e42423          	sw	a4,8(s0)
3000733c:	fa9968e3          	bltu	s2,s1,300072ec <f_lseek+0xec>
30007340:	00e48733          	add	a4,s1,a4
30007344:	00e42423          	sw	a4,8(s0)
30007348:	1ff4f693          	andi	a3,s1,511
3000734c:	10068e63          	beqz	a3,30007468 <f_lseek+0x268>
30007350:	00042603          	lw	a2,0(s0)
30007354:	ffe78793          	addi	a5,a5,-2
30007358:	01862683          	lw	a3,24(a2)
3000735c:	ffe68693          	addi	a3,a3,-2
30007360:	02d7f063          	bgeu	a5,a3,30007380 <f_lseek+0x180>
30007364:	00264683          	lbu	a3,2(a2)
30007368:	02862603          	lw	a2,40(a2)
3000736c:	0094d493          	srli	s1,s1,0x9
30007370:	02f687b3          	mul	a5,a3,a5
30007374:	00c786b3          	add	a3,a5,a2
30007378:	00d487b3          	add	a5,s1,a3
3000737c:	04069463          	bnez	a3,300073c4 <f_lseek+0x1c4>
30007380:	00644783          	lbu	a5,6(s0)
30007384:	00200513          	li	a0,2
30007388:	f807e793          	ori	a5,a5,-128
3000738c:	00f40323          	sb	a5,6(s0)
30007390:	eb1ff06f          	j	30007240 <f_lseek+0x40>
30007394:	0027f793          	andi	a5,a5,2
30007398:	ee079ce3          	bnez	a5,30007290 <f_lseek+0x90>
3000739c:	00070493          	mv	s1,a4
300073a0:	ef1ff06f          	j	30007290 <f_lseek+0x90>
300073a4:	01042783          	lw	a5,16(s0)
300073a8:	04078863          	beqz	a5,300073f8 <f_lseek+0x1f8>
300073ac:	00f42a23          	sw	a5,20(s0)
300073b0:	f20796e3          	bnez	a5,300072dc <f_lseek+0xdc>
300073b4:	00c0006f          	j	300073c0 <f_lseek+0x1c0>
300073b8:	00900513          	li	a0,9
300073bc:	00008067          	ret
300073c0:	00842703          	lw	a4,8(s0)
300073c4:	1ff77693          	andi	a3,a4,511
300073c8:	00c42603          	lw	a2,12(s0)
300073cc:	00068863          	beqz	a3,300073dc <f_lseek+0x1dc>
300073d0:	01842683          	lw	a3,24(s0)
300073d4:	00f68463          	beq	a3,a5,300073dc <f_lseek+0x1dc>
300073d8:	00f42c23          	sw	a5,24(s0)
300073dc:	08e67e63          	bgeu	a2,a4,30007478 <f_lseek+0x278>
300073e0:	00644783          	lbu	a5,6(s0)
300073e4:	00e42623          	sw	a4,12(s0)
300073e8:	00000513          	li	a0,0
300073ec:	0207e793          	ori	a5,a5,32
300073f0:	00f40323          	sb	a5,6(s0)
300073f4:	e4dff06f          	j	30007240 <f_lseek+0x40>
300073f8:	00000593          	li	a1,0
300073fc:	821fd0ef          	jal	ra,30004c1c <create_chain>
30007400:	00100713          	li	a4,1
30007404:	00050793          	mv	a5,a0
30007408:	f6e50ce3          	beq	a0,a4,30007380 <f_lseek+0x180>
3000740c:	fff00713          	li	a4,-1
30007410:	04e50263          	beq	a0,a4,30007454 <f_lseek+0x254>
30007414:	00a42823          	sw	a0,16(s0)
30007418:	00f42a23          	sw	a5,20(s0)
3000741c:	f95ff06f          	j	300073b0 <f_lseek+0x1b0>
30007420:	ffcfd0ef          	jal	ra,30004c1c <create_chain>
30007424:	00050793          	mv	a5,a0
30007428:	ee0518e3          	bnez	a0,30007318 <f_lseek+0x118>
3000742c:	00842703          	lw	a4,8(s0)
30007430:	00090493          	mv	s1,s2
30007434:	f0dff06f          	j	30007340 <f_lseek+0x140>
30007438:	00200513          	li	a0,2
3000743c:	e05ff06f          	j	30007240 <f_lseek+0x40>
30007440:	00644703          	lbu	a4,6(s0)
30007444:	f8076713          	ori	a4,a4,-128
30007448:	00e40323          	sb	a4,6(s0)
3000744c:	00200513          	li	a0,2
30007450:	df1ff06f          	j	30007240 <f_lseek+0x40>
30007454:	00644783          	lbu	a5,6(s0)
30007458:	00100513          	li	a0,1
3000745c:	f807e793          	ori	a5,a5,-128
30007460:	00f40323          	sb	a5,6(s0)
30007464:	dddff06f          	j	30007240 <f_lseek+0x40>
30007468:	00000793          	li	a5,0
3000746c:	f59ff06f          	j	300073c4 <f_lseek+0x1c4>
30007470:	00842703          	lw	a4,8(s0)
30007474:	ecdff06f          	j	30007340 <f_lseek+0x140>
30007478:	00000513          	li	a0,0
3000747c:	dc5ff06f          	j	30007240 <f_lseek+0x40>

30007480 <f_opendir>:
30007480:	fd010113          	addi	sp,sp,-48
30007484:	02812423          	sw	s0,40(sp)
30007488:	00b12623          	sw	a1,12(sp)
3000748c:	00050413          	mv	s0,a0
30007490:	00050593          	mv	a1,a0
30007494:	00000613          	li	a2,0
30007498:	00c10513          	addi	a0,sp,12
3000749c:	02112623          	sw	ra,44(sp)
300074a0:	b39fb0ef          	jal	ra,30002fd8 <chk_mounted>
300074a4:	00050a63          	beqz	a0,300074b8 <f_opendir+0x38>
300074a8:	02c12083          	lw	ra,44(sp)
300074ac:	02812403          	lw	s0,40(sp)
300074b0:	03010113          	addi	sp,sp,48
300074b4:	00008067          	ret
300074b8:	01410793          	addi	a5,sp,20
300074bc:	00f42c23          	sw	a5,24(s0)
300074c0:	00c12583          	lw	a1,12(sp)
300074c4:	3000f7b7          	lui	a5,0x3000f
300074c8:	b7878793          	addi	a5,a5,-1160 # 3000eb78 <LfnBuf>
300074cc:	00f42e23          	sw	a5,28(s0)
300074d0:	00040513          	mv	a0,s0
300074d4:	b59fc0ef          	jal	ra,3000402c <follow_path>
300074d8:	04051e63          	bnez	a0,30007534 <f_opendir+0xb4>
300074dc:	01442783          	lw	a5,20(s0)
300074e0:	02078e63          	beqz	a5,3000751c <f_opendir+0x9c>
300074e4:	00b7c703          	lbu	a4,11(a5)
300074e8:	01077713          	andi	a4,a4,16
300074ec:	04070863          	beqz	a4,3000753c <f_opendir+0xbc>
300074f0:	0157c703          	lbu	a4,21(a5)
300074f4:	0147c583          	lbu	a1,20(a5)
300074f8:	01b7c683          	lbu	a3,27(a5)
300074fc:	01a7c603          	lbu	a2,26(a5)
30007500:	00871793          	slli	a5,a4,0x8
30007504:	00b7e7b3          	or	a5,a5,a1
30007508:	00869713          	slli	a4,a3,0x8
3000750c:	01079793          	slli	a5,a5,0x10
30007510:	00c76733          	or	a4,a4,a2
30007514:	00e7e7b3          	or	a5,a5,a4
30007518:	00f42423          	sw	a5,8(s0)
3000751c:	00042783          	lw	a5,0(s0)
30007520:	00000593          	li	a1,0
30007524:	00040513          	mv	a0,s0
30007528:	0067d783          	lhu	a5,6(a5)
3000752c:	00f41223          	sh	a5,4(s0)
30007530:	82cfc0ef          	jal	ra,3000355c <dir_sdi>
30007534:	00400793          	li	a5,4
30007538:	f6f518e3          	bne	a0,a5,300074a8 <f_opendir+0x28>
3000753c:	02c12083          	lw	ra,44(sp)
30007540:	02812403          	lw	s0,40(sp)
30007544:	00500513          	li	a0,5
30007548:	03010113          	addi	sp,sp,48
3000754c:	00008067          	ret

30007550 <f_readdir>:
30007550:	00052703          	lw	a4,0(a0)
30007554:	0c070063          	beqz	a4,30007614 <f_readdir+0xc4>
30007558:	fe010113          	addi	sp,sp,-32
3000755c:	00812c23          	sw	s0,24(sp)
30007560:	00112e23          	sw	ra,28(sp)
30007564:	00912a23          	sw	s1,20(sp)
30007568:	00074683          	lbu	a3,0(a4)
3000756c:	00050413          	mv	s0,a0
30007570:	00900513          	li	a0,9
30007574:	00068863          	beqz	a3,30007584 <f_readdir+0x34>
30007578:	00445603          	lhu	a2,4(s0)
3000757c:	00675683          	lhu	a3,6(a4)
30007580:	00d60c63          	beq	a2,a3,30007598 <f_readdir+0x48>
30007584:	01c12083          	lw	ra,28(sp)
30007588:	01812403          	lw	s0,24(sp)
3000758c:	01412483          	lw	s1,20(sp)
30007590:	02010113          	addi	sp,sp,32
30007594:	00008067          	ret
30007598:	00174503          	lbu	a0,1(a4)
3000759c:	00058493          	mv	s1,a1
300075a0:	f2cfa0ef          	jal	ra,30001ccc <disk_status>
300075a4:	00157793          	andi	a5,a0,1
300075a8:	00300513          	li	a0,3
300075ac:	fc079ce3          	bnez	a5,30007584 <f_readdir+0x34>
300075b0:	04048a63          	beqz	s1,30007604 <f_readdir+0xb4>
300075b4:	00410793          	addi	a5,sp,4
300075b8:	00f42c23          	sw	a5,24(s0)
300075bc:	3000f7b7          	lui	a5,0x3000f
300075c0:	b7878793          	addi	a5,a5,-1160 # 3000eb78 <LfnBuf>
300075c4:	00f42e23          	sw	a5,28(s0)
300075c8:	00040513          	mv	a0,s0
300075cc:	f5dfc0ef          	jal	ra,30004528 <dir_read>
300075d0:	00400793          	li	a5,4
300075d4:	04f50463          	beq	a0,a5,3000761c <f_readdir+0xcc>
300075d8:	fa0516e3          	bnez	a0,30007584 <f_readdir+0x34>
300075dc:	00048593          	mv	a1,s1
300075e0:	00040513          	mv	a0,s0
300075e4:	b18fb0ef          	jal	ra,300028fc <get_fileinfo>
300075e8:	00040513          	mv	a0,s0
300075ec:	ac4fc0ef          	jal	ra,300038b0 <dir_next.constprop.11>
300075f0:	00400793          	li	a5,4
300075f4:	f8f518e3          	bne	a0,a5,30007584 <f_readdir+0x34>
300075f8:	00042823          	sw	zero,16(s0)
300075fc:	00000513          	li	a0,0
30007600:	f85ff06f          	j	30007584 <f_readdir+0x34>
30007604:	00000593          	li	a1,0
30007608:	00040513          	mv	a0,s0
3000760c:	f51fb0ef          	jal	ra,3000355c <dir_sdi>
30007610:	f75ff06f          	j	30007584 <f_readdir+0x34>
30007614:	00900513          	li	a0,9
30007618:	00008067          	ret
3000761c:	00042823          	sw	zero,16(s0)
30007620:	fbdff06f          	j	300075dc <f_readdir+0x8c>

30007624 <f_stat>:
30007624:	fb010113          	addi	sp,sp,-80
30007628:	04912223          	sw	s1,68(sp)
3000762c:	00a12623          	sw	a0,12(sp)
30007630:	00058493          	mv	s1,a1
30007634:	00000613          	li	a2,0
30007638:	01c10593          	addi	a1,sp,28
3000763c:	00c10513          	addi	a0,sp,12
30007640:	04812423          	sw	s0,72(sp)
30007644:	04112623          	sw	ra,76(sp)
30007648:	991fb0ef          	jal	ra,30002fd8 <chk_mounted>
3000764c:	00050413          	mv	s0,a0
30007650:	00050e63          	beqz	a0,3000766c <f_stat+0x48>
30007654:	00040513          	mv	a0,s0
30007658:	04c12083          	lw	ra,76(sp)
3000765c:	04812403          	lw	s0,72(sp)
30007660:	04412483          	lw	s1,68(sp)
30007664:	05010113          	addi	sp,sp,80
30007668:	00008067          	ret
3000766c:	01010793          	addi	a5,sp,16
30007670:	00c12583          	lw	a1,12(sp)
30007674:	02f12a23          	sw	a5,52(sp)
30007678:	3000f7b7          	lui	a5,0x3000f
3000767c:	b7878793          	addi	a5,a5,-1160 # 3000eb78 <LfnBuf>
30007680:	01c10513          	addi	a0,sp,28
30007684:	02f12c23          	sw	a5,56(sp)
30007688:	9a5fc0ef          	jal	ra,3000402c <follow_path>
3000768c:	00050413          	mv	s0,a0
30007690:	fc0512e3          	bnez	a0,30007654 <f_stat+0x30>
30007694:	03012783          	lw	a5,48(sp)
30007698:	02078463          	beqz	a5,300076c0 <f_stat+0x9c>
3000769c:	01c10513          	addi	a0,sp,28
300076a0:	00048593          	mv	a1,s1
300076a4:	a58fb0ef          	jal	ra,300028fc <get_fileinfo>
300076a8:	00040513          	mv	a0,s0
300076ac:	04c12083          	lw	ra,76(sp)
300076b0:	04812403          	lw	s0,72(sp)
300076b4:	04412483          	lw	s1,68(sp)
300076b8:	05010113          	addi	sp,sp,80
300076bc:	00008067          	ret
300076c0:	00600413          	li	s0,6
300076c4:	f91ff06f          	j	30007654 <f_stat+0x30>

300076c8 <f_getfree>:
300076c8:	fc010113          	addi	sp,sp,-64
300076cc:	02812c23          	sw	s0,56(sp)
300076d0:	00060413          	mv	s0,a2
300076d4:	02912a23          	sw	s1,52(sp)
300076d8:	00a12623          	sw	a0,12(sp)
300076dc:	00058493          	mv	s1,a1
300076e0:	00000613          	li	a2,0
300076e4:	00040593          	mv	a1,s0
300076e8:	00c10513          	addi	a0,sp,12
300076ec:	03512223          	sw	s5,36(sp)
300076f0:	02112e23          	sw	ra,60(sp)
300076f4:	03212823          	sw	s2,48(sp)
300076f8:	03312623          	sw	s3,44(sp)
300076fc:	03412423          	sw	s4,40(sp)
30007700:	03612023          	sw	s6,32(sp)
30007704:	01712e23          	sw	s7,28(sp)
30007708:	8d1fb0ef          	jal	ra,30002fd8 <chk_mounted>
3000770c:	00050a93          	mv	s5,a0
30007710:	00051e63          	bnez	a0,3000772c <f_getfree+0x64>
30007714:	00042503          	lw	a0,0(s0)
30007718:	01852983          	lw	s3,24(a0)
3000771c:	01052783          	lw	a5,16(a0)
30007720:	ffe98713          	addi	a4,s3,-2
30007724:	02f76c63          	bltu	a4,a5,3000775c <f_getfree+0x94>
30007728:	00f4a023          	sw	a5,0(s1)
3000772c:	03c12083          	lw	ra,60(sp)
30007730:	03812403          	lw	s0,56(sp)
30007734:	000a8513          	mv	a0,s5
30007738:	03412483          	lw	s1,52(sp)
3000773c:	03012903          	lw	s2,48(sp)
30007740:	02c12983          	lw	s3,44(sp)
30007744:	02812a03          	lw	s4,40(sp)
30007748:	02412a83          	lw	s5,36(sp)
3000774c:	02012b03          	lw	s6,32(sp)
30007750:	01c12b83          	lw	s7,28(sp)
30007754:	04010113          	addi	sp,sp,64
30007758:	00008067          	ret
3000775c:	00054903          	lbu	s2,0(a0)
30007760:	00100793          	li	a5,1
30007764:	08f90a63          	beq	s2,a5,300077f8 <f_getfree+0x130>
30007768:	00200793          	li	a5,2
3000776c:	02052b83          	lw	s7,32(a0)
30007770:	00000713          	li	a4,0
30007774:	0ef90c63          	beq	s2,a5,3000786c <f_getfree+0x1a4>
30007778:	10000b37          	lui	s6,0x10000
3000777c:	00000813          	li	a6,0
30007780:	00000a13          	li	s4,0
30007784:	fffb0b13          	addi	s6,s6,-1 # fffffff <stackPointer+0xfffa57f>
30007788:	0440006f          	j	300077cc <f_getfree+0x104>
3000778c:	00174603          	lbu	a2,1(a4)
30007790:	00074583          	lbu	a1,0(a4)
30007794:	00274683          	lbu	a3,2(a4)
30007798:	00374783          	lbu	a5,3(a4)
3000779c:	00861613          	slli	a2,a2,0x8
300077a0:	00b66633          	or	a2,a2,a1
300077a4:	01069693          	slli	a3,a3,0x10
300077a8:	00c6e6b3          	or	a3,a3,a2
300077ac:	01879793          	slli	a5,a5,0x18
300077b0:	00d7e7b3          	or	a5,a5,a3
300077b4:	0167f7b3          	and	a5,a5,s6
300077b8:	0017b793          	seqz	a5,a5
300077bc:	00fa0a33          	add	s4,s4,a5
300077c0:	00470713          	addi	a4,a4,4
300077c4:	ffc80813          	addi	a6,a6,-4
300077c8:	08098463          	beqz	s3,30007850 <f_getfree+0x188>
300077cc:	fff98993          	addi	s3,s3,-1
300077d0:	fa081ee3          	bnez	a6,3000778c <f_getfree+0xc4>
300077d4:	000b8593          	mv	a1,s7
300077d8:	e18fb0ef          	jal	ra,30002df0 <move_window>
300077dc:	001b8b93          	addi	s7,s7,1
300077e0:	00050793          	mv	a5,a0
300077e4:	06051263          	bnez	a0,30007848 <f_getfree+0x180>
300077e8:	00042503          	lw	a0,0(s0)
300077ec:	20000813          	li	a6,512
300077f0:	03050713          	addi	a4,a0,48
300077f4:	f99ff06f          	j	3000778c <f_getfree+0xc4>
300077f8:	00200793          	li	a5,2
300077fc:	0d37f663          	bgeu	a5,s3,300078c8 <f_getfree+0x200>
30007800:	00300913          	li	s2,3
30007804:	00000a13          	li	s4,0
30007808:	fff00993          	li	s3,-1
3000780c:	00100b13          	li	s6,1
30007810:	0080006f          	j	30007818 <f_getfree+0x150>
30007814:	00190913          	addi	s2,s2,1
30007818:	fff90593          	addi	a1,s2,-1
3000781c:	b89fb0ef          	jal	ra,300033a4 <get_fat.part.5>
30007820:	00153793          	seqz	a5,a0
30007824:	0b350a63          	beq	a0,s3,300078d8 <f_getfree+0x210>
30007828:	0d650063          	beq	a0,s6,300078e8 <f_getfree+0x220>
3000782c:	00042503          	lw	a0,0(s0)
30007830:	00fa0a33          	add	s4,s4,a5
30007834:	01852783          	lw	a5,24(a0)
30007838:	fcf96ee3          	bltu	s2,a5,30007814 <f_getfree+0x14c>
3000783c:	01452823          	sw	s4,16(a0)
30007840:	0144a023          	sw	s4,0(s1)
30007844:	ee9ff06f          	j	3000772c <f_getfree+0x64>
30007848:	00042503          	lw	a0,0(s0)
3000784c:	00078a93          	mv	s5,a5
30007850:	01452823          	sw	s4,16(a0)
30007854:	00300793          	li	a5,3
30007858:	fef914e3          	bne	s2,a5,30007840 <f_getfree+0x178>
3000785c:	00100793          	li	a5,1
30007860:	00f502a3          	sb	a5,5(a0)
30007864:	0144a023          	sw	s4,0(s1)
30007868:	ec5ff06f          	j	3000772c <f_getfree+0x64>
3000786c:	00000693          	li	a3,0
30007870:	00000a13          	li	s4,0
30007874:	0280006f          	j	3000789c <f_getfree+0x1d4>
30007878:	00174783          	lbu	a5,1(a4)
3000787c:	00074603          	lbu	a2,0(a4)
30007880:	ffe68693          	addi	a3,a3,-2
30007884:	00879793          	slli	a5,a5,0x8
30007888:	00c7e7b3          	or	a5,a5,a2
3000788c:	0017b793          	seqz	a5,a5
30007890:	00fa0a33          	add	s4,s4,a5
30007894:	00270713          	addi	a4,a4,2
30007898:	fa0982e3          	beqz	s3,3000783c <f_getfree+0x174>
3000789c:	fff98993          	addi	s3,s3,-1
300078a0:	fc069ce3          	bnez	a3,30007878 <f_getfree+0x1b0>
300078a4:	000b8593          	mv	a1,s7
300078a8:	d48fb0ef          	jal	ra,30002df0 <move_window>
300078ac:	001b8b93          	addi	s7,s7,1
300078b0:	00050793          	mv	a5,a0
300078b4:	f8051ae3          	bnez	a0,30007848 <f_getfree+0x180>
300078b8:	00042503          	lw	a0,0(s0)
300078bc:	20000693          	li	a3,512
300078c0:	03050713          	addi	a4,a0,48
300078c4:	fb5ff06f          	j	30007878 <f_getfree+0x1b0>
300078c8:	00000a13          	li	s4,0
300078cc:	00200a93          	li	s5,2
300078d0:	01452823          	sw	s4,16(a0)
300078d4:	f6dff06f          	j	30007840 <f_getfree+0x178>
300078d8:	00042503          	lw	a0,0(s0)
300078dc:	00100a93          	li	s5,1
300078e0:	01452823          	sw	s4,16(a0)
300078e4:	f5dff06f          	j	30007840 <f_getfree+0x178>
300078e8:	00042503          	lw	a0,0(s0)
300078ec:	00200a93          	li	s5,2
300078f0:	01452823          	sw	s4,16(a0)
300078f4:	f4dff06f          	j	30007840 <f_getfree+0x178>

300078f8 <f_truncate>:
300078f8:	00052783          	lw	a5,0(a0)
300078fc:	1a078863          	beqz	a5,30007aac <f_truncate+0x1b4>
30007900:	fe010113          	addi	sp,sp,-32
30007904:	00812c23          	sw	s0,24(sp)
30007908:	00112e23          	sw	ra,28(sp)
3000790c:	00912a23          	sw	s1,20(sp)
30007910:	01212823          	sw	s2,16(sp)
30007914:	01312623          	sw	s3,12(sp)
30007918:	01412423          	sw	s4,8(sp)
3000791c:	01512223          	sw	s5,4(sp)
30007920:	0007c683          	lbu	a3,0(a5)
30007924:	00050413          	mv	s0,a0
30007928:	00900513          	li	a0,9
3000792c:	00068863          	beqz	a3,3000793c <f_truncate+0x44>
30007930:	00445603          	lhu	a2,4(s0)
30007934:	0067d683          	lhu	a3,6(a5)
30007938:	02d60463          	beq	a2,a3,30007960 <f_truncate+0x68>
3000793c:	01c12083          	lw	ra,28(sp)
30007940:	01812403          	lw	s0,24(sp)
30007944:	01412483          	lw	s1,20(sp)
30007948:	01012903          	lw	s2,16(sp)
3000794c:	00c12983          	lw	s3,12(sp)
30007950:	00812a03          	lw	s4,8(sp)
30007954:	00412a83          	lw	s5,4(sp)
30007958:	02010113          	addi	sp,sp,32
3000795c:	00008067          	ret
30007960:	0017c503          	lbu	a0,1(a5)
30007964:	b68fa0ef          	jal	ra,30001ccc <disk_status>
30007968:	00157793          	andi	a5,a0,1
3000796c:	00300513          	li	a0,3
30007970:	fc0796e3          	bnez	a5,3000793c <f_truncate+0x44>
30007974:	00644783          	lbu	a5,6(s0)
30007978:	00200513          	li	a0,2
3000797c:	01879713          	slli	a4,a5,0x18
30007980:	41875713          	srai	a4,a4,0x18
30007984:	fa074ce3          	bltz	a4,3000793c <f_truncate+0x44>
30007988:	0027f713          	andi	a4,a5,2
3000798c:	00700513          	li	a0,7
30007990:	fa0706e3          	beqz	a4,3000793c <f_truncate+0x44>
30007994:	00842703          	lw	a4,8(s0)
30007998:	00c42683          	lw	a3,12(s0)
3000799c:	08d77663          	bgeu	a4,a3,30007a28 <f_truncate+0x130>
300079a0:	0207e793          	ori	a5,a5,32
300079a4:	00e42623          	sw	a4,12(s0)
300079a8:	00f40323          	sb	a5,6(s0)
300079ac:	00042483          	lw	s1,0(s0)
300079b0:	08071063          	bnez	a4,30007a30 <f_truncate+0x138>
300079b4:	01042903          	lw	s2,16(s0)
300079b8:	00100713          	li	a4,1
300079bc:	0f277c63          	bgeu	a4,s2,30007ab4 <f_truncate+0x1bc>
300079c0:	0184a703          	lw	a4,24(s1)
300079c4:	00100a93          	li	s5,1
300079c8:	fff00a13          	li	s4,-1
300079cc:	0ee97463          	bgeu	s2,a4,30007ab4 <f_truncate+0x1bc>
300079d0:	00090593          	mv	a1,s2
300079d4:	00048513          	mv	a0,s1
300079d8:	9cdfb0ef          	jal	ra,300033a4 <get_fat.part.5>
300079dc:	00050993          	mv	s3,a0
300079e0:	00000613          	li	a2,0
300079e4:	00090593          	mv	a1,s2
300079e8:	00048513          	mv	a0,s1
300079ec:	02098c63          	beqz	s3,30007a24 <f_truncate+0x12c>
300079f0:	0f598063          	beq	s3,s5,30007ad0 <f_truncate+0x1d8>
300079f4:	11498663          	beq	s3,s4,30007b00 <f_truncate+0x208>
300079f8:	0184a783          	lw	a5,24(s1)
300079fc:	0cf97a63          	bgeu	s2,a5,30007ad0 <f_truncate+0x1d8>
30007a00:	cc1fb0ef          	jal	ra,300036c0 <put_fat.part.6>
30007a04:	10051063          	bnez	a0,30007b04 <f_truncate+0x20c>
30007a08:	0104a783          	lw	a5,16(s1)
30007a0c:	00178713          	addi	a4,a5,1
30007a10:	01478663          	beq	a5,s4,30007a1c <f_truncate+0x124>
30007a14:	00e4a823          	sw	a4,16(s1)
30007a18:	015482a3          	sb	s5,5(s1)
30007a1c:	0184a783          	lw	a5,24(s1)
30007a20:	0cf9e663          	bltu	s3,a5,30007aec <f_truncate+0x1f4>
30007a24:	00042823          	sw	zero,16(s0)
30007a28:	00000513          	li	a0,0
30007a2c:	f11ff06f          	j	3000793c <f_truncate+0x44>
30007a30:	01442583          	lw	a1,20(s0)
30007a34:	00100713          	li	a4,1
30007a38:	08b77863          	bgeu	a4,a1,30007ac8 <f_truncate+0x1d0>
30007a3c:	0184a703          	lw	a4,24(s1)
30007a40:	08e5f463          	bgeu	a1,a4,30007ac8 <f_truncate+0x1d0>
30007a44:	00048513          	mv	a0,s1
30007a48:	95dfb0ef          	jal	ra,300033a4 <get_fat.part.5>
30007a4c:	fff00793          	li	a5,-1
30007a50:	00050493          	mv	s1,a0
30007a54:	08f50663          	beq	a0,a5,30007ae0 <f_truncate+0x1e8>
30007a58:	00100913          	li	s2,1
30007a5c:	09250c63          	beq	a0,s2,30007af4 <f_truncate+0x1fc>
30007a60:	00042503          	lw	a0,0(s0)
30007a64:	01852783          	lw	a5,24(a0)
30007a68:	fcf4f0e3          	bgeu	s1,a5,30007a28 <f_truncate+0x130>
30007a6c:	01442583          	lw	a1,20(s0)
30007a70:	08b97263          	bgeu	s2,a1,30007af4 <f_truncate+0x1fc>
30007a74:	08f5f063          	bgeu	a1,a5,30007af4 <f_truncate+0x1fc>
30007a78:	10000637          	lui	a2,0x10000
30007a7c:	fff60613          	addi	a2,a2,-1 # fffffff <stackPointer+0xfffa57f>
30007a80:	c41fb0ef          	jal	ra,300036c0 <put_fat.part.6>
30007a84:	02051063          	bnez	a0,30007aa4 <f_truncate+0x1ac>
30007a88:	06997663          	bgeu	s2,s1,30007af4 <f_truncate+0x1fc>
30007a8c:	00042503          	lw	a0,0(s0)
30007a90:	01852783          	lw	a5,24(a0)
30007a94:	06f4f063          	bgeu	s1,a5,30007af4 <f_truncate+0x1fc>
30007a98:	00048593          	mv	a1,s1
30007a9c:	c3cfd0ef          	jal	ra,30004ed8 <remove_chain.part.8>
30007aa0:	f80504e3          	beqz	a0,30007a28 <f_truncate+0x130>
30007aa4:	00644783          	lbu	a5,6(s0)
30007aa8:	0140006f          	j	30007abc <f_truncate+0x1c4>
30007aac:	00900513          	li	a0,9
30007ab0:	00008067          	ret
30007ab4:	00042823          	sw	zero,16(s0)
30007ab8:	00200513          	li	a0,2
30007abc:	f807e793          	ori	a5,a5,-128
30007ac0:	00f40323          	sb	a5,6(s0)
30007ac4:	e79ff06f          	j	3000793c <f_truncate+0x44>
30007ac8:	00200513          	li	a0,2
30007acc:	ff1ff06f          	j	30007abc <f_truncate+0x1c4>
30007ad0:	00042823          	sw	zero,16(s0)
30007ad4:	00200513          	li	a0,2
30007ad8:	00644783          	lbu	a5,6(s0)
30007adc:	fe1ff06f          	j	30007abc <f_truncate+0x1c4>
30007ae0:	00644783          	lbu	a5,6(s0)
30007ae4:	00100513          	li	a0,1
30007ae8:	fd5ff06f          	j	30007abc <f_truncate+0x1c4>
30007aec:	00098913          	mv	s2,s3
30007af0:	ee1ff06f          	j	300079d0 <f_truncate+0xd8>
30007af4:	00644783          	lbu	a5,6(s0)
30007af8:	00200513          	li	a0,2
30007afc:	fc1ff06f          	j	30007abc <f_truncate+0x1c4>
30007b00:	00100513          	li	a0,1
30007b04:	00042823          	sw	zero,16(s0)
30007b08:	00644783          	lbu	a5,6(s0)
30007b0c:	fb1ff06f          	j	30007abc <f_truncate+0x1c4>

30007b10 <f_unlink>:
30007b10:	f7010113          	addi	sp,sp,-144
30007b14:	00a12623          	sw	a0,12(sp)
30007b18:	00100613          	li	a2,1
30007b1c:	02810593          	addi	a1,sp,40
30007b20:	00c10513          	addi	a0,sp,12
30007b24:	08112623          	sw	ra,140(sp)
30007b28:	08812423          	sw	s0,136(sp)
30007b2c:	08912223          	sw	s1,132(sp)
30007b30:	09212023          	sw	s2,128(sp)
30007b34:	07312e23          	sw	s3,124(sp)
30007b38:	ca0fb0ef          	jal	ra,30002fd8 <chk_mounted>
30007b3c:	00050793          	mv	a5,a0
30007b40:	02050263          	beqz	a0,30007b64 <f_unlink+0x54>
30007b44:	08c12083          	lw	ra,140(sp)
30007b48:	08812403          	lw	s0,136(sp)
30007b4c:	08412483          	lw	s1,132(sp)
30007b50:	08012903          	lw	s2,128(sp)
30007b54:	07c12983          	lw	s3,124(sp)
30007b58:	00078513          	mv	a0,a5
30007b5c:	09010113          	addi	sp,sp,144
30007b60:	00008067          	ret
30007b64:	01c10793          	addi	a5,sp,28
30007b68:	00c12583          	lw	a1,12(sp)
30007b6c:	04f12023          	sw	a5,64(sp)
30007b70:	3000f7b7          	lui	a5,0x3000f
30007b74:	b7878793          	addi	a5,a5,-1160 # 3000eb78 <LfnBuf>
30007b78:	02810513          	addi	a0,sp,40
30007b7c:	04f12223          	sw	a5,68(sp)
30007b80:	cacfc0ef          	jal	ra,3000402c <follow_path>
30007b84:	00050793          	mv	a5,a0
30007b88:	fa051ee3          	bnez	a0,30007b44 <f_unlink+0x34>
30007b8c:	03c12703          	lw	a4,60(sp)
30007b90:	00600793          	li	a5,6
30007b94:	fa0708e3          	beqz	a4,30007b44 <f_unlink+0x34>
30007b98:	00b74683          	lbu	a3,11(a4)
30007b9c:	00700793          	li	a5,7
30007ba0:	0016f613          	andi	a2,a3,1
30007ba4:	fa0610e3          	bnez	a2,30007b44 <f_unlink+0x34>
30007ba8:	01574403          	lbu	s0,21(a4)
30007bac:	01474583          	lbu	a1,20(a4)
30007bb0:	01b74783          	lbu	a5,27(a4)
30007bb4:	01a74603          	lbu	a2,26(a4)
30007bb8:	00841413          	slli	s0,s0,0x8
30007bbc:	00b46433          	or	s0,s0,a1
30007bc0:	00879793          	slli	a5,a5,0x8
30007bc4:	01041413          	slli	s0,s0,0x10
30007bc8:	00c7e7b3          	or	a5,a5,a2
30007bcc:	0106f693          	andi	a3,a3,16
30007bd0:	00f46433          	or	s0,s0,a5
30007bd4:	06068c63          	beqz	a3,30007c4c <f_unlink+0x13c>
30007bd8:	00100793          	li	a5,1
30007bdc:	0e87f463          	bgeu	a5,s0,30007cc4 <f_unlink+0x1b4>
30007be0:	02812783          	lw	a5,40(sp)
30007be4:	00200593          	li	a1,2
30007be8:	04c10513          	addi	a0,sp,76
30007bec:	04f12623          	sw	a5,76(sp)
30007bf0:	02c12783          	lw	a5,44(sp)
30007bf4:	06e12023          	sw	a4,96(sp)
30007bf8:	04812a23          	sw	s0,84(sp)
30007bfc:	04f12823          	sw	a5,80(sp)
30007c00:	03412783          	lw	a5,52(sp)
30007c04:	04f12c23          	sw	a5,88(sp)
30007c08:	03812783          	lw	a5,56(sp)
30007c0c:	04f12e23          	sw	a5,92(sp)
30007c10:	04012783          	lw	a5,64(sp)
30007c14:	06f12223          	sw	a5,100(sp)
30007c18:	04412783          	lw	a5,68(sp)
30007c1c:	06f12423          	sw	a5,104(sp)
30007c20:	04812783          	lw	a5,72(sp)
30007c24:	06f12623          	sw	a5,108(sp)
30007c28:	935fb0ef          	jal	ra,3000355c <dir_sdi>
30007c2c:	00050793          	mv	a5,a0
30007c30:	f0051ae3          	bnez	a0,30007b44 <f_unlink+0x34>
30007c34:	04c10513          	addi	a0,sp,76
30007c38:	8f1fc0ef          	jal	ra,30004528 <dir_read>
30007c3c:	00050793          	mv	a5,a0
30007c40:	0c050663          	beqz	a0,30007d0c <f_unlink+0x1fc>
30007c44:	00400713          	li	a4,4
30007c48:	eee51ee3          	bne	a0,a4,30007b44 <f_unlink+0x34>
30007c4c:	04815583          	lhu	a1,72(sp)
30007c50:	000107b7          	lui	a5,0x10
30007c54:	fff78793          	addi	a5,a5,-1 # ffff <stackPointer+0xa57f>
30007c58:	02e15483          	lhu	s1,46(sp)
30007c5c:	00f59463          	bne	a1,a5,30007c64 <f_unlink+0x154>
30007c60:	00048593          	mv	a1,s1
30007c64:	02810513          	addi	a0,sp,40
30007c68:	8f5fb0ef          	jal	ra,3000355c <dir_sdi>
30007c6c:	00050793          	mv	a5,a0
30007c70:	ec051ae3          	bnez	a0,30007b44 <f_unlink+0x34>
30007c74:	fe500993          	li	s3,-27
30007c78:	00100913          	li	s2,1
30007c7c:	0280006f          	j	30007ca4 <f_unlink+0x194>
30007c80:	03c12783          	lw	a5,60(sp)
30007c84:	01378023          	sb	s3,0(a5)
30007c88:	02812783          	lw	a5,40(sp)
30007c8c:	01278223          	sb	s2,4(a5)
30007c90:	02e15703          	lhu	a4,46(sp)
30007c94:	02977c63          	bgeu	a4,s1,30007ccc <f_unlink+0x1bc>
30007c98:	c19fb0ef          	jal	ra,300038b0 <dir_next.constprop.11>
30007c9c:	00050793          	mv	a5,a0
30007ca0:	00051e63          	bnez	a0,30007cbc <f_unlink+0x1ac>
30007ca4:	03812583          	lw	a1,56(sp)
30007ca8:	02812503          	lw	a0,40(sp)
30007cac:	944fb0ef          	jal	ra,30002df0 <move_window>
30007cb0:	00050793          	mv	a5,a0
30007cb4:	02810513          	addi	a0,sp,40
30007cb8:	fc0784e3          	beqz	a5,30007c80 <f_unlink+0x170>
30007cbc:	00400713          	li	a4,4
30007cc0:	e8e792e3          	bne	a5,a4,30007b44 <f_unlink+0x34>
30007cc4:	00200793          	li	a5,2
30007cc8:	e7dff06f          	j	30007b44 <f_unlink+0x34>
30007ccc:	00041a63          	bnez	s0,30007ce0 <f_unlink+0x1d0>
30007cd0:	00078513          	mv	a0,a5
30007cd4:	d09fb0ef          	jal	ra,300039dc <sync>
30007cd8:	00050793          	mv	a5,a0
30007cdc:	e69ff06f          	j	30007b44 <f_unlink+0x34>
30007ce0:	00100713          	li	a4,1
30007ce4:	fee400e3          	beq	s0,a4,30007cc4 <f_unlink+0x1b4>
30007ce8:	0187a703          	lw	a4,24(a5)
30007cec:	fce47ce3          	bgeu	s0,a4,30007cc4 <f_unlink+0x1b4>
30007cf0:	00078513          	mv	a0,a5
30007cf4:	00040593          	mv	a1,s0
30007cf8:	9e0fd0ef          	jal	ra,30004ed8 <remove_chain.part.8>
30007cfc:	00050793          	mv	a5,a0
30007d00:	e40512e3          	bnez	a0,30007b44 <f_unlink+0x34>
30007d04:	02812783          	lw	a5,40(sp)
30007d08:	fc9ff06f          	j	30007cd0 <f_unlink+0x1c0>
30007d0c:	00700793          	li	a5,7
30007d10:	e35ff06f          	j	30007b44 <f_unlink+0x34>

30007d14 <f_mkdir>:
30007d14:	f7010113          	addi	sp,sp,-144
30007d18:	08112623          	sw	ra,140(sp)
30007d1c:	08812423          	sw	s0,136(sp)
30007d20:	08912223          	sw	s1,132(sp)
30007d24:	09212023          	sw	s2,128(sp)
30007d28:	07312e23          	sw	s3,124(sp)
30007d2c:	07412c23          	sw	s4,120(sp)
30007d30:	07512a23          	sw	s5,116(sp)
30007d34:	07612823          	sw	s6,112(sp)
30007d38:	07712623          	sw	s7,108(sp)
30007d3c:	07812423          	sw	s8,104(sp)
30007d40:	07912223          	sw	s9,100(sp)
30007d44:	07a12023          	sw	s10,96(sp)
30007d48:	05b12e23          	sw	s11,92(sp)
30007d4c:	00a12e23          	sw	a0,28(sp)
30007d50:	f75f90ef          	jal	ra,30001cc4 <get_fattime>
30007d54:	00050493          	mv	s1,a0
30007d58:	00100613          	li	a2,1
30007d5c:	02c10593          	addi	a1,sp,44
30007d60:	01c10513          	addi	a0,sp,28
30007d64:	a74fb0ef          	jal	ra,30002fd8 <chk_mounted>
30007d68:	00050413          	mv	s0,a0
30007d6c:	04050263          	beqz	a0,30007db0 <f_mkdir+0x9c>
30007d70:	00040513          	mv	a0,s0
30007d74:	08c12083          	lw	ra,140(sp)
30007d78:	08812403          	lw	s0,136(sp)
30007d7c:	08412483          	lw	s1,132(sp)
30007d80:	08012903          	lw	s2,128(sp)
30007d84:	07c12983          	lw	s3,124(sp)
30007d88:	07812a03          	lw	s4,120(sp)
30007d8c:	07412a83          	lw	s5,116(sp)
30007d90:	07012b03          	lw	s6,112(sp)
30007d94:	06c12b83          	lw	s7,108(sp)
30007d98:	06812c03          	lw	s8,104(sp)
30007d9c:	06412c83          	lw	s9,100(sp)
30007da0:	06012d03          	lw	s10,96(sp)
30007da4:	05c12d83          	lw	s11,92(sp)
30007da8:	09010113          	addi	sp,sp,144
30007dac:	00008067          	ret
30007db0:	02010793          	addi	a5,sp,32
30007db4:	01c12583          	lw	a1,28(sp)
30007db8:	04f12223          	sw	a5,68(sp)
30007dbc:	3000f7b7          	lui	a5,0x3000f
30007dc0:	b7878793          	addi	a5,a5,-1160 # 3000eb78 <LfnBuf>
30007dc4:	02c10513          	addi	a0,sp,44
30007dc8:	04f12423          	sw	a5,72(sp)
30007dcc:	a60fc0ef          	jal	ra,3000402c <follow_path>
30007dd0:	00050413          	mv	s0,a0
30007dd4:	2a050263          	beqz	a0,30008078 <f_mkdir+0x364>
30007dd8:	00400793          	li	a5,4
30007ddc:	f8f51ae3          	bne	a0,a5,30007d70 <f_mkdir+0x5c>
30007de0:	02c12503          	lw	a0,44(sp)
30007de4:	00000593          	li	a1,0
30007de8:	00700413          	li	s0,7
30007dec:	e31fc0ef          	jal	ra,30004c1c <create_chain>
30007df0:	00050913          	mv	s2,a0
30007df4:	f6050ee3          	beqz	a0,30007d70 <f_mkdir+0x5c>
30007df8:	00100793          	li	a5,1
30007dfc:	00200413          	li	s0,2
30007e00:	f6f508e3          	beq	a0,a5,30007d70 <f_mkdir+0x5c>
30007e04:	fff00793          	li	a5,-1
30007e08:	02c12983          	lw	s3,44(sp)
30007e0c:	00100413          	li	s0,1
30007e10:	f6f500e3          	beq	a0,a5,30007d70 <f_mkdir+0x5c>
30007e14:	02c9aa03          	lw	s4,44(s3)
30007e18:	03098c13          	addi	s8,s3,48
30007e1c:	000a0663          	beqz	s4,30007e28 <f_mkdir+0x114>
30007e20:	0049c783          	lbu	a5,4(s3)
30007e24:	32079263          	bnez	a5,30008148 <f_mkdir+0x434>
30007e28:	0189a703          	lw	a4,24(s3)
30007e2c:	ffe90693          	addi	a3,s2,-2
30007e30:	00000c93          	li	s9,0
30007e34:	ffe70713          	addi	a4,a4,-2
30007e38:	00e6fa63          	bgeu	a3,a4,30007e4c <f_mkdir+0x138>
30007e3c:	0029c783          	lbu	a5,2(s3)
30007e40:	0289a703          	lw	a4,40(s3)
30007e44:	02d787b3          	mul	a5,a5,a3
30007e48:	00e78cb3          	add	s9,a5,a4
30007e4c:	20000613          	li	a2,512
30007e50:	00000593          	li	a1,0
30007e54:	000c0513          	mv	a0,s8
30007e58:	1d9040ef          	jal	ra,3000c830 <memset>
30007e5c:	05098593          	addi	a1,s3,80
30007e60:	004c0693          	addi	a3,s8,4
30007e64:	05498613          	addi	a2,s3,84
30007e68:	02000713          	li	a4,32
30007e6c:	00d5b6b3          	sltu	a3,a1,a3
30007e70:	00cc3633          	sltu	a2,s8,a2
30007e74:	01049b13          	slli	s6,s1,0x10
30007e78:	01091a93          	slli	s5,s2,0x10
30007e7c:	00ec0023          	sb	a4,0(s8)
30007e80:	00ec00a3          	sb	a4,1(s8)
30007e84:	00ec0123          	sb	a4,2(s8)
30007e88:	00ec01a3          	sb	a4,3(s8)
30007e8c:	00ec0223          	sb	a4,4(s8)
30007e90:	00ec02a3          	sb	a4,5(s8)
30007e94:	00ec0323          	sb	a4,6(s8)
30007e98:	00ec03a3          	sb	a4,7(s8)
30007e9c:	00ec0423          	sb	a4,8(s8)
30007ea0:	00ec04a3          	sb	a4,9(s8)
30007ea4:	00ec0523          	sb	a4,10(s8)
30007ea8:	01095a13          	srli	s4,s2,0x10
30007eac:	0016c713          	xori	a4,a3,1
30007eb0:	010b5b13          	srli	s6,s6,0x10
30007eb4:	00164693          	xori	a3,a2,1
30007eb8:	0104db93          	srli	s7,s1,0x10
30007ebc:	02e00613          	li	a2,46
30007ec0:	010ada93          	srli	s5,s5,0x10
30007ec4:	0ff4f793          	andi	a5,s1,255
30007ec8:	0184d513          	srli	a0,s1,0x18
30007ecc:	0ff97813          	andi	a6,s2,255
30007ed0:	0ffa7893          	andi	a7,s4,255
30007ed4:	008a5313          	srli	t1,s4,0x8
30007ed8:	008b5b13          	srli	s6,s6,0x8
30007edc:	0ffbfb93          	andi	s7,s7,255
30007ee0:	008ada93          	srli	s5,s5,0x8
30007ee4:	02c98823          	sb	a2,48(s3)
30007ee8:	01000613          	li	a2,16
30007eec:	00f12423          	sw	a5,8(sp)
30007ef0:	00a12623          	sw	a0,12(sp)
30007ef4:	01012823          	sw	a6,16(sp)
30007ef8:	01112a23          	sw	a7,20(sp)
30007efc:	00612c23          	sw	t1,24(sp)
30007f00:	02c98da3          	sb	a2,59(s3)
30007f04:	04f98323          	sb	a5,70(s3)
30007f08:	056983a3          	sb	s6,71(s3)
30007f0c:	05798423          	sb	s7,72(s3)
30007f10:	04a984a3          	sb	a0,73(s3)
30007f14:	05098523          	sb	a6,74(s3)
30007f18:	055985a3          	sb	s5,75(s3)
30007f1c:	05198223          	sb	a7,68(s3)
30007f20:	046982a3          	sb	t1,69(s3)
30007f24:	00d76733          	or	a4,a4,a3
30007f28:	1e070c63          	beqz	a4,30008120 <f_mkdir+0x40c>
30007f2c:	00bc6733          	or	a4,s8,a1
30007f30:	00377713          	andi	a4,a4,3
30007f34:	1e071663          	bnez	a4,30008120 <f_mkdir+0x40c>
30007f38:	000c2703          	lw	a4,0(s8)
30007f3c:	04e9a823          	sw	a4,80(s3)
30007f40:	004c2703          	lw	a4,4(s8)
30007f44:	04e9aa23          	sw	a4,84(s3)
30007f48:	008c2703          	lw	a4,8(s8)
30007f4c:	04e9ac23          	sw	a4,88(s3)
30007f50:	00cc2703          	lw	a4,12(s8)
30007f54:	04e9ae23          	sw	a4,92(s3)
30007f58:	010c2703          	lw	a4,16(s8)
30007f5c:	06e9a023          	sw	a4,96(s3)
30007f60:	014c2703          	lw	a4,20(s8)
30007f64:	06e9a223          	sw	a4,100(s3)
30007f68:	018c2703          	lw	a4,24(s8)
30007f6c:	06e9a423          	sw	a4,104(s3)
30007f70:	01cc2703          	lw	a4,28(s8)
30007f74:	06e9a623          	sw	a4,108(s3)
30007f78:	02c12d03          	lw	s10,44(sp)
30007f7c:	02e00693          	li	a3,46
30007f80:	04d988a3          	sb	a3,81(s3)
30007f84:	000d4583          	lbu	a1,0(s10)
30007f88:	00300613          	li	a2,3
30007f8c:	03412683          	lw	a3,52(sp)
30007f90:	16c58a63          	beq	a1,a2,30008104 <f_mkdir+0x3f0>
30007f94:	01069593          	slli	a1,a3,0x10
30007f98:	0106d613          	srli	a2,a3,0x10
30007f9c:	0105d593          	srli	a1,a1,0x10
30007fa0:	0ff67513          	andi	a0,a2,255
30007fa4:	0ff6f693          	andi	a3,a3,255
30007fa8:	0085d593          	srli	a1,a1,0x8
30007fac:	00865613          	srli	a2,a2,0x8
30007fb0:	06d98523          	sb	a3,106(s3)
30007fb4:	06b985a3          	sb	a1,107(s3)
30007fb8:	06a98223          	sb	a0,100(s3)
30007fbc:	06c982a3          	sb	a2,101(s3)
30007fc0:	002d4683          	lbu	a3,2(s10)
30007fc4:	0a068e63          	beqz	a3,30008080 <f_mkdir+0x36c>
30007fc8:	fff68413          	addi	s0,a3,-1
30007fcc:	0ff47413          	andi	s0,s0,255
30007fd0:	00140413          	addi	s0,s0,1
30007fd4:	01940433          	add	s0,s0,s9
30007fd8:	00100993          	li	s3,1
30007fdc:	039d2623          	sw	s9,44(s10)
30007fe0:	013d0223          	sb	s3,4(s10)
30007fe4:	060c8a63          	beqz	s9,30008058 <f_mkdir+0x344>
30007fe8:	001d4503          	lbu	a0,1(s10)
30007fec:	030d0d93          	addi	s11,s10,48
30007ff0:	00100693          	li	a3,1
30007ff4:	000c8613          	mv	a2,s9
30007ff8:	000d8593          	mv	a1,s11
30007ffc:	90cfa0ef          	jal	ra,30002108 <disk_write>
30008000:	0e051463          	bnez	a0,300080e8 <f_mkdir+0x3d4>
30008004:	01cd2683          	lw	a3,28(s10)
30008008:	020d2603          	lw	a2,32(s10)
3000800c:	000d0223          	sb	zero,4(s10)
30008010:	00c68633          	add	a2,a3,a2
30008014:	04ccf263          	bgeu	s9,a2,30008058 <f_mkdir+0x344>
30008018:	003d4a03          	lbu	s4,3(s10)
3000801c:	00100613          	li	a2,1
30008020:	03467c63          	bgeu	a2,s4,30008058 <f_mkdir+0x344>
30008024:	000c8493          	mv	s1,s9
30008028:	0080006f          	j	30008030 <f_mkdir+0x31c>
3000802c:	01cd2683          	lw	a3,28(s10)
30008030:	001d4503          	lbu	a0,1(s10)
30008034:	00d484b3          	add	s1,s1,a3
30008038:	00048613          	mv	a2,s1
3000803c:	00100693          	li	a3,1
30008040:	000d8593          	mv	a1,s11
30008044:	8c4fa0ef          	jal	ra,30002108 <disk_write>
30008048:	fffa0893          	addi	a7,s4,-1
3000804c:	0ff8fa13          	andi	s4,a7,255
30008050:	00100693          	li	a3,1
30008054:	fcda1ce3          	bne	s4,a3,3000802c <f_mkdir+0x318>
30008058:	001c8c93          	addi	s9,s9,1
3000805c:	20000613          	li	a2,512
30008060:	00000593          	li	a1,0
30008064:	000c0513          	mv	a0,s8
30008068:	7c8040ef          	jal	ra,3000c830 <memset>
3000806c:	008c8a63          	beq	s9,s0,30008080 <f_mkdir+0x36c>
30008070:	02c12d03          	lw	s10,44(sp)
30008074:	f69ff06f          	j	30007fdc <f_mkdir+0x2c8>
30008078:	00800413          	li	s0,8
3000807c:	cf5ff06f          	j	30007d70 <f_mkdir+0x5c>
30008080:	02c10513          	addi	a0,sp,44
30008084:	854fd0ef          	jal	ra,300050d8 <dir_register>
30008088:	00050413          	mv	s0,a0
3000808c:	0a051a63          	bnez	a0,30008140 <f_mkdir+0x42c>
30008090:	04012783          	lw	a5,64(sp)
30008094:	01000713          	li	a4,16
30008098:	02c12503          	lw	a0,44(sp)
3000809c:	00e785a3          	sb	a4,11(a5)
300080a0:	00812703          	lw	a4,8(sp)
300080a4:	01678ba3          	sb	s6,23(a5)
300080a8:	01778c23          	sb	s7,24(a5)
300080ac:	00e78b23          	sb	a4,22(a5)
300080b0:	00c12703          	lw	a4,12(sp)
300080b4:	01578da3          	sb	s5,27(a5)
300080b8:	00e78ca3          	sb	a4,25(a5)
300080bc:	01012703          	lw	a4,16(sp)
300080c0:	00e78d23          	sb	a4,26(a5)
300080c4:	01412703          	lw	a4,20(sp)
300080c8:	00e78a23          	sb	a4,20(a5)
300080cc:	01812703          	lw	a4,24(sp)
300080d0:	00e78aa3          	sb	a4,21(a5)
300080d4:	00100793          	li	a5,1
300080d8:	00f50223          	sb	a5,4(a0)
300080dc:	901fb0ef          	jal	ra,300039dc <sync>
300080e0:	00050413          	mv	s0,a0
300080e4:	c8dff06f          	j	30007d70 <f_mkdir+0x5c>
300080e8:	02c12503          	lw	a0,44(sp)
300080ec:	00100413          	li	s0,1
300080f0:	01852783          	lw	a5,24(a0)
300080f4:	c6f97ee3          	bgeu	s2,a5,30007d70 <f_mkdir+0x5c>
300080f8:	00090593          	mv	a1,s2
300080fc:	dddfc0ef          	jal	ra,30004ed8 <remove_chain.part.8>
30008100:	c71ff06f          	j	30007d70 <f_mkdir+0x5c>
30008104:	024d2603          	lw	a2,36(s10)
30008108:	e8d616e3          	bne	a2,a3,30007f94 <f_mkdir+0x280>
3000810c:	00000613          	li	a2,0
30008110:	00000513          	li	a0,0
30008114:	00000593          	li	a1,0
30008118:	00000693          	li	a3,0
3000811c:	e95ff06f          	j	30007fb0 <f_mkdir+0x29c>
30008120:	020c0613          	addi	a2,s8,32
30008124:	000c0713          	mv	a4,s8
30008128:	00170713          	addi	a4,a4,1
3000812c:	fff74683          	lbu	a3,-1(a4)
30008130:	00158593          	addi	a1,a1,1
30008134:	fed58fa3          	sb	a3,-1(a1)
30008138:	fec718e3          	bne	a4,a2,30008128 <f_mkdir+0x414>
3000813c:	e3dff06f          	j	30007f78 <f_mkdir+0x264>
30008140:	02c12503          	lw	a0,44(sp)
30008144:	fadff06f          	j	300080f0 <f_mkdir+0x3dc>
30008148:	0019c503          	lbu	a0,1(s3)
3000814c:	00100693          	li	a3,1
30008150:	000a0613          	mv	a2,s4
30008154:	000c0593          	mv	a1,s8
30008158:	fb1f90ef          	jal	ra,30002108 <disk_write>
3000815c:	fe0512e3          	bnez	a0,30008140 <f_mkdir+0x42c>
30008160:	0209a703          	lw	a4,32(s3)
30008164:	01c9a783          	lw	a5,28(s3)
30008168:	00098223          	sb	zero,4(s3)
3000816c:	00f70733          	add	a4,a4,a5
30008170:	04ea7063          	bgeu	s4,a4,300081b0 <f_mkdir+0x49c>
30008174:	0039c403          	lbu	s0,3(s3)
30008178:	00100713          	li	a4,1
3000817c:	00876663          	bltu	a4,s0,30008188 <f_mkdir+0x474>
30008180:	0300006f          	j	300081b0 <f_mkdir+0x49c>
30008184:	01c9a783          	lw	a5,28(s3)
30008188:	0019c503          	lbu	a0,1(s3)
3000818c:	00fa0a33          	add	s4,s4,a5
30008190:	00100693          	li	a3,1
30008194:	000a0613          	mv	a2,s4
30008198:	000c0593          	mv	a1,s8
3000819c:	f6df90ef          	jal	ra,30002108 <disk_write>
300081a0:	fff40413          	addi	s0,s0,-1
300081a4:	0ff47413          	andi	s0,s0,255
300081a8:	00100793          	li	a5,1
300081ac:	fcf41ce3          	bne	s0,a5,30008184 <f_mkdir+0x470>
300081b0:	02c12983          	lw	s3,44(sp)
300081b4:	03098c13          	addi	s8,s3,48
300081b8:	c71ff06f          	j	30007e28 <f_mkdir+0x114>

300081bc <f_chmod>:
300081bc:	fb010113          	addi	sp,sp,-80
300081c0:	04812423          	sw	s0,72(sp)
300081c4:	04912223          	sw	s1,68(sp)
300081c8:	00a12623          	sw	a0,12(sp)
300081cc:	00058493          	mv	s1,a1
300081d0:	00060413          	mv	s0,a2
300081d4:	01c10593          	addi	a1,sp,28
300081d8:	00100613          	li	a2,1
300081dc:	00c10513          	addi	a0,sp,12
300081e0:	04112623          	sw	ra,76(sp)
300081e4:	df5fa0ef          	jal	ra,30002fd8 <chk_mounted>
300081e8:	00050c63          	beqz	a0,30008200 <f_chmod+0x44>
300081ec:	04c12083          	lw	ra,76(sp)
300081f0:	04812403          	lw	s0,72(sp)
300081f4:	04412483          	lw	s1,68(sp)
300081f8:	05010113          	addi	sp,sp,80
300081fc:	00008067          	ret
30008200:	01010793          	addi	a5,sp,16
30008204:	00c12583          	lw	a1,12(sp)
30008208:	02f12a23          	sw	a5,52(sp)
3000820c:	3000f7b7          	lui	a5,0x3000f
30008210:	b7878793          	addi	a5,a5,-1160 # 3000eb78 <LfnBuf>
30008214:	01c10513          	addi	a0,sp,28
30008218:	02f12c23          	sw	a5,56(sp)
3000821c:	e11fb0ef          	jal	ra,3000402c <follow_path>
30008220:	fc0516e3          	bnez	a0,300081ec <f_chmod+0x30>
30008224:	03012703          	lw	a4,48(sp)
30008228:	00600513          	li	a0,6
3000822c:	fc0700e3          	beqz	a4,300081ec <f_chmod+0x30>
30008230:	00b74783          	lbu	a5,11(a4)
30008234:	01c12503          	lw	a0,28(sp)
30008238:	0097c4b3          	xor	s1,a5,s1
3000823c:	00947433          	and	s0,s0,s1
30008240:	02747413          	andi	s0,s0,39
30008244:	0087c433          	xor	s0,a5,s0
30008248:	008705a3          	sb	s0,11(a4)
3000824c:	00100793          	li	a5,1
30008250:	00f50223          	sb	a5,4(a0)
30008254:	f88fb0ef          	jal	ra,300039dc <sync>
30008258:	04c12083          	lw	ra,76(sp)
3000825c:	04812403          	lw	s0,72(sp)
30008260:	04412483          	lw	s1,68(sp)
30008264:	05010113          	addi	sp,sp,80
30008268:	00008067          	ret

3000826c <f_utime>:
3000826c:	fb010113          	addi	sp,sp,-80
30008270:	04812423          	sw	s0,72(sp)
30008274:	00a12623          	sw	a0,12(sp)
30008278:	00058413          	mv	s0,a1
3000827c:	00100613          	li	a2,1
30008280:	01c10593          	addi	a1,sp,28
30008284:	00c10513          	addi	a0,sp,12
30008288:	04112623          	sw	ra,76(sp)
3000828c:	d4dfa0ef          	jal	ra,30002fd8 <chk_mounted>
30008290:	00050a63          	beqz	a0,300082a4 <f_utime+0x38>
30008294:	04c12083          	lw	ra,76(sp)
30008298:	04812403          	lw	s0,72(sp)
3000829c:	05010113          	addi	sp,sp,80
300082a0:	00008067          	ret
300082a4:	01010793          	addi	a5,sp,16
300082a8:	00c12583          	lw	a1,12(sp)
300082ac:	02f12a23          	sw	a5,52(sp)
300082b0:	3000f7b7          	lui	a5,0x3000f
300082b4:	b7878793          	addi	a5,a5,-1160 # 3000eb78 <LfnBuf>
300082b8:	01c10513          	addi	a0,sp,28
300082bc:	02f12c23          	sw	a5,56(sp)
300082c0:	d6dfb0ef          	jal	ra,3000402c <follow_path>
300082c4:	fc0518e3          	bnez	a0,30008294 <f_utime+0x28>
300082c8:	03012783          	lw	a5,48(sp)
300082cc:	00600513          	li	a0,6
300082d0:	fc0782e3          	beqz	a5,30008294 <f_utime+0x28>
300082d4:	00645703          	lhu	a4,6(s0)
300082d8:	01c12683          	lw	a3,28(sp)
300082dc:	00e78b23          	sb	a4,22(a5)
300082e0:	00645703          	lhu	a4,6(s0)
300082e4:	00068513          	mv	a0,a3
300082e8:	00875713          	srli	a4,a4,0x8
300082ec:	00e78ba3          	sb	a4,23(a5)
300082f0:	00445703          	lhu	a4,4(s0)
300082f4:	00e78c23          	sb	a4,24(a5)
300082f8:	00445703          	lhu	a4,4(s0)
300082fc:	00875713          	srli	a4,a4,0x8
30008300:	00e78ca3          	sb	a4,25(a5)
30008304:	00100793          	li	a5,1
30008308:	00f68223          	sb	a5,4(a3)
3000830c:	ed0fb0ef          	jal	ra,300039dc <sync>
30008310:	04c12083          	lw	ra,76(sp)
30008314:	04812403          	lw	s0,72(sp)
30008318:	05010113          	addi	sp,sp,80
3000831c:	00008067          	ret

30008320 <f_rename>:
30008320:	f5010113          	addi	sp,sp,-176
30008324:	0a812423          	sw	s0,168(sp)
30008328:	00a12623          	sw	a0,12(sp)
3000832c:	00058413          	mv	s0,a1
30008330:	00100613          	li	a2,1
30008334:	03810593          	addi	a1,sp,56
30008338:	00c10513          	addi	a0,sp,12
3000833c:	0a112623          	sw	ra,172(sp)
30008340:	0a912223          	sw	s1,164(sp)
30008344:	0b212023          	sw	s2,160(sp)
30008348:	09312e23          	sw	s3,156(sp)
3000834c:	09412c23          	sw	s4,152(sp)
30008350:	09512a23          	sw	s5,148(sp)
30008354:	09612823          	sw	s6,144(sp)
30008358:	09712623          	sw	s7,140(sp)
3000835c:	09812423          	sw	s8,136(sp)
30008360:	c79fa0ef          	jal	ra,30002fd8 <chk_mounted>
30008364:	02050a63          	beqz	a0,30008398 <f_rename+0x78>
30008368:	0ac12083          	lw	ra,172(sp)
3000836c:	0a812403          	lw	s0,168(sp)
30008370:	0a412483          	lw	s1,164(sp)
30008374:	0a012903          	lw	s2,160(sp)
30008378:	09c12983          	lw	s3,156(sp)
3000837c:	09812a03          	lw	s4,152(sp)
30008380:	09412a83          	lw	s5,148(sp)
30008384:	09012b03          	lw	s6,144(sp)
30008388:	08c12b83          	lw	s7,140(sp)
3000838c:	08812c03          	lw	s8,136(sp)
30008390:	0b010113          	addi	sp,sp,176
30008394:	00008067          	ret
30008398:	03812783          	lw	a5,56(sp)
3000839c:	00c12583          	lw	a1,12(sp)
300083a0:	03810513          	addi	a0,sp,56
300083a4:	04f12e23          	sw	a5,92(sp)
300083a8:	01410793          	addi	a5,sp,20
300083ac:	04f12823          	sw	a5,80(sp)
300083b0:	3000f7b7          	lui	a5,0x3000f
300083b4:	b7878793          	addi	a5,a5,-1160 # 3000eb78 <LfnBuf>
300083b8:	04f12a23          	sw	a5,84(sp)
300083bc:	c71fb0ef          	jal	ra,3000402c <follow_path>
300083c0:	fa0514e3          	bnez	a0,30008368 <f_rename+0x48>
300083c4:	04c12583          	lw	a1,76(sp)
300083c8:	1e058863          	beqz	a1,300085b8 <f_rename+0x298>
300083cc:	00b58593          	addi	a1,a1,11
300083d0:	01500613          	li	a2,21
300083d4:	02010513          	addi	a0,sp,32
300083d8:	601040ef          	jal	ra,3000d1d8 <memcpy>
300083dc:	03812783          	lw	a5,56(sp)
300083e0:	00040593          	mv	a1,s0
300083e4:	05c10513          	addi	a0,sp,92
300083e8:	04f12e23          	sw	a5,92(sp)
300083ec:	03c12783          	lw	a5,60(sp)
300083f0:	06f12023          	sw	a5,96(sp)
300083f4:	04012783          	lw	a5,64(sp)
300083f8:	06f12223          	sw	a5,100(sp)
300083fc:	04412783          	lw	a5,68(sp)
30008400:	06f12423          	sw	a5,104(sp)
30008404:	04812783          	lw	a5,72(sp)
30008408:	06f12623          	sw	a5,108(sp)
3000840c:	04c12783          	lw	a5,76(sp)
30008410:	06f12823          	sw	a5,112(sp)
30008414:	05012783          	lw	a5,80(sp)
30008418:	06f12a23          	sw	a5,116(sp)
3000841c:	05412783          	lw	a5,84(sp)
30008420:	06f12c23          	sw	a5,120(sp)
30008424:	05812783          	lw	a5,88(sp)
30008428:	06f12e23          	sw	a5,124(sp)
3000842c:	c01fb0ef          	jal	ra,3000402c <follow_path>
30008430:	18050063          	beqz	a0,300085b0 <f_rename+0x290>
30008434:	00400793          	li	a5,4
30008438:	f2f518e3          	bne	a0,a5,30008368 <f_rename+0x48>
3000843c:	05c10513          	addi	a0,sp,92
30008440:	c99fc0ef          	jal	ra,300050d8 <dir_register>
30008444:	f20512e3          	bnez	a0,30008368 <f_rename+0x48>
30008448:	07012403          	lw	s0,112(sp)
3000844c:	01300613          	li	a2,19
30008450:	02210593          	addi	a1,sp,34
30008454:	00d40513          	addi	a0,s0,13
30008458:	581040ef          	jal	ra,3000d1d8 <memcpy>
3000845c:	02014783          	lbu	a5,32(sp)
30008460:	00100713          	li	a4,1
30008464:	0207e793          	ori	a5,a5,32
30008468:	00f405a3          	sb	a5,11(s0)
3000846c:	03812783          	lw	a5,56(sp)
30008470:	00e78223          	sb	a4,4(a5)
30008474:	04012703          	lw	a4,64(sp)
30008478:	06412783          	lw	a5,100(sp)
3000847c:	00f70863          	beq	a4,a5,3000848c <f_rename+0x16c>
30008480:	00b44783          	lbu	a5,11(s0)
30008484:	0107f793          	andi	a5,a5,16
30008488:	14079063          	bnez	a5,300085c8 <f_rename+0x2a8>
3000848c:	05815583          	lhu	a1,88(sp)
30008490:	000107b7          	lui	a5,0x10
30008494:	fff78793          	addi	a5,a5,-1 # ffff <stackPointer+0xa57f>
30008498:	03e15a03          	lhu	s4,62(sp)
3000849c:	00f59463          	bne	a1,a5,300084a4 <f_rename+0x184>
300084a0:	000a0593          	mv	a1,s4
300084a4:	03810513          	addi	a0,sp,56
300084a8:	8b4fb0ef          	jal	ra,3000355c <dir_sdi>
300084ac:	ea051ee3          	bnez	a0,30008368 <f_rename+0x48>
300084b0:	03812483          	lw	s1,56(sp)
300084b4:	04812903          	lw	s2,72(sp)
300084b8:	fe500b13          	li	s6,-27
300084bc:	00100a93          	li	s5,1
300084c0:	fff00b93          	li	s7,-1
300084c4:	02c4a403          	lw	s0,44(s1)
300084c8:	00890863          	beq	s2,s0,300084d8 <f_rename+0x1b8>
300084cc:	0044c783          	lbu	a5,4(s1)
300084d0:	06079863          	bnez	a5,30008540 <f_rename+0x220>
300084d4:	18091e63          	bnez	s2,30008670 <f_rename+0x350>
300084d8:	04c12783          	lw	a5,76(sp)
300084dc:	01678023          	sb	s6,0(a5)
300084e0:	03812483          	lw	s1,56(sp)
300084e4:	01548223          	sb	s5,4(s1)
300084e8:	03e15783          	lhu	a5,62(sp)
300084ec:	2147fa63          	bgeu	a5,s4,30008700 <f_rename+0x3e0>
300084f0:	00178793          	addi	a5,a5,1
300084f4:	01079413          	slli	s0,a5,0x10
300084f8:	01045413          	srli	s0,s0,0x10
300084fc:	0c040263          	beqz	s0,300085c0 <f_rename+0x2a0>
30008500:	04812903          	lw	s2,72(sp)
30008504:	0a090e63          	beqz	s2,300085c0 <f_rename+0x2a0>
30008508:	00f47993          	andi	s3,s0,15
3000850c:	00099e63          	bnez	s3,30008528 <f_rename+0x208>
30008510:	04412583          	lw	a1,68(sp)
30008514:	00190913          	addi	s2,s2,1
30008518:	05212423          	sw	s2,72(sp)
3000851c:	16059e63          	bnez	a1,30008698 <f_rename+0x378>
30008520:	0084d783          	lhu	a5,8(s1)
30008524:	08f47e63          	bgeu	s0,a5,300085c0 <f_rename+0x2a0>
30008528:	03048793          	addi	a5,s1,48
3000852c:	00599993          	slli	s3,s3,0x5
30008530:	013787b3          	add	a5,a5,s3
30008534:	02811f23          	sh	s0,62(sp)
30008538:	04f12623          	sw	a5,76(sp)
3000853c:	f89ff06f          	j	300084c4 <f_rename+0x1a4>
30008540:	0014c503          	lbu	a0,1(s1)
30008544:	03048c13          	addi	s8,s1,48
30008548:	00100693          	li	a3,1
3000854c:	00040613          	mv	a2,s0
30008550:	000c0593          	mv	a1,s8
30008554:	bb5f90ef          	jal	ra,30002108 <disk_write>
30008558:	12051c63          	bnez	a0,30008690 <f_rename+0x370>
3000855c:	0204a703          	lw	a4,32(s1)
30008560:	01c4a783          	lw	a5,28(s1)
30008564:	00048223          	sb	zero,4(s1)
30008568:	00f70733          	add	a4,a4,a5
3000856c:	f6e474e3          	bgeu	s0,a4,300084d4 <f_rename+0x1b4>
30008570:	0034c983          	lbu	s3,3(s1)
30008574:	00100713          	li	a4,1
30008578:	01376663          	bltu	a4,s3,30008584 <f_rename+0x264>
3000857c:	f59ff06f          	j	300084d4 <f_rename+0x1b4>
30008580:	01c4a783          	lw	a5,28(s1)
30008584:	0014c503          	lbu	a0,1(s1)
30008588:	00f40433          	add	s0,s0,a5
3000858c:	00100693          	li	a3,1
30008590:	00040613          	mv	a2,s0
30008594:	000c0593          	mv	a1,s8
30008598:	b71f90ef          	jal	ra,30002108 <disk_write>
3000859c:	fff98993          	addi	s3,s3,-1
300085a0:	0ff9f993          	andi	s3,s3,255
300085a4:	00100793          	li	a5,1
300085a8:	fcf99ce3          	bne	s3,a5,30008580 <f_rename+0x260>
300085ac:	f29ff06f          	j	300084d4 <f_rename+0x1b4>
300085b0:	00800513          	li	a0,8
300085b4:	db5ff06f          	j	30008368 <f_rename+0x48>
300085b8:	00400513          	li	a0,4
300085bc:	dadff06f          	j	30008368 <f_rename+0x48>
300085c0:	00200513          	li	a0,2
300085c4:	da5ff06f          	j	30008368 <f_rename+0x48>
300085c8:	01544783          	lbu	a5,21(s0)
300085cc:	01444683          	lbu	a3,20(s0)
300085d0:	05c12503          	lw	a0,92(sp)
300085d4:	01b44703          	lbu	a4,27(s0)
300085d8:	01a44603          	lbu	a2,26(s0)
300085dc:	00879793          	slli	a5,a5,0x8
300085e0:	00d7e7b3          	or	a5,a5,a3
300085e4:	00871713          	slli	a4,a4,0x8
300085e8:	01852683          	lw	a3,24(a0)
300085ec:	00c76733          	or	a4,a4,a2
300085f0:	01079793          	slli	a5,a5,0x10
300085f4:	00e7e7b3          	or	a5,a5,a4
300085f8:	ffe78793          	addi	a5,a5,-2
300085fc:	ffe68713          	addi	a4,a3,-2
30008600:	fce7f0e3          	bgeu	a5,a4,300085c0 <f_rename+0x2a0>
30008604:	00254583          	lbu	a1,2(a0)
30008608:	02852703          	lw	a4,40(a0)
3000860c:	02f587b3          	mul	a5,a1,a5
30008610:	00e785b3          	add	a1,a5,a4
30008614:	fa0586e3          	beqz	a1,300085c0 <f_rename+0x2a0>
30008618:	fd8fa0ef          	jal	ra,30002df0 <move_window>
3000861c:	d40516e3          	bnez	a0,30008368 <f_rename+0x48>
30008620:	05c12783          	lw	a5,92(sp)
30008624:	02e00713          	li	a4,46
30008628:	0517c683          	lbu	a3,81(a5)
3000862c:	e6e690e3          	bne	a3,a4,3000848c <f_rename+0x16c>
30008630:	0007c603          	lbu	a2,0(a5)
30008634:	00300693          	li	a3,3
30008638:	06412703          	lw	a4,100(sp)
3000863c:	0cd60e63          	beq	a2,a3,30008718 <f_rename+0x3f8>
30008640:	01071693          	slli	a3,a4,0x10
30008644:	01075613          	srli	a2,a4,0x10
30008648:	0106d693          	srli	a3,a3,0x10
3000864c:	0086d693          	srli	a3,a3,0x8
30008650:	00865593          	srli	a1,a2,0x8
30008654:	06e78523          	sb	a4,106(a5)
30008658:	00100713          	li	a4,1
3000865c:	06d785a3          	sb	a3,107(a5)
30008660:	06c78223          	sb	a2,100(a5)
30008664:	06b782a3          	sb	a1,101(a5)
30008668:	00e78223          	sb	a4,4(a5)
3000866c:	e21ff06f          	j	3000848c <f_rename+0x16c>
30008670:	0014c503          	lbu	a0,1(s1)
30008674:	00100693          	li	a3,1
30008678:	00090613          	mv	a2,s2
3000867c:	03048593          	addi	a1,s1,48
30008680:	939f90ef          	jal	ra,30001fb8 <disk_read>
30008684:	00051663          	bnez	a0,30008690 <f_rename+0x370>
30008688:	0324a623          	sw	s2,44(s1)
3000868c:	e4dff06f          	j	300084d8 <f_rename+0x1b8>
30008690:	00100513          	li	a0,1
30008694:	cd5ff06f          	j	30008368 <f_rename+0x48>
30008698:	0024c783          	lbu	a5,2(s1)
3000869c:	00445713          	srli	a4,s0,0x4
300086a0:	fff78793          	addi	a5,a5,-1
300086a4:	00e7f7b3          	and	a5,a5,a4
300086a8:	e80790e3          	bnez	a5,30008528 <f_rename+0x208>
300086ac:	00100913          	li	s2,1
300086b0:	f0b978e3          	bgeu	s2,a1,300085c0 <f_rename+0x2a0>
300086b4:	0184a783          	lw	a5,24(s1)
300086b8:	f0f5f4e3          	bgeu	a1,a5,300085c0 <f_rename+0x2a0>
300086bc:	00048513          	mv	a0,s1
300086c0:	ce5fa0ef          	jal	ra,300033a4 <get_fat.part.5>
300086c4:	eea97ee3          	bgeu	s2,a0,300085c0 <f_rename+0x2a0>
300086c8:	fd7504e3          	beq	a0,s7,30008690 <f_rename+0x370>
300086cc:	03812483          	lw	s1,56(sp)
300086d0:	0184a783          	lw	a5,24(s1)
300086d4:	eef576e3          	bgeu	a0,a5,300085c0 <f_rename+0x2a0>
300086d8:	04a12223          	sw	a0,68(sp)
300086dc:	ffe78793          	addi	a5,a5,-2
300086e0:	ffe50513          	addi	a0,a0,-2
300086e4:	02f57463          	bgeu	a0,a5,3000870c <f_rename+0x3ec>
300086e8:	0024c903          	lbu	s2,2(s1)
300086ec:	0284a783          	lw	a5,40(s1)
300086f0:	02a90533          	mul	a0,s2,a0
300086f4:	00f50933          	add	s2,a0,a5
300086f8:	05212423          	sw	s2,72(sp)
300086fc:	e2dff06f          	j	30008528 <f_rename+0x208>
30008700:	00048513          	mv	a0,s1
30008704:	ad8fb0ef          	jal	ra,300039dc <sync>
30008708:	c61ff06f          	j	30008368 <f_rename+0x48>
3000870c:	00000913          	li	s2,0
30008710:	05212423          	sw	s2,72(sp)
30008714:	e15ff06f          	j	30008528 <f_rename+0x208>
30008718:	0247a683          	lw	a3,36(a5)
3000871c:	f2e692e3          	bne	a3,a4,30008640 <f_rename+0x320>
30008720:	00000713          	li	a4,0
30008724:	f1dff06f          	j	30008640 <f_rename+0x320>

30008728 <f_mkfs>:
30008728:	5e051263          	bnez	a0,30008d0c <f_mkfs+0x5e4>
3000872c:	fa010113          	addi	sp,sp,-96
30008730:	3000f7b7          	lui	a5,0x3000f
30008734:	04812c23          	sw	s0,88(sp)
30008738:	0287a403          	lw	s0,40(a5) # 3000f028 <FatFs>
3000873c:	04112e23          	sw	ra,92(sp)
30008740:	04912a23          	sw	s1,84(sp)
30008744:	05212823          	sw	s2,80(sp)
30008748:	05312623          	sw	s3,76(sp)
3000874c:	05412423          	sw	s4,72(sp)
30008750:	05512223          	sw	s5,68(sp)
30008754:	05612023          	sw	s6,64(sp)
30008758:	03712e23          	sw	s7,60(sp)
3000875c:	03812c23          	sw	s8,56(sp)
30008760:	03912a23          	sw	s9,52(sp)
30008764:	03a12823          	sw	s10,48(sp)
30008768:	03b12623          	sw	s11,44(sp)
3000876c:	5a040463          	beqz	s0,30008d14 <f_mkfs+0x5ec>
30008770:	00040023          	sb	zero,0(s0)
30008774:	00060493          	mv	s1,a2
30008778:	00058c93          	mv	s9,a1
3000877c:	d74f90ef          	jal	ra,30001cf0 <disk_initialize>
30008780:	00157713          	andi	a4,a0,1
30008784:	00050d13          	mv	s10,a0
30008788:	00300513          	li	a0,3
3000878c:	54071263          	bnez	a4,30008cd0 <f_mkfs+0x5a8>
30008790:	004d7d13          	andi	s10,s10,4
30008794:	00a00513          	li	a0,10
30008798:	520d1c63          	bnez	s10,30008cd0 <f_mkfs+0x5a8>
3000879c:	01c10613          	addi	a2,sp,28
300087a0:	00100593          	li	a1,1
300087a4:	00000513          	li	a0,0
300087a8:	c29f90ef          	jal	ra,300023d0 <disk_ioctl>
300087ac:	52051063          	bnez	a0,30008ccc <f_mkfs+0x5a4>
300087b0:	01c12783          	lw	a5,28(sp)
300087b4:	07f00713          	li	a4,127
300087b8:	50f77a63          	bgeu	a4,a5,30008ccc <f_mkfs+0x5a4>
300087bc:	00000b93          	li	s7,0
300087c0:	000c9663          	bnez	s9,300087cc <f_mkfs+0xa4>
300087c4:	fc178793          	addi	a5,a5,-63
300087c8:	03f00b93          	li	s7,63
300087cc:	fff48713          	addi	a4,s1,-1
300087d0:	00f12e23          	sw	a5,28(sp)
300087d4:	00977733          	and	a4,a4,s1
300087d8:	00071463          	bnez	a4,300087e0 <f_mkfs+0xb8>
300087dc:	54049063          	bnez	s1,30008d1c <f_mkfs+0x5f4>
300087e0:	001f4737          	lui	a4,0x1f4
300087e4:	60e7f863          	bgeu	a5,a4,30008df4 <f_mkfs+0x6cc>
300087e8:	000fa737          	lui	a4,0xfa
300087ec:	02e7f4e3          	bgeu	a5,a4,30009014 <f_mkfs+0x8ec>
300087f0:	0007d737          	lui	a4,0x7d
300087f4:	02e7f4e3          	bgeu	a5,a4,3000901c <f_mkfs+0x8f4>
300087f8:	0003e737          	lui	a4,0x3e
300087fc:	7ff70713          	addi	a4,a4,2047 # 3e7ff <stackPointer+0x38d7f>
30008800:	04f766e3          	bltu	a4,a5,3000904c <f_mkfs+0x924>
30008804:	0001f737          	lui	a4,0x1f
30008808:	3ff70713          	addi	a4,a4,1023 # 1f3ff <stackPointer+0x1997f>
3000880c:	04f764e3          	bltu	a4,a5,30009054 <f_mkfs+0x92c>
30008810:	00010737          	lui	a4,0x10
30008814:	9ff70713          	addi	a4,a4,-1537 # f9ff <stackPointer+0x9f7f>
30008818:	04f762e3          	bltu	a4,a5,3000905c <f_mkfs+0x934>
3000881c:	00008737          	lui	a4,0x8
30008820:	cff70713          	addi	a4,a4,-769 # 7cff <stackPointer+0x227f>
30008824:	50f76e63          	bltu	a4,a5,30008d40 <f_mkfs+0x618>
30008828:	00004737          	lui	a4,0x4
3000882c:	e7f70713          	addi	a4,a4,-385 # 3e7f <stackPointer-0x1c01>
30008830:	02f76ae3          	bltu	a4,a5,30009064 <f_mkfs+0x93c>
30008834:	00002737          	lui	a4,0x2
30008838:	f3f70713          	addi	a4,a4,-193 # 1f3f <stackPointer-0x3b41>
3000883c:	02f768e3          	bltu	a4,a5,3000906c <f_mkfs+0x944>
30008840:	00001737          	lui	a4,0x1
30008844:	f9f70713          	addi	a4,a4,-97 # f9f <stackPointer-0x4ae1>
30008848:	00f73733          	sltu	a4,a4,a5
3000884c:	00174713          	xori	a4,a4,1
30008850:	00970713          	addi	a4,a4,9
30008854:	3000e6b7          	lui	a3,0x3000e
30008858:	49868693          	addi	a3,a3,1176 # 3000e498 <LfnOfs>
3000885c:	00171713          	slli	a4,a4,0x1
30008860:	00e68733          	add	a4,a3,a4
30008864:	09075703          	lhu	a4,144(a4)
30008868:	1ff00693          	li	a3,511
3000886c:	00975a93          	srli	s5,a4,0x9
30008870:	58e6e463          	bltu	a3,a4,30008df8 <f_mkfs+0x6d0>
30008874:	00078913          	mv	s2,a5
30008878:	00100a93          	li	s5,1
3000887c:	00001737          	lui	a4,0x1
30008880:	ff570713          	addi	a4,a4,-11 # ff5 <stackPointer-0x4a8b>
30008884:	4d276263          	bltu	a4,s2,30008d48 <f_mkfs+0x620>
30008888:	00191713          	slli	a4,s2,0x1
3000888c:	01270933          	add	s2,a4,s2
30008890:	00190913          	addi	s2,s2,1
30008894:	00195913          	srli	s2,s2,0x1
30008898:	00390913          	addi	s2,s2,3
3000889c:	00100b13          	li	s6,1
300088a0:	1ff90913          	addi	s2,s2,511
300088a4:	00995913          	srli	s2,s2,0x9
300088a8:	02090993          	addi	s3,s2,32
300088ac:	02000c13          	li	s8,32
300088b0:	00100d93          	li	s11,1
300088b4:	017d84b3          	add	s1,s11,s7
300088b8:	01348a33          	add	s4,s1,s3
300088bc:	014a8733          	add	a4,s5,s4
300088c0:	4ee7e263          	bltu	a5,a4,30008da4 <f_mkfs+0x67c>
300088c4:	01810613          	addi	a2,sp,24
300088c8:	00300593          	li	a1,3
300088cc:	00000513          	li	a0,0
300088d0:	b01f90ef          	jal	ra,300023d0 <disk_ioctl>
300088d4:	00000713          	li	a4,0
300088d8:	02051263          	bnez	a0,300088fc <f_mkfs+0x1d4>
300088dc:	01812783          	lw	a5,24(sp)
300088e0:	00008637          	lui	a2,0x8
300088e4:	fff78693          	addi	a3,a5,-1
300088e8:	00c6fa63          	bgeu	a3,a2,300088fc <f_mkfs+0x1d4>
300088ec:	40f00733          	neg	a4,a5
300088f0:	00da06b3          	add	a3,s4,a3
300088f4:	00d77733          	and	a4,a4,a3
300088f8:	41470733          	sub	a4,a4,s4
300088fc:	00e12c23          	sw	a4,24(sp)
30008900:	00300693          	li	a3,3
30008904:	01c12783          	lw	a5,28(sp)
30008908:	46db0e63          	beq	s6,a3,30008d84 <f_mkfs+0x65c>
3000890c:	018d8a33          	add	s4,s11,s8
30008910:	00e90933          	add	s2,s2,a4
30008914:	41478a33          	sub	s4,a5,s4
30008918:	412a0a33          	sub	s4,s4,s2
3000891c:	00200713          	li	a4,2
30008920:	035a5a33          	divu	s4,s4,s5
30008924:	00eb1863          	bne	s6,a4,30008934 <f_mkfs+0x20c>
30008928:	00001737          	lui	a4,0x1
3000892c:	ff570713          	addi	a4,a4,-11 # ff5 <stackPointer-0x4a8b>
30008930:	47477a63          	bgeu	a4,s4,30008da4 <f_mkfs+0x67c>
30008934:	00f12623          	sw	a5,12(sp)
30008938:	03040993          	addi	s3,s0,48
3000893c:	460c9863          	bnez	s9,30008dac <f_mkfs+0x684>
30008940:	20000613          	li	a2,512
30008944:	00000593          	li	a1,0
30008948:	00098513          	mv	a0,s3
3000894c:	6e5030ef          	jal	ra,3000c830 <memset>
30008950:	00c12783          	lw	a5,12(sp)
30008954:	00100693          	li	a3,1
30008958:	f8000613          	li	a2,-128
3000895c:	1ed407a3          	sb	a3,495(s0)
30008960:	1ed40823          	sb	a3,496(s0)
30008964:	00fb06b7          	lui	a3,0xfb0
30008968:	00fb8733          	add	a4,s7,a5
3000896c:	1ec40723          	sb	a2,494(s0)
30008970:	1e0408a3          	sb	zero,497(s0)
30008974:	3ff68693          	addi	a3,a3,1023 # fb03ff <stackPointer+0xfaa97f>
30008978:	62e6e263          	bltu	a3,a4,30008f9c <f_mkfs+0x874>
3000897c:	000046b7          	lui	a3,0x4
30008980:	ec168693          	addi	a3,a3,-319 # 3ec1 <stackPointer-0x1bbf>
30008984:	02d75733          	divu	a4,a4,a3
30008988:	00275693          	srli	a3,a4,0x2
3000898c:	03f6e693          	ori	a3,a3,63
30008990:	0ff77713          	andi	a4,a4,255
30008994:	0ff6f693          	andi	a3,a3,255
30008998:	1ee40aa3          	sb	a4,501(s0)
3000899c:	ffe00713          	li	a4,-2
300089a0:	1ee409a3          	sb	a4,499(s0)
300089a4:	1ed40a23          	sb	a3,500(s0)
300089a8:	00300713          	li	a4,3
300089ac:	60eb0463          	beq	s6,a4,30008fb4 <f_mkfs+0x88c>
300089b0:	000106b7          	lui	a3,0x10
300089b4:	00600713          	li	a4,6
300089b8:	00d7f463          	bgeu	a5,a3,300089c0 <f_mkfs+0x298>
300089bc:	00400713          	li	a4,4
300089c0:	1ee40923          	sb	a4,498(s0)
300089c4:	01079713          	slli	a4,a5,0x10
300089c8:	0107d613          	srli	a2,a5,0x10
300089cc:	0187d693          	srli	a3,a5,0x18
300089d0:	1ef40d23          	sb	a5,506(s0)
300089d4:	01075713          	srli	a4,a4,0x10
300089d8:	ffffb7b7          	lui	a5,0xffffb
300089dc:	00875713          	srli	a4,a4,0x8
300089e0:	03f00593          	li	a1,63
300089e4:	a5578793          	addi	a5,a5,-1451 # ffffaa55 <__bss_end__+0xcfefaa55>
300089e8:	1eb40b23          	sb	a1,502(s0)
300089ec:	1ec40e23          	sb	a2,508(s0)
300089f0:	1ed40ea3          	sb	a3,509(s0)
300089f4:	1e040ba3          	sb	zero,503(s0)
300089f8:	1e040c23          	sb	zero,504(s0)
300089fc:	1e040ca3          	sb	zero,505(s0)
30008a00:	1ee40da3          	sb	a4,507(s0)
30008a04:	22f41723          	sh	a5,558(s0)
30008a08:	00100693          	li	a3,1
30008a0c:	00000613          	li	a2,0
30008a10:	00098593          	mv	a1,s3
30008a14:	00000513          	li	a0,0
30008a18:	ef0f90ef          	jal	ra,30002108 <disk_write>
30008a1c:	0f800c93          	li	s9,248
30008a20:	2a051663          	bnez	a0,30008ccc <f_mkfs+0x5a4>
30008a24:	20000613          	li	a2,512
30008a28:	00000593          	li	a1,0
30008a2c:	00098513          	mv	a0,s3
30008a30:	601030ef          	jal	ra,3000c830 <memset>
30008a34:	3000e737          	lui	a4,0x3000e
30008a38:	ecc70713          	addi	a4,a4,-308 # 3000decc <__clzsi2+0x148>
30008a3c:	03440793          	addi	a5,s0,52
30008a40:	00f737b3          	sltu	a5,a4,a5
30008a44:	3000e737          	lui	a4,0x3000e
30008a48:	ed070713          	addi	a4,a4,-304 # 3000ded0 <__clzsi2+0x14c>
30008a4c:	00e9b733          	sltu	a4,s3,a4
30008a50:	0017c793          	xori	a5,a5,1
30008a54:	00174713          	xori	a4,a4,1
30008a58:	00e7e7b3          	or	a5,a5,a4
30008a5c:	56078063          	beqz	a5,30008fbc <f_mkfs+0x894>
30008a60:	0039f793          	andi	a5,s3,3
30008a64:	54079c63          	bnez	a5,30008fbc <f_mkfs+0x894>
30008a68:	4d9107b7          	lui	a5,0x4d910
30008a6c:	eeb78793          	addi	a5,a5,-277 # 4d90feeb <__bss_end__+0x1d80feeb>
30008a70:	02f42823          	sw	a5,48(s0)
30008a74:	534f47b7          	lui	a5,0x534f4
30008a78:	45378793          	addi	a5,a5,1107 # 534f4453 <__bss_end__+0x233f4453>
30008a7c:	02f42a23          	sw	a5,52(s0)
30008a80:	000037b7          	lui	a5,0x3
30008a84:	e3578793          	addi	a5,a5,-459 # 2e35 <stackPointer-0x2c4b>
30008a88:	02f41c23          	sh	a5,56(s0)
30008a8c:	03000793          	li	a5,48
30008a90:	02f40d23          	sb	a5,58(s0)
30008a94:	010d9793          	slli	a5,s11,0x10
30008a98:	0107d793          	srli	a5,a5,0x10
30008a9c:	0087d793          	srli	a5,a5,0x8
30008aa0:	00200713          	li	a4,2
30008aa4:	02f40fa3          	sb	a5,63(s0)
30008aa8:	00100793          	li	a5,1
30008aac:	04f40023          	sb	a5,64(s0)
30008ab0:	02040da3          	sb	zero,59(s0)
30008ab4:	02e40e23          	sb	a4,60(s0)
30008ab8:	03540ea3          	sb	s5,61(s0)
30008abc:	03b40f23          	sb	s11,62(s0)
30008ac0:	00300793          	li	a5,3
30008ac4:	00fb0463          	beq	s6,a5,30008acc <f_mkfs+0x3a4>
30008ac8:	00200d13          	li	s10,2
30008acc:	01c12783          	lw	a5,28(sp)
30008ad0:	040400a3          	sb	zero,65(s0)
30008ad4:	05a40123          	sb	s10,66(s0)
30008ad8:	01079713          	slli	a4,a5,0x10
30008adc:	01075713          	srli	a4,a4,0x10
30008ae0:	00010637          	lui	a2,0x10
30008ae4:	0ff7f693          	andi	a3,a5,255
30008ae8:	00875713          	srli	a4,a4,0x8
30008aec:	30c7fa63          	bgeu	a5,a2,30008e00 <f_mkfs+0x6d8>
30008af0:	04d401a3          	sb	a3,67(s0)
30008af4:	04e40223          	sb	a4,68(s0)
30008af8:	03f00793          	li	a5,63
30008afc:	04f40423          	sb	a5,72(s0)
30008b00:	fff00793          	li	a5,-1
30008b04:	04f40523          	sb	a5,74(s0)
30008b08:	059402a3          	sb	s9,69(s0)
30008b0c:	040404a3          	sb	zero,73(s0)
30008b10:	040405a3          	sb	zero,75(s0)
30008b14:	05740623          	sb	s7,76(s0)
30008b18:	040406a3          	sb	zero,77(s0)
30008b1c:	04040723          	sb	zero,78(s0)
30008b20:	040407a3          	sb	zero,79(s0)
30008b24:	9a0f90ef          	jal	ra,30001cc4 <get_fattime>
30008b28:	01091693          	slli	a3,s2,0x10
30008b2c:	0106d693          	srli	a3,a3,0x10
30008b30:	00a12c23          	sw	a0,24(sp)
30008b34:	00300793          	li	a5,3
30008b38:	0ff97813          	andi	a6,s2,255
30008b3c:	0086d693          	srli	a3,a3,0x8
30008b40:	2cfb0e63          	beq	s6,a5,30008e1c <f_mkfs+0x6f4>
30008b44:	3000e737          	lui	a4,0x3000e
30008b48:	3000e5b7          	lui	a1,0x3000e
30008b4c:	05b40613          	addi	a2,s0,91
30008b50:	05f40793          	addi	a5,s0,95
30008b54:	eb870713          	addi	a4,a4,-328 # 3000deb8 <__clzsi2+0x134>
30008b58:	01051893          	slli	a7,a0,0x10
30008b5c:	ebc58593          	addi	a1,a1,-324 # 3000debc <__clzsi2+0x138>
30008b60:	0108d893          	srli	a7,a7,0x10
30008b64:	00f737b3          	sltu	a5,a4,a5
30008b68:	00b635b3          	sltu	a1,a2,a1
30008b6c:	04d403a3          	sb	a3,71(s0)
30008b70:	f8000693          	li	a3,-128
30008b74:	0088d893          	srli	a7,a7,0x8
30008b78:	01055e13          	srli	t3,a0,0x10
30008b7c:	01855313          	srli	t1,a0,0x18
30008b80:	0017c793          	xori	a5,a5,1
30008b84:	0015c593          	xori	a1,a1,1
30008b88:	04d40a23          	sb	a3,84(s0)
30008b8c:	02900693          	li	a3,41
30008b90:	04a40ba3          	sb	a0,87(s0)
30008b94:	05140c23          	sb	a7,88(s0)
30008b98:	05c40ca3          	sb	t3,89(s0)
30008b9c:	04640d23          	sb	t1,90(s0)
30008ba0:	05040323          	sb	a6,70(s0)
30008ba4:	04d40b23          	sb	a3,86(s0)
30008ba8:	00b7e7b3          	or	a5,a5,a1
30008bac:	46078c63          	beqz	a5,30009024 <f_mkfs+0x8fc>
30008bb0:	00367793          	andi	a5,a2,3
30008bb4:	46079863          	bnez	a5,30009024 <f_mkfs+0x8fc>
30008bb8:	4e2057b7          	lui	a5,0x4e205
30008bbc:	f4e78793          	addi	a5,a5,-178 # 4e204f4e <__bss_end__+0x1e104f4e>
30008bc0:	04f42da3          	sw	a5,91(s0)
30008bc4:	204557b7          	lui	a5,0x20455
30008bc8:	d4178793          	addi	a5,a5,-703 # 20454d41 <stackPointer+0x2044f2c1>
30008bcc:	04f42fa3          	sw	a5,95(s0)
30008bd0:	462027b7          	lui	a5,0x46202
30008bd4:	02078793          	addi	a5,a5,32 # 46202020 <__bss_end__+0x16102020>
30008bd8:	06f421a3          	sw	a5,99(s0)
30008bdc:	202057b7          	lui	a5,0x20205
30008be0:	44178793          	addi	a5,a5,1089 # 20205441 <stackPointer+0x201ff9c1>
30008be4:	06f423a3          	sw	a5,103(s0)
30008be8:	000027b7          	lui	a5,0x2
30008bec:	02078793          	addi	a5,a5,32 # 2020 <stackPointer-0x3a60>
30008bf0:	06f415a3          	sh	a5,107(s0)
30008bf4:	02000793          	li	a5,32
30008bf8:	06f406a3          	sb	a5,109(s0)
30008bfc:	05500793          	li	a5,85
30008c00:	22f40723          	sb	a5,558(s0)
30008c04:	faa00793          	li	a5,-86
30008c08:	22f407a3          	sb	a5,559(s0)
30008c0c:	00100693          	li	a3,1
30008c10:	000b8613          	mv	a2,s7
30008c14:	00098593          	mv	a1,s3
30008c18:	00000513          	li	a0,0
30008c1c:	cecf90ef          	jal	ra,30002108 <disk_write>
30008c20:	0a051663          	bnez	a0,30008ccc <f_mkfs+0x5a4>
30008c24:	20000613          	li	a2,512
30008c28:	00000593          	li	a1,0
30008c2c:	00098513          	mv	a0,s3
30008c30:	401030ef          	jal	ra,3000c830 <memset>
30008c34:	00100793          	li	a5,1
30008c38:	36fb0863          	beq	s6,a5,30008fa8 <f_mkfs+0x880>
30008c3c:	f0000793          	li	a5,-256
30008c40:	0197ecb3          	or	s9,a5,s9
30008c44:	018cd713          	srli	a4,s9,0x18
30008c48:	fff00793          	li	a5,-1
30008c4c:	01912c23          	sw	s9,24(sp)
30008c50:	03940823          	sb	s9,48(s0)
30008c54:	02f408a3          	sb	a5,49(s0)
30008c58:	02f40923          	sb	a5,50(s0)
30008c5c:	02e409a3          	sb	a4,51(s0)
30008c60:	00048613          	mv	a2,s1
30008c64:	00100693          	li	a3,1
30008c68:	00098593          	mv	a1,s3
30008c6c:	00000513          	li	a0,0
30008c70:	00148493          	addi	s1,s1,1
30008c74:	c94f90ef          	jal	ra,30002108 <disk_write>
30008c78:	04051a63          	bnez	a0,30008ccc <f_mkfs+0x5a4>
30008c7c:	20000613          	li	a2,512
30008c80:	00000593          	li	a1,0
30008c84:	00098513          	mv	a0,s3
30008c88:	3a9030ef          	jal	ra,3000c830 <memset>
30008c8c:	00100793          	li	a5,1
30008c90:	00f12c23          	sw	a5,24(sp)
30008c94:	0127ee63          	bltu	a5,s2,30008cb0 <f_mkfs+0x588>
30008c98:	11c0006f          	j	30008db4 <f_mkfs+0x68c>
30008c9c:	01812783          	lw	a5,24(sp)
30008ca0:	000c8493          	mv	s1,s9
30008ca4:	00178793          	addi	a5,a5,1
30008ca8:	00f12c23          	sw	a5,24(sp)
30008cac:	1127f663          	bgeu	a5,s2,30008db8 <f_mkfs+0x690>
30008cb0:	00048613          	mv	a2,s1
30008cb4:	00100693          	li	a3,1
30008cb8:	00098593          	mv	a1,s3
30008cbc:	00000513          	li	a0,0
30008cc0:	00148c93          	addi	s9,s1,1
30008cc4:	c44f90ef          	jal	ra,30002108 <disk_write>
30008cc8:	fc050ae3          	beqz	a0,30008c9c <f_mkfs+0x574>
30008ccc:	00100513          	li	a0,1
30008cd0:	05c12083          	lw	ra,92(sp)
30008cd4:	05812403          	lw	s0,88(sp)
30008cd8:	05412483          	lw	s1,84(sp)
30008cdc:	05012903          	lw	s2,80(sp)
30008ce0:	04c12983          	lw	s3,76(sp)
30008ce4:	04812a03          	lw	s4,72(sp)
30008ce8:	04412a83          	lw	s5,68(sp)
30008cec:	04012b03          	lw	s6,64(sp)
30008cf0:	03c12b83          	lw	s7,60(sp)
30008cf4:	03812c03          	lw	s8,56(sp)
30008cf8:	03412c83          	lw	s9,52(sp)
30008cfc:	03012d03          	lw	s10,48(sp)
30008d00:	02c12d83          	lw	s11,44(sp)
30008d04:	06010113          	addi	sp,sp,96
30008d08:	00008067          	ret
30008d0c:	00b00513          	li	a0,11
30008d10:	00008067          	ret
30008d14:	00c00513          	li	a0,12
30008d18:	fb9ff06f          	j	30008cd0 <f_mkfs+0x5a8>
30008d1c:	1ff00713          	li	a4,511
30008d20:	0094da93          	srli	s5,s1,0x9
30008d24:	b49778e3          	bgeu	a4,s1,30008874 <f_mkfs+0x14c>
30008d28:	00010737          	lui	a4,0x10
30008d2c:	1ff70713          	addi	a4,a4,511 # 101ff <stackPointer+0xa77f>
30008d30:	0c977463          	bgeu	a4,s1,30008df8 <f_mkfs+0x6d0>
30008d34:	0077d913          	srli	s2,a5,0x7
30008d38:	08000a93          	li	s5,128
30008d3c:	b41ff06f          	j	3000887c <f_mkfs+0x154>
30008d40:	00600713          	li	a4,6
30008d44:	b11ff06f          	j	30008854 <f_mkfs+0x12c>
30008d48:	00010737          	lui	a4,0x10
30008d4c:	ff570713          	addi	a4,a4,-11 # fff5 <stackPointer+0xa575>
30008d50:	01276a63          	bltu	a4,s2,30008d64 <f_mkfs+0x63c>
30008d54:	00290913          	addi	s2,s2,2
30008d58:	00191913          	slli	s2,s2,0x1
30008d5c:	00200b13          	li	s6,2
30008d60:	b41ff06f          	j	300088a0 <f_mkfs+0x178>
30008d64:	00291913          	slli	s2,s2,0x2
30008d68:	20790913          	addi	s2,s2,519
30008d6c:	00995913          	srli	s2,s2,0x9
30008d70:	00090993          	mv	s3,s2
30008d74:	00300b13          	li	s6,3
30008d78:	00000c13          	li	s8,0
30008d7c:	02000d93          	li	s11,32
30008d80:	b35ff06f          	j	300088b4 <f_mkfs+0x18c>
30008d84:	00ed8db3          	add	s11,s11,a4
30008d88:	41378a33          	sub	s4,a5,s3
30008d8c:	41ba0a33          	sub	s4,s4,s11
30008d90:	035a5a33          	divu	s4,s4,s5
30008d94:	000106b7          	lui	a3,0x10
30008d98:	ff568693          	addi	a3,a3,-11 # fff5 <stackPointer+0xa575>
30008d9c:	00e484b3          	add	s1,s1,a4
30008da0:	b946eae3          	bltu	a3,s4,30008934 <f_mkfs+0x20c>
30008da4:	00e00513          	li	a0,14
30008da8:	f29ff06f          	j	30008cd0 <f_mkfs+0x5a8>
30008dac:	0f000c93          	li	s9,240
30008db0:	c75ff06f          	j	30008a24 <f_mkfs+0x2fc>
30008db4:	00048c93          	mv	s9,s1
30008db8:	00300793          	li	a5,3
30008dbc:	00fb0463          	beq	s6,a5,30008dc4 <f_mkfs+0x69c>
30008dc0:	000c0a93          	mv	s5,s8
30008dc4:	019a8ab3          	add	s5,s5,s9
30008dc8:	0080006f          	j	30008dd0 <f_mkfs+0x6a8>
30008dcc:	2d9a8663          	beq	s5,s9,30009098 <f_mkfs+0x970>
30008dd0:	000c8613          	mv	a2,s9
30008dd4:	00100693          	li	a3,1
30008dd8:	00098593          	mv	a1,s3
30008ddc:	00000513          	li	a0,0
30008de0:	001c8c93          	addi	s9,s9,1
30008de4:	b24f90ef          	jal	ra,30002108 <disk_write>
30008de8:	fe0502e3          	beqz	a0,30008dcc <f_mkfs+0x6a4>
30008dec:	00100513          	li	a0,1
30008df0:	ee1ff06f          	j	30008cd0 <f_mkfs+0x5a8>
30008df4:	04000a93          	li	s5,64
30008df8:	0357d933          	divu	s2,a5,s5
30008dfc:	a81ff06f          	j	3000887c <f_mkfs+0x154>
30008e00:	0107d613          	srli	a2,a5,0x10
30008e04:	0187d793          	srli	a5,a5,0x18
30008e08:	04d40823          	sb	a3,80(s0)
30008e0c:	04e408a3          	sb	a4,81(s0)
30008e10:	04c40923          	sb	a2,82(s0)
30008e14:	04f409a3          	sb	a5,83(s0)
30008e18:	ce1ff06f          	j	30008af8 <f_mkfs+0x3d0>
30008e1c:	3000e7b7          	lui	a5,0x3000e
30008e20:	04d40aa3          	sb	a3,85(s0)
30008e24:	00200693          	li	a3,2
30008e28:	ea478713          	addi	a4,a5,-348 # 3000dea4 <__clzsi2+0x120>
30008e2c:	04d40e23          	sb	a3,92(s0)
30008e30:	3000e7b7          	lui	a5,0x3000e
30008e34:	00100693          	li	a3,1
30008e38:	07740593          	addi	a1,s0,119
30008e3c:	07b40613          	addi	a2,s0,123
30008e40:	01051e13          	slli	t3,a0,0x10
30008e44:	ea878793          	addi	a5,a5,-344 # 3000dea8 <__clzsi2+0x124>
30008e48:	06d40023          	sb	a3,96(s0)
30008e4c:	00600693          	li	a3,6
30008e50:	010e5e13          	srli	t3,t3,0x10
30008e54:	00f5b7b3          	sltu	a5,a1,a5
30008e58:	00c73633          	sltu	a2,a4,a2
30008e5c:	06d40123          	sb	a3,98(s0)
30008e60:	f8000693          	li	a3,-128
30008e64:	008e5e13          	srli	t3,t3,0x8
30008e68:	01055f13          	srli	t5,a0,0x10
30008e6c:	01855e93          	srli	t4,a0,0x18
30008e70:	01095313          	srli	t1,s2,0x10
30008e74:	01895893          	srli	a7,s2,0x18
30008e78:	0017c793          	xori	a5,a5,1
30008e7c:	00164613          	xori	a2,a2,1
30008e80:	06d40823          	sb	a3,112(s0)
30008e84:	02900693          	li	a3,41
30008e88:	06a409a3          	sb	a0,115(s0)
30008e8c:	07c40a23          	sb	t3,116(s0)
30008e90:	07e40aa3          	sb	t5,117(s0)
30008e94:	07d40b23          	sb	t4,118(s0)
30008e98:	05040a23          	sb	a6,84(s0)
30008e9c:	04640b23          	sb	t1,86(s0)
30008ea0:	05140ba3          	sb	a7,87(s0)
30008ea4:	04040ea3          	sb	zero,93(s0)
30008ea8:	04040f23          	sb	zero,94(s0)
30008eac:	04040fa3          	sb	zero,95(s0)
30008eb0:	060400a3          	sb	zero,97(s0)
30008eb4:	060401a3          	sb	zero,99(s0)
30008eb8:	06d40923          	sb	a3,114(s0)
30008ebc:	00c7e7b3          	or	a5,a5,a2
30008ec0:	1a078a63          	beqz	a5,30009074 <f_mkfs+0x94c>
30008ec4:	0035f793          	andi	a5,a1,3
30008ec8:	1a079663          	bnez	a5,30009074 <f_mkfs+0x94c>
30008ecc:	4e2057b7          	lui	a5,0x4e205
30008ed0:	f4e78793          	addi	a5,a5,-178 # 4e204f4e <__bss_end__+0x1e104f4e>
30008ed4:	06f42ba3          	sw	a5,119(s0)
30008ed8:	204557b7          	lui	a5,0x20455
30008edc:	d4178793          	addi	a5,a5,-703 # 20454d41 <stackPointer+0x2044f2c1>
30008ee0:	06f42da3          	sw	a5,123(s0)
30008ee4:	462027b7          	lui	a5,0x46202
30008ee8:	02078793          	addi	a5,a5,32 # 46202020 <__bss_end__+0x16102020>
30008eec:	06f42fa3          	sw	a5,127(s0)
30008ef0:	323357b7          	lui	a5,0x32335
30008ef4:	44178793          	addi	a5,a5,1089 # 32335441 <__bss_end__+0x2235441>
30008ef8:	08f421a3          	sw	a5,131(s0)
30008efc:	000027b7          	lui	a5,0x2
30008f00:	02078793          	addi	a5,a5,32 # 2020 <stackPointer-0x3a60>
30008f04:	08f413a3          	sh	a5,135(s0)
30008f08:	02000793          	li	a5,32
30008f0c:	08f404a3          	sb	a5,137(s0)
30008f10:	05500793          	li	a5,85
30008f14:	22f40723          	sb	a5,558(s0)
30008f18:	faa00793          	li	a5,-86
30008f1c:	22f407a3          	sb	a5,559(s0)
30008f20:	00100693          	li	a3,1
30008f24:	000b8613          	mv	a2,s7
30008f28:	00098593          	mv	a1,s3
30008f2c:	00000513          	li	a0,0
30008f30:	9d8f90ef          	jal	ra,30002108 <disk_write>
30008f34:	d8051ce3          	bnez	a0,30008ccc <f_mkfs+0x5a4>
30008f38:	00100693          	li	a3,1
30008f3c:	006b8613          	addi	a2,s7,6
30008f40:	00098593          	mv	a1,s3
30008f44:	9c4f90ef          	jal	ra,30002108 <disk_write>
30008f48:	20000613          	li	a2,512
30008f4c:	00000593          	li	a1,0
30008f50:	00098513          	mv	a0,s3
30008f54:	0dd030ef          	jal	ra,3000c830 <memset>
30008f58:	fff00793          	li	a5,-1
30008f5c:	f00cec93          	ori	s9,s9,-256
30008f60:	02f408a3          	sb	a5,49(s0)
30008f64:	02f40923          	sb	a5,50(s0)
30008f68:	02f409a3          	sb	a5,51(s0)
30008f6c:	02f40a23          	sb	a5,52(s0)
30008f70:	02f40aa3          	sb	a5,53(s0)
30008f74:	02f40b23          	sb	a5,54(s0)
30008f78:	02f40ba3          	sb	a5,55(s0)
30008f7c:	02f40c23          	sb	a5,56(s0)
30008f80:	02f40ca3          	sb	a5,57(s0)
30008f84:	02f40d23          	sb	a5,58(s0)
30008f88:	00f00793          	li	a5,15
30008f8c:	01912c23          	sw	s9,24(sp)
30008f90:	03940823          	sb	s9,48(s0)
30008f94:	02f40da3          	sb	a5,59(s0)
30008f98:	cc9ff06f          	j	30008c60 <f_mkfs+0x538>
30008f9c:	0ff00693          	li	a3,255
30008fa0:	0ff00713          	li	a4,255
30008fa4:	9f5ff06f          	j	30008998 <f_mkfs+0x270>
30008fa8:	010007b7          	lui	a5,0x1000
30008fac:	f0078793          	addi	a5,a5,-256 # ffff00 <stackPointer+0xffa480>
30008fb0:	c91ff06f          	j	30008c40 <f_mkfs+0x518>
30008fb4:	00c00713          	li	a4,12
30008fb8:	a09ff06f          	j	300089c0 <f_mkfs+0x298>
30008fbc:	feb00713          	li	a4,-21
30008fc0:	02e40823          	sb	a4,48(s0)
30008fc4:	ffe00713          	li	a4,-2
30008fc8:	05300793          	li	a5,83
30008fcc:	02e408a3          	sb	a4,49(s0)
30008fd0:	f9000713          	li	a4,-112
30008fd4:	02e40923          	sb	a4,50(s0)
30008fd8:	02f40a23          	sb	a5,52(s0)
30008fdc:	04d00713          	li	a4,77
30008fe0:	02f40ba3          	sb	a5,55(s0)
30008fe4:	03500793          	li	a5,53
30008fe8:	02e409a3          	sb	a4,51(s0)
30008fec:	02f40c23          	sb	a5,56(s0)
30008ff0:	04400713          	li	a4,68
30008ff4:	02e00793          	li	a5,46
30008ff8:	02e40aa3          	sb	a4,53(s0)
30008ffc:	02f40ca3          	sb	a5,57(s0)
30009000:	04f00713          	li	a4,79
30009004:	03000793          	li	a5,48
30009008:	02e40b23          	sb	a4,54(s0)
3000900c:	02f40d23          	sb	a5,58(s0)
30009010:	a85ff06f          	j	30008a94 <f_mkfs+0x36c>
30009014:	00100713          	li	a4,1
30009018:	83dff06f          	j	30008854 <f_mkfs+0x12c>
3000901c:	00200713          	li	a4,2
30009020:	835ff06f          	j	30008854 <f_mkfs+0x12c>
30009024:	00060693          	mv	a3,a2
30009028:	3000e637          	lui	a2,0x3000e
3000902c:	00070793          	mv	a5,a4
30009030:	ecb60613          	addi	a2,a2,-309 # 3000decb <__clzsi2+0x147>
30009034:	00178793          	addi	a5,a5,1
30009038:	fff7c703          	lbu	a4,-1(a5)
3000903c:	00168693          	addi	a3,a3,1
30009040:	fee68fa3          	sb	a4,-1(a3)
30009044:	fec798e3          	bne	a5,a2,30009034 <f_mkfs+0x90c>
30009048:	bb5ff06f          	j	30008bfc <f_mkfs+0x4d4>
3000904c:	00300713          	li	a4,3
30009050:	805ff06f          	j	30008854 <f_mkfs+0x12c>
30009054:	00400713          	li	a4,4
30009058:	ffcff06f          	j	30008854 <f_mkfs+0x12c>
3000905c:	00500713          	li	a4,5
30009060:	ff4ff06f          	j	30008854 <f_mkfs+0x12c>
30009064:	00700713          	li	a4,7
30009068:	fecff06f          	j	30008854 <f_mkfs+0x12c>
3000906c:	00800713          	li	a4,8
30009070:	fe4ff06f          	j	30008854 <f_mkfs+0x12c>
30009074:	3000e6b7          	lui	a3,0x3000e
30009078:	00070793          	mv	a5,a4
3000907c:	eb768693          	addi	a3,a3,-329 # 3000deb7 <__clzsi2+0x133>
30009080:	00178793          	addi	a5,a5,1
30009084:	fff7c703          	lbu	a4,-1(a5)
30009088:	00158593          	addi	a1,a1,1
3000908c:	fee58fa3          	sb	a4,-1(a1)
30009090:	fed798e3          	bne	a5,a3,30009080 <f_mkfs+0x958>
30009094:	e7dff06f          	j	30008f10 <f_mkfs+0x7e8>
30009098:	00300793          	li	a5,3
3000909c:	00fb0e63          	beq	s6,a5,300090b8 <f_mkfs+0x990>
300090a0:	00000613          	li	a2,0
300090a4:	00000593          	li	a1,0
300090a8:	00000513          	li	a0,0
300090ac:	b24f90ef          	jal	ra,300023d0 <disk_ioctl>
300090b0:	00a03533          	snez	a0,a0
300090b4:	c1dff06f          	j	30008cd0 <f_mkfs+0x5a8>
300090b8:	fffa0a13          	addi	s4,s4,-1
300090bc:	010a1793          	slli	a5,s4,0x10
300090c0:	0107d793          	srli	a5,a5,0x10
300090c4:	0087d793          	srli	a5,a5,0x8
300090c8:	20f40ca3          	sb	a5,537(s0)
300090cc:	00200793          	li	a5,2
300090d0:	20f40e23          	sb	a5,540(s0)
300090d4:	05500793          	li	a5,85
300090d8:	05200313          	li	t1,82
300090dc:	06100713          	li	a4,97
300090e0:	04100813          	li	a6,65
300090e4:	07200893          	li	a7,114
300090e8:	010a5e93          	srli	t4,s4,0x10
300090ec:	018a5e13          	srli	t3,s4,0x18
300090f0:	22f40723          	sb	a5,558(s0)
300090f4:	faa00793          	li	a5,-86
300090f8:	001b8613          	addi	a2,s7,1
300090fc:	00098593          	mv	a1,s3
30009100:	00100693          	li	a3,1
30009104:	02640823          	sb	t1,48(s0)
30009108:	026408a3          	sb	t1,49(s0)
3000910c:	02e40923          	sb	a4,50(s0)
30009110:	030409a3          	sb	a6,51(s0)
30009114:	21140a23          	sb	a7,532(s0)
30009118:	21140aa3          	sb	a7,533(s0)
3000911c:	21040b23          	sb	a6,534(s0)
30009120:	20e40ba3          	sb	a4,535(s0)
30009124:	21440c23          	sb	s4,536(s0)
30009128:	21d40d23          	sb	t4,538(s0)
3000912c:	21c40da3          	sb	t3,539(s0)
30009130:	20040ea3          	sb	zero,541(s0)
30009134:	20040f23          	sb	zero,542(s0)
30009138:	20040fa3          	sb	zero,543(s0)
3000913c:	22f407a3          	sb	a5,559(s0)
30009140:	fc9f80ef          	jal	ra,30002108 <disk_write>
30009144:	00100693          	li	a3,1
30009148:	007b8613          	addi	a2,s7,7
3000914c:	00098593          	mv	a1,s3
30009150:	00000513          	li	a0,0
30009154:	fb5f80ef          	jal	ra,30002108 <disk_write>
30009158:	f49ff06f          	j	300090a0 <f_mkfs+0x978>

3000915c <osAllocInit>:
3000915c:	3000f737          	lui	a4,0x3000f
30009160:	d7870793          	addi	a5,a4,-648 # 3000ed78 <osAllocMemoryNodes>
30009164:	d6072c23          	sw	zero,-648(a4)
30009168:	0007a223          	sw	zero,4(a5)
3000916c:	0007a423          	sw	zero,8(a5)
30009170:	0007a623          	sw	zero,12(a5)
30009174:	0007a823          	sw	zero,16(a5)
30009178:	0007aa23          	sw	zero,20(a5)
3000917c:	0007ac23          	sw	zero,24(a5)
30009180:	0007ae23          	sw	zero,28(a5)
30009184:	0207a023          	sw	zero,32(a5)
30009188:	0207a223          	sw	zero,36(a5)
3000918c:	0207a423          	sw	zero,40(a5)
30009190:	0207a623          	sw	zero,44(a5)
30009194:	00000513          	li	a0,0
30009198:	00008067          	ret

3000919c <osAllocAddNode>:
3000919c:	00100793          	li	a5,1
300091a0:	0aa7ee63          	bltu	a5,a0,3000925c <osAllocAddNode+0xc0>
300091a4:	00151813          	slli	a6,a0,0x1
300091a8:	00a808b3          	add	a7,a6,a0
300091ac:	3000f6b7          	lui	a3,0x3000f
300091b0:	00865793          	srli	a5,a2,0x8
300091b4:	d7868693          	addi	a3,a3,-648 # 3000ed78 <osAllocMemoryNodes>
300091b8:	00389893          	slli	a7,a7,0x3
300091bc:	011688b3          	add	a7,a3,a7
300091c0:	00f58333          	add	t1,a1,a5
300091c4:	00f8a423          	sw	a5,8(a7)
300091c8:	00b8a223          	sw	a1,4(a7)
300091cc:	0ff37793          	andi	a5,t1,255
300091d0:	41f35713          	srai	a4,t1,0x1f
300091d4:	06079a63          	bnez	a5,30009248 <osAllocAddNode+0xac>
300091d8:	41f75793          	srai	a5,a4,0x1f
300091dc:	0ff7f793          	andi	a5,a5,255
300091e0:	006787b3          	add	a5,a5,t1
300091e4:	f007f793          	andi	a5,a5,-256
300091e8:	00c585b3          	add	a1,a1,a2
300091ec:	40f585b3          	sub	a1,a1,a5
300091f0:	41f5d713          	srai	a4,a1,0x1f
300091f4:	0ff77713          	andi	a4,a4,255
300091f8:	00b70733          	add	a4,a4,a1
300091fc:	40875713          	srai	a4,a4,0x8
30009200:	00a80833          	add	a6,a6,a0
30009204:	00381813          	slli	a6,a6,0x3
30009208:	00871613          	slli	a2,a4,0x8
3000920c:	010686b3          	add	a3,a3,a6
30009210:	00c78633          	add	a2,a5,a2
30009214:	00f6a623          	sw	a5,12(a3)
30009218:	00e6aa23          	sw	a4,20(a3)
3000921c:	00c6a823          	sw	a2,16(a3)
30009220:	00000793          	li	a5,0
30009224:	00070e63          	beqz	a4,30009240 <osAllocAddNode+0xa4>
30009228:	0046a703          	lw	a4,4(a3)
3000922c:	00f70733          	add	a4,a4,a5
30009230:	00070023          	sb	zero,0(a4)
30009234:	0146a703          	lw	a4,20(a3)
30009238:	00178793          	addi	a5,a5,1
3000923c:	fee7e6e3          	bltu	a5,a4,30009228 <osAllocAddNode+0x8c>
30009240:	00000513          	li	a0,0
30009244:	00008067          	ret
30009248:	10030893          	addi	a7,t1,256
3000924c:	0068b7b3          	sltu	a5,a7,t1
30009250:	00e78733          	add	a4,a5,a4
30009254:	00088313          	mv	t1,a7
30009258:	f81ff06f          	j	300091d8 <osAllocAddNode+0x3c>
3000925c:	00100513          	li	a0,1
30009260:	00008067          	ret

30009264 <osAlloc>:
30009264:	0025f593          	andi	a1,a1,2
30009268:	0c059063          	bnez	a1,30009328 <osAlloc+0xc4>
3000926c:	3000feb7          	lui	t4,0x3000f
30009270:	d78e8e93          	addi	t4,t4,-648 # 3000ed78 <osAllocMemoryNodes>
30009274:	0ff57793          	andi	a5,a0,255
30009278:	00078463          	beqz	a5,30009280 <osAlloc+0x1c>
3000927c:	10050513          	addi	a0,a0,256
30009280:	014ea803          	lw	a6,20(t4)
30009284:	00855513          	srli	a0,a0,0x8
30009288:	04080663          	beqz	a6,300092d4 <osAlloc+0x70>
3000928c:	004ea583          	lw	a1,4(t4)
30009290:	00000713          	li	a4,0
30009294:	fff00893          	li	a7,-1
30009298:	00e586b3          	add	a3,a1,a4
3000929c:	fff00313          	li	t1,-1
300092a0:	0006c603          	lbu	a2,0(a3)
300092a4:	00170793          	addi	a5,a4,1
300092a8:	06688063          	beq	a7,t1,30009308 <osAlloc+0xa4>
300092ac:	02060863          	beqz	a2,300092dc <osAlloc+0x78>
300092b0:	0307f263          	bgeu	a5,a6,300092d4 <osAlloc+0x70>
300092b4:	00f58633          	add	a2,a1,a5
300092b8:	00064883          	lbu	a7,0(a2)
300092bc:	00060693          	mv	a3,a2
300092c0:	00178713          	addi	a4,a5,1
300092c4:	04088663          	beqz	a7,30009310 <osAlloc+0xac>
300092c8:	00070793          	mv	a5,a4
300092cc:	00160613          	addi	a2,a2,1
300092d0:	ff0764e3          	bltu	a4,a6,300092b8 <osAlloc+0x54>
300092d4:	00000513          	li	a0,0
300092d8:	00008067          	ret
300092dc:	00078e13          	mv	t3,a5
300092e0:	00088613          	mv	a2,a7
300092e4:	00070793          	mv	a5,a4
300092e8:	000e0713          	mv	a4,t3
300092ec:	40c70e33          	sub	t3,a4,a2
300092f0:	04ae7263          	bgeu	t3,a0,30009334 <osAlloc+0xd0>
300092f4:	ff0770e3          	bgeu	a4,a6,300092d4 <osAlloc+0x70>
300092f8:	00e586b3          	add	a3,a1,a4
300092fc:	0006c603          	lbu	a2,0(a3)
30009300:	00170793          	addi	a5,a4,1
30009304:	fa6894e3          	bne	a7,t1,300092ac <osAlloc+0x48>
30009308:	00070793          	mv	a5,a4
3000930c:	fa9ff06f          	j	300092b4 <osAlloc+0x50>
30009310:	00078893          	mv	a7,a5
30009314:	00078613          	mv	a2,a5
30009318:	fc679ae3          	bne	a5,t1,300092ec <osAlloc+0x88>
3000931c:	00070793          	mv	a5,a4
30009320:	f907eae3          	bltu	a5,a6,300092b4 <osAlloc+0x50>
30009324:	fb1ff06f          	j	300092d4 <osAlloc+0x70>
30009328:	3000feb7          	lui	t4,0x3000f
3000932c:	d90e8e93          	addi	t4,t4,-624 # 3000ed90 <osAllocMemoryNodes+0x18>
30009330:	f45ff06f          	j	30009274 <osAlloc+0x10>
30009334:	02f67c63          	bgeu	a2,a5,3000936c <osAlloc+0x108>
30009338:	00c585b3          	add	a1,a1,a2
3000933c:	f8100713          	li	a4,-127
30009340:	00e58023          	sb	a4,0(a1)
30009344:	00160613          	addi	a2,a2,1
30009348:	f8100693          	li	a3,-127
3000934c:	00f67c63          	bgeu	a2,a5,30009364 <osAlloc+0x100>
30009350:	004ea703          	lw	a4,4(t4)
30009354:	00c70733          	add	a4,a4,a2
30009358:	00d70023          	sb	a3,0(a4)
3000935c:	00160613          	addi	a2,a2,1
30009360:	fef618e3          	bne	a2,a5,30009350 <osAlloc+0xec>
30009364:	004ea683          	lw	a3,4(t4)
30009368:	00f686b3          	add	a3,a3,a5
3000936c:	f8000793          	li	a5,-128
30009370:	00f68023          	sb	a5,0(a3)
30009374:	00cea503          	lw	a0,12(t4)
30009378:	00889893          	slli	a7,a7,0x8
3000937c:	01150533          	add	a0,a0,a7
30009380:	00008067          	ret

30009384 <osFree>:
30009384:	3000f637          	lui	a2,0x3000f
30009388:	d7860693          	addi	a3,a2,-648 # 3000ed78 <osAllocMemoryNodes>
3000938c:	00c6a703          	lw	a4,12(a3)
30009390:	00050793          	mv	a5,a0
30009394:	00e56663          	bltu	a0,a4,300093a0 <osFree+0x1c>
30009398:	0106a583          	lw	a1,16(a3)
3000939c:	02a5f263          	bgeu	a1,a0,300093c0 <osFree+0x3c>
300093a0:	0246a703          	lw	a4,36(a3)
300093a4:	00100513          	li	a0,1
300093a8:	00e7ea63          	bltu	a5,a4,300093bc <osFree+0x38>
300093ac:	0286a683          	lw	a3,40(a3)
300093b0:	3000f637          	lui	a2,0x3000f
300093b4:	d9060613          	addi	a2,a2,-624 # 3000ed90 <osAllocMemoryNodes+0x18>
300093b8:	00f6f663          	bgeu	a3,a5,300093c4 <osFree+0x40>
300093bc:	00008067          	ret
300093c0:	d7860613          	addi	a2,a2,-648
300093c4:	40e78533          	sub	a0,a5,a4
300093c8:	41f55793          	srai	a5,a0,0x1f
300093cc:	0ff7f793          	andi	a5,a5,255
300093d0:	01462703          	lw	a4,20(a2)
300093d4:	00a787b3          	add	a5,a5,a0
300093d8:	4087d793          	srai	a5,a5,0x8
300093dc:	00100513          	li	a0,1
300093e0:	fce7fee3          	bgeu	a5,a4,300093bc <osFree+0x38>
300093e4:	00462703          	lw	a4,4(a2)
300093e8:	00f70733          	add	a4,a4,a5
300093ec:	00074683          	lbu	a3,0(a4)
300093f0:	02068e63          	beqz	a3,3000942c <osFree+0xa8>
300093f4:	08000593          	li	a1,128
300093f8:	00b69e63          	bne	a3,a1,30009414 <osFree+0x90>
300093fc:	0380006f          	j	30009434 <osFree+0xb0>
30009400:	00462703          	lw	a4,4(a2)
30009404:	00f70733          	add	a4,a4,a5
30009408:	00074683          	lbu	a3,0(a4)
3000940c:	02068063          	beqz	a3,3000942c <osFree+0xa8>
30009410:	02b68263          	beq	a3,a1,30009434 <osFree+0xb0>
30009414:	00070023          	sb	zero,0(a4)
30009418:	01462703          	lw	a4,20(a2)
3000941c:	00178793          	addi	a5,a5,1
30009420:	fee7e0e3          	bltu	a5,a4,30009400 <osFree+0x7c>
30009424:	00000513          	li	a0,0
30009428:	00008067          	ret
3000942c:	00200513          	li	a0,2
30009430:	00008067          	ret
30009434:	00070023          	sb	zero,0(a4)
30009438:	00000513          	li	a0,0
3000943c:	00008067          	ret

30009440 <osAllocGetAllocatedMemSize>:
30009440:	3000f7b7          	lui	a5,0x3000f
30009444:	d7878693          	addi	a3,a5,-648 # 3000ed78 <osAllocMemoryNodes>
30009448:	00c6a703          	lw	a4,12(a3)
3000944c:	00e56663          	bltu	a0,a4,30009458 <osAllocGetAllocatedMemSize+0x18>
30009450:	0106a603          	lw	a2,16(a3)
30009454:	02a67063          	bgeu	a2,a0,30009474 <osAllocGetAllocatedMemSize+0x34>
30009458:	0246a703          	lw	a4,36(a3)
3000945c:	00100793          	li	a5,1
30009460:	00e56663          	bltu	a0,a4,3000946c <osAllocGetAllocatedMemSize+0x2c>
30009464:	0286a683          	lw	a3,40(a3)
30009468:	06a6f063          	bgeu	a3,a0,300094c8 <osAllocGetAllocatedMemSize+0x88>
3000946c:	00078513          	mv	a0,a5
30009470:	00008067          	ret
30009474:	d7878613          	addi	a2,a5,-648
30009478:	40e50533          	sub	a0,a0,a4
3000947c:	41f55793          	srai	a5,a0,0x1f
30009480:	0ff7f793          	andi	a5,a5,255
30009484:	01462683          	lw	a3,20(a2)
30009488:	00a78533          	add	a0,a5,a0
3000948c:	40855513          	srai	a0,a0,0x8
30009490:	00100793          	li	a5,1
30009494:	fcd57ce3          	bgeu	a0,a3,3000946c <osAllocGetAllocatedMemSize+0x2c>
30009498:	00462603          	lw	a2,4(a2)
3000949c:	00050793          	mv	a5,a0
300094a0:	08000593          	li	a1,128
300094a4:	00f60733          	add	a4,a2,a5
300094a8:	00074703          	lbu	a4,0(a4)
300094ac:	00070863          	beqz	a4,300094bc <osAllocGetAllocatedMemSize+0x7c>
300094b0:	02b70263          	beq	a4,a1,300094d4 <osAllocGetAllocatedMemSize+0x94>
300094b4:	00178793          	addi	a5,a5,1
300094b8:	fed7e6e3          	bltu	a5,a3,300094a4 <osAllocGetAllocatedMemSize+0x64>
300094bc:	00000793          	li	a5,0
300094c0:	00078513          	mv	a0,a5
300094c4:	00008067          	ret
300094c8:	3000f7b7          	lui	a5,0x3000f
300094cc:	d9078613          	addi	a2,a5,-624 # 3000ed90 <osAllocMemoryNodes+0x18>
300094d0:	fa9ff06f          	j	30009478 <osAllocGetAllocatedMemSize+0x38>
300094d4:	40a787b3          	sub	a5,a5,a0
300094d8:	00178793          	addi	a5,a5,1
300094dc:	00879793          	slli	a5,a5,0x8
300094e0:	00078513          	mv	a0,a5
300094e4:	00008067          	ret

300094e8 <osRealloc>:
300094e8:	ff010113          	addi	sp,sp,-16
300094ec:	00912223          	sw	s1,4(sp)
300094f0:	00058493          	mv	s1,a1
300094f4:	00812423          	sw	s0,8(sp)
300094f8:	00060593          	mv	a1,a2
300094fc:	00050413          	mv	s0,a0
30009500:	00048513          	mv	a0,s1
30009504:	00112623          	sw	ra,12(sp)
30009508:	d5dff0ef          	jal	ra,30009264 <osAlloc>
3000950c:	3000f7b7          	lui	a5,0x3000f
30009510:	d7878693          	addi	a3,a5,-648 # 3000ed78 <osAllocMemoryNodes>
30009514:	00c6a803          	lw	a6,12(a3)
30009518:	01046663          	bltu	s0,a6,30009524 <osRealloc+0x3c>
3000951c:	0106a703          	lw	a4,16(a3)
30009520:	18877e63          	bgeu	a4,s0,300096bc <osRealloc+0x1d4>
30009524:	0246a603          	lw	a2,36(a3)
30009528:	0ec46663          	bltu	s0,a2,30009614 <osRealloc+0x12c>
3000952c:	0286a703          	lw	a4,40(a3)
30009530:	00100793          	li	a5,1
30009534:	1e877463          	bgeu	a4,s0,3000971c <osRealloc+0x234>
30009538:	0c050463          	beqz	a0,30009600 <osRealloc+0x118>
3000953c:	00048593          	mv	a1,s1
30009540:	0c97ee63          	bltu	a5,s1,3000961c <osRealloc+0x134>
30009544:	0a058063          	beqz	a1,300095e4 <osRealloc+0xfc>
30009548:	00440713          	addi	a4,s0,4
3000954c:	00450613          	addi	a2,a0,4
30009550:	00e53733          	sltu	a4,a0,a4
30009554:	00c43633          	sltu	a2,s0,a2
30009558:	008567b3          	or	a5,a0,s0
3000955c:	00174713          	xori	a4,a4,1
30009560:	00164613          	xori	a2,a2,1
30009564:	0037f793          	andi	a5,a5,3
30009568:	00c76733          	or	a4,a4,a2
3000956c:	0017b793          	seqz	a5,a5
30009570:	00e7f7b3          	and	a5,a5,a4
30009574:	10078c63          	beqz	a5,3000968c <osRealloc+0x1a4>
30009578:	fff58793          	addi	a5,a1,-1
3000957c:	0097b793          	sltiu	a5,a5,9
30009580:	10079663          	bnez	a5,3000968c <osRealloc+0x1a4>
30009584:	ffc5f813          	andi	a6,a1,-4
30009588:	00040793          	mv	a5,s0
3000958c:	00050713          	mv	a4,a0
30009590:	00880833          	add	a6,a6,s0
30009594:	0007a603          	lw	a2,0(a5)
30009598:	00470713          	addi	a4,a4,4
3000959c:	00478793          	addi	a5,a5,4
300095a0:	fec72e23          	sw	a2,-4(a4)
300095a4:	ff0798e3          	bne	a5,a6,30009594 <osRealloc+0xac>
300095a8:	ffc5f793          	andi	a5,a1,-4
300095ac:	00f40633          	add	a2,s0,a5
300095b0:	00f50733          	add	a4,a0,a5
300095b4:	02b78663          	beq	a5,a1,300095e0 <osRealloc+0xf8>
300095b8:	00064883          	lbu	a7,0(a2)
300095bc:	00178813          	addi	a6,a5,1
300095c0:	01170023          	sb	a7,0(a4)
300095c4:	00b87e63          	bgeu	a6,a1,300095e0 <osRealloc+0xf8>
300095c8:	00164803          	lbu	a6,1(a2)
300095cc:	00278793          	addi	a5,a5,2
300095d0:	010700a3          	sb	a6,1(a4)
300095d4:	00b7f663          	bgeu	a5,a1,300095e0 <osRealloc+0xf8>
300095d8:	00264783          	lbu	a5,2(a2)
300095dc:	00f70123          	sb	a5,2(a4)
300095e0:	00c6a803          	lw	a6,12(a3)
300095e4:	01046663          	bltu	s0,a6,300095f0 <osRealloc+0x108>
300095e8:	0106a783          	lw	a5,16(a3)
300095ec:	0487f063          	bgeu	a5,s0,3000962c <osRealloc+0x144>
300095f0:	0246a803          	lw	a6,36(a3)
300095f4:	01046663          	bltu	s0,a6,30009600 <osRealloc+0x118>
300095f8:	0286a783          	lw	a5,40(a3)
300095fc:	0287f463          	bgeu	a5,s0,30009624 <osRealloc+0x13c>
30009600:	00c12083          	lw	ra,12(sp)
30009604:	00812403          	lw	s0,8(sp)
30009608:	00412483          	lw	s1,4(sp)
3000960c:	01010113          	addi	sp,sp,16
30009610:	00008067          	ret
30009614:	00100793          	li	a5,1
30009618:	f21ff06f          	j	30009538 <osRealloc+0x50>
3000961c:	00078593          	mv	a1,a5
30009620:	f25ff06f          	j	30009544 <osRealloc+0x5c>
30009624:	3000f6b7          	lui	a3,0x3000f
30009628:	d9068693          	addi	a3,a3,-624 # 3000ed90 <osAllocMemoryNodes+0x18>
3000962c:	41040433          	sub	s0,s0,a6
30009630:	41f45793          	srai	a5,s0,0x1f
30009634:	0ff7f793          	andi	a5,a5,255
30009638:	0146a703          	lw	a4,20(a3)
3000963c:	008787b3          	add	a5,a5,s0
30009640:	4087d793          	srai	a5,a5,0x8
30009644:	fae7fee3          	bgeu	a5,a4,30009600 <osRealloc+0x118>
30009648:	0046a703          	lw	a4,4(a3)
3000964c:	00f70733          	add	a4,a4,a5
30009650:	00074603          	lbu	a2,0(a4)
30009654:	fa0606e3          	beqz	a2,30009600 <osRealloc+0x118>
30009658:	08000593          	li	a1,128
3000965c:	00b61e63          	bne	a2,a1,30009678 <osRealloc+0x190>
30009660:	0540006f          	j	300096b4 <osRealloc+0x1cc>
30009664:	0046a703          	lw	a4,4(a3)
30009668:	00f70733          	add	a4,a4,a5
3000966c:	00074603          	lbu	a2,0(a4)
30009670:	f80608e3          	beqz	a2,30009600 <osRealloc+0x118>
30009674:	04b60063          	beq	a2,a1,300096b4 <osRealloc+0x1cc>
30009678:	00070023          	sb	zero,0(a4)
3000967c:	0146a703          	lw	a4,20(a3)
30009680:	00178793          	addi	a5,a5,1
30009684:	fee7e0e3          	bltu	a5,a4,30009664 <osRealloc+0x17c>
30009688:	f79ff06f          	j	30009600 <osRealloc+0x118>
3000968c:	00b505b3          	add	a1,a0,a1
30009690:	00050793          	mv	a5,a0
30009694:	00040713          	mv	a4,s0
30009698:	00170713          	addi	a4,a4,1
3000969c:	fff74603          	lbu	a2,-1(a4)
300096a0:	00178793          	addi	a5,a5,1
300096a4:	fec78fa3          	sb	a2,-1(a5)
300096a8:	feb798e3          	bne	a5,a1,30009698 <osRealloc+0x1b0>
300096ac:	00c6a803          	lw	a6,12(a3)
300096b0:	f35ff06f          	j	300095e4 <osRealloc+0xfc>
300096b4:	00070023          	sb	zero,0(a4)
300096b8:	f49ff06f          	j	30009600 <osRealloc+0x118>
300096bc:	00080613          	mv	a2,a6
300096c0:	d7878713          	addi	a4,a5,-648
300096c4:	40c40633          	sub	a2,s0,a2
300096c8:	41f65793          	srai	a5,a2,0x1f
300096cc:	0ff7f793          	andi	a5,a5,255
300096d0:	01472583          	lw	a1,20(a4)
300096d4:	00c787b3          	add	a5,a5,a2
300096d8:	4087d613          	srai	a2,a5,0x8
300096dc:	f2b67ce3          	bgeu	a2,a1,30009614 <osRealloc+0x12c>
300096e0:	00472883          	lw	a7,4(a4)
300096e4:	00060793          	mv	a5,a2
300096e8:	08000313          	li	t1,128
300096ec:	00f88733          	add	a4,a7,a5
300096f0:	00074703          	lbu	a4,0(a4)
300096f4:	00070863          	beqz	a4,30009704 <osRealloc+0x21c>
300096f8:	02670863          	beq	a4,t1,30009728 <osRealloc+0x240>
300096fc:	00178793          	addi	a5,a5,1
30009700:	feb7e6e3          	bltu	a5,a1,300096ec <osRealloc+0x204>
30009704:	00000513          	li	a0,0
30009708:	00c12083          	lw	ra,12(sp)
3000970c:	00812403          	lw	s0,8(sp)
30009710:	00412483          	lw	s1,4(sp)
30009714:	01010113          	addi	sp,sp,16
30009718:	00008067          	ret
3000971c:	3000f7b7          	lui	a5,0x3000f
30009720:	d9078713          	addi	a4,a5,-624 # 3000ed90 <osAllocMemoryNodes+0x18>
30009724:	fa1ff06f          	j	300096c4 <osRealloc+0x1dc>
30009728:	40c787b3          	sub	a5,a5,a2
3000972c:	00178793          	addi	a5,a5,1
30009730:	00879793          	slli	a5,a5,0x8
30009734:	e00792e3          	bnez	a5,30009538 <osRealloc+0x50>
30009738:	00000513          	li	a0,0
3000973c:	fcdff06f          	j	30009708 <osRealloc+0x220>

30009740 <osFInit>:
30009740:	ff010113          	addi	sp,sp,-16
30009744:	00000513          	li	a0,0
30009748:	00112623          	sw	ra,12(sp)
3000974c:	00812423          	sw	s0,8(sp)
30009750:	da0f80ef          	jal	ra,30001cf0 <disk_initialize>
30009754:	04050863          	beqz	a0,300097a4 <osFInit+0x64>
30009758:	3e800513          	li	a0,1000
3000975c:	cb0f70ef          	jal	ra,30000c0c <delayMs>
30009760:	00000513          	li	a0,0
30009764:	d8cf80ef          	jal	ra,30001cf0 <disk_initialize>
30009768:	00050793          	mv	a5,a0
3000976c:	00a00413          	li	s0,10
30009770:	3e800513          	li	a0,1000
30009774:	fff40413          	addi	s0,s0,-1
30009778:	02078663          	beqz	a5,300097a4 <osFInit+0x64>
3000977c:	c90f70ef          	jal	ra,30000c0c <delayMs>
30009780:	00000513          	li	a0,0
30009784:	d6cf80ef          	jal	ra,30001cf0 <disk_initialize>
30009788:	00050793          	mv	a5,a0
3000978c:	fe0412e3          	bnez	s0,30009770 <osFInit+0x30>
30009790:	00c12083          	lw	ra,12(sp)
30009794:	00812403          	lw	s0,8(sp)
30009798:	00100513          	li	a0,1
3000979c:	01010113          	addi	sp,sp,16
300097a0:	00008067          	ret
300097a4:	3000f5b7          	lui	a1,0x3000f
300097a8:	dc858593          	addi	a1,a1,-568 # 3000edc8 <fatfs>
300097ac:	00000513          	li	a0,0
300097b0:	bfdfc0ef          	jal	ra,300063ac <f_mount>
300097b4:	00c12083          	lw	ra,12(sp)
300097b8:	00812403          	lw	s0,8(sp)
300097bc:	00000513          	li	a0,0
300097c0:	01010113          	addi	sp,sp,16
300097c4:	00008067          	ret

300097c8 <osFOpen>:
300097c8:	00100793          	li	a5,1
300097cc:	04050663          	beqz	a0,30009818 <osFOpen+0x50>
300097d0:	04f60063          	beq	a2,a5,30009810 <osFOpen+0x48>
300097d4:	00200713          	li	a4,2
300097d8:	00200793          	li	a5,2
300097dc:	02e61e63          	bne	a2,a4,30009818 <osFOpen+0x50>
300097e0:	00a00613          	li	a2,10
300097e4:	ff010113          	addi	sp,sp,-16
300097e8:	00112623          	sw	ra,12(sp)
300097ec:	bf1fc0ef          	jal	ra,300063dc <f_open>
300097f0:	00153793          	seqz	a5,a0
300097f4:	00c12083          	lw	ra,12(sp)
300097f8:	40f007b3          	neg	a5,a5
300097fc:	ffd7f793          	andi	a5,a5,-3
30009800:	00378793          	addi	a5,a5,3
30009804:	00078513          	mv	a0,a5
30009808:	01010113          	addi	sp,sp,16
3000980c:	00008067          	ret
30009810:	00100613          	li	a2,1
30009814:	fd1ff06f          	j	300097e4 <osFOpen+0x1c>
30009818:	00078513          	mv	a0,a5
3000981c:	00008067          	ret

30009820 <osFClose>:
30009820:	02050063          	beqz	a0,30009840 <osFClose+0x20>
30009824:	ff010113          	addi	sp,sp,-16
30009828:	00112623          	sw	ra,12(sp)
3000982c:	889fd0ef          	jal	ra,300070b4 <f_close>
30009830:	00c12083          	lw	ra,12(sp)
30009834:	00000513          	li	a0,0
30009838:	01010113          	addi	sp,sp,16
3000983c:	00008067          	ret
30009840:	00100513          	li	a0,1
30009844:	00008067          	ret

30009848 <osFWrite>:
30009848:	02050a63          	beqz	a0,3000987c <osFWrite+0x34>
3000984c:	00100793          	li	a5,1
30009850:	02058863          	beqz	a1,30009880 <osFWrite+0x38>
30009854:	fe010113          	addi	sp,sp,-32
30009858:	00c10693          	addi	a3,sp,12
3000985c:	00112e23          	sw	ra,28(sp)
30009860:	9d8fd0ef          	jal	ra,30006a38 <f_write>
30009864:	01c12083          	lw	ra,28(sp)
30009868:	00a037b3          	snez	a5,a0
3000986c:	00179793          	slli	a5,a5,0x1
30009870:	00078513          	mv	a0,a5
30009874:	02010113          	addi	sp,sp,32
30009878:	00008067          	ret
3000987c:	00100793          	li	a5,1
30009880:	00078513          	mv	a0,a5
30009884:	00008067          	ret

30009888 <osFRead>:
30009888:	fe010113          	addi	sp,sp,-32
3000988c:	00112e23          	sw	ra,28(sp)
30009890:	00812c23          	sw	s0,24(sp)
30009894:	00912a23          	sw	s1,20(sp)
30009898:	04050663          	beqz	a0,300098e4 <osFRead+0x5c>
3000989c:	00100413          	li	s0,1
300098a0:	02058663          	beqz	a1,300098cc <osFRead+0x44>
300098a4:	00068493          	mv	s1,a3
300098a8:	00c10693          	addi	a3,sp,12
300098ac:	00060413          	mv	s0,a2
300098b0:	db5fc0ef          	jal	ra,30006664 <f_read>
300098b4:	00c12783          	lw	a5,12(sp)
300098b8:	00048463          	beqz	s1,300098c0 <osFRead+0x38>
300098bc:	00f4a023          	sw	a5,0(s1)
300098c0:	40f407b3          	sub	a5,s0,a5
300098c4:	00f037b3          	snez	a5,a5
300098c8:	00179413          	slli	s0,a5,0x1
300098cc:	00040513          	mv	a0,s0
300098d0:	01c12083          	lw	ra,28(sp)
300098d4:	01812403          	lw	s0,24(sp)
300098d8:	01412483          	lw	s1,20(sp)
300098dc:	02010113          	addi	sp,sp,32
300098e0:	00008067          	ret
300098e4:	00100413          	li	s0,1
300098e8:	00040513          	mv	a0,s0
300098ec:	01c12083          	lw	ra,28(sp)
300098f0:	01812403          	lw	s0,24(sp)
300098f4:	01412483          	lw	s1,20(sp)
300098f8:	02010113          	addi	sp,sp,32
300098fc:	00008067          	ret

30009900 <osFGetS>:
30009900:	00058023          	sb	zero,0(a1)
30009904:	0e050e63          	beqz	a0,30009a00 <osFGetS+0x100>
30009908:	fd010113          	addi	sp,sp,-48
3000990c:	02912223          	sw	s1,36(sp)
30009910:	01412c23          	sw	s4,24(sp)
30009914:	02112623          	sw	ra,44(sp)
30009918:	02812423          	sw	s0,40(sp)
3000991c:	03212023          	sw	s2,32(sp)
30009920:	01312e23          	sw	s3,28(sp)
30009924:	01512a23          	sw	s5,20(sp)
30009928:	01612823          	sw	s6,16(sp)
3000992c:	fff60a13          	addi	s4,a2,-1
30009930:	00050493          	mv	s1,a0
30009934:	0a0a0c63          	beqz	s4,300099ec <osFGetS+0xec>
30009938:	00058413          	mv	s0,a1
3000993c:	01458a33          	add	s4,a1,s4
30009940:	00c10993          	addi	s3,sp,12
30009944:	00810913          	addi	s2,sp,8
30009948:	00a00a93          	li	s5,10
3000994c:	00d00b13          	li	s6,13
30009950:	00098693          	mv	a3,s3
30009954:	00100613          	li	a2,1
30009958:	00090593          	mv	a1,s2
3000995c:	00048513          	mv	a0,s1
30009960:	d05fc0ef          	jal	ra,30006664 <f_read>
30009964:	00c12703          	lw	a4,12(sp)
30009968:	00100793          	li	a5,1
3000996c:	08f71663          	bne	a4,a5,300099f8 <osFGetS+0xf8>
30009970:	00814783          	lbu	a5,8(sp)
30009974:	05578663          	beq	a5,s5,300099c0 <osFGetS+0xc0>
30009978:	05678463          	beq	a5,s6,300099c0 <osFGetS+0xc0>
3000997c:	00f40023          	sb	a5,0(s0)
30009980:	000400a3          	sb	zero,1(s0)
30009984:	00140413          	addi	s0,s0,1
30009988:	fd4414e3          	bne	s0,s4,30009950 <osFGetS+0x50>
3000998c:	00a00413          	li	s0,10
30009990:	00d00a13          	li	s4,13
30009994:	00098693          	mv	a3,s3
30009998:	00100613          	li	a2,1
3000999c:	00090593          	mv	a1,s2
300099a0:	00048513          	mv	a0,s1
300099a4:	cc1fc0ef          	jal	ra,30006664 <f_read>
300099a8:	00c12703          	lw	a4,12(sp)
300099ac:	00100793          	li	a5,1
300099b0:	04f71463          	bne	a4,a5,300099f8 <osFGetS+0xf8>
300099b4:	00814783          	lbu	a5,8(sp)
300099b8:	00878463          	beq	a5,s0,300099c0 <osFGetS+0xc0>
300099bc:	fd479ce3          	bne	a5,s4,30009994 <osFGetS+0x94>
300099c0:	00000513          	li	a0,0
300099c4:	02c12083          	lw	ra,44(sp)
300099c8:	02812403          	lw	s0,40(sp)
300099cc:	02412483          	lw	s1,36(sp)
300099d0:	02012903          	lw	s2,32(sp)
300099d4:	01c12983          	lw	s3,28(sp)
300099d8:	01812a03          	lw	s4,24(sp)
300099dc:	01412a83          	lw	s5,20(sp)
300099e0:	01012b03          	lw	s6,16(sp)
300099e4:	03010113          	addi	sp,sp,48
300099e8:	00008067          	ret
300099ec:	00c10993          	addi	s3,sp,12
300099f0:	00810913          	addi	s2,sp,8
300099f4:	f99ff06f          	j	3000998c <osFGetS+0x8c>
300099f8:	00200513          	li	a0,2
300099fc:	fc9ff06f          	j	300099c4 <osFGetS+0xc4>
30009a00:	00100513          	li	a0,1
30009a04:	00008067          	ret

30009a08 <osFSeek>:
30009a08:	00100793          	li	a5,1
30009a0c:	00050463          	beqz	a0,30009a14 <osFSeek+0xc>
30009a10:	00060663          	beqz	a2,30009a1c <osFSeek+0x14>
30009a14:	00078513          	mv	a0,a5
30009a18:	00008067          	ret
30009a1c:	ff010113          	addi	sp,sp,-16
30009a20:	00112623          	sw	ra,12(sp)
30009a24:	fdcfd0ef          	jal	ra,30007200 <f_lseek>
30009a28:	00c12083          	lw	ra,12(sp)
30009a2c:	00a037b3          	snez	a5,a0
30009a30:	00078513          	mv	a0,a5
30009a34:	01010113          	addi	sp,sp,16
30009a38:	00008067          	ret

30009a3c <osDirOpen>:
30009a3c:	02050263          	beqz	a0,30009a60 <osDirOpen+0x24>
30009a40:	ff010113          	addi	sp,sp,-16
30009a44:	10050513          	addi	a0,a0,256
30009a48:	00112623          	sw	ra,12(sp)
30009a4c:	a35fd0ef          	jal	ra,30007480 <f_opendir>
30009a50:	00c12083          	lw	ra,12(sp)
30009a54:	00a03533          	snez	a0,a0
30009a58:	01010113          	addi	sp,sp,16
30009a5c:	00008067          	ret
30009a60:	00100513          	li	a0,1
30009a64:	00008067          	ret

30009a68 <osDirClose>:
30009a68:	00153513          	seqz	a0,a0
30009a6c:	00008067          	ret

30009a70 <osDirRead>:
30009a70:	00100793          	li	a5,1
30009a74:	08058263          	beqz	a1,30009af8 <osDirRead+0x88>
30009a78:	08050063          	beqz	a0,30009af8 <osDirRead+0x88>
30009a7c:	ff010113          	addi	sp,sp,-16
30009a80:	00812423          	sw	s0,8(sp)
30009a84:	00058413          	mv	s0,a1
30009a88:	3000f5b7          	lui	a1,0x3000f
30009a8c:	00912223          	sw	s1,4(sp)
30009a90:	0ff00793          	li	a5,255
30009a94:	da858493          	addi	s1,a1,-600 # 3000eda8 <finfo>
30009a98:	00112623          	sw	ra,12(sp)
30009a9c:	0084ac23          	sw	s0,24(s1)
30009aa0:	00f4ae23          	sw	a5,28(s1)
30009aa4:	00040023          	sb	zero,0(s0)
30009aa8:	da858593          	addi	a1,a1,-600
30009aac:	10050513          	addi	a0,a0,256
30009ab0:	aa1fd0ef          	jal	ra,30007550 <f_readdir>
30009ab4:	06051c63          	bnez	a0,30009b2c <osDirRead+0xbc>
30009ab8:	0084c783          	lbu	a5,8(s1)
30009abc:	0107f793          	andi	a5,a5,16
30009ac0:	04079063          	bnez	a5,30009b00 <osDirRead+0x90>
30009ac4:	0004a683          	lw	a3,0(s1)
30009ac8:	00044783          	lbu	a5,0(s0)
30009acc:	00100713          	li	a4,1
30009ad0:	10d42223          	sw	a3,260(s0)
30009ad4:	10e40023          	sb	a4,256(s0)
30009ad8:	04078063          	beqz	a5,30009b18 <osDirRead+0xa8>
30009adc:	0017b793          	seqz	a5,a5
30009ae0:	00c12083          	lw	ra,12(sp)
30009ae4:	00812403          	lw	s0,8(sp)
30009ae8:	00412483          	lw	s1,4(sp)
30009aec:	00078513          	mv	a0,a5
30009af0:	01010113          	addi	sp,sp,16
30009af4:	00008067          	ret
30009af8:	00078513          	mv	a0,a5
30009afc:	00008067          	ret
30009b00:	00044783          	lbu	a5,0(s0)
30009b04:	00000693          	li	a3,0
30009b08:	00200713          	li	a4,2
30009b0c:	10d42223          	sw	a3,260(s0)
30009b10:	10e40023          	sb	a4,256(s0)
30009b14:	fc0794e3          	bnez	a5,30009adc <osDirRead+0x6c>
30009b18:	00948593          	addi	a1,s1,9
30009b1c:	00040513          	mv	a0,s0
30009b20:	7d4030ef          	jal	ra,3000d2f4 <strcpy>
30009b24:	00044783          	lbu	a5,0(s0)
30009b28:	fb5ff06f          	j	30009adc <osDirRead+0x6c>
30009b2c:	00040023          	sb	zero,0(s0)
30009b30:	10040023          	sb	zero,256(s0)
30009b34:	10042223          	sw	zero,260(s0)
30009b38:	00200793          	li	a5,2
30009b3c:	fa5ff06f          	j	30009ae0 <osDirRead+0x70>

30009b40 <osFSize>:
30009b40:	fd010113          	addi	sp,sp,-48
30009b44:	00010593          	mv	a1,sp
30009b48:	02112623          	sw	ra,44(sp)
30009b4c:	00012e23          	sw	zero,28(sp)
30009b50:	00012c23          	sw	zero,24(sp)
30009b54:	ad1fd0ef          	jal	ra,30007624 <f_stat>
30009b58:	00051a63          	bnez	a0,30009b6c <osFSize+0x2c>
30009b5c:	02c12083          	lw	ra,44(sp)
30009b60:	00012503          	lw	a0,0(sp)
30009b64:	03010113          	addi	sp,sp,48
30009b68:	00008067          	ret
30009b6c:	02c12083          	lw	ra,44(sp)
30009b70:	00000513          	li	a0,0
30009b74:	03010113          	addi	sp,sp,48
30009b78:	00008067          	ret

30009b7c <osFDelete>:
30009b7c:	ff010113          	addi	sp,sp,-16
30009b80:	00112623          	sw	ra,12(sp)
30009b84:	f8dfd0ef          	jal	ra,30007b10 <f_unlink>
30009b88:	00c12083          	lw	ra,12(sp)
30009b8c:	00a03533          	snez	a0,a0
30009b90:	01010113          	addi	sp,sp,16
30009b94:	00008067          	ret

30009b98 <osMkDir>:
30009b98:	ff010113          	addi	sp,sp,-16
30009b9c:	00112623          	sw	ra,12(sp)
30009ba0:	974fe0ef          	jal	ra,30007d14 <f_mkdir>
30009ba4:	00c12083          	lw	ra,12(sp)
30009ba8:	00a03533          	snez	a0,a0
30009bac:	01010113          	addi	sp,sp,16
30009bb0:	00008067          	ret

30009bb4 <osRename>:
30009bb4:	f6cfe06f          	j	30008320 <f_rename>

30009bb8 <gfDisplayBitmap>:
30009bb8:	00c52783          	lw	a5,12(a0)
30009bbc:	3000e737          	lui	a4,0x3000e
30009bc0:	76472703          	lw	a4,1892(a4) # 3000e764 <sdrdma>
30009bc4:	e00006b7          	lui	a3,0xe0000
30009bc8:	00d787b3          	add	a5,a5,a3
30009bcc:	0027d793          	srli	a5,a5,0x2
30009bd0:	00f72423          	sw	a5,8(a4)
30009bd4:	00000513          	li	a0,0
30009bd8:	00008067          	ret

30009bdc <gfLoadBitmapFS>:
30009bdc:	fc010113          	addi	sp,sp,-64
30009be0:	02112e23          	sw	ra,60(sp)
30009be4:	02812c23          	sw	s0,56(sp)
30009be8:	02912a23          	sw	s1,52(sp)
30009bec:	00050e63          	beqz	a0,30009c08 <gfLoadBitmapFS+0x2c>
30009bf0:	00050413          	mv	s0,a0
30009bf4:	00100613          	li	a2,1
30009bf8:	00c10513          	addi	a0,sp,12
30009bfc:	bcdff0ef          	jal	ra,300097c8 <osFOpen>
30009c00:	00050493          	mv	s1,a0
30009c04:	02050063          	beqz	a0,30009c24 <gfLoadBitmapFS+0x48>
30009c08:	00100493          	li	s1,1
30009c0c:	03c12083          	lw	ra,60(sp)
30009c10:	03812403          	lw	s0,56(sp)
30009c14:	00048513          	mv	a0,s1
30009c18:	03412483          	lw	s1,52(sp)
30009c1c:	04010113          	addi	sp,sp,64
30009c20:	00008067          	ret
30009c24:	00000693          	li	a3,0
30009c28:	00200613          	li	a2,2
30009c2c:	00810593          	addi	a1,sp,8
30009c30:	00c10513          	addi	a0,sp,12
30009c34:	c55ff0ef          	jal	ra,30009888 <osFRead>
30009c38:	00914783          	lbu	a5,9(sp)
30009c3c:	00814703          	lbu	a4,8(sp)
30009c40:	00000693          	li	a3,0
30009c44:	00879793          	slli	a5,a5,0x8
30009c48:	00e7e7b3          	or	a5,a5,a4
30009c4c:	01079713          	slli	a4,a5,0x10
30009c50:	00e7e7b3          	or	a5,a5,a4
30009c54:	00200613          	li	a2,2
30009c58:	00810593          	addi	a1,sp,8
30009c5c:	00f42023          	sw	a5,0(s0)
30009c60:	00c10513          	addi	a0,sp,12
30009c64:	c25ff0ef          	jal	ra,30009888 <osFRead>
30009c68:	00914783          	lbu	a5,9(sp)
30009c6c:	00814703          	lbu	a4,8(sp)
30009c70:	00000693          	li	a3,0
30009c74:	00879793          	slli	a5,a5,0x8
30009c78:	00e7e7b3          	or	a5,a5,a4
30009c7c:	00200613          	li	a2,2
30009c80:	00810593          	addi	a1,sp,8
30009c84:	00f41223          	sh	a5,4(s0)
30009c88:	00c10513          	addi	a0,sp,12
30009c8c:	bfdff0ef          	jal	ra,30009888 <osFRead>
30009c90:	00914783          	lbu	a5,9(sp)
30009c94:	00814703          	lbu	a4,8(sp)
30009c98:	00000693          	li	a3,0
30009c9c:	00879793          	slli	a5,a5,0x8
30009ca0:	00e7e7b3          	or	a5,a5,a4
30009ca4:	00200613          	li	a2,2
30009ca8:	00810593          	addi	a1,sp,8
30009cac:	00f41323          	sh	a5,6(s0)
30009cb0:	00c10513          	addi	a0,sp,12
30009cb4:	bd5ff0ef          	jal	ra,30009888 <osFRead>
30009cb8:	00914783          	lbu	a5,9(sp)
30009cbc:	00814703          	lbu	a4,8(sp)
30009cc0:	00000693          	li	a3,0
30009cc4:	00879793          	slli	a5,a5,0x8
30009cc8:	00e7e7b3          	or	a5,a5,a4
30009ccc:	00f41423          	sh	a5,8(s0)
30009cd0:	00100613          	li	a2,1
30009cd4:	00810593          	addi	a1,sp,8
30009cd8:	00c10513          	addi	a0,sp,12
30009cdc:	badff0ef          	jal	ra,30009888 <osFRead>
30009ce0:	00814703          	lbu	a4,8(sp)
30009ce4:	00c00793          	li	a5,12
30009ce8:	0ef71063          	bne	a4,a5,30009dc8 <gfLoadBitmapFS+0x1ec>
30009cec:	00000693          	li	a3,0
30009cf0:	00300613          	li	a2,3
30009cf4:	00810593          	addi	a1,sp,8
30009cf8:	00c10513          	addi	a0,sp,12
30009cfc:	b8dff0ef          	jal	ra,30009888 <osFRead>
30009d00:	00814783          	lbu	a5,8(sp)
30009d04:	00914683          	lbu	a3,9(sp)
30009d08:	00a14703          	lbu	a4,10(sp)
30009d0c:	00d7e7b3          	or	a5,a5,a3
30009d10:	00e7e7b3          	or	a5,a5,a4
30009d14:	0a079a63          	bnez	a5,30009dc8 <gfLoadBitmapFS+0x1ec>
30009d18:	00245503          	lhu	a0,2(s0)
30009d1c:	00445783          	lhu	a5,4(s0)
30009d20:	00100593          	li	a1,1
30009d24:	02f50533          	mul	a0,a0,a5
30009d28:	00151513          	slli	a0,a0,0x1
30009d2c:	d38ff0ef          	jal	ra,30009264 <osAlloc>
30009d30:	00a42623          	sw	a0,12(s0)
30009d34:	0a050c63          	beqz	a0,30009dec <gfLoadBitmapFS+0x210>
30009d38:	00445783          	lhu	a5,4(s0)
30009d3c:	00245603          	lhu	a2,2(s0)
30009d40:	00050593          	mv	a1,a0
30009d44:	00000693          	li	a3,0
30009d48:	02f60633          	mul	a2,a2,a5
30009d4c:	00c10513          	addi	a0,sp,12
30009d50:	00161613          	slli	a2,a2,0x1
30009d54:	b35ff0ef          	jal	ra,30009888 <osFRead>
30009d58:	00645783          	lhu	a5,6(s0)
30009d5c:	0027f793          	andi	a5,a5,2
30009d60:	04078463          	beqz	a5,30009da8 <gfLoadBitmapFS+0x1cc>
30009d64:	00245783          	lhu	a5,2(s0)
30009d68:	00445683          	lhu	a3,4(s0)
30009d6c:	00c42703          	lw	a4,12(s0)
30009d70:	02d787b3          	mul	a5,a5,a3
30009d74:	02078a63          	beqz	a5,30009da8 <gfLoadBitmapFS+0x1cc>
30009d78:	00000613          	li	a2,0
30009d7c:	00075783          	lhu	a5,0(a4)
30009d80:	00270713          	addi	a4,a4,2
30009d84:	00160613          	addi	a2,a2,1
30009d88:	0087d693          	srli	a3,a5,0x8
30009d8c:	00879793          	slli	a5,a5,0x8
30009d90:	00f6e7b3          	or	a5,a3,a5
30009d94:	fef71f23          	sh	a5,-2(a4)
30009d98:	00245783          	lhu	a5,2(s0)
30009d9c:	00445683          	lhu	a3,4(s0)
30009da0:	02d787b3          	mul	a5,a5,a3
30009da4:	fcf64ce3          	blt	a2,a5,30009d7c <gfLoadBitmapFS+0x1a0>
30009da8:	00c10513          	addi	a0,sp,12
30009dac:	a75ff0ef          	jal	ra,30009820 <osFClose>
30009db0:	03c12083          	lw	ra,60(sp)
30009db4:	03812403          	lw	s0,56(sp)
30009db8:	00048513          	mv	a0,s1
30009dbc:	03412483          	lw	s1,52(sp)
30009dc0:	04010113          	addi	sp,sp,64
30009dc4:	00008067          	ret
30009dc8:	00c10513          	addi	a0,sp,12
30009dcc:	a55ff0ef          	jal	ra,30009820 <osFClose>
30009dd0:	03c12083          	lw	ra,60(sp)
30009dd4:	03812403          	lw	s0,56(sp)
30009dd8:	00200493          	li	s1,2
30009ddc:	00048513          	mv	a0,s1
30009de0:	03412483          	lw	s1,52(sp)
30009de4:	04010113          	addi	sp,sp,64
30009de8:	00008067          	ret
30009dec:	00c10513          	addi	a0,sp,12
30009df0:	a31ff0ef          	jal	ra,30009820 <osFClose>
30009df4:	00300493          	li	s1,3
30009df8:	e15ff06f          	j	30009c0c <gfLoadBitmapFS+0x30>

30009dfc <gfBlitBitmap>:
30009dfc:	16050063          	beqz	a0,30009f5c <gfBlitBitmap+0x160>
30009e00:	14058e63          	beqz	a1,30009f5c <gfBlitBitmap+0x160>
30009e04:	0005d703          	lhu	a4,0(a1)
30009e08:	0045d803          	lhu	a6,4(a1)
30009e0c:	0e064e63          	bltz	a2,30009f08 <gfBlitBitmap+0x10c>
30009e10:	01071713          	slli	a4,a4,0x10
30009e14:	41075713          	srai	a4,a4,0x10
30009e18:	00060e13          	mv	t3,a2
30009e1c:	00000e93          	li	t4,0
30009e20:	1006ca63          	bltz	a3,30009f34 <gfBlitBitmap+0x138>
30009e24:	01081813          	slli	a6,a6,0x10
30009e28:	41085813          	srai	a6,a6,0x10
30009e2c:	00000f13          	li	t5,0
30009e30:	00055783          	lhu	a5,0(a0)
30009e34:	01c708b3          	add	a7,a4,t3
30009e38:	00f8c863          	blt	a7,a5,30009e48 <gfBlitBitmap+0x4c>
30009e3c:	40c78733          	sub	a4,a5,a2
30009e40:	01071713          	slli	a4,a4,0x10
30009e44:	41075713          	srai	a4,a4,0x10
30009e48:	0ae05c63          	blez	a4,30009f00 <gfBlitBitmap+0x104>
30009e4c:	00455783          	lhu	a5,4(a0)
30009e50:	00d80633          	add	a2,a6,a3
30009e54:	00f64863          	blt	a2,a5,30009e64 <gfBlitBitmap+0x68>
30009e58:	40d78833          	sub	a6,a5,a3
30009e5c:	01081813          	slli	a6,a6,0x10
30009e60:	41085813          	srai	a6,a6,0x10
30009e64:	09005e63          	blez	a6,30009f00 <gfBlitBitmap+0x104>
30009e68:	0025d283          	lhu	t0,2(a1)
30009e6c:	00255f83          	lhu	t6,2(a0)
30009e70:	0065d783          	lhu	a5,6(a1)
30009e74:	00129313          	slli	t1,t0,0x1
30009e78:	03e30333          	mul	t1,t1,t5
30009e7c:	001f9893          	slli	a7,t6,0x1
30009e80:	00c5af03          	lw	t5,12(a1)
30009e84:	001e1613          	slli	a2,t3,0x1
30009e88:	0017fe13          	andi	t3,a5,1
30009e8c:	3000e7b7          	lui	a5,0x3000e
30009e90:	7807a783          	lw	a5,1920(a5) # 3000e780 <blt>
30009e94:	001e9e93          	slli	t4,t4,0x1
30009e98:	00c52503          	lw	a0,12(a0)
30009e9c:	01071713          	slli	a4,a4,0x10
30009ea0:	02d888b3          	mul	a7,a7,a3
30009ea4:	01d30333          	add	t1,t1,t4
30009ea8:	006f0333          	add	t1,t5,t1
30009eac:	0067ae23          	sw	t1,28(a5)
30009eb0:	02579023          	sh	t0,32(a5)
30009eb4:	01075713          	srli	a4,a4,0x10
30009eb8:	01081813          	slli	a6,a6,0x10
30009ebc:	02e79223          	sh	a4,36(a5)
30009ec0:	01085813          	srli	a6,a6,0x10
30009ec4:	03079423          	sh	a6,40(a5)
30009ec8:	00c88633          	add	a2,a7,a2
30009ecc:	00c50633          	add	a2,a0,a2
30009ed0:	02c7ae23          	sw	a2,60(a5)
30009ed4:	05f79023          	sh	t6,64(a5)
30009ed8:	080e0663          	beqz	t3,30009f64 <gfBlitBitmap+0x168>
30009edc:	0085d683          	lhu	a3,8(a1)
30009ee0:	04e79223          	sh	a4,68(a5)
30009ee4:	05079423          	sh	a6,72(a5)
30009ee8:	00d7a623          	sw	a3,12(a5)
30009eec:	20100713          	li	a4,513
30009ef0:	00e7a423          	sw	a4,8(a5)
30009ef4:	0087a703          	lw	a4,8(a5)
30009ef8:	00177713          	andi	a4,a4,1
30009efc:	fe070ce3          	beqz	a4,30009ef4 <gfBlitBitmap+0xf8>
30009f00:	00000513          	li	a0,0
30009f04:	00008067          	ret
30009f08:	01061613          	slli	a2,a2,0x10
30009f0c:	01065613          	srli	a2,a2,0x10
30009f10:	40c00eb3          	neg	t4,a2
30009f14:	00c70733          	add	a4,a4,a2
30009f18:	010e9e93          	slli	t4,t4,0x10
30009f1c:	01071713          	slli	a4,a4,0x10
30009f20:	410ede93          	srai	t4,t4,0x10
30009f24:	41075713          	srai	a4,a4,0x10
30009f28:	00000e13          	li	t3,0
30009f2c:	00000613          	li	a2,0
30009f30:	ee06dae3          	bgez	a3,30009e24 <gfBlitBitmap+0x28>
30009f34:	01069893          	slli	a7,a3,0x10
30009f38:	0108d893          	srli	a7,a7,0x10
30009f3c:	41100333          	neg	t1,a7
30009f40:	01180833          	add	a6,a6,a7
30009f44:	01031f13          	slli	t5,t1,0x10
30009f48:	01081813          	slli	a6,a6,0x10
30009f4c:	410f5f13          	srai	t5,t5,0x10
30009f50:	41085813          	srai	a6,a6,0x10
30009f54:	00000693          	li	a3,0
30009f58:	ed9ff06f          	j	30009e30 <gfBlitBitmap+0x34>
30009f5c:	00100513          	li	a0,1
30009f60:	00008067          	ret
30009f64:	04e79223          	sh	a4,68(a5)
30009f68:	05079423          	sh	a6,72(a5)
30009f6c:	20000713          	li	a4,512
30009f70:	00e7a423          	sw	a4,8(a5)
30009f74:	0087a703          	lw	a4,8(a5)
30009f78:	00177713          	andi	a4,a4,1
30009f7c:	fe070ce3          	beqz	a4,30009f74 <gfBlitBitmap+0x178>
30009f80:	00000513          	li	a0,0
30009f84:	00008067          	ret

30009f88 <gfBlitBitmapSrcRect>:
30009f88:	14050663          	beqz	a0,3000a0d4 <gfBlitBitmapSrcRect+0x14c>
30009f8c:	14058463          	beqz	a1,3000a0d4 <gfBlitBitmapSrcRect+0x14c>
30009f90:	00080313          	mv	t1,a6
30009f94:	0e084063          	bltz	a6,3000a074 <gfBlitBitmapSrcRect+0xec>
30009f98:	1008c463          	bltz	a7,3000a0a0 <gfBlitBitmapSrcRect+0x118>
30009f9c:	00055e03          	lhu	t3,0(a0)
30009fa0:	00670eb3          	add	t4,a4,t1
30009fa4:	01cec863          	blt	t4,t3,30009fb4 <gfBlitBitmapSrcRect+0x2c>
30009fa8:	410e0833          	sub	a6,t3,a6
30009fac:	01081713          	slli	a4,a6,0x10
30009fb0:	41075713          	srai	a4,a4,0x10
30009fb4:	0ae05c63          	blez	a4,3000a06c <gfBlitBitmapSrcRect+0xe4>
30009fb8:	00455803          	lhu	a6,4(a0)
30009fbc:	01178e33          	add	t3,a5,a7
30009fc0:	010e4863          	blt	t3,a6,30009fd0 <gfBlitBitmapSrcRect+0x48>
30009fc4:	41180833          	sub	a6,a6,a7
30009fc8:	01081793          	slli	a5,a6,0x10
30009fcc:	4107d793          	srai	a5,a5,0x10
30009fd0:	08f05e63          	blez	a5,3000a06c <gfBlitBitmapSrcRect+0xe4>
30009fd4:	0025d283          	lhu	t0,2(a1)
30009fd8:	00255e03          	lhu	t3,2(a0)
30009fdc:	00c52f03          	lw	t5,12(a0)
30009fe0:	00129e93          	slli	t4,t0,0x1
30009fe4:	02de86b3          	mul	a3,t4,a3
30009fe8:	001e1813          	slli	a6,t3,0x1
30009fec:	00c5ae83          	lw	t4,12(a1)
30009ff0:	3000e537          	lui	a0,0x3000e
30009ff4:	78052503          	lw	a0,1920(a0) # 3000e780 <blt>
30009ff8:	00161613          	slli	a2,a2,0x1
30009ffc:	0065df83          	lhu	t6,6(a1)
3000a000:	01071713          	slli	a4,a4,0x10
3000a004:	00131313          	slli	t1,t1,0x1
3000a008:	01075713          	srli	a4,a4,0x10
3000a00c:	031808b3          	mul	a7,a6,a7
3000a010:	00c686b3          	add	a3,a3,a2
3000a014:	00de86b3          	add	a3,t4,a3
3000a018:	00d52e23          	sw	a3,28(a0)
3000a01c:	02551023          	sh	t0,32(a0)
3000a020:	01079793          	slli	a5,a5,0x10
3000a024:	02e51223          	sh	a4,36(a0)
3000a028:	0107d793          	srli	a5,a5,0x10
3000a02c:	02f51423          	sh	a5,40(a0)
3000a030:	001fff93          	andi	t6,t6,1
3000a034:	00688333          	add	t1,a7,t1
3000a038:	006f0333          	add	t1,t5,t1
3000a03c:	02652e23          	sw	t1,60(a0)
3000a040:	05c51023          	sh	t3,64(a0)
3000a044:	080f8c63          	beqz	t6,3000a0dc <gfBlitBitmapSrcRect+0x154>
3000a048:	0085d683          	lhu	a3,8(a1)
3000a04c:	04e51223          	sh	a4,68(a0)
3000a050:	04f51423          	sh	a5,72(a0)
3000a054:	00d52623          	sw	a3,12(a0)
3000a058:	20100793          	li	a5,513
3000a05c:	00f52423          	sw	a5,8(a0)
3000a060:	00852783          	lw	a5,8(a0)
3000a064:	0017f793          	andi	a5,a5,1
3000a068:	fe078ce3          	beqz	a5,3000a060 <gfBlitBitmapSrcRect+0xd8>
3000a06c:	00000513          	li	a0,0
3000a070:	00008067          	ret
3000a074:	01081813          	slli	a6,a6,0x10
3000a078:	01085813          	srli	a6,a6,0x10
3000a07c:	41060633          	sub	a2,a2,a6
3000a080:	00e80833          	add	a6,a6,a4
3000a084:	01081713          	slli	a4,a6,0x10
3000a088:	01061613          	slli	a2,a2,0x10
3000a08c:	41065613          	srai	a2,a2,0x10
3000a090:	41075713          	srai	a4,a4,0x10
3000a094:	00000313          	li	t1,0
3000a098:	00000813          	li	a6,0
3000a09c:	f008d0e3          	bgez	a7,30009f9c <gfBlitBitmapSrcRect+0x14>
3000a0a0:	01089893          	slli	a7,a7,0x10
3000a0a4:	0108d893          	srli	a7,a7,0x10
3000a0a8:	00055e03          	lhu	t3,0(a0)
3000a0ac:	411686b3          	sub	a3,a3,a7
3000a0b0:	00f887b3          	add	a5,a7,a5
3000a0b4:	01069693          	slli	a3,a3,0x10
3000a0b8:	01079793          	slli	a5,a5,0x10
3000a0bc:	00670eb3          	add	t4,a4,t1
3000a0c0:	4106d693          	srai	a3,a3,0x10
3000a0c4:	4107d793          	srai	a5,a5,0x10
3000a0c8:	00000893          	li	a7,0
3000a0cc:	efcec4e3          	blt	t4,t3,30009fb4 <gfBlitBitmapSrcRect+0x2c>
3000a0d0:	ed9ff06f          	j	30009fa8 <gfBlitBitmapSrcRect+0x20>
3000a0d4:	00100513          	li	a0,1
3000a0d8:	00008067          	ret
3000a0dc:	04e51223          	sh	a4,68(a0)
3000a0e0:	04f51423          	sh	a5,72(a0)
3000a0e4:	20000793          	li	a5,512
3000a0e8:	00f52423          	sw	a5,8(a0)
3000a0ec:	00852783          	lw	a5,8(a0)
3000a0f0:	0017f793          	andi	a5,a5,1
3000a0f4:	fe078ce3          	beqz	a5,3000a0ec <gfBlitBitmapSrcRect+0x164>
3000a0f8:	00000513          	li	a0,0
3000a0fc:	00008067          	ret

3000a100 <gfBlitBitmapA>:
3000a100:	16050863          	beqz	a0,3000a270 <gfBlitBitmapA+0x170>
3000a104:	16058663          	beqz	a1,3000a270 <gfBlitBitmapA+0x170>
3000a108:	0005d803          	lhu	a6,0(a1)
3000a10c:	0045d883          	lhu	a7,4(a1)
3000a110:	10064663          	bltz	a2,3000a21c <gfBlitBitmapA+0x11c>
3000a114:	01081813          	slli	a6,a6,0x10
3000a118:	41085813          	srai	a6,a6,0x10
3000a11c:	00060e93          	mv	t4,a2
3000a120:	00000f13          	li	t5,0
3000a124:	1206c263          	bltz	a3,3000a248 <gfBlitBitmapA+0x148>
3000a128:	01089893          	slli	a7,a7,0x10
3000a12c:	4108d893          	srai	a7,a7,0x10
3000a130:	00000f93          	li	t6,0
3000a134:	00055783          	lhu	a5,0(a0)
3000a138:	01d80333          	add	t1,a6,t4
3000a13c:	00f34863          	blt	t1,a5,3000a14c <gfBlitBitmapA+0x4c>
3000a140:	40c78833          	sub	a6,a5,a2
3000a144:	01081813          	slli	a6,a6,0x10
3000a148:	41085813          	srai	a6,a6,0x10
3000a14c:	0d005463          	blez	a6,3000a214 <gfBlitBitmapA+0x114>
3000a150:	00455783          	lhu	a5,4(a0)
3000a154:	00d88633          	add	a2,a7,a3
3000a158:	00f64863          	blt	a2,a5,3000a168 <gfBlitBitmapA+0x68>
3000a15c:	40d788b3          	sub	a7,a5,a3
3000a160:	01089893          	slli	a7,a7,0x10
3000a164:	4108d893          	srai	a7,a7,0x10
3000a168:	0b105663          	blez	a7,3000a214 <gfBlitBitmapA+0x114>
3000a16c:	0025d383          	lhu	t2,2(a1)
3000a170:	00255283          	lhu	t0,2(a0)
3000a174:	0065d783          	lhu	a5,6(a1)
3000a178:	00139e13          	slli	t3,t2,0x1
3000a17c:	03fe0e33          	mul	t3,t3,t6
3000a180:	00129313          	slli	t1,t0,0x1
3000a184:	00c5af83          	lw	t6,12(a1)
3000a188:	001e9613          	slli	a2,t4,0x1
3000a18c:	0017fe93          	andi	t4,a5,1
3000a190:	3000e7b7          	lui	a5,0x3000e
3000a194:	7807a783          	lw	a5,1920(a5) # 3000e780 <blt>
3000a198:	001f1f13          	slli	t5,t5,0x1
3000a19c:	00c52503          	lw	a0,12(a0)
3000a1a0:	01081813          	slli	a6,a6,0x10
3000a1a4:	02d30333          	mul	t1,t1,a3
3000a1a8:	01ee0e33          	add	t3,t3,t5
3000a1ac:	01cf8e33          	add	t3,t6,t3
3000a1b0:	01c7ae23          	sw	t3,28(a5)
3000a1b4:	02779023          	sh	t2,32(a5)
3000a1b8:	01085813          	srli	a6,a6,0x10
3000a1bc:	01089893          	slli	a7,a7,0x10
3000a1c0:	03079223          	sh	a6,36(a5)
3000a1c4:	0108d893          	srli	a7,a7,0x10
3000a1c8:	03179423          	sh	a7,40(a5)
3000a1cc:	00c30333          	add	t1,t1,a2
3000a1d0:	00650333          	add	t1,a0,t1
3000a1d4:	0267a623          	sw	t1,44(a5)
3000a1d8:	02579823          	sh	t0,48(a5)
3000a1dc:	0267ae23          	sw	t1,60(a5)
3000a1e0:	04579023          	sh	t0,64(a5)
3000a1e4:	05079223          	sh	a6,68(a5)
3000a1e8:	00375713          	srli	a4,a4,0x3
3000a1ec:	080e8663          	beqz	t4,3000a278 <gfBlitBitmapA+0x178>
3000a1f0:	0085d683          	lhu	a3,8(a1)
3000a1f4:	05179423          	sh	a7,72(a5)
3000a1f8:	00e7a623          	sw	a4,12(a5)
3000a1fc:	00d7a823          	sw	a3,16(a5)
3000a200:	30100713          	li	a4,769
3000a204:	00e7a423          	sw	a4,8(a5)
3000a208:	0087a703          	lw	a4,8(a5)
3000a20c:	00177713          	andi	a4,a4,1
3000a210:	fe070ce3          	beqz	a4,3000a208 <gfBlitBitmapA+0x108>
3000a214:	00000513          	li	a0,0
3000a218:	00008067          	ret
3000a21c:	01061613          	slli	a2,a2,0x10
3000a220:	01065613          	srli	a2,a2,0x10
3000a224:	40c00f33          	neg	t5,a2
3000a228:	00c80833          	add	a6,a6,a2
3000a22c:	010f1f13          	slli	t5,t5,0x10
3000a230:	01081813          	slli	a6,a6,0x10
3000a234:	410f5f13          	srai	t5,t5,0x10
3000a238:	41085813          	srai	a6,a6,0x10
3000a23c:	00000e93          	li	t4,0
3000a240:	00000613          	li	a2,0
3000a244:	ee06d2e3          	bgez	a3,3000a128 <gfBlitBitmapA+0x28>
3000a248:	01069313          	slli	t1,a3,0x10
3000a24c:	01035313          	srli	t1,t1,0x10
3000a250:	40600e33          	neg	t3,t1
3000a254:	006888b3          	add	a7,a7,t1
3000a258:	010e1f93          	slli	t6,t3,0x10
3000a25c:	01089893          	slli	a7,a7,0x10
3000a260:	410fdf93          	srai	t6,t6,0x10
3000a264:	4108d893          	srai	a7,a7,0x10
3000a268:	00000693          	li	a3,0
3000a26c:	ec9ff06f          	j	3000a134 <gfBlitBitmapA+0x34>
3000a270:	00100513          	li	a0,1
3000a274:	00008067          	ret
3000a278:	05179423          	sh	a7,72(a5)
3000a27c:	00e7a623          	sw	a4,12(a5)
3000a280:	30000713          	li	a4,768
3000a284:	00e7a423          	sw	a4,8(a5)
3000a288:	0087a703          	lw	a4,8(a5)
3000a28c:	00177713          	andi	a4,a4,1
3000a290:	fe070ce3          	beqz	a4,3000a288 <gfBlitBitmapA+0x188>
3000a294:	00000513          	li	a0,0
3000a298:	00008067          	ret

3000a29c <gfBlitBitmapA2Src>:
3000a29c:	1a050663          	beqz	a0,3000a448 <gfBlitBitmapA2Src+0x1ac>
3000a2a0:	1a058463          	beqz	a1,3000a448 <gfBlitBitmapA2Src+0x1ac>
3000a2a4:	1a060263          	beqz	a2,3000a448 <gfBlitBitmapA2Src+0x1ac>
3000a2a8:	0005d803          	lhu	a6,0(a1)
3000a2ac:	0045d883          	lhu	a7,4(a1)
3000a2b0:	1406c263          	bltz	a3,3000a3f4 <gfBlitBitmapA2Src+0x158>
3000a2b4:	01081813          	slli	a6,a6,0x10
3000a2b8:	41085813          	srai	a6,a6,0x10
3000a2bc:	00068313          	mv	t1,a3
3000a2c0:	00000293          	li	t0,0
3000a2c4:	14074e63          	bltz	a4,3000a420 <gfBlitBitmapA2Src+0x184>
3000a2c8:	01089893          	slli	a7,a7,0x10
3000a2cc:	4108d893          	srai	a7,a7,0x10
3000a2d0:	00000f93          	li	t6,0
3000a2d4:	00055e03          	lhu	t3,0(a0)
3000a2d8:	00680eb3          	add	t4,a6,t1
3000a2dc:	01cec863          	blt	t4,t3,3000a2ec <gfBlitBitmapA2Src+0x50>
3000a2e0:	40de06b3          	sub	a3,t3,a3
3000a2e4:	01069813          	slli	a6,a3,0x10
3000a2e8:	41085813          	srai	a6,a6,0x10
3000a2ec:	19005c63          	blez	a6,3000a484 <gfBlitBitmapA2Src+0x1e8>
3000a2f0:	00455683          	lhu	a3,4(a0)
3000a2f4:	00e88e33          	add	t3,a7,a4
3000a2f8:	00de4863          	blt	t3,a3,3000a308 <gfBlitBitmapA2Src+0x6c>
3000a2fc:	40e688b3          	sub	a7,a3,a4
3000a300:	01089893          	slli	a7,a7,0x10
3000a304:	4108d893          	srai	a7,a7,0x10
3000a308:	17105e63          	blez	a7,3000a484 <gfBlitBitmapA2Src+0x1e8>
3000a30c:	ff010113          	addi	sp,sp,-16
3000a310:	00912423          	sw	s1,8(sp)
3000a314:	0025d483          	lhu	s1,2(a1)
3000a318:	00812623          	sw	s0,12(sp)
3000a31c:	00265403          	lhu	s0,2(a2)
3000a320:	00149f13          	slli	t5,s1,0x1
3000a324:	03ff0f33          	mul	t5,t5,t6
3000a328:	00255383          	lhu	t2,2(a0)
3000a32c:	00141e93          	slli	t4,s0,0x1
3000a330:	0065d683          	lhu	a3,6(a1)
3000a334:	00139e13          	slli	t3,t2,0x1
3000a338:	01212223          	sw	s2,4(sp)
3000a33c:	00c62903          	lw	s2,12(a2)
3000a340:	00c52603          	lw	a2,12(a0)
3000a344:	0016f513          	andi	a0,a3,1
3000a348:	3000e6b7          	lui	a3,0x3000e
3000a34c:	03fe8eb3          	mul	t4,t4,t6
3000a350:	00c5af83          	lw	t6,12(a1)
3000a354:	7806a683          	lw	a3,1920(a3) # 3000e780 <blt>
3000a358:	00129293          	slli	t0,t0,0x1
3000a35c:	005f0f33          	add	t5,t5,t0
3000a360:	01ef8f33          	add	t5,t6,t5
3000a364:	01e6ae23          	sw	t5,28(a3)
3000a368:	01081813          	slli	a6,a6,0x10
3000a36c:	02969023          	sh	s1,32(a3)
3000a370:	01085813          	srli	a6,a6,0x10
3000a374:	02ee0e33          	mul	t3,t3,a4
3000a378:	01089893          	slli	a7,a7,0x10
3000a37c:	03069223          	sh	a6,36(a3)
3000a380:	0108d893          	srli	a7,a7,0x10
3000a384:	005e8eb3          	add	t4,t4,t0
3000a388:	03169423          	sh	a7,40(a3)
3000a38c:	00131313          	slli	t1,t1,0x1
3000a390:	01d90eb3          	add	t4,s2,t4
3000a394:	03d6a623          	sw	t4,44(a3)
3000a398:	02869823          	sh	s0,48(a3)
3000a39c:	006e0333          	add	t1,t3,t1
3000a3a0:	00660333          	add	t1,a2,t1
3000a3a4:	0266ae23          	sw	t1,60(a3)
3000a3a8:	04769023          	sh	t2,64(a3)
3000a3ac:	05069223          	sh	a6,68(a3)
3000a3b0:	0037d793          	srli	a5,a5,0x3
3000a3b4:	08050e63          	beqz	a0,3000a450 <gfBlitBitmapA2Src+0x1b4>
3000a3b8:	0085d703          	lhu	a4,8(a1)
3000a3bc:	05169423          	sh	a7,72(a3)
3000a3c0:	00f6a623          	sw	a5,12(a3)
3000a3c4:	00e6a823          	sw	a4,16(a3)
3000a3c8:	30100793          	li	a5,769
3000a3cc:	00f6a423          	sw	a5,8(a3)
3000a3d0:	0086a783          	lw	a5,8(a3)
3000a3d4:	0017f793          	andi	a5,a5,1
3000a3d8:	fe078ce3          	beqz	a5,3000a3d0 <gfBlitBitmapA2Src+0x134>
3000a3dc:	00c12403          	lw	s0,12(sp)
3000a3e0:	00812483          	lw	s1,8(sp)
3000a3e4:	00412903          	lw	s2,4(sp)
3000a3e8:	00000513          	li	a0,0
3000a3ec:	01010113          	addi	sp,sp,16
3000a3f0:	00008067          	ret
3000a3f4:	01069693          	slli	a3,a3,0x10
3000a3f8:	0106d693          	srli	a3,a3,0x10
3000a3fc:	40d002b3          	neg	t0,a3
3000a400:	00d80833          	add	a6,a6,a3
3000a404:	01029293          	slli	t0,t0,0x10
3000a408:	01081813          	slli	a6,a6,0x10
3000a40c:	4102d293          	srai	t0,t0,0x10
3000a410:	41085813          	srai	a6,a6,0x10
3000a414:	00000313          	li	t1,0
3000a418:	00000693          	li	a3,0
3000a41c:	ea0756e3          	bgez	a4,3000a2c8 <gfBlitBitmapA2Src+0x2c>
3000a420:	01071e13          	slli	t3,a4,0x10
3000a424:	010e5e13          	srli	t3,t3,0x10
3000a428:	41c00eb3          	neg	t4,t3
3000a42c:	01c888b3          	add	a7,a7,t3
3000a430:	010e9f93          	slli	t6,t4,0x10
3000a434:	01089893          	slli	a7,a7,0x10
3000a438:	410fdf93          	srai	t6,t6,0x10
3000a43c:	4108d893          	srai	a7,a7,0x10
3000a440:	00000713          	li	a4,0
3000a444:	e91ff06f          	j	3000a2d4 <gfBlitBitmapA2Src+0x38>
3000a448:	00100513          	li	a0,1
3000a44c:	00008067          	ret
3000a450:	05169423          	sh	a7,72(a3)
3000a454:	00f6a623          	sw	a5,12(a3)
3000a458:	30000793          	li	a5,768
3000a45c:	00f6a423          	sw	a5,8(a3)
3000a460:	0086a783          	lw	a5,8(a3)
3000a464:	0017f793          	andi	a5,a5,1
3000a468:	fe078ce3          	beqz	a5,3000a460 <gfBlitBitmapA2Src+0x1c4>
3000a46c:	00c12403          	lw	s0,12(sp)
3000a470:	00812483          	lw	s1,8(sp)
3000a474:	00412903          	lw	s2,4(sp)
3000a478:	00000513          	li	a0,0
3000a47c:	01010113          	addi	sp,sp,16
3000a480:	00008067          	ret
3000a484:	00000513          	li	a0,0
3000a488:	00008067          	ret

3000a48c <gfBlitScaledBitmap>:
3000a48c:	16050e63          	beqz	a0,3000a608 <gfBlitScaledBitmap+0x17c>
3000a490:	16058c63          	beqz	a1,3000a608 <gfBlitScaledBitmap+0x17c>
3000a494:	0005d283          	lhu	t0,0(a1)
3000a498:	0045df83          	lhu	t6,4(a1)
3000a49c:	00060e13          	mv	t3,a2
3000a4a0:	01029f13          	slli	t5,t0,0x10
3000a4a4:	010f9e93          	slli	t4,t6,0x10
3000a4a8:	02ef5f33          	divu	t5,t5,a4
3000a4ac:	00000893          	li	a7,0
3000a4b0:	02fedeb3          	divu	t4,t4,a5
3000a4b4:	10064463          	bltz	a2,3000a5bc <gfBlitScaledBitmap+0x130>
3000a4b8:	00000813          	li	a6,0
3000a4bc:	1206c263          	bltz	a3,3000a5e0 <gfBlitScaledBitmap+0x154>
3000a4c0:	00055303          	lhu	t1,0(a0)
3000a4c4:	01c703b3          	add	t2,a4,t3
3000a4c8:	0063c863          	blt	t2,t1,3000a4d8 <gfBlitScaledBitmap+0x4c>
3000a4cc:	40c30733          	sub	a4,t1,a2
3000a4d0:	01071713          	slli	a4,a4,0x10
3000a4d4:	41075713          	srai	a4,a4,0x10
3000a4d8:	14e05263          	blez	a4,3000a61c <gfBlitScaledBitmap+0x190>
3000a4dc:	00455603          	lhu	a2,4(a0)
3000a4e0:	00d78333          	add	t1,a5,a3
3000a4e4:	00c34863          	blt	t1,a2,3000a4f4 <gfBlitScaledBitmap+0x68>
3000a4e8:	40d607b3          	sub	a5,a2,a3
3000a4ec:	01079793          	slli	a5,a5,0x10
3000a4f0:	4107d793          	srai	a5,a5,0x10
3000a4f4:	12f05463          	blez	a5,3000a61c <gfBlitScaledBitmap+0x190>
3000a4f8:	ff010113          	addi	sp,sp,-16
3000a4fc:	00912423          	sw	s1,8(sp)
3000a500:	0025d483          	lhu	s1,2(a1)
3000a504:	00812623          	sw	s0,12(sp)
3000a508:	01085813          	srli	a6,a6,0x10
3000a50c:	00255403          	lhu	s0,2(a0)
3000a510:	00149613          	slli	a2,s1,0x1
3000a514:	00c5a383          	lw	t2,12(a1)
3000a518:	00141313          	slli	t1,s0,0x1
3000a51c:	00f8d893          	srli	a7,a7,0xf
3000a520:	011388b3          	add	a7,t2,a7
3000a524:	00c52383          	lw	t2,12(a0)
3000a528:	001e1513          	slli	a0,t3,0x1
3000a52c:	01071713          	slli	a4,a4,0x10
3000a530:	02c80833          	mul	a6,a6,a2
3000a534:	3000e637          	lui	a2,0x3000e
3000a538:	78062603          	lw	a2,1920(a2) # 3000e780 <blt>
3000a53c:	01075713          	srli	a4,a4,0x10
3000a540:	01079793          	slli	a5,a5,0x10
3000a544:	0107d793          	srli	a5,a5,0x10
3000a548:	02d306b3          	mul	a3,t1,a3
3000a54c:	01180833          	add	a6,a6,a7
3000a550:	01062e23          	sw	a6,28(a2)
3000a554:	02961023          	sh	s1,32(a2)
3000a558:	02561223          	sh	t0,36(a2)
3000a55c:	03f61423          	sh	t6,40(a2)
3000a560:	0085d803          	lhu	a6,8(a1)
3000a564:	0065d583          	lhu	a1,6(a1)
3000a568:	00a686b3          	add	a3,a3,a0
3000a56c:	00d386b3          	add	a3,t2,a3
3000a570:	02d62e23          	sw	a3,60(a2)
3000a574:	04861023          	sh	s0,64(a2)
3000a578:	04e61223          	sh	a4,68(a2)
3000a57c:	04f61423          	sh	a5,72(a2)
3000a580:	01e62623          	sw	t5,12(a2)
3000a584:	01d62823          	sw	t4,16(a2)
3000a588:	01062a23          	sw	a6,20(a2)
3000a58c:	0015f793          	andi	a5,a1,1
3000a590:	08079063          	bnez	a5,3000a610 <gfBlitScaledBitmap+0x184>
3000a594:	40000793          	li	a5,1024
3000a598:	00f62423          	sw	a5,8(a2)
3000a59c:	00862783          	lw	a5,8(a2)
3000a5a0:	0017f793          	andi	a5,a5,1
3000a5a4:	fe078ce3          	beqz	a5,3000a59c <gfBlitScaledBitmap+0x110>
3000a5a8:	00c12403          	lw	s0,12(sp)
3000a5ac:	00812483          	lw	s1,8(sp)
3000a5b0:	00000513          	li	a0,0
3000a5b4:	01010113          	addi	sp,sp,16
3000a5b8:	00008067          	ret
3000a5bc:	40c008b3          	neg	a7,a2
3000a5c0:	41170733          	sub	a4,a4,a7
3000a5c4:	01071713          	slli	a4,a4,0x10
3000a5c8:	41075713          	srai	a4,a4,0x10
3000a5cc:	00000e13          	li	t3,0
3000a5d0:	00000613          	li	a2,0
3000a5d4:	031f08b3          	mul	a7,t5,a7
3000a5d8:	00000813          	li	a6,0
3000a5dc:	ee06d2e3          	bgez	a3,3000a4c0 <gfBlitScaledBitmap+0x34>
3000a5e0:	40d00833          	neg	a6,a3
3000a5e4:	00055303          	lhu	t1,0(a0)
3000a5e8:	410787b3          	sub	a5,a5,a6
3000a5ec:	01079793          	slli	a5,a5,0x10
3000a5f0:	01c703b3          	add	t2,a4,t3
3000a5f4:	4107d793          	srai	a5,a5,0x10
3000a5f8:	00000693          	li	a3,0
3000a5fc:	030e8833          	mul	a6,t4,a6
3000a600:	ec63cce3          	blt	t2,t1,3000a4d8 <gfBlitScaledBitmap+0x4c>
3000a604:	ec9ff06f          	j	3000a4cc <gfBlitScaledBitmap+0x40>
3000a608:	00100513          	li	a0,1
3000a60c:	00008067          	ret
3000a610:	40100793          	li	a5,1025
3000a614:	00f62423          	sw	a5,8(a2)
3000a618:	f85ff06f          	j	3000a59c <gfBlitScaledBitmap+0x110>
3000a61c:	00000513          	li	a0,0
3000a620:	00008067          	ret

3000a624 <gfPlot>:
3000a624:	00050793          	mv	a5,a0
3000a628:	00100513          	li	a0,1
3000a62c:	04078063          	beqz	a5,3000a66c <gfPlot+0x48>
3000a630:	0205ce63          	bltz	a1,3000a66c <gfPlot+0x48>
3000a634:	02064c63          	bltz	a2,3000a66c <gfPlot+0x48>
3000a638:	0007d703          	lhu	a4,0(a5)
3000a63c:	02e5d863          	bge	a1,a4,3000a66c <gfPlot+0x48>
3000a640:	0047d703          	lhu	a4,4(a5)
3000a644:	02e65463          	bge	a2,a4,3000a66c <gfPlot+0x48>
3000a648:	0027d703          	lhu	a4,2(a5)
3000a64c:	00c7a783          	lw	a5,12(a5)
3000a650:	00000513          	li	a0,0
3000a654:	02c70633          	mul	a2,a4,a2
3000a658:	00b60633          	add	a2,a2,a1
3000a65c:	00161613          	slli	a2,a2,0x1
3000a660:	00c78633          	add	a2,a5,a2
3000a664:	00d61023          	sh	a3,0(a2)
3000a668:	00008067          	ret
3000a66c:	00008067          	ret

3000a670 <gfGetPixel>:
3000a670:	00050793          	mv	a5,a0
3000a674:	00000513          	li	a0,0
3000a678:	02078e63          	beqz	a5,3000a6b4 <gfGetPixel+0x44>
3000a67c:	0205cc63          	bltz	a1,3000a6b4 <gfGetPixel+0x44>
3000a680:	02064a63          	bltz	a2,3000a6b4 <gfGetPixel+0x44>
3000a684:	0007d703          	lhu	a4,0(a5)
3000a688:	02e5d663          	bge	a1,a4,3000a6b4 <gfGetPixel+0x44>
3000a68c:	0047d703          	lhu	a4,4(a5)
3000a690:	02e65263          	bge	a2,a4,3000a6b4 <gfGetPixel+0x44>
3000a694:	0027d703          	lhu	a4,2(a5)
3000a698:	00c7a783          	lw	a5,12(a5)
3000a69c:	02c70633          	mul	a2,a4,a2
3000a6a0:	00b60633          	add	a2,a2,a1
3000a6a4:	00161613          	slli	a2,a2,0x1
3000a6a8:	00c78633          	add	a2,a5,a2
3000a6ac:	00065503          	lhu	a0,0(a2)
3000a6b0:	00008067          	ret
3000a6b4:	00008067          	ret

3000a6b8 <gfPlotA>:
3000a6b8:	00050793          	mv	a5,a0
3000a6bc:	00100513          	li	a0,1
3000a6c0:	0a078e63          	beqz	a5,3000a77c <gfPlotA+0xc4>
3000a6c4:	0a05cc63          	bltz	a1,3000a77c <gfPlotA+0xc4>
3000a6c8:	0a064a63          	bltz	a2,3000a77c <gfPlotA+0xc4>
3000a6cc:	0007d803          	lhu	a6,0(a5)
3000a6d0:	0b05d663          	bge	a1,a6,3000a77c <gfPlotA+0xc4>
3000a6d4:	0047d803          	lhu	a6,4(a5)
3000a6d8:	0b065263          	bge	a2,a6,3000a77c <gfPlotA+0xc4>
3000a6dc:	0027d503          	lhu	a0,2(a5)
3000a6e0:	00c7a303          	lw	t1,12(a5)
3000a6e4:	0036d813          	srli	a6,a3,0x3
3000a6e8:	02c50633          	mul	a2,a0,a2
3000a6ec:	00369793          	slli	a5,a3,0x3
3000a6f0:	0fc87813          	andi	a6,a6,252
3000a6f4:	0086d693          	srli	a3,a3,0x8
3000a6f8:	0f86f893          	andi	a7,a3,248
3000a6fc:	0ff00e13          	li	t3,255
3000a700:	40ee0e33          	sub	t3,t3,a4
3000a704:	0ff7f793          	andi	a5,a5,255
3000a708:	00000513          	li	a0,0
3000a70c:	00b60633          	add	a2,a2,a1
3000a710:	00161593          	slli	a1,a2,0x1
3000a714:	00b305b3          	add	a1,t1,a1
3000a718:	0005d603          	lhu	a2,0(a1)
3000a71c:	02e806b3          	mul	a3,a6,a4
3000a720:	00361313          	slli	t1,a2,0x3
3000a724:	00365813          	srli	a6,a2,0x3
3000a728:	0fc87813          	andi	a6,a6,252
3000a72c:	0ff37313          	andi	t1,t1,255
3000a730:	00865613          	srli	a2,a2,0x8
3000a734:	0f867613          	andi	a2,a2,248
3000a738:	03c80833          	mul	a6,a6,t3
3000a73c:	03c30333          	mul	t1,t1,t3
3000a740:	010686b3          	add	a3,a3,a6
3000a744:	0056d693          	srli	a3,a3,0x5
3000a748:	7e06f693          	andi	a3,a3,2016
3000a74c:	02e787b3          	mul	a5,a5,a4
3000a750:	03c60633          	mul	a2,a2,t3
3000a754:	006787b3          	add	a5,a5,t1
3000a758:	00b7d793          	srli	a5,a5,0xb
3000a75c:	01f7f793          	andi	a5,a5,31
3000a760:	00d7e7b3          	or	a5,a5,a3
3000a764:	02e888b3          	mul	a7,a7,a4
3000a768:	00c88633          	add	a2,a7,a2
3000a76c:	80067613          	andi	a2,a2,-2048
3000a770:	00c7e7b3          	or	a5,a5,a2
3000a774:	00f59023          	sh	a5,0(a1)
3000a778:	00008067          	ret
3000a77c:	00008067          	ret

3000a780 <gfPlotA2C>:
3000a780:	00100e13          	li	t3,1
3000a784:	0a050a63          	beqz	a0,3000a838 <gfPlotA2C+0xb8>
3000a788:	0a05c863          	bltz	a1,3000a838 <gfPlotA2C+0xb8>
3000a78c:	0a064663          	bltz	a2,3000a838 <gfPlotA2C+0xb8>
3000a790:	00055803          	lhu	a6,0(a0)
3000a794:	0b05d263          	bge	a1,a6,3000a838 <gfPlotA2C+0xb8>
3000a798:	00455803          	lhu	a6,4(a0)
3000a79c:	09065e63          	bge	a2,a6,3000a838 <gfPlotA2C+0xb8>
3000a7a0:	00375293          	srli	t0,a4,0x3
3000a7a4:	00371f13          	slli	t5,a4,0x3
3000a7a8:	0036d313          	srli	t1,a3,0x3
3000a7ac:	00369813          	slli	a6,a3,0x3
3000a7b0:	0ff00893          	li	a7,255
3000a7b4:	40f88fb3          	sub	t6,a7,a5
3000a7b8:	00255e83          	lhu	t4,2(a0)
3000a7bc:	00875713          	srli	a4,a4,0x8
3000a7c0:	0fc2f293          	andi	t0,t0,252
3000a7c4:	0fff7f13          	andi	t5,t5,255
3000a7c8:	0fc37313          	andi	t1,t1,252
3000a7cc:	0ff87813          	andi	a6,a6,255
3000a7d0:	0f877893          	andi	a7,a4,248
3000a7d4:	03f282b3          	mul	t0,t0,t6
3000a7d8:	0086d693          	srli	a3,a3,0x8
3000a7dc:	0f86f693          	andi	a3,a3,248
3000a7e0:	00c52503          	lw	a0,12(a0)
3000a7e4:	00000e13          	li	t3,0
3000a7e8:	03ff0f33          	mul	t5,t5,t6
3000a7ec:	02f30333          	mul	t1,t1,a5
3000a7f0:	02f80733          	mul	a4,a6,a5
3000a7f4:	00530333          	add	t1,t1,t0
3000a7f8:	00535313          	srli	t1,t1,0x5
3000a7fc:	7e037313          	andi	t1,t1,2016
3000a800:	03f888b3          	mul	a7,a7,t6
3000a804:	01e70733          	add	a4,a4,t5
3000a808:	00b75713          	srli	a4,a4,0xb
3000a80c:	01f77713          	andi	a4,a4,31
3000a810:	00676733          	or	a4,a4,t1
3000a814:	02f686b3          	mul	a3,a3,a5
3000a818:	02ce8633          	mul	a2,t4,a2
3000a81c:	011686b3          	add	a3,a3,a7
3000a820:	8006f693          	andi	a3,a3,-2048
3000a824:	00d766b3          	or	a3,a4,a3
3000a828:	00b60633          	add	a2,a2,a1
3000a82c:	00161613          	slli	a2,a2,0x1
3000a830:	00c50633          	add	a2,a0,a2
3000a834:	00d61023          	sh	a3,0(a2)
3000a838:	000e0513          	mv	a0,t3
3000a83c:	00008067          	ret

3000a840 <gfLine>:
3000a840:	40b68fb3          	sub	t6,a3,a1
3000a844:	41ffd813          	srai	a6,t6,0x1f
3000a848:	01f84fb3          	xor	t6,a6,t6
3000a84c:	410f8fb3          	sub	t6,t6,a6
3000a850:	010f9e93          	slli	t4,t6,0x10
3000a854:	410ede93          	srai	t4,t4,0x10
3000a858:	00100293          	li	t0,1
3000a85c:	00d5c663          	blt	a1,a3,3000a868 <gfLine+0x28>
3000a860:	000102b7          	lui	t0,0x10
3000a864:	fff28293          	addi	t0,t0,-1 # ffff <stackPointer+0xa57f>
3000a868:	40c70833          	sub	a6,a4,a2
3000a86c:	41f85893          	srai	a7,a6,0x1f
3000a870:	0108cf33          	xor	t5,a7,a6
3000a874:	411f0f33          	sub	t5,t5,a7
3000a878:	010f1f13          	slli	t5,t5,0x10
3000a87c:	010f5f13          	srli	t5,t5,0x10
3000a880:	41e00e33          	neg	t3,t5
3000a884:	010e1e13          	slli	t3,t3,0x10
3000a888:	410e5e13          	srai	t3,t3,0x10
3000a88c:	00100393          	li	t2,1
3000a890:	00e64663          	blt	a2,a4,3000a89c <gfLine+0x5c>
3000a894:	000103b7          	lui	t2,0x10
3000a898:	fff38393          	addi	t2,t2,-1 # ffff <stackPointer+0xa57f>
3000a89c:	010f9f93          	slli	t6,t6,0x10
3000a8a0:	010fdf93          	srli	t6,t6,0x10
3000a8a4:	41ef8833          	sub	a6,t6,t5
3000a8a8:	01081313          	slli	t1,a6,0x10
3000a8ac:	41035313          	srai	t1,t1,0x10
3000a8b0:	0a050063          	beqz	a0,3000a950 <gfLine+0x110>
3000a8b4:	0205ca63          	bltz	a1,3000a8e8 <gfLine+0xa8>
3000a8b8:	02064863          	bltz	a2,3000a8e8 <gfLine+0xa8>
3000a8bc:	00055803          	lhu	a6,0(a0)
3000a8c0:	0305d463          	bge	a1,a6,3000a8e8 <gfLine+0xa8>
3000a8c4:	00455803          	lhu	a6,4(a0)
3000a8c8:	03065063          	bge	a2,a6,3000a8e8 <gfLine+0xa8>
3000a8cc:	00255803          	lhu	a6,2(a0)
3000a8d0:	00c52883          	lw	a7,12(a0)
3000a8d4:	02c80833          	mul	a6,a6,a2
3000a8d8:	00b80833          	add	a6,a6,a1
3000a8dc:	00181813          	slli	a6,a6,0x1
3000a8e0:	01088833          	add	a6,a7,a6
3000a8e4:	00f81023          	sh	a5,0(a6)
3000a8e8:	04d58e63          	beq	a1,a3,3000a944 <gfLine+0x104>
3000a8ec:	01031813          	slli	a6,t1,0x10
3000a8f0:	01085813          	srli	a6,a6,0x10
3000a8f4:	00181893          	slli	a7,a6,0x1
3000a8f8:	01089893          	slli	a7,a7,0x10
3000a8fc:	4108d893          	srai	a7,a7,0x10
3000a900:	03c8c263          	blt	a7,t3,3000a924 <gfLine+0xe4>
3000a904:	41e80833          	sub	a6,a6,t5
3000a908:	01081813          	slli	a6,a6,0x10
3000a90c:	01085813          	srli	a6,a6,0x10
3000a910:	00b285b3          	add	a1,t0,a1
3000a914:	01081313          	slli	t1,a6,0x10
3000a918:	01059593          	slli	a1,a1,0x10
3000a91c:	41035313          	srai	t1,t1,0x10
3000a920:	4105d593          	srai	a1,a1,0x10
3000a924:	f91ec8e3          	blt	t4,a7,3000a8b4 <gfLine+0x74>
3000a928:	010f8833          	add	a6,t6,a6
3000a92c:	00c38633          	add	a2,t2,a2
3000a930:	01081313          	slli	t1,a6,0x10
3000a934:	01061613          	slli	a2,a2,0x10
3000a938:	41035313          	srai	t1,t1,0x10
3000a93c:	41065613          	srai	a2,a2,0x10
3000a940:	f75ff06f          	j	3000a8b4 <gfLine+0x74>
3000a944:	fae614e3          	bne	a2,a4,3000a8ec <gfLine+0xac>
3000a948:	00000513          	li	a0,0
3000a94c:	00008067          	ret
3000a950:	ff010113          	addi	sp,sp,-16
3000a954:	00812623          	sw	s0,12(sp)
3000a958:	01031793          	slli	a5,t1,0x10
3000a95c:	0107d793          	srli	a5,a5,0x10
3000a960:	00179513          	slli	a0,a5,0x1
3000a964:	01051513          	slli	a0,a0,0x10
3000a968:	41e78433          	sub	s0,a5,t5
3000a96c:	41055513          	srai	a0,a0,0x10
3000a970:	00b288b3          	add	a7,t0,a1
3000a974:	00c38833          	add	a6,t2,a2
3000a978:	02d58e63          	beq	a1,a3,3000a9b4 <gfLine+0x174>
3000a97c:	01c54e63          	blt	a0,t3,3000a998 <gfLine+0x158>
3000a980:	01041793          	slli	a5,s0,0x10
3000a984:	0107d793          	srli	a5,a5,0x10
3000a988:	01079313          	slli	t1,a5,0x10
3000a98c:	01089593          	slli	a1,a7,0x10
3000a990:	41035313          	srai	t1,t1,0x10
3000a994:	4105d593          	srai	a1,a1,0x10
3000a998:	00ff87b3          	add	a5,t6,a5
3000a99c:	faaecee3          	blt	t4,a0,3000a958 <gfLine+0x118>
3000a9a0:	01079313          	slli	t1,a5,0x10
3000a9a4:	01081613          	slli	a2,a6,0x10
3000a9a8:	41035313          	srai	t1,t1,0x10
3000a9ac:	41065613          	srai	a2,a2,0x10
3000a9b0:	fa9ff06f          	j	3000a958 <gfLine+0x118>
3000a9b4:	fce614e3          	bne	a2,a4,3000a97c <gfLine+0x13c>
3000a9b8:	00c12403          	lw	s0,12(sp)
3000a9bc:	00000513          	li	a0,0
3000a9c0:	01010113          	addi	sp,sp,16
3000a9c4:	00008067          	ret

3000a9c8 <gfCircle>:
3000a9c8:	00100313          	li	t1,1
3000a9cc:	40d30333          	sub	t1,t1,a3
3000a9d0:	40d008b3          	neg	a7,a3
3000a9d4:	00131693          	slli	a3,t1,0x1
3000a9d8:	01089893          	slli	a7,a7,0x10
3000a9dc:	01069313          	slli	t1,a3,0x10
3000a9e0:	01059593          	slli	a1,a1,0x10
3000a9e4:	01061613          	slli	a2,a2,0x10
3000a9e8:	4108d893          	srai	a7,a7,0x10
3000a9ec:	41035313          	srai	t1,t1,0x10
3000a9f0:	0105d593          	srli	a1,a1,0x10
3000a9f4:	01065613          	srli	a2,a2,0x10
3000a9f8:	00000e13          	li	t3,0
3000a9fc:	01089793          	slli	a5,a7,0x10
3000aa00:	0107d793          	srli	a5,a5,0x10
3000aa04:	40f586b3          	sub	a3,a1,a5
3000aa08:	01069693          	slli	a3,a3,0x10
3000aa0c:	010e1813          	slli	a6,t3,0x10
3000aa10:	4106d693          	srai	a3,a3,0x10
3000aa14:	01085813          	srli	a6,a6,0x10
3000aa18:	12050463          	beqz	a0,3000ab40 <gfCircle+0x178>
3000aa1c:	0406c063          	bltz	a3,3000aa5c <gfCircle+0x94>
3000aa20:	00c80eb3          	add	t4,a6,a2
3000aa24:	010e9e93          	slli	t4,t4,0x10
3000aa28:	410ede93          	srai	t4,t4,0x10
3000aa2c:	020ec863          	bltz	t4,3000aa5c <gfCircle+0x94>
3000aa30:	00055f03          	lhu	t5,0(a0)
3000aa34:	03e6d463          	bge	a3,t5,3000aa5c <gfCircle+0x94>
3000aa38:	00455f03          	lhu	t5,4(a0)
3000aa3c:	03eed063          	bge	t4,t5,3000aa5c <gfCircle+0x94>
3000aa40:	00255f03          	lhu	t5,2(a0)
3000aa44:	00c52f83          	lw	t6,12(a0)
3000aa48:	03df0eb3          	mul	t4,t5,t4
3000aa4c:	00de86b3          	add	a3,t4,a3
3000aa50:	00169693          	slli	a3,a3,0x1
3000aa54:	00df86b3          	add	a3,t6,a3
3000aa58:	00e69023          	sh	a4,0(a3)
3000aa5c:	410586b3          	sub	a3,a1,a6
3000aa60:	01069693          	slli	a3,a3,0x10
3000aa64:	4106d693          	srai	a3,a3,0x10
3000aa68:	0406c063          	bltz	a3,3000aaa8 <gfCircle+0xe0>
3000aa6c:	40f60eb3          	sub	t4,a2,a5
3000aa70:	010e9e93          	slli	t4,t4,0x10
3000aa74:	410ede93          	srai	t4,t4,0x10
3000aa78:	020ec863          	bltz	t4,3000aaa8 <gfCircle+0xe0>
3000aa7c:	00055f03          	lhu	t5,0(a0)
3000aa80:	03e6d463          	bge	a3,t5,3000aaa8 <gfCircle+0xe0>
3000aa84:	00455f03          	lhu	t5,4(a0)
3000aa88:	03eed063          	bge	t4,t5,3000aaa8 <gfCircle+0xe0>
3000aa8c:	00255f03          	lhu	t5,2(a0)
3000aa90:	00c52f83          	lw	t6,12(a0)
3000aa94:	03df0eb3          	mul	t4,t5,t4
3000aa98:	00de86b3          	add	a3,t4,a3
3000aa9c:	00169693          	slli	a3,a3,0x1
3000aaa0:	00df86b3          	add	a3,t6,a3
3000aaa4:	00e69023          	sh	a4,0(a3)
3000aaa8:	00b786b3          	add	a3,a5,a1
3000aaac:	01069693          	slli	a3,a3,0x10
3000aab0:	4106d693          	srai	a3,a3,0x10
3000aab4:	0406c063          	bltz	a3,3000aaf4 <gfCircle+0x12c>
3000aab8:	41060eb3          	sub	t4,a2,a6
3000aabc:	010e9e93          	slli	t4,t4,0x10
3000aac0:	410ede93          	srai	t4,t4,0x10
3000aac4:	020ec863          	bltz	t4,3000aaf4 <gfCircle+0x12c>
3000aac8:	00055f03          	lhu	t5,0(a0)
3000aacc:	03e6d463          	bge	a3,t5,3000aaf4 <gfCircle+0x12c>
3000aad0:	00455f03          	lhu	t5,4(a0)
3000aad4:	03eed063          	bge	t4,t5,3000aaf4 <gfCircle+0x12c>
3000aad8:	00255f03          	lhu	t5,2(a0)
3000aadc:	00c52f83          	lw	t6,12(a0)
3000aae0:	03df0eb3          	mul	t4,t5,t4
3000aae4:	00de86b3          	add	a3,t4,a3
3000aae8:	00169693          	slli	a3,a3,0x1
3000aaec:	00df86b3          	add	a3,t6,a3
3000aaf0:	00e69023          	sh	a4,0(a3)
3000aaf4:	00b806b3          	add	a3,a6,a1
3000aaf8:	01069693          	slli	a3,a3,0x10
3000aafc:	4106d693          	srai	a3,a3,0x10
3000ab00:	0406c063          	bltz	a3,3000ab40 <gfCircle+0x178>
3000ab04:	00c78eb3          	add	t4,a5,a2
3000ab08:	010e9e93          	slli	t4,t4,0x10
3000ab0c:	410ede93          	srai	t4,t4,0x10
3000ab10:	020ec863          	bltz	t4,3000ab40 <gfCircle+0x178>
3000ab14:	00055f03          	lhu	t5,0(a0)
3000ab18:	03e6d463          	bge	a3,t5,3000ab40 <gfCircle+0x178>
3000ab1c:	00455f03          	lhu	t5,4(a0)
3000ab20:	03eed063          	bge	t4,t5,3000ab40 <gfCircle+0x178>
3000ab24:	00255f03          	lhu	t5,2(a0)
3000ab28:	00c52f83          	lw	t6,12(a0)
3000ab2c:	03df0eb3          	mul	t4,t5,t4
3000ab30:	00de86b3          	add	a3,t4,a3
3000ab34:	00169693          	slli	a3,a3,0x1
3000ab38:	00df86b3          	add	a3,t6,a3
3000ab3c:	00e69023          	sh	a4,0(a3)
3000ab40:	01031693          	slli	a3,t1,0x10
3000ab44:	0106d693          	srli	a3,a3,0x10
3000ab48:	046e4263          	blt	t3,t1,3000ab8c <gfCircle+0x1c4>
3000ab4c:	00180813          	addi	a6,a6,1
3000ab50:	01081e13          	slli	t3,a6,0x10
3000ab54:	410e5e13          	srai	t3,t3,0x10
3000ab58:	001e1813          	slli	a6,t3,0x1
3000ab5c:	00180813          	addi	a6,a6,1
3000ab60:	010686b3          	add	a3,a3,a6
3000ab64:	01069693          	slli	a3,a3,0x10
3000ab68:	0106d693          	srli	a3,a3,0x10
3000ab6c:	01069813          	slli	a6,a3,0x10
3000ab70:	41085813          	srai	a6,a6,0x10
3000ab74:	0068cc63          	blt	a7,t1,3000ab8c <gfCircle+0x1c4>
3000ab78:	00080313          	mv	t1,a6
3000ab7c:	010e4863          	blt	t3,a6,3000ab8c <gfCircle+0x1c4>
3000ab80:	e608cee3          	bltz	a7,3000a9fc <gfCircle+0x34>
3000ab84:	00000513          	li	a0,0
3000ab88:	00008067          	ret
3000ab8c:	00178793          	addi	a5,a5,1
3000ab90:	01079893          	slli	a7,a5,0x10
3000ab94:	4108d893          	srai	a7,a7,0x10
3000ab98:	00189793          	slli	a5,a7,0x1
3000ab9c:	00178793          	addi	a5,a5,1
3000aba0:	00f686b3          	add	a3,a3,a5
3000aba4:	01069313          	slli	t1,a3,0x10
3000aba8:	41035313          	srai	t1,t1,0x10
3000abac:	e408c8e3          	bltz	a7,3000a9fc <gfCircle+0x34>
3000abb0:	fd5ff06f          	j	3000ab84 <gfCircle+0x1bc>

3000abb4 <gfEllipse>:
3000abb4:	40c702b3          	sub	t0,a4,a2
3000abb8:	41f2d893          	srai	a7,t0,0x1f
3000abbc:	40b683b3          	sub	t2,a3,a1
3000abc0:	41f3d813          	srai	a6,t2,0x1f
3000abc4:	0058cfb3          	xor	t6,a7,t0
3000abc8:	411f8fb3          	sub	t6,t6,a7
3000abcc:	007848b3          	xor	a7,a6,t2
3000abd0:	410888b3          	sub	a7,a7,a6
3000abd4:	00100e13          	li	t3,1
3000abd8:	001ff813          	andi	a6,t6,1
3000abdc:	411e0e33          	sub	t3,t3,a7
3000abe0:	00180e93          	addi	t4,a6,1
3000abe4:	031e8eb3          	mul	t4,t4,a7
3000abe8:	03fe0e33          	mul	t3,t3,t6
3000abec:	411e8333          	sub	t1,t4,a7
3000abf0:	03fe0e33          	mul	t3,t3,t6
3000abf4:	031e8eb3          	mul	t4,t4,a7
3000abf8:	002e1e13          	slli	t3,t3,0x2
3000abfc:	03130333          	mul	t1,t1,a7
3000ac00:	002e9e93          	slli	t4,t4,0x2
3000ac04:	01de0f33          	add	t5,t3,t4
3000ac08:	01e30333          	add	t1,t1,t5
3000ac0c:	00b6da63          	bge	a3,a1,3000ac20 <gfEllipse+0x6c>
3000ac10:	00d888b3          	add	a7,a7,a3
3000ac14:	00068593          	mv	a1,a3
3000ac18:	01089693          	slli	a3,a7,0x10
3000ac1c:	4106d693          	srai	a3,a3,0x10
3000ac20:	001f8893          	addi	a7,t6,1
3000ac24:	4018d893          	srai	a7,a7,0x1
3000ac28:	00070f13          	mv	t5,a4
3000ac2c:	00e65463          	bge	a2,a4,3000ac34 <gfEllipse+0x80>
3000ac30:	00060f13          	mv	t5,a2
3000ac34:	027383b3          	mul	t2,t2,t2
3000ac38:	01e888b3          	add	a7,a7,t5
3000ac3c:	01089893          	slli	a7,a7,0x10
3000ac40:	0108d893          	srli	a7,a7,0x10
3000ac44:	41088833          	sub	a6,a7,a6
3000ac48:	01081813          	slli	a6,a6,0x10
3000ac4c:	01089893          	slli	a7,a7,0x10
3000ac50:	4108d893          	srai	a7,a7,0x10
3000ac54:	41085813          	srai	a6,a6,0x10
3000ac58:	025282b3          	mul	t0,t0,t0
3000ac5c:	00339393          	slli	t2,t2,0x3
3000ac60:	00329293          	slli	t0,t0,0x3
3000ac64:	0c050463          	beqz	a0,3000ad2c <gfEllipse+0x178>
3000ac68:	2a06c863          	bltz	a3,3000af18 <gfEllipse+0x364>
3000ac6c:	2c08c263          	bltz	a7,3000af30 <gfEllipse+0x37c>
3000ac70:	00055703          	lhu	a4,0(a0)
3000ac74:	02e6d463          	bge	a3,a4,3000ac9c <gfEllipse+0xe8>
3000ac78:	00455703          	lhu	a4,4(a0)
3000ac7c:	02e8d063          	bge	a7,a4,3000ac9c <gfEllipse+0xe8>
3000ac80:	00255703          	lhu	a4,2(a0)
3000ac84:	00c52603          	lw	a2,12(a0)
3000ac88:	03170733          	mul	a4,a4,a7
3000ac8c:	00d70733          	add	a4,a4,a3
3000ac90:	00171713          	slli	a4,a4,0x1
3000ac94:	00e60733          	add	a4,a2,a4
3000ac98:	00f71023          	sh	a5,0(a4)
3000ac9c:	2805cc63          	bltz	a1,3000af34 <gfEllipse+0x380>
3000aca0:	00055703          	lhu	a4,0(a0)
3000aca4:	28e5d263          	bge	a1,a4,3000af28 <gfEllipse+0x374>
3000aca8:	00455703          	lhu	a4,4(a0)
3000acac:	28e8d863          	bge	a7,a4,3000af3c <gfEllipse+0x388>
3000acb0:	00255703          	lhu	a4,2(a0)
3000acb4:	00c52603          	lw	a2,12(a0)
3000acb8:	03170733          	mul	a4,a4,a7
3000acbc:	00b70733          	add	a4,a4,a1
3000acc0:	00171713          	slli	a4,a4,0x1
3000acc4:	00e60733          	add	a4,a2,a4
3000acc8:	00f71023          	sh	a5,0(a4)
3000accc:	06084063          	bltz	a6,3000ad2c <gfEllipse+0x178>
3000acd0:	00055703          	lhu	a4,0(a0)
3000acd4:	02e5d463          	bge	a1,a4,3000acfc <gfEllipse+0x148>
3000acd8:	00455703          	lhu	a4,4(a0)
3000acdc:	02e85063          	bge	a6,a4,3000acfc <gfEllipse+0x148>
3000ace0:	00255703          	lhu	a4,2(a0)
3000ace4:	00c52603          	lw	a2,12(a0)
3000ace8:	03070733          	mul	a4,a4,a6
3000acec:	00b70733          	add	a4,a4,a1
3000acf0:	00171713          	slli	a4,a4,0x1
3000acf4:	00e60733          	add	a4,a2,a4
3000acf8:	00f71023          	sh	a5,0(a4)
3000acfc:	0206c863          	bltz	a3,3000ad2c <gfEllipse+0x178>
3000ad00:	00055703          	lhu	a4,0(a0)
3000ad04:	02e6d463          	bge	a3,a4,3000ad2c <gfEllipse+0x178>
3000ad08:	00455703          	lhu	a4,4(a0)
3000ad0c:	02e85063          	bge	a6,a4,3000ad2c <gfEllipse+0x178>
3000ad10:	00255703          	lhu	a4,2(a0)
3000ad14:	00c52603          	lw	a2,12(a0)
3000ad18:	03070733          	mul	a4,a4,a6
3000ad1c:	00d70733          	add	a4,a4,a3
3000ad20:	00171713          	slli	a4,a4,0x1
3000ad24:	00e60733          	add	a4,a2,a4
3000ad28:	00f71023          	sh	a5,0(a4)
3000ad2c:	01059613          	slli	a2,a1,0x10
3000ad30:	01069713          	slli	a4,a3,0x10
3000ad34:	00131f13          	slli	t5,t1,0x1
3000ad38:	01065613          	srli	a2,a2,0x10
3000ad3c:	01075713          	srli	a4,a4,0x10
3000ad40:	19eeca63          	blt	t4,t5,3000aed4 <gfEllipse+0x320>
3000ad44:	00188893          	addi	a7,a7,1
3000ad48:	fff80813          	addi	a6,a6,-1
3000ad4c:	007e8eb3          	add	t4,t4,t2
3000ad50:	01089893          	slli	a7,a7,0x10
3000ad54:	01081813          	slli	a6,a6,0x10
3000ad58:	4108d893          	srai	a7,a7,0x10
3000ad5c:	41085813          	srai	a6,a6,0x10
3000ad60:	01d30333          	add	t1,t1,t4
3000ad64:	17cf5863          	bge	t5,t3,3000aed4 <gfEllipse+0x320>
3000ad68:	00131f13          	slli	t5,t1,0x1
3000ad6c:	17eec463          	blt	t4,t5,3000aed4 <gfEllipse+0x320>
3000ad70:	eeb6dae3          	bge	a3,a1,3000ac64 <gfEllipse+0xb0>
3000ad74:	fff60613          	addi	a2,a2,-1
3000ad78:	00170713          	addi	a4,a4,1
3000ad7c:	01061613          	slli	a2,a2,0x10
3000ad80:	01071713          	slli	a4,a4,0x10
3000ad84:	410886b3          	sub	a3,a7,a6
3000ad88:	00080593          	mv	a1,a6
3000ad8c:	41065613          	srai	a2,a2,0x10
3000ad90:	41075713          	srai	a4,a4,0x10
3000ad94:	0ff6d863          	bge	a3,t6,3000ae84 <gfEllipse+0x2d0>
3000ad98:	01088eb3          	add	t4,a7,a6
3000ad9c:	010e9e93          	slli	t4,t4,0x10
3000ada0:	010ede93          	srli	t4,t4,0x10
3000ada4:	00080313          	mv	t1,a6
3000ada8:	001e8f13          	addi	t5,t4,1
3000adac:	01031693          	slli	a3,t1,0x10
3000adb0:	0106d693          	srli	a3,a3,0x10
3000adb4:	40df0e33          	sub	t3,t5,a3
3000adb8:	fff68813          	addi	a6,a3,-1
3000adbc:	010e1e13          	slli	t3,t3,0x10
3000adc0:	01081813          	slli	a6,a6,0x10
3000adc4:	410e5e13          	srai	t3,t3,0x10
3000adc8:	41085813          	srai	a6,a6,0x10
3000adcc:	0a050263          	beqz	a0,3000ae70 <gfEllipse+0x2bc>
3000add0:	0a064e63          	bltz	a2,3000ae8c <gfEllipse+0x2d8>
3000add4:	40de86b3          	sub	a3,t4,a3
3000add8:	01069293          	slli	t0,a3,0x10
3000addc:	0202ca63          	bltz	t0,3000ae10 <gfEllipse+0x25c>
3000ade0:	00055683          	lhu	a3,0(a0)
3000ade4:	12d65463          	bge	a2,a3,3000af0c <gfEllipse+0x358>
3000ade8:	00455283          	lhu	t0,4(a0)
3000adec:	1258d063          	bge	a7,t0,3000af0c <gfEllipse+0x358>
3000adf0:	00255683          	lhu	a3,2(a0)
3000adf4:	00c52283          	lw	t0,12(a0)
3000adf8:	031686b3          	mul	a3,a3,a7
3000adfc:	00c686b3          	add	a3,a3,a2
3000ae00:	00169693          	slli	a3,a3,0x1
3000ae04:	00d286b3          	add	a3,t0,a3
3000ae08:	00f69023          	sh	a5,0(a3)
3000ae0c:	08075863          	bgez	a4,3000ae9c <gfEllipse+0x2e8>
3000ae10:	06034063          	bltz	t1,3000ae70 <gfEllipse+0x2bc>
3000ae14:	00055683          	lhu	a3,0(a0)
3000ae18:	02d65463          	bge	a2,a3,3000ae40 <gfEllipse+0x28c>
3000ae1c:	00455683          	lhu	a3,4(a0)
3000ae20:	02d5d063          	bge	a1,a3,3000ae40 <gfEllipse+0x28c>
3000ae24:	00255683          	lhu	a3,2(a0)
3000ae28:	00c52883          	lw	a7,12(a0)
3000ae2c:	02b686b3          	mul	a3,a3,a1
3000ae30:	00c686b3          	add	a3,a3,a2
3000ae34:	00169693          	slli	a3,a3,0x1
3000ae38:	00d886b3          	add	a3,a7,a3
3000ae3c:	00f69023          	sh	a5,0(a3)
3000ae40:	02074863          	bltz	a4,3000ae70 <gfEllipse+0x2bc>
3000ae44:	00055683          	lhu	a3,0(a0)
3000ae48:	02d75463          	bge	a4,a3,3000ae70 <gfEllipse+0x2bc>
3000ae4c:	00455683          	lhu	a3,4(a0)
3000ae50:	02d5d063          	bge	a1,a3,3000ae70 <gfEllipse+0x2bc>
3000ae54:	00255683          	lhu	a3,2(a0)
3000ae58:	00c52883          	lw	a7,12(a0)
3000ae5c:	02b685b3          	mul	a1,a3,a1
3000ae60:	00e585b3          	add	a1,a1,a4
3000ae64:	00159593          	slli	a1,a1,0x1
3000ae68:	00b885b3          	add	a1,a7,a1
3000ae6c:	00f59023          	sh	a5,0(a1)
3000ae70:	410e06b3          	sub	a3,t3,a6
3000ae74:	00080593          	mv	a1,a6
3000ae78:	000e0893          	mv	a7,t3
3000ae7c:	00080313          	mv	t1,a6
3000ae80:	f3f6c6e3          	blt	a3,t6,3000adac <gfEllipse+0x1f8>
3000ae84:	00000513          	li	a0,0
3000ae88:	00008067          	ret
3000ae8c:	fe0742e3          	bltz	a4,3000ae70 <gfEllipse+0x2bc>
3000ae90:	40de86b3          	sub	a3,t4,a3
3000ae94:	01069293          	slli	t0,a3,0x10
3000ae98:	0202ca63          	bltz	t0,3000aecc <gfEllipse+0x318>
3000ae9c:	00055683          	lhu	a3,0(a0)
3000aea0:	02d75463          	bge	a4,a3,3000aec8 <gfEllipse+0x314>
3000aea4:	00455683          	lhu	a3,4(a0)
3000aea8:	02d8d063          	bge	a7,a3,3000aec8 <gfEllipse+0x314>
3000aeac:	00255683          	lhu	a3,2(a0)
3000aeb0:	00c52283          	lw	t0,12(a0)
3000aeb4:	031688b3          	mul	a7,a3,a7
3000aeb8:	00e888b3          	add	a7,a7,a4
3000aebc:	00189893          	slli	a7,a7,0x1
3000aec0:	011288b3          	add	a7,t0,a7
3000aec4:	00f89023          	sh	a5,0(a7)
3000aec8:	f40654e3          	bgez	a2,3000ae10 <gfEllipse+0x25c>
3000aecc:	f6035ce3          	bgez	t1,3000ae44 <gfEllipse+0x290>
3000aed0:	fa1ff06f          	j	3000ae70 <gfEllipse+0x2bc>
3000aed4:	00160613          	addi	a2,a2,1
3000aed8:	fff70713          	addi	a4,a4,-1
3000aedc:	01061613          	slli	a2,a2,0x10
3000aee0:	01071713          	slli	a4,a4,0x10
3000aee4:	01065613          	srli	a2,a2,0x10
3000aee8:	01075713          	srli	a4,a4,0x10
3000aeec:	01061593          	slli	a1,a2,0x10
3000aef0:	01071693          	slli	a3,a4,0x10
3000aef4:	005e0e33          	add	t3,t3,t0
3000aef8:	4105d593          	srai	a1,a1,0x10
3000aefc:	4106d693          	srai	a3,a3,0x10
3000af00:	01c30333          	add	t1,t1,t3
3000af04:	d6b6d0e3          	bge	a3,a1,3000ac64 <gfEllipse+0xb0>
3000af08:	e6dff06f          	j	3000ad74 <gfEllipse+0x1c0>
3000af0c:	f00742e3          	bltz	a4,3000ae10 <gfEllipse+0x25c>
3000af10:	f8d74ae3          	blt	a4,a3,3000aea4 <gfEllipse+0x2f0>
3000af14:	efdff06f          	j	3000ae10 <gfEllipse+0x25c>
3000af18:	e005cae3          	bltz	a1,3000ad2c <gfEllipse+0x178>
3000af1c:	da08c8e3          	bltz	a7,3000accc <gfEllipse+0x118>
3000af20:	00055703          	lhu	a4,0(a0)
3000af24:	d8e5c2e3          	blt	a1,a4,3000aca8 <gfEllipse+0xf4>
3000af28:	dc085ae3          	bgez	a6,3000acfc <gfEllipse+0x148>
3000af2c:	e01ff06f          	j	3000ad2c <gfEllipse+0x178>
3000af30:	d805dee3          	bgez	a1,3000accc <gfEllipse+0x118>
3000af34:	dc0856e3          	bgez	a6,3000ad00 <gfEllipse+0x14c>
3000af38:	df5ff06f          	j	3000ad2c <gfEllipse+0x178>
3000af3c:	da0850e3          	bgez	a6,3000acdc <gfEllipse+0x128>
3000af40:	dedff06f          	j	3000ad2c <gfEllipse+0x178>

3000af44 <gfFillRect>:
3000af44:	18050663          	beqz	a0,3000b0d0 <gfFillRect+0x18c>
3000af48:	fff5ce93          	not	t4,a1
3000af4c:	fff64e13          	not	t3,a2
3000af50:	fff6c893          	not	a7,a3
3000af54:	fff74313          	not	t1,a4
3000af58:	41fede93          	srai	t4,t4,0x1f
3000af5c:	41f8d893          	srai	a7,a7,0x1f
3000af60:	41f35313          	srai	t1,t1,0x1f
3000af64:	01d5f5b3          	and	a1,a1,t4
3000af68:	41fe5e13          	srai	t3,t3,0x1f
3000af6c:	00055803          	lhu	a6,0(a0)
3000af70:	01c67633          	and	a2,a2,t3
3000af74:	0116f6b3          	and	a3,a3,a7
3000af78:	00677733          	and	a4,a4,t1
3000af7c:	01059593          	slli	a1,a1,0x10
3000af80:	01061613          	slli	a2,a2,0x10
3000af84:	01069893          	slli	a7,a3,0x10
3000af88:	01071313          	slli	t1,a4,0x10
3000af8c:	4105d593          	srai	a1,a1,0x10
3000af90:	41065613          	srai	a2,a2,0x10
3000af94:	4108d893          	srai	a7,a7,0x10
3000af98:	41035313          	srai	t1,t1,0x10
3000af9c:	0d05d863          	bge	a1,a6,3000b06c <gfFillRect+0x128>
3000afa0:	00455703          	lhu	a4,4(a0)
3000afa4:	01059e93          	slli	t4,a1,0x10
3000afa8:	010ede93          	srli	t4,t4,0x10
3000afac:	0ce65e63          	bge	a2,a4,3000b088 <gfFillRect+0x144>
3000afb0:	01061e13          	slli	t3,a2,0x10
3000afb4:	010e5e13          	srli	t3,t3,0x10
3000afb8:	0f08d463          	bge	a7,a6,3000b0a0 <gfFillRect+0x15c>
3000afbc:	01089813          	slli	a6,a7,0x10
3000afc0:	01085813          	srli	a6,a6,0x10
3000afc4:	0ee35a63          	bge	t1,a4,3000b0b8 <gfFillRect+0x174>
3000afc8:	01031693          	slli	a3,t1,0x10
3000afcc:	0106d693          	srli	a3,a3,0x10
3000afd0:	00c35a63          	bge	t1,a2,3000afe4 <gfFillRect+0xa0>
3000afd4:	00068713          	mv	a4,a3
3000afd8:	00030613          	mv	a2,t1
3000afdc:	000e0693          	mv	a3,t3
3000afe0:	00070e13          	mv	t3,a4
3000afe4:	00b8da63          	bge	a7,a1,3000aff8 <gfFillRect+0xb4>
3000afe8:	00080713          	mv	a4,a6
3000afec:	00088593          	mv	a1,a7
3000aff0:	000e8813          	mv	a6,t4
3000aff4:	00070e93          	mv	t4,a4
3000aff8:	00255883          	lhu	a7,2(a0)
3000affc:	00c52503          	lw	a0,12(a0)
3000b000:	00159593          	slli	a1,a1,0x1
3000b004:	00189713          	slli	a4,a7,0x1
3000b008:	02c70633          	mul	a2,a4,a2
3000b00c:	3000e737          	lui	a4,0x3000e
3000b010:	78072703          	lw	a4,1920(a4) # 3000e780 <blt>
3000b014:	00180813          	addi	a6,a6,1
3000b018:	41d80833          	sub	a6,a6,t4
3000b01c:	00168693          	addi	a3,a3,1
3000b020:	01081813          	slli	a6,a6,0x10
3000b024:	41c686b3          	sub	a3,a3,t3
3000b028:	01085813          	srli	a6,a6,0x10
3000b02c:	01069693          	slli	a3,a3,0x10
3000b030:	00b605b3          	add	a1,a2,a1
3000b034:	00b505b3          	add	a1,a0,a1
3000b038:	02b72e23          	sw	a1,60(a4)
3000b03c:	05171023          	sh	a7,64(a4)
3000b040:	05071223          	sh	a6,68(a4)
3000b044:	0106d693          	srli	a3,a3,0x10
3000b048:	04d71423          	sh	a3,72(a4)
3000b04c:	00f72623          	sw	a5,12(a4)
3000b050:	10000793          	li	a5,256
3000b054:	00f72423          	sw	a5,8(a4)
3000b058:	00872783          	lw	a5,8(a4)
3000b05c:	0017f793          	andi	a5,a5,1
3000b060:	fe078ce3          	beqz	a5,3000b058 <gfFillRect+0x114>
3000b064:	00000513          	li	a0,0
3000b068:	00008067          	ret
3000b06c:	fff80e93          	addi	t4,a6,-1
3000b070:	010e9e93          	slli	t4,t4,0x10
3000b074:	00455703          	lhu	a4,4(a0)
3000b078:	010ede93          	srli	t4,t4,0x10
3000b07c:	010e9593          	slli	a1,t4,0x10
3000b080:	4105d593          	srai	a1,a1,0x10
3000b084:	f2e646e3          	blt	a2,a4,3000afb0 <gfFillRect+0x6c>
3000b088:	fff70693          	addi	a3,a4,-1
3000b08c:	01069e13          	slli	t3,a3,0x10
3000b090:	010e5e13          	srli	t3,t3,0x10
3000b094:	010e1613          	slli	a2,t3,0x10
3000b098:	41065613          	srai	a2,a2,0x10
3000b09c:	f308c0e3          	blt	a7,a6,3000afbc <gfFillRect+0x78>
3000b0a0:	fff80813          	addi	a6,a6,-1
3000b0a4:	01081813          	slli	a6,a6,0x10
3000b0a8:	01085813          	srli	a6,a6,0x10
3000b0ac:	01081893          	slli	a7,a6,0x10
3000b0b0:	4108d893          	srai	a7,a7,0x10
3000b0b4:	f0e34ae3          	blt	t1,a4,3000afc8 <gfFillRect+0x84>
3000b0b8:	fff70713          	addi	a4,a4,-1
3000b0bc:	01071693          	slli	a3,a4,0x10
3000b0c0:	0106d693          	srli	a3,a3,0x10
3000b0c4:	01069313          	slli	t1,a3,0x10
3000b0c8:	41035313          	srai	t1,t1,0x10
3000b0cc:	f05ff06f          	j	3000afd0 <gfFillRect+0x8c>
3000b0d0:	00100513          	li	a0,1
3000b0d4:	00008067          	ret

3000b0d8 <toPrint.part.1>:
3000b0d8:	0005c683          	lbu	a3,0(a1)
3000b0dc:	00158593          	addi	a1,a1,1
3000b0e0:	18068e63          	beqz	a3,3000b27c <toPrint.part.1+0x1a4>
3000b0e4:	00a00313          	li	t1,10
3000b0e8:	0680006f          	j	3000b150 <toPrint.part.1+0x78>
3000b0ec:	00455703          	lhu	a4,4(a0)
3000b0f0:	00855803          	lhu	a6,8(a0)
3000b0f4:	01452603          	lw	a2,20(a0)
3000b0f8:	02f707b3          	mul	a5,a4,a5
3000b0fc:	010787b3          	add	a5,a5,a6
3000b100:	00179793          	slli	a5,a5,0x1
3000b104:	00f60733          	add	a4,a2,a5
3000b108:	00d70023          	sb	a3,0(a4)
3000b10c:	01452703          	lw	a4,20(a0)
3000b110:	00c54683          	lbu	a3,12(a0)
3000b114:	00f707b3          	add	a5,a4,a5
3000b118:	00d780a3          	sb	a3,1(a5)
3000b11c:	00855783          	lhu	a5,8(a0)
3000b120:	00455703          	lhu	a4,4(a0)
3000b124:	00178793          	addi	a5,a5,1
3000b128:	01079793          	slli	a5,a5,0x10
3000b12c:	0107d793          	srli	a5,a5,0x10
3000b130:	00f51423          	sh	a5,8(a0)
3000b134:	12e7f663          	bgeu	a5,a4,3000b260 <toPrint.part.1+0x188>
3000b138:	00a55783          	lhu	a5,10(a0)
3000b13c:	00655683          	lhu	a3,6(a0)
3000b140:	02d7fa63          	bgeu	a5,a3,3000b174 <toPrint.part.1+0x9c>
3000b144:	00158593          	addi	a1,a1,1
3000b148:	fff5c683          	lbu	a3,-1(a1)
3000b14c:	12068863          	beqz	a3,3000b27c <toPrint.part.1+0x1a4>
3000b150:	00a55783          	lhu	a5,10(a0)
3000b154:	f8669ce3          	bne	a3,t1,3000b0ec <toPrint.part.1+0x14>
3000b158:	00178793          	addi	a5,a5,1
3000b15c:	01079793          	slli	a5,a5,0x10
3000b160:	00655683          	lhu	a3,6(a0)
3000b164:	0107d793          	srli	a5,a5,0x10
3000b168:	00051423          	sh	zero,8(a0)
3000b16c:	00f51523          	sh	a5,10(a0)
3000b170:	fcd7eae3          	bltu	a5,a3,3000b144 <toPrint.part.1+0x6c>
3000b174:	fff68893          	addi	a7,a3,-1
3000b178:	01151523          	sh	a7,10(a0)
3000b17c:	fc0684e3          	beqz	a3,3000b144 <toPrint.part.1+0x6c>
3000b180:	00455783          	lhu	a5,4(a0)
3000b184:	00000613          	li	a2,0
3000b188:	02f60833          	mul	a6,a2,a5
3000b18c:	00181713          	slli	a4,a6,0x1
3000b190:	07164463          	blt	a2,a7,3000b1f8 <toPrint.part.1+0x120>
3000b194:	00000813          	li	a6,0
3000b198:	04078063          	beqz	a5,3000b1d8 <toPrint.part.1+0x100>
3000b19c:	01452683          	lw	a3,20(a0)
3000b1a0:	00170893          	addi	a7,a4,1
3000b1a4:	00180813          	addi	a6,a6,1
3000b1a8:	00e686b3          	add	a3,a3,a4
3000b1ac:	00068023          	sb	zero,0(a3)
3000b1b0:	01452783          	lw	a5,20(a0)
3000b1b4:	00c54683          	lbu	a3,12(a0)
3000b1b8:	01081813          	slli	a6,a6,0x10
3000b1bc:	011787b3          	add	a5,a5,a7
3000b1c0:	00d78023          	sb	a3,0(a5)
3000b1c4:	00455783          	lhu	a5,4(a0)
3000b1c8:	01085813          	srli	a6,a6,0x10
3000b1cc:	00270713          	addi	a4,a4,2
3000b1d0:	fcf866e3          	bltu	a6,a5,3000b19c <toPrint.part.1+0xc4>
3000b1d4:	00655683          	lhu	a3,6(a0)
3000b1d8:	00160613          	addi	a2,a2,1
3000b1dc:	01061613          	slli	a2,a2,0x10
3000b1e0:	01065613          	srli	a2,a2,0x10
3000b1e4:	f6d670e3          	bgeu	a2,a3,3000b144 <toPrint.part.1+0x6c>
3000b1e8:	02f60833          	mul	a6,a2,a5
3000b1ec:	fff68893          	addi	a7,a3,-1
3000b1f0:	00181713          	slli	a4,a6,0x1
3000b1f4:	fb1650e3          	bge	a2,a7,3000b194 <toPrint.part.1+0xbc>
3000b1f8:	fe0780e3          	beqz	a5,3000b1d8 <toPrint.part.1+0x100>
3000b1fc:	010787b3          	add	a5,a5,a6
3000b200:	00179693          	slli	a3,a5,0x1
3000b204:	00170e93          	addi	t4,a4,1
3000b208:	00000813          	li	a6,0
3000b20c:	40d70733          	sub	a4,a4,a3
3000b210:	40de8eb3          	sub	t4,t4,a3
3000b214:	01452783          	lw	a5,20(a0)
3000b218:	00168893          	addi	a7,a3,1
3000b21c:	00de8f33          	add	t5,t4,a3
3000b220:	00d787b3          	add	a5,a5,a3
3000b224:	0007ce03          	lbu	t3,0(a5)
3000b228:	00e787b3          	add	a5,a5,a4
3000b22c:	00180813          	addi	a6,a6,1
3000b230:	01c78023          	sb	t3,0(a5)
3000b234:	01452e03          	lw	t3,20(a0)
3000b238:	01081813          	slli	a6,a6,0x10
3000b23c:	01085813          	srli	a6,a6,0x10
3000b240:	011e07b3          	add	a5,t3,a7
3000b244:	0007c883          	lbu	a7,0(a5)
3000b248:	01ee0e33          	add	t3,t3,t5
3000b24c:	00268693          	addi	a3,a3,2
3000b250:	011e0023          	sb	a7,0(t3)
3000b254:	00455783          	lhu	a5,4(a0)
3000b258:	faf86ee3          	bltu	a6,a5,3000b214 <toPrint.part.1+0x13c>
3000b25c:	f79ff06f          	j	3000b1d4 <toPrint.part.1+0xfc>
3000b260:	00a55783          	lhu	a5,10(a0)
3000b264:	00051423          	sh	zero,8(a0)
3000b268:	00178793          	addi	a5,a5,1
3000b26c:	01079793          	slli	a5,a5,0x10
3000b270:	0107d793          	srli	a5,a5,0x10
3000b274:	00f51523          	sh	a5,10(a0)
3000b278:	ec5ff06f          	j	3000b13c <toPrint.part.1+0x64>
3000b27c:	00000513          	li	a0,0
3000b280:	00008067          	ret

3000b284 <gfLoadFontFS>:
3000b284:	fb010113          	addi	sp,sp,-80
3000b288:	04812423          	sw	s0,72(sp)
3000b28c:	00100613          	li	a2,1
3000b290:	00050413          	mv	s0,a0
3000b294:	00c10513          	addi	a0,sp,12
3000b298:	05212023          	sw	s2,64(sp)
3000b29c:	04112623          	sw	ra,76(sp)
3000b2a0:	04912223          	sw	s1,68(sp)
3000b2a4:	03312e23          	sw	s3,60(sp)
3000b2a8:	d20fe0ef          	jal	ra,300097c8 <osFOpen>
3000b2ac:	00000913          	li	s2,0
3000b2b0:	02050263          	beqz	a0,3000b2d4 <gfLoadFontFS+0x50>
3000b2b4:	04c12083          	lw	ra,76(sp)
3000b2b8:	04812403          	lw	s0,72(sp)
3000b2bc:	00090513          	mv	a0,s2
3000b2c0:	04412483          	lw	s1,68(sp)
3000b2c4:	04012903          	lw	s2,64(sp)
3000b2c8:	03c12983          	lw	s3,60(sp)
3000b2cc:	05010113          	addi	sp,sp,80
3000b2d0:	00008067          	ret
3000b2d4:	00000693          	li	a3,0
3000b2d8:	00050913          	mv	s2,a0
3000b2dc:	00200613          	li	a2,2
3000b2e0:	00810593          	addi	a1,sp,8
3000b2e4:	00c10513          	addi	a0,sp,12
3000b2e8:	da0fe0ef          	jal	ra,30009888 <osFRead>
3000b2ec:	00914783          	lbu	a5,9(sp)
3000b2f0:	00814683          	lbu	a3,8(sp)
3000b2f4:	00400713          	li	a4,4
3000b2f8:	00879793          	slli	a5,a5,0x8
3000b2fc:	00d7e7b3          	or	a5,a5,a3
3000b300:	01079793          	slli	a5,a5,0x10
3000b304:	4107d793          	srai	a5,a5,0x10
3000b308:	10e79663          	bne	a5,a4,3000b414 <gfLoadFontFS+0x190>
3000b30c:	00000693          	li	a3,0
3000b310:	00200613          	li	a2,2
3000b314:	00810593          	addi	a1,sp,8
3000b318:	00f41023          	sh	a5,0(s0)
3000b31c:	00c10513          	addi	a0,sp,12
3000b320:	d68fe0ef          	jal	ra,30009888 <osFRead>
3000b324:	00914783          	lbu	a5,9(sp)
3000b328:	00814703          	lbu	a4,8(sp)
3000b32c:	00000693          	li	a3,0
3000b330:	00879793          	slli	a5,a5,0x8
3000b334:	00e7e7b3          	or	a5,a5,a4
3000b338:	00200613          	li	a2,2
3000b33c:	00810593          	addi	a1,sp,8
3000b340:	00f41123          	sh	a5,2(s0)
3000b344:	00c10513          	addi	a0,sp,12
3000b348:	d40fe0ef          	jal	ra,30009888 <osFRead>
3000b34c:	00914783          	lbu	a5,9(sp)
3000b350:	00814703          	lbu	a4,8(sp)
3000b354:	00000693          	li	a3,0
3000b358:	00879793          	slli	a5,a5,0x8
3000b35c:	00e7e7b3          	or	a5,a5,a4
3000b360:	00200613          	li	a2,2
3000b364:	00810593          	addi	a1,sp,8
3000b368:	00f41223          	sh	a5,4(s0)
3000b36c:	00c10513          	addi	a0,sp,12
3000b370:	d18fe0ef          	jal	ra,30009888 <osFRead>
3000b374:	00914783          	lbu	a5,9(sp)
3000b378:	00814703          	lbu	a4,8(sp)
3000b37c:	00000693          	li	a3,0
3000b380:	00879793          	slli	a5,a5,0x8
3000b384:	00e7e7b3          	or	a5,a5,a4
3000b388:	00200613          	li	a2,2
3000b38c:	00810593          	addi	a1,sp,8
3000b390:	00f41323          	sh	a5,6(s0)
3000b394:	00c10513          	addi	a0,sp,12
3000b398:	cf0fe0ef          	jal	ra,30009888 <osFRead>
3000b39c:	00914783          	lbu	a5,9(sp)
3000b3a0:	00814703          	lbu	a4,8(sp)
3000b3a4:	00000693          	li	a3,0
3000b3a8:	00879793          	slli	a5,a5,0x8
3000b3ac:	00e7e7b3          	or	a5,a5,a4
3000b3b0:	00200613          	li	a2,2
3000b3b4:	00810593          	addi	a1,sp,8
3000b3b8:	00f41423          	sh	a5,8(s0)
3000b3bc:	00c10513          	addi	a0,sp,12
3000b3c0:	cc8fe0ef          	jal	ra,30009888 <osFRead>
3000b3c4:	00914783          	lbu	a5,9(sp)
3000b3c8:	00814703          	lbu	a4,8(sp)
3000b3cc:	00000693          	li	a3,0
3000b3d0:	00879793          	slli	a5,a5,0x8
3000b3d4:	00e7e7b3          	or	a5,a5,a4
3000b3d8:	00200613          	li	a2,2
3000b3dc:	00810593          	addi	a1,sp,8
3000b3e0:	00f41523          	sh	a5,10(s0)
3000b3e4:	00c10513          	addi	a0,sp,12
3000b3e8:	ca0fe0ef          	jal	ra,30009888 <osFRead>
3000b3ec:	00815783          	lhu	a5,8(sp)
3000b3f0:	00000693          	li	a3,0
3000b3f4:	00400613          	li	a2,4
3000b3f8:	00f41623          	sh	a5,12(s0)
3000b3fc:	00810593          	addi	a1,sp,8
3000b400:	00c10513          	addi	a0,sp,12
3000b404:	c84fe0ef          	jal	ra,30009888 <osFRead>
3000b408:	00812703          	lw	a4,8(sp)
3000b40c:	01600793          	li	a5,22
3000b410:	02f70863          	beq	a4,a5,3000b440 <gfLoadFontFS+0x1bc>
3000b414:	00c10513          	addi	a0,sp,12
3000b418:	c08fe0ef          	jal	ra,30009820 <osFClose>
3000b41c:	04c12083          	lw	ra,76(sp)
3000b420:	04812403          	lw	s0,72(sp)
3000b424:	00200913          	li	s2,2
3000b428:	00090513          	mv	a0,s2
3000b42c:	04412483          	lw	s1,68(sp)
3000b430:	04012903          	lw	s2,64(sp)
3000b434:	03c12983          	lw	s3,60(sp)
3000b438:	05010113          	addi	sp,sp,80
3000b43c:	00008067          	ret
3000b440:	00000693          	li	a3,0
3000b444:	00400613          	li	a2,4
3000b448:	00810593          	addi	a1,sp,8
3000b44c:	00c10513          	addi	a0,sp,12
3000b450:	c38fe0ef          	jal	ra,30009888 <osFRead>
3000b454:	00100593          	li	a1,1
3000b458:	10000513          	li	a0,256
3000b45c:	e09fd0ef          	jal	ra,30009264 <osAlloc>
3000b460:	00a42823          	sw	a0,16(s0)
3000b464:	00050023          	sb	zero,0(a0)
3000b468:	00100793          	li	a5,1
3000b46c:	10000693          	li	a3,256
3000b470:	01042703          	lw	a4,16(s0)
3000b474:	00f70733          	add	a4,a4,a5
3000b478:	00070023          	sb	zero,0(a4)
3000b47c:	00178793          	addi	a5,a5,1
3000b480:	fed798e3          	bne	a5,a3,3000b470 <gfLoadFontFS+0x1ec>
3000b484:	00c44483          	lbu	s1,12(s0)
3000b488:	00d44783          	lbu	a5,13(s0)
3000b48c:	0c97e863          	bltu	a5,s1,3000b55c <gfLoadFontFS+0x2d8>
3000b490:	00000993          	li	s3,0
3000b494:	00000693          	li	a3,0
3000b498:	00100613          	li	a2,1
3000b49c:	00810593          	addi	a1,sp,8
3000b4a0:	00c10513          	addi	a0,sp,12
3000b4a4:	be4fe0ef          	jal	ra,30009888 <osFRead>
3000b4a8:	00c44703          	lbu	a4,12(s0)
3000b4ac:	01042783          	lw	a5,16(s0)
3000b4b0:	00814683          	lbu	a3,8(sp)
3000b4b4:	40e48733          	sub	a4,s1,a4
3000b4b8:	00e787b3          	add	a5,a5,a4
3000b4bc:	00d78023          	sb	a3,0(a5)
3000b4c0:	00c44703          	lbu	a4,12(s0)
3000b4c4:	01042783          	lw	a5,16(s0)
3000b4c8:	00d44683          	lbu	a3,13(s0)
3000b4cc:	40e48733          	sub	a4,s1,a4
3000b4d0:	00e787b3          	add	a5,a5,a4
3000b4d4:	0007c783          	lbu	a5,0(a5)
3000b4d8:	00148493          	addi	s1,s1,1
3000b4dc:	00f989b3          	add	s3,s3,a5
3000b4e0:	fa96dae3          	bge	a3,s1,3000b494 <gfLoadFontFS+0x210>
3000b4e4:	00645783          	lhu	a5,6(s0)
3000b4e8:	0019d993          	srli	s3,s3,0x1
3000b4ec:	00100593          	li	a1,1
3000b4f0:	033789b3          	mul	s3,a5,s3
3000b4f4:	00000493          	li	s1,0
3000b4f8:	00098513          	mv	a0,s3
3000b4fc:	d69fd0ef          	jal	ra,30009264 <osAlloc>
3000b500:	00a42a23          	sw	a0,20(s0)
3000b504:	02098863          	beqz	s3,3000b534 <gfLoadFontFS+0x2b0>
3000b508:	00000693          	li	a3,0
3000b50c:	00100613          	li	a2,1
3000b510:	00810593          	addi	a1,sp,8
3000b514:	00c10513          	addi	a0,sp,12
3000b518:	b70fe0ef          	jal	ra,30009888 <osFRead>
3000b51c:	01442783          	lw	a5,20(s0)
3000b520:	00814703          	lbu	a4,8(sp)
3000b524:	009787b3          	add	a5,a5,s1
3000b528:	00e78023          	sb	a4,0(a5)
3000b52c:	00148493          	addi	s1,s1,1
3000b530:	fc999ce3          	bne	s3,s1,3000b508 <gfLoadFontFS+0x284>
3000b534:	00c10513          	addi	a0,sp,12
3000b538:	ae8fe0ef          	jal	ra,30009820 <osFClose>
3000b53c:	04c12083          	lw	ra,76(sp)
3000b540:	04812403          	lw	s0,72(sp)
3000b544:	00090513          	mv	a0,s2
3000b548:	04412483          	lw	s1,68(sp)
3000b54c:	04012903          	lw	s2,64(sp)
3000b550:	03c12983          	lw	s3,60(sp)
3000b554:	05010113          	addi	sp,sp,80
3000b558:	00008067          	ret
3000b55c:	00100593          	li	a1,1
3000b560:	00000513          	li	a0,0
3000b564:	d01fd0ef          	jal	ra,30009264 <osAlloc>
3000b568:	00a42a23          	sw	a0,20(s0)
3000b56c:	fc9ff06f          	j	3000b534 <gfLoadFontFS+0x2b0>

3000b570 <gfPutChar>:
3000b570:	fb010113          	addi	sp,sp,-80
3000b574:	04112623          	sw	ra,76(sp)
3000b578:	04812423          	sw	s0,72(sp)
3000b57c:	04912223          	sw	s1,68(sp)
3000b580:	05212023          	sw	s2,64(sp)
3000b584:	03312e23          	sw	s3,60(sp)
3000b588:	03412c23          	sw	s4,56(sp)
3000b58c:	03512a23          	sw	s5,52(sp)
3000b590:	03612823          	sw	s6,48(sp)
3000b594:	03712623          	sw	s7,44(sp)
3000b598:	03812423          	sw	s8,40(sp)
3000b59c:	03912223          	sw	s9,36(sp)
3000b5a0:	03a12023          	sw	s10,32(sp)
3000b5a4:	01b12e23          	sw	s11,28(sp)
3000b5a8:	00c5cb03          	lbu	s6,12(a1)
3000b5ac:	00000793          	li	a5,0
3000b5b0:	1d676a63          	bltu	a4,s6,3000b784 <gfPutChar+0x214>
3000b5b4:	00d5c803          	lbu	a6,13(a1)
3000b5b8:	00000793          	li	a5,0
3000b5bc:	1ce86463          	bltu	a6,a4,3000b784 <gfPutChar+0x214>
3000b5c0:	00060a93          	mv	s5,a2
3000b5c4:	0005d603          	lhu	a2,0(a1)
3000b5c8:	00058413          	mv	s0,a1
3000b5cc:	00100593          	li	a1,1
3000b5d0:	00050493          	mv	s1,a0
3000b5d4:	22b60a63          	beq	a2,a1,3000b808 <gfPutChar+0x298>
3000b5d8:	00400593          	li	a1,4
3000b5dc:	1ab61463          	bne	a2,a1,3000b784 <gfPutChar+0x214>
3000b5e0:	41670733          	sub	a4,a4,s6
3000b5e4:	0ff77b13          	andi	s6,a4,255
3000b5e8:	01042703          	lw	a4,16(s0)
3000b5ec:	320b0c63          	beqz	s6,3000b924 <gfPutChar+0x3b4>
3000b5f0:	01670833          	add	a6,a4,s6
3000b5f4:	00000793          	li	a5,0
3000b5f8:	00074603          	lbu	a2,0(a4)
3000b5fc:	00170713          	addi	a4,a4,1
3000b600:	00167593          	andi	a1,a2,1
3000b604:	00160513          	addi	a0,a2,1
3000b608:	1e058a63          	beqz	a1,3000b7fc <gfPutChar+0x28c>
3000b60c:	00a787b3          	add	a5,a5,a0
3000b610:	fee814e3          	bne	a6,a4,3000b5f8 <gfPutChar+0x88>
3000b614:	0017d793          	srli	a5,a5,0x1
3000b618:	00645583          	lhu	a1,6(s0)
3000b61c:	00084703          	lbu	a4,0(a6)
3000b620:	02f58633          	mul	a2,a1,a5
3000b624:	14058c63          	beqz	a1,3000b77c <gfPutChar+0x20c>
3000b628:	010a9c13          	slli	s8,s5,0x10
3000b62c:	010c5c13          	srli	s8,s8,0x10
3000b630:	001c0793          	addi	a5,s8,1
3000b634:	01069a13          	slli	s4,a3,0x10
3000b638:	010a5a13          	srli	s4,s4,0x10
3000b63c:	00f12223          	sw	a5,4(sp)
3000b640:	00100d93          	li	s11,1
3000b644:	001a8793          	addi	a5,s5,1
3000b648:	00f12423          	sw	a5,8(sp)
3000b64c:	414d87b3          	sub	a5,s11,s4
3000b650:	0f000b93          	li	s7,240
3000b654:	00f12623          	sw	a5,12(sp)
3000b658:	010a1913          	slli	s2,s4,0x10
3000b65c:	00000d93          	li	s11,0
3000b660:	41095913          	srai	s2,s2,0x10
3000b664:	0e070c63          	beqz	a4,3000b75c <gfPutChar+0x1ec>
3000b668:	01442703          	lw	a4,20(s0)
3000b66c:	00245683          	lhu	a3,2(s0)
3000b670:	00160993          	addi	s3,a2,1
3000b674:	00c70733          	add	a4,a4,a2
3000b678:	0016f613          	andi	a2,a3,1
3000b67c:	00074d03          	lbu	s10,0(a4)
3000b680:	04061e63          	bnez	a2,3000b6dc <gfPutChar+0x16c>
3000b684:	00412783          	lw	a5,4(sp)
3000b688:	010d9713          	slli	a4,s11,0x10
3000b68c:	01075713          	srli	a4,a4,0x10
3000b690:	00f70633          	add	a2,a4,a5
3000b694:	018705b3          	add	a1,a4,s8
3000b698:	01061c93          	slli	s9,a2,0x10
3000b69c:	0026f713          	andi	a4,a3,2
3000b6a0:	01059593          	slli	a1,a1,0x10
3000b6a4:	4105d593          	srai	a1,a1,0x10
3000b6a8:	00a45683          	lhu	a3,10(s0)
3000b6ac:	410cdc93          	srai	s9,s9,0x10
3000b6b0:	00090613          	mv	a2,s2
3000b6b4:	10070863          	beqz	a4,3000b7c4 <gfPutChar+0x254>
3000b6b8:	08000713          	li	a4,128
3000b6bc:	00048513          	mv	a0,s1
3000b6c0:	ff9fe0ef          	jal	ra,3000a6b8 <gfPlotA>
3000b6c4:	00a45683          	lhu	a3,10(s0)
3000b6c8:	08000713          	li	a4,128
3000b6cc:	00090613          	mv	a2,s2
3000b6d0:	000c8593          	mv	a1,s9
3000b6d4:	00048513          	mv	a0,s1
3000b6d8:	fe1fe0ef          	jal	ra,3000a6b8 <gfPlotA>
3000b6dc:	004d1c93          	slli	s9,s10,0x4
3000b6e0:	0f0d7713          	andi	a4,s10,240
3000b6e4:	0f0cfd13          	andi	s10,s9,240
3000b6e8:	02070263          	beqz	a4,3000b70c <gfPutChar+0x19c>
3000b6ec:	015d85b3          	add	a1,s11,s5
3000b6f0:	01059593          	slli	a1,a1,0x10
3000b6f4:	4105d593          	srai	a1,a1,0x10
3000b6f8:	00845683          	lhu	a3,8(s0)
3000b6fc:	00090613          	mv	a2,s2
3000b700:	00048513          	mv	a0,s1
3000b704:	0f770063          	beq	a4,s7,3000b7e4 <gfPutChar+0x274>
3000b708:	fb1fe0ef          	jal	ra,3000a6b8 <gfPlotA>
3000b70c:	020d0663          	beqz	s10,3000b738 <gfPutChar+0x1c8>
3000b710:	00812783          	lw	a5,8(sp)
3000b714:	00845683          	lhu	a3,8(s0)
3000b718:	01b785b3          	add	a1,a5,s11
3000b71c:	01059593          	slli	a1,a1,0x10
3000b720:	4105d593          	srai	a1,a1,0x10
3000b724:	0d7d0463          	beq	s10,s7,3000b7ec <gfPutChar+0x27c>
3000b728:	0f0cf713          	andi	a4,s9,240
3000b72c:	00090613          	mv	a2,s2
3000b730:	00048513          	mv	a0,s1
3000b734:	f85fe0ef          	jal	ra,3000a6b8 <gfPlotA>
3000b738:	01042703          	lw	a4,16(s0)
3000b73c:	002d8793          	addi	a5,s11,2
3000b740:	01079d93          	slli	s11,a5,0x10
3000b744:	01670733          	add	a4,a4,s6
3000b748:	00074703          	lbu	a4,0(a4)
3000b74c:	410ddd93          	srai	s11,s11,0x10
3000b750:	00098613          	mv	a2,s3
3000b754:	f0edcae3          	blt	s11,a4,3000b668 <gfPutChar+0xf8>
3000b758:	00645583          	lhu	a1,6(s0)
3000b75c:	00c12783          	lw	a5,12(sp)
3000b760:	00fa07b3          	add	a5,s4,a5
3000b764:	01079793          	slli	a5,a5,0x10
3000b768:	001a0a13          	addi	s4,s4,1
3000b76c:	010a1a13          	slli	s4,s4,0x10
3000b770:	4107d793          	srai	a5,a5,0x10
3000b774:	010a5a13          	srli	s4,s4,0x10
3000b778:	eeb7c0e3          	blt	a5,a1,3000b658 <gfPutChar+0xe8>
3000b77c:	01071793          	slli	a5,a4,0x10
3000b780:	4107d793          	srai	a5,a5,0x10
3000b784:	04c12083          	lw	ra,76(sp)
3000b788:	04812403          	lw	s0,72(sp)
3000b78c:	04412483          	lw	s1,68(sp)
3000b790:	04012903          	lw	s2,64(sp)
3000b794:	03c12983          	lw	s3,60(sp)
3000b798:	03812a03          	lw	s4,56(sp)
3000b79c:	03412a83          	lw	s5,52(sp)
3000b7a0:	03012b03          	lw	s6,48(sp)
3000b7a4:	02c12b83          	lw	s7,44(sp)
3000b7a8:	02812c03          	lw	s8,40(sp)
3000b7ac:	02412c83          	lw	s9,36(sp)
3000b7b0:	02012d03          	lw	s10,32(sp)
3000b7b4:	01c12d83          	lw	s11,28(sp)
3000b7b8:	00078513          	mv	a0,a5
3000b7bc:	05010113          	addi	sp,sp,80
3000b7c0:	00008067          	ret
3000b7c4:	00048513          	mv	a0,s1
3000b7c8:	e5dfe0ef          	jal	ra,3000a624 <gfPlot>
3000b7cc:	00a45683          	lhu	a3,10(s0)
3000b7d0:	00090613          	mv	a2,s2
3000b7d4:	000c8593          	mv	a1,s9
3000b7d8:	00048513          	mv	a0,s1
3000b7dc:	e49fe0ef          	jal	ra,3000a624 <gfPlot>
3000b7e0:	efdff06f          	j	3000b6dc <gfPutChar+0x16c>
3000b7e4:	e41fe0ef          	jal	ra,3000a624 <gfPlot>
3000b7e8:	f25ff06f          	j	3000b70c <gfPutChar+0x19c>
3000b7ec:	00090613          	mv	a2,s2
3000b7f0:	00048513          	mv	a0,s1
3000b7f4:	e31fe0ef          	jal	ra,3000a624 <gfPlot>
3000b7f8:	f41ff06f          	j	3000b738 <gfPutChar+0x1c8>
3000b7fc:	00c787b3          	add	a5,a5,a2
3000b800:	dee81ce3          	bne	a6,a4,3000b5f8 <gfPutChar+0x88>
3000b804:	e11ff06f          	j	3000b614 <gfPutChar+0xa4>
3000b808:	00645603          	lhu	a2,6(s0)
3000b80c:	41670733          	sub	a4,a4,s6
3000b810:	0ff77713          	andi	a4,a4,255
3000b814:	02c70733          	mul	a4,a4,a2
3000b818:	01442b83          	lw	s7,20(s0)
3000b81c:	00445783          	lhu	a5,4(s0)
3000b820:	00eb8bb3          	add	s7,s7,a4
3000b824:	0e060463          	beqz	a2,3000b90c <gfPutChar+0x39c>
3000b828:	01069a13          	slli	s4,a3,0x10
3000b82c:	010a5a13          	srli	s4,s4,0x10
3000b830:	00100c13          	li	s8,1
3000b834:	414c0c33          	sub	s8,s8,s4
3000b838:	001b8b93          	addi	s7,s7,1
3000b83c:	fffbc983          	lbu	s3,-1(s7)
3000b840:	0a078863          	beqz	a5,3000b8f0 <gfPutChar+0x380>
3000b844:	010a1b13          	slli	s6,s4,0x10
3000b848:	00000913          	li	s2,0
3000b84c:	410b5b13          	srai	s6,s6,0x10
3000b850:	0580006f          	j	3000b8a8 <gfPutChar+0x338>
3000b854:	00245703          	lhu	a4,2(s0)
3000b858:	015905b3          	add	a1,s2,s5
3000b85c:	01059893          	slli	a7,a1,0x10
3000b860:	00177693          	andi	a3,a4,1
3000b864:	4108d893          	srai	a7,a7,0x10
3000b868:	00277813          	andi	a6,a4,2
3000b86c:	02069263          	bnez	a3,3000b890 <gfPutChar+0x320>
3000b870:	000b0613          	mv	a2,s6
3000b874:	00088593          	mv	a1,a7
3000b878:	00048513          	mv	a0,s1
3000b87c:	08000713          	li	a4,128
3000b880:	00a45683          	lhu	a3,10(s0)
3000b884:	08080a63          	beqz	a6,3000b918 <gfPutChar+0x3a8>
3000b888:	e31fe0ef          	jal	ra,3000a6b8 <gfPlotA>
3000b88c:	00445783          	lhu	a5,4(s0)
3000b890:	00190913          	addi	s2,s2,1
3000b894:	01091913          	slli	s2,s2,0x10
3000b898:	00199993          	slli	s3,s3,0x1
3000b89c:	41095913          	srai	s2,s2,0x10
3000b8a0:	0ff9f993          	andi	s3,s3,255
3000b8a4:	04f95463          	bge	s2,a5,3000b8ec <gfPutChar+0x37c>
3000b8a8:	01899713          	slli	a4,s3,0x18
3000b8ac:	41875713          	srai	a4,a4,0x18
3000b8b0:	fa0752e3          	bgez	a4,3000b854 <gfPutChar+0x2e4>
3000b8b4:	012a85b3          	add	a1,s5,s2
3000b8b8:	00845683          	lhu	a3,8(s0)
3000b8bc:	01059593          	slli	a1,a1,0x10
3000b8c0:	000b0613          	mv	a2,s6
3000b8c4:	4105d593          	srai	a1,a1,0x10
3000b8c8:	00048513          	mv	a0,s1
3000b8cc:	d59fe0ef          	jal	ra,3000a624 <gfPlot>
3000b8d0:	00190913          	addi	s2,s2,1
3000b8d4:	00445783          	lhu	a5,4(s0)
3000b8d8:	01091913          	slli	s2,s2,0x10
3000b8dc:	00199993          	slli	s3,s3,0x1
3000b8e0:	41095913          	srai	s2,s2,0x10
3000b8e4:	0ff9f993          	andi	s3,s3,255
3000b8e8:	fcf940e3          	blt	s2,a5,3000b8a8 <gfPutChar+0x338>
3000b8ec:	00645603          	lhu	a2,6(s0)
3000b8f0:	018a0733          	add	a4,s4,s8
3000b8f4:	01071713          	slli	a4,a4,0x10
3000b8f8:	001a0a13          	addi	s4,s4,1
3000b8fc:	010a1a13          	slli	s4,s4,0x10
3000b900:	41075713          	srai	a4,a4,0x10
3000b904:	010a5a13          	srli	s4,s4,0x10
3000b908:	f2c748e3          	blt	a4,a2,3000b838 <gfPutChar+0x2c8>
3000b90c:	01079793          	slli	a5,a5,0x10
3000b910:	4107d793          	srai	a5,a5,0x10
3000b914:	e71ff06f          	j	3000b784 <gfPutChar+0x214>
3000b918:	d0dfe0ef          	jal	ra,3000a624 <gfPlot>
3000b91c:	00445783          	lhu	a5,4(s0)
3000b920:	f71ff06f          	j	3000b890 <gfPutChar+0x320>
3000b924:	00000793          	li	a5,0
3000b928:	00070813          	mv	a6,a4
3000b92c:	cedff06f          	j	3000b618 <gfPutChar+0xa8>

3000b930 <gfPutString>:
3000b930:	fe010113          	addi	sp,sp,-32
3000b934:	01212823          	sw	s2,16(sp)
3000b938:	00112e23          	sw	ra,28(sp)
3000b93c:	00812c23          	sw	s0,24(sp)
3000b940:	00912a23          	sw	s1,20(sp)
3000b944:	01312623          	sw	s3,12(sp)
3000b948:	01412423          	sw	s4,8(sp)
3000b94c:	01512223          	sw	s5,4(sp)
3000b950:	00070913          	mv	s2,a4
3000b954:	00074703          	lbu	a4,0(a4)
3000b958:	08070263          	beqz	a4,3000b9dc <gfPutString+0xac>
3000b95c:	00050993          	mv	s3,a0
3000b960:	00058a13          	mv	s4,a1
3000b964:	00060413          	mv	s0,a2
3000b968:	00068a93          	mv	s5,a3
3000b96c:	00190913          	addi	s2,s2,1
3000b970:	00000493          	li	s1,0
3000b974:	00040613          	mv	a2,s0
3000b978:	000a8693          	mv	a3,s5
3000b97c:	000a0593          	mv	a1,s4
3000b980:	00098513          	mv	a0,s3
3000b984:	bedff0ef          	jal	ra,3000b570 <gfPutChar>
3000b988:	00190913          	addi	s2,s2,1
3000b98c:	01051513          	slli	a0,a0,0x10
3000b990:	01055513          	srli	a0,a0,0x10
3000b994:	fff94703          	lbu	a4,-1(s2)
3000b998:	00850433          	add	s0,a0,s0
3000b99c:	009504b3          	add	s1,a0,s1
3000b9a0:	01041413          	slli	s0,s0,0x10
3000b9a4:	01049493          	slli	s1,s1,0x10
3000b9a8:	41045413          	srai	s0,s0,0x10
3000b9ac:	4104d493          	srai	s1,s1,0x10
3000b9b0:	fc0712e3          	bnez	a4,3000b974 <gfPutString+0x44>
3000b9b4:	01c12083          	lw	ra,28(sp)
3000b9b8:	01812403          	lw	s0,24(sp)
3000b9bc:	00048513          	mv	a0,s1
3000b9c0:	01012903          	lw	s2,16(sp)
3000b9c4:	01412483          	lw	s1,20(sp)
3000b9c8:	00c12983          	lw	s3,12(sp)
3000b9cc:	00812a03          	lw	s4,8(sp)
3000b9d0:	00412a83          	lw	s5,4(sp)
3000b9d4:	02010113          	addi	sp,sp,32
3000b9d8:	00008067          	ret
3000b9dc:	00000493          	li	s1,0
3000b9e0:	fd5ff06f          	j	3000b9b4 <gfPutString+0x84>

3000b9e4 <gfDrawTextOverlay>:
3000b9e4:	0005d703          	lhu	a4,0(a1)
3000b9e8:	000087b7          	lui	a5,0x8
3000b9ec:	2ef70a63          	beq	a4,a5,3000bce0 <gfDrawTextOverlay+0x2fc>
3000b9f0:	fb010113          	addi	sp,sp,-80
3000b9f4:	03a12023          	sw	s10,32(sp)
3000b9f8:	0105ad03          	lw	s10,16(a1)
3000b9fc:	0065d703          	lhu	a4,6(a1)
3000ba00:	04112623          	sw	ra,76(sp)
3000ba04:	04812423          	sw	s0,72(sp)
3000ba08:	04912223          	sw	s1,68(sp)
3000ba0c:	05212023          	sw	s2,64(sp)
3000ba10:	03312e23          	sw	s3,60(sp)
3000ba14:	03412c23          	sw	s4,56(sp)
3000ba18:	03512a23          	sw	s5,52(sp)
3000ba1c:	03612823          	sw	s6,48(sp)
3000ba20:	03712623          	sw	s7,44(sp)
3000ba24:	03812423          	sw	s8,40(sp)
3000ba28:	03912223          	sw	s9,36(sp)
3000ba2c:	01b12e23          	sw	s11,28(sp)
3000ba30:	000d1123          	sh	zero,2(s10)
3000ba34:	18070863          	beqz	a4,3000bbc4 <gfDrawTextOverlay+0x1e0>
3000ba38:	00058c93          	mv	s9,a1
3000ba3c:	ffff8bb7          	lui	s7,0xffff8
3000ba40:	0045d583          	lhu	a1,4(a1)
3000ba44:	400b8793          	addi	a5,s7,1024 # ffff8400 <__bss_end__+0xcfef8400>
3000ba48:	00068993          	mv	s3,a3
3000ba4c:	00060913          	mv	s2,a2
3000ba50:	00050493          	mv	s1,a0
3000ba54:	00008c37          	lui	s8,0x8
3000ba58:	00000413          	li	s0,0
3000ba5c:	00000a13          	li	s4,0
3000ba60:	00f12623          	sw	a5,12(sp)
3000ba64:	034587b3          	mul	a5,a1,s4
3000ba68:	014ca803          	lw	a6,20(s9)
3000ba6c:	01041413          	slli	s0,s0,0x10
3000ba70:	01045413          	srli	s0,s0,0x10
3000ba74:	00179793          	slli	a5,a5,0x1
3000ba78:	00f80bb3          	add	s7,a6,a5
3000ba7c:	12058a63          	beqz	a1,3000bbb0 <gfDrawTextOverlay+0x1cc>
3000ba80:	00000793          	li	a5,0
3000ba84:	00000513          	li	a0,0
3000ba88:	00700a93          	li	s5,7
3000ba8c:	410c0b13          	addi	s6,s8,1040 # 8410 <stackPointer+0x2990>
3000ba90:	002cd683          	lhu	a3,2(s9)
3000ba94:	000bc603          	lbu	a2,0(s7)
3000ba98:	01079d93          	slli	s11,a5,0x10
3000ba9c:	002b8b93          	addi	s7,s7,2
3000baa0:	0016f693          	andi	a3,a3,1
3000baa4:	fffbc703          	lbu	a4,-1(s7)
3000baa8:	010ddd93          	srli	s11,s11,0x10
3000baac:	00068663          	beqz	a3,3000bab8 <gfDrawTextOverlay+0xd4>
3000bab0:	008cd783          	lhu	a5,8(s9)
3000bab4:	14a78863          	beq	a5,a0,3000bc04 <gfDrawTextOverlay+0x220>
3000bab8:	0e070063          	beqz	a4,3000bb98 <gfDrawTextOverlay+0x1b4>
3000babc:	00465513          	srli	a0,a2,0x4
3000bac0:	00867f93          	andi	t6,a2,8
3000bac4:	00167f13          	andi	t5,a2,1
3000bac8:	00267293          	andi	t0,a2,2
3000bacc:	00857e93          	andi	t4,a0,8
3000bad0:	00467613          	andi	a2,a2,4
3000bad4:	00157693          	andi	a3,a0,1
3000bad8:	00257e13          	andi	t3,a0,2
3000badc:	00457593          	andi	a1,a0,4
3000bae0:	180f8663          	beqz	t6,3000bc6c <gfDrawTextOverlay+0x288>
3000bae4:	41e00f33          	neg	t5,t5
3000bae8:	005037b3          	snez	a5,t0
3000baec:	0fff7f13          	andi	t5,t5,255
3000baf0:	40f007b3          	neg	a5,a5
3000baf4:	008f1f13          	slli	t5,t5,0x8
3000baf8:	00c03633          	snez	a2,a2
3000bafc:	7e07f793          	andi	a5,a5,2016
3000bb00:	800f7f13          	andi	t5,t5,-2048
3000bb04:	40c00633          	neg	a2,a2
3000bb08:	01e7e7b3          	or	a5,a5,t5
3000bb0c:	01f67613          	andi	a2,a2,31
3000bb10:	00c7e7b3          	or	a5,a5,a2
3000bb14:	01079793          	slli	a5,a5,0x10
3000bb18:	4107d793          	srai	a5,a5,0x10
3000bb1c:	00fd1423          	sh	a5,8(s10)
3000bb20:	100e8863          	beqz	t4,3000bc30 <gfDrawTextOverlay+0x24c>
3000bb24:	40d006b3          	neg	a3,a3
3000bb28:	01c037b3          	snez	a5,t3
3000bb2c:	0ff6f693          	andi	a3,a3,255
3000bb30:	40f007b3          	neg	a5,a5
3000bb34:	00869693          	slli	a3,a3,0x8
3000bb38:	00b035b3          	snez	a1,a1
3000bb3c:	7e07f793          	andi	a5,a5,2016
3000bb40:	8006f693          	andi	a3,a3,-2048
3000bb44:	40b005b3          	neg	a1,a1
3000bb48:	01f5f593          	andi	a1,a1,31
3000bb4c:	00d7e7b3          	or	a5,a5,a3
3000bb50:	00b7e7b3          	or	a5,a5,a1
3000bb54:	00000593          	li	a1,0
3000bb58:	006d5683          	lhu	a3,6(s10)
3000bb5c:	004d5603          	lhu	a2,4(s10)
3000bb60:	00bd1123          	sh	a1,2(s10)
3000bb64:	02d406b3          	mul	a3,s0,a3
3000bb68:	000d0593          	mv	a1,s10
3000bb6c:	00fd1523          	sh	a5,10(s10)
3000bb70:	00048513          	mv	a0,s1
3000bb74:	02cd8633          	mul	a2,s11,a2
3000bb78:	013686b3          	add	a3,a3,s3
3000bb7c:	01069693          	slli	a3,a3,0x10
3000bb80:	4106d693          	srai	a3,a3,0x10
3000bb84:	01260633          	add	a2,a2,s2
3000bb88:	01061613          	slli	a2,a2,0x10
3000bb8c:	41065613          	srai	a2,a2,0x10
3000bb90:	9e1ff0ef          	jal	ra,3000b570 <gfPutChar>
3000bb94:	004cd583          	lhu	a1,4(s9)
3000bb98:	001d8793          	addi	a5,s11,1
3000bb9c:	01079793          	slli	a5,a5,0x10
3000bba0:	4107d793          	srai	a5,a5,0x10
3000bba4:	00078513          	mv	a0,a5
3000bba8:	eeb7c4e3          	blt	a5,a1,3000ba90 <gfDrawTextOverlay+0xac>
3000bbac:	006cd703          	lhu	a4,6(s9)
3000bbb0:	00140413          	addi	s0,s0,1
3000bbb4:	01041413          	slli	s0,s0,0x10
3000bbb8:	41045413          	srai	s0,s0,0x10
3000bbbc:	00040a13          	mv	s4,s0
3000bbc0:	eae442e3          	blt	s0,a4,3000ba64 <gfDrawTextOverlay+0x80>
3000bbc4:	04c12083          	lw	ra,76(sp)
3000bbc8:	04812403          	lw	s0,72(sp)
3000bbcc:	04412483          	lw	s1,68(sp)
3000bbd0:	04012903          	lw	s2,64(sp)
3000bbd4:	03c12983          	lw	s3,60(sp)
3000bbd8:	03812a03          	lw	s4,56(sp)
3000bbdc:	03412a83          	lw	s5,52(sp)
3000bbe0:	03012b03          	lw	s6,48(sp)
3000bbe4:	02c12b83          	lw	s7,44(sp)
3000bbe8:	02812c03          	lw	s8,40(sp)
3000bbec:	02412c83          	lw	s9,36(sp)
3000bbf0:	02012d03          	lw	s10,32(sp)
3000bbf4:	01c12d83          	lw	s11,28(sp)
3000bbf8:	00000513          	li	a0,0
3000bbfc:	05010113          	addi	sp,sp,80
3000bc00:	00008067          	ret
3000bc04:	00acd783          	lhu	a5,10(s9)
3000bc08:	eb4798e3          	bne	a5,s4,3000bab8 <gfDrawTextOverlay+0xd4>
3000bc0c:	0a070a63          	beqz	a4,3000bcc0 <gfDrawTextOverlay+0x2dc>
3000bc10:	00000793          	li	a5,0
3000bc14:	00800e93          	li	t4,8
3000bc18:	00fd1423          	sh	a5,8(s10)
3000bc1c:	00400593          	li	a1,4
3000bc20:	00200e13          	li	t3,2
3000bc24:	00100693          	li	a3,1
3000bc28:	00f00513          	li	a0,15
3000bc2c:	ee0e9ce3          	bnez	t4,3000bb24 <gfDrawTextOverlay+0x140>
3000bc30:	06069463          	bnez	a3,3000bc98 <gfDrawTextOverlay+0x2b4>
3000bc34:	00000e93          	li	t4,0
3000bc38:	01000613          	li	a2,16
3000bc3c:	40000693          	li	a3,1024
3000bc40:	41000793          	li	a5,1040
3000bc44:	000e1663          	bnez	t3,3000bc50 <gfDrawTextOverlay+0x26c>
3000bc48:	000e8693          	mv	a3,t4
3000bc4c:	00060793          	mv	a5,a2
3000bc50:	00059463          	bnez	a1,3000bc58 <gfDrawTextOverlay+0x274>
3000bc54:	00068793          	mv	a5,a3
3000bc58:	00000593          	li	a1,0
3000bc5c:	ef551ee3          	bne	a0,s5,3000bb58 <gfDrawTextOverlay+0x174>
3000bc60:	00000793          	li	a5,0
3000bc64:	00200593          	li	a1,2
3000bc68:	ef1ff06f          	j	3000bb58 <gfDrawTextOverlay+0x174>
3000bc6c:	040f0263          	beqz	t5,3000bcb0 <gfDrawTextOverlay+0x2cc>
3000bc70:	00c12783          	lw	a5,12(sp)
3000bc74:	ffff8f37          	lui	t5,0xffff8
3000bc78:	00028c63          	beqz	t0,3000bc90 <gfDrawTextOverlay+0x2ac>
3000bc7c:	ea0600e3          	beqz	a2,3000bb1c <gfDrawTextOverlay+0x138>
3000bc80:	0107e793          	ori	a5,a5,16
3000bc84:	01079793          	slli	a5,a5,0x10
3000bc88:	4107d793          	srai	a5,a5,0x10
3000bc8c:	e91ff06f          	j	3000bb1c <gfDrawTextOverlay+0x138>
3000bc90:	000f0793          	mv	a5,t5
3000bc94:	fe9ff06f          	j	3000bc7c <gfDrawTextOverlay+0x298>
3000bc98:	000087b7          	lui	a5,0x8
3000bc9c:	01078613          	addi	a2,a5,16 # 8010 <stackPointer+0x2590>
3000bca0:	40078693          	addi	a3,a5,1024
3000bca4:	00008eb7          	lui	t4,0x8
3000bca8:	000b0793          	mv	a5,s6
3000bcac:	f99ff06f          	j	3000bc44 <gfDrawTextOverlay+0x260>
3000bcb0:	40000793          	li	a5,1024
3000bcb4:	00000f13          	li	t5,0
3000bcb8:	fc0292e3          	bnez	t0,3000bc7c <gfDrawTextOverlay+0x298>
3000bcbc:	fd5ff06f          	j	3000bc90 <gfDrawTextOverlay+0x2ac>
3000bcc0:	00f00513          	li	a0,15
3000bcc4:	00400593          	li	a1,4
3000bcc8:	00200e13          	li	t3,2
3000bccc:	00100693          	li	a3,1
3000bcd0:	00800e93          	li	t4,8
3000bcd4:	00000793          	li	a5,0
3000bcd8:	02000713          	li	a4,32
3000bcdc:	e41ff06f          	j	3000bb1c <gfDrawTextOverlay+0x138>
3000bce0:	00000513          	li	a0,0
3000bce4:	00008067          	ret

3000bce8 <toSetCursorPos>:
3000bce8:	00050793          	mv	a5,a0
3000bcec:	02050663          	beqz	a0,3000bd18 <toSetCursorPos+0x30>
3000bcf0:	00455703          	lhu	a4,4(a0)
3000bcf4:	00200513          	li	a0,2
3000bcf8:	02e5f263          	bgeu	a1,a4,3000bd1c <toSetCursorPos+0x34>
3000bcfc:	0067d703          	lhu	a4,6(a5)
3000bd00:	00e67e63          	bgeu	a2,a4,3000bd1c <toSetCursorPos+0x34>
3000bd04:	01061613          	slli	a2,a2,0x10
3000bd08:	00c5e5b3          	or	a1,a1,a2
3000bd0c:	00b7a423          	sw	a1,8(a5)
3000bd10:	00000513          	li	a0,0
3000bd14:	00008067          	ret
3000bd18:	00100513          	li	a0,1
3000bd1c:	00008067          	ret

3000bd20 <toCls>:
3000bd20:	04050c63          	beqz	a0,3000bd78 <toCls+0x58>
3000bd24:	00455783          	lhu	a5,4(a0)
3000bd28:	00655703          	lhu	a4,6(a0)
3000bd2c:	02e787b3          	mul	a5,a5,a4
3000bd30:	02078e63          	beqz	a5,3000bd6c <toCls+0x4c>
3000bd34:	00000713          	li	a4,0
3000bd38:	01452783          	lw	a5,20(a0)
3000bd3c:	00c54683          	lbu	a3,12(a0)
3000bd40:	00e787b3          	add	a5,a5,a4
3000bd44:	00d780a3          	sb	a3,1(a5)
3000bd48:	01452783          	lw	a5,20(a0)
3000bd4c:	00e787b3          	add	a5,a5,a4
3000bd50:	00078023          	sb	zero,0(a5)
3000bd54:	00455783          	lhu	a5,4(a0)
3000bd58:	00655683          	lhu	a3,6(a0)
3000bd5c:	00270713          	addi	a4,a4,2
3000bd60:	02d787b3          	mul	a5,a5,a3
3000bd64:	00179793          	slli	a5,a5,0x1
3000bd68:	fcf768e3          	bltu	a4,a5,3000bd38 <toCls+0x18>
3000bd6c:	00052423          	sw	zero,8(a0)
3000bd70:	00000513          	li	a0,0
3000bd74:	00008067          	ret
3000bd78:	00100513          	li	a0,1
3000bd7c:	00008067          	ret

3000bd80 <toScrollUp>:
3000bd80:	0e050463          	beqz	a0,3000be68 <toScrollUp+0xe8>
3000bd84:	00655683          	lhu	a3,6(a0)
3000bd88:	06068863          	beqz	a3,3000bdf8 <toScrollUp+0x78>
3000bd8c:	00455803          	lhu	a6,4(a0)
3000bd90:	00000313          	li	t1,0
3000bd94:	03030633          	mul	a2,t1,a6
3000bd98:	fff68713          	addi	a4,a3,-1
3000bd9c:	00161793          	slli	a5,a2,0x1
3000bda0:	06e34063          	blt	t1,a4,3000be00 <toScrollUp+0x80>
3000bda4:	00000713          	li	a4,0
3000bda8:	04080063          	beqz	a6,3000bde8 <toScrollUp+0x68>
3000bdac:	01452603          	lw	a2,20(a0)
3000bdb0:	00178593          	addi	a1,a5,1
3000bdb4:	00170713          	addi	a4,a4,1
3000bdb8:	00f60633          	add	a2,a2,a5
3000bdbc:	00060023          	sb	zero,0(a2)
3000bdc0:	01452683          	lw	a3,20(a0)
3000bdc4:	00c54603          	lbu	a2,12(a0)
3000bdc8:	01071713          	slli	a4,a4,0x10
3000bdcc:	00b686b3          	add	a3,a3,a1
3000bdd0:	00c68023          	sb	a2,0(a3)
3000bdd4:	00455803          	lhu	a6,4(a0)
3000bdd8:	01075713          	srli	a4,a4,0x10
3000bddc:	00278793          	addi	a5,a5,2
3000bde0:	fd0766e3          	bltu	a4,a6,3000bdac <toScrollUp+0x2c>
3000bde4:	00655683          	lhu	a3,6(a0)
3000bde8:	00130313          	addi	t1,t1,1
3000bdec:	01031313          	slli	t1,t1,0x10
3000bdf0:	01035313          	srli	t1,t1,0x10
3000bdf4:	fad360e3          	bltu	t1,a3,3000bd94 <toScrollUp+0x14>
3000bdf8:	00000513          	li	a0,0
3000bdfc:	00008067          	ret
3000be00:	fe0804e3          	beqz	a6,3000bde8 <toScrollUp+0x68>
3000be04:	00c80633          	add	a2,a6,a2
3000be08:	00161613          	slli	a2,a2,0x1
3000be0c:	00178e13          	addi	t3,a5,1
3000be10:	00000593          	li	a1,0
3000be14:	40c786b3          	sub	a3,a5,a2
3000be18:	40ce0e33          	sub	t3,t3,a2
3000be1c:	01452783          	lw	a5,20(a0)
3000be20:	00160713          	addi	a4,a2,1
3000be24:	00ce08b3          	add	a7,t3,a2
3000be28:	00c787b3          	add	a5,a5,a2
3000be2c:	0007c803          	lbu	a6,0(a5)
3000be30:	00d787b3          	add	a5,a5,a3
3000be34:	00158593          	addi	a1,a1,1
3000be38:	01078023          	sb	a6,0(a5)
3000be3c:	01452803          	lw	a6,20(a0)
3000be40:	01059593          	slli	a1,a1,0x10
3000be44:	0105d593          	srli	a1,a1,0x10
3000be48:	00e807b3          	add	a5,a6,a4
3000be4c:	0007c703          	lbu	a4,0(a5)
3000be50:	01180833          	add	a6,a6,a7
3000be54:	00260613          	addi	a2,a2,2
3000be58:	00e80023          	sb	a4,0(a6)
3000be5c:	00455803          	lhu	a6,4(a0)
3000be60:	fb05eee3          	bltu	a1,a6,3000be1c <toScrollUp+0x9c>
3000be64:	f81ff06f          	j	3000bde4 <toScrollUp+0x64>
3000be68:	00100513          	li	a0,1
3000be6c:	00008067          	ret

3000be70 <toPrint>:
3000be70:	00050463          	beqz	a0,3000be78 <toPrint+0x8>
3000be74:	a64ff06f          	j	3000b0d8 <toPrint.part.1>
3000be78:	00100513          	li	a0,1
3000be7c:	00008067          	ret

3000be80 <toPrintF>:
3000be80:	f7010113          	addi	sp,sp,-144
3000be84:	05512a23          	sw	s5,84(sp)
3000be88:	08f12223          	sw	a5,132(sp)
3000be8c:	3000eab7          	lui	s5,0x3000e
3000be90:	07810793          	addi	a5,sp,120
3000be94:	00f12e23          	sw	a5,28(sp)
3000be98:	540a8793          	addi	a5,s5,1344 # 3000e540 <cst.2215+0x18>
3000be9c:	06812423          	sw	s0,104(sp)
3000bea0:	06912223          	sw	s1,100(sp)
3000bea4:	07212023          	sw	s2,96(sp)
3000bea8:	05312e23          	sw	s3,92(sp)
3000beac:	05412c23          	sw	s4,88(sp)
3000beb0:	05612823          	sw	s6,80(sp)
3000beb4:	06112623          	sw	ra,108(sp)
3000beb8:	05712623          	sw	s7,76(sp)
3000bebc:	05812423          	sw	s8,72(sp)
3000bec0:	05912223          	sw	s9,68(sp)
3000bec4:	05a12023          	sw	s10,64(sp)
3000bec8:	03b12e23          	sw	s11,60(sp)
3000becc:	00050493          	mv	s1,a0
3000bed0:	00058413          	mv	s0,a1
3000bed4:	06c12c23          	sw	a2,120(sp)
3000bed8:	06d12e23          	sw	a3,124(sp)
3000bedc:	08e12023          	sw	a4,128(sp)
3000bee0:	09012423          	sw	a6,136(sp)
3000bee4:	09112623          	sw	a7,140(sp)
3000bee8:	00010ca3          	sb	zero,25(sp)
3000beec:	02500a13          	li	s4,37
3000bef0:	03000b13          	li	s6,48
3000bef4:	00900913          	li	s2,9
3000bef8:	00f12623          	sw	a5,12(sp)
3000befc:	02010993          	addi	s3,sp,32
3000bf00:	00044783          	lbu	a5,0(s0)
3000bf04:	00140b93          	addi	s7,s0,1
3000bf08:	02078663          	beqz	a5,3000bf34 <toPrintF+0xb4>
3000bf0c:	07478463          	beq	a5,s4,3000bf74 <toPrintF+0xf4>
3000bf10:	00f10c23          	sb	a5,24(sp)
3000bf14:	5a048263          	beqz	s1,3000c4b8 <toPrintF+0x638>
3000bf18:	01810593          	addi	a1,sp,24
3000bf1c:	00048513          	mv	a0,s1
3000bf20:	000b8413          	mv	s0,s7
3000bf24:	9b4ff0ef          	jal	ra,3000b0d8 <toPrint.part.1>
3000bf28:	00044783          	lbu	a5,0(s0)
3000bf2c:	00140b93          	addi	s7,s0,1
3000bf30:	fc079ee3          	bnez	a5,3000bf0c <toPrintF+0x8c>
3000bf34:	06c12083          	lw	ra,108(sp)
3000bf38:	06812403          	lw	s0,104(sp)
3000bf3c:	06412483          	lw	s1,100(sp)
3000bf40:	06012903          	lw	s2,96(sp)
3000bf44:	05c12983          	lw	s3,92(sp)
3000bf48:	05812a03          	lw	s4,88(sp)
3000bf4c:	05412a83          	lw	s5,84(sp)
3000bf50:	05012b03          	lw	s6,80(sp)
3000bf54:	04c12b83          	lw	s7,76(sp)
3000bf58:	04812c03          	lw	s8,72(sp)
3000bf5c:	04412c83          	lw	s9,68(sp)
3000bf60:	04012d03          	lw	s10,64(sp)
3000bf64:	03c12d83          	lw	s11,60(sp)
3000bf68:	00000513          	li	a0,0
3000bf6c:	09010113          	addi	sp,sp,144
3000bf70:	00008067          	ret
3000bf74:	00144703          	lbu	a4,1(s0)
3000bf78:	55670463          	beq	a4,s6,3000c4c0 <toPrintF+0x640>
3000bf7c:	02d00793          	li	a5,45
3000bf80:	56f70663          	beq	a4,a5,3000c4ec <toPrintF+0x66c>
3000bf84:	00240413          	addi	s0,s0,2
3000bf88:	00000c93          	li	s9,0
3000bf8c:	00000593          	li	a1,0
3000bf90:	00400893          	li	a7,4
3000bf94:	00000513          	li	a0,0
3000bf98:	fd070793          	addi	a5,a4,-48
3000bf9c:	0ff7f793          	andi	a5,a5,255
3000bfa0:	00000a93          	li	s5,0
3000bfa4:	02f96663          	bltu	s2,a5,3000bfd0 <toPrintF+0x150>
3000bfa8:	002a9793          	slli	a5,s5,0x2
3000bfac:	015787b3          	add	a5,a5,s5
3000bfb0:	00179793          	slli	a5,a5,0x1
3000bfb4:	00140413          	addi	s0,s0,1
3000bfb8:	00e787b3          	add	a5,a5,a4
3000bfbc:	fff44703          	lbu	a4,-1(s0)
3000bfc0:	fd078a93          	addi	s5,a5,-48
3000bfc4:	fd070693          	addi	a3,a4,-48
3000bfc8:	0ff6f693          	andi	a3,a3,255
3000bfcc:	fcd97ee3          	bgeu	s2,a3,3000bfa8 <toPrintF+0x128>
3000bfd0:	0df77793          	andi	a5,a4,223
3000bfd4:	04c00693          	li	a3,76
3000bfd8:	00000813          	li	a6,0
3000bfdc:	04d78463          	beq	a5,a3,3000c024 <toPrintF+0x1a4>
3000bfe0:	f4070ae3          	beqz	a4,3000bf34 <toPrintF+0xb4>
3000bfe4:	f9f70793          	addi	a5,a4,-97
3000bfe8:	0ff7f793          	andi	a5,a5,255
3000bfec:	01900893          	li	a7,25
3000bff0:	00070693          	mv	a3,a4
3000bff4:	00f8e663          	bltu	a7,a5,3000c000 <toPrintF+0x180>
3000bff8:	fe070693          	addi	a3,a4,-32
3000bffc:	0ff6f693          	andi	a3,a3,255
3000c000:	fbe68793          	addi	a5,a3,-66
3000c004:	0ff7f793          	andi	a5,a5,255
3000c008:	01600893          	li	a7,22
3000c00c:	48f8ea63          	bltu	a7,a5,3000c4a0 <toPrintF+0x620>
3000c010:	00c12603          	lw	a2,12(sp)
3000c014:	00279793          	slli	a5,a5,0x2
3000c018:	00c787b3          	add	a5,a5,a2
3000c01c:	0007a783          	lw	a5,0(a5)
3000c020:	00078067          	jr	a5
3000c024:	00044703          	lbu	a4,0(s0)
3000c028:	00088513          	mv	a0,a7
3000c02c:	00140413          	addi	s0,s0,1
3000c030:	00400813          	li	a6,4
3000c034:	fadff06f          	j	3000bfe0 <toPrintF+0x160>
3000c038:	01c12883          	lw	a7,28(sp)
3000c03c:	00a00793          	li	a5,10
3000c040:	0008ae03          	lw	t3,0(a7)
3000c044:	00488313          	addi	t1,a7,4
3000c048:	3e080663          	beqz	a6,3000c434 <toPrintF+0x5b4>
3000c04c:	00612e23          	sw	t1,28(sp)
3000c050:	04400813          	li	a6,68
3000c054:	000e0313          	mv	t1,t3
3000c058:	41069a63          	bne	a3,a6,3000c46c <toPrintF+0x5ec>
3000c05c:	00000813          	li	a6,0
3000c060:	4c0e4a63          	bltz	t3,3000c534 <toPrintF+0x6b4>
3000c064:	07800513          	li	a0,120
3000c068:	00700693          	li	a3,7
3000c06c:	00a71463          	bne	a4,a0,3000c074 <toPrintF+0x1f4>
3000c070:	02700693          	li	a3,39
3000c074:	02f37533          	remu	a0,t1,a5
3000c078:	0ff6f713          	andi	a4,a3,255
3000c07c:	02f358b3          	divu	a7,t1,a5
3000c080:	0ff57693          	andi	a3,a0,255
3000c084:	00a97663          	bgeu	s2,a0,3000c090 <toPrintF+0x210>
3000c088:	00d706b3          	add	a3,a4,a3
3000c08c:	0ff6f693          	andi	a3,a3,255
3000c090:	03068693          	addi	a3,a3,48
3000c094:	02d10023          	sb	a3,32(sp)
3000c098:	70f36263          	bltu	t1,a5,3000c79c <toPrintF+0x91c>
3000c09c:	02f8f533          	remu	a0,a7,a5
3000c0a0:	02f8d333          	divu	t1,a7,a5
3000c0a4:	0ff57693          	andi	a3,a0,255
3000c0a8:	00a97663          	bgeu	s2,a0,3000c0b4 <toPrintF+0x234>
3000c0ac:	00e686b3          	add	a3,a3,a4
3000c0b0:	0ff6f693          	andi	a3,a3,255
3000c0b4:	03068693          	addi	a3,a3,48
3000c0b8:	02d100a3          	sb	a3,33(sp)
3000c0bc:	6af8e863          	bltu	a7,a5,3000c76c <toPrintF+0x8ec>
3000c0c0:	02f37533          	remu	a0,t1,a5
3000c0c4:	02f358b3          	divu	a7,t1,a5
3000c0c8:	0ff57693          	andi	a3,a0,255
3000c0cc:	00a97663          	bgeu	s2,a0,3000c0d8 <toPrintF+0x258>
3000c0d0:	00e686b3          	add	a3,a3,a4
3000c0d4:	0ff6f693          	andi	a3,a3,255
3000c0d8:	03068693          	addi	a3,a3,48
3000c0dc:	02d10123          	sb	a3,34(sp)
3000c0e0:	68f36c63          	bltu	t1,a5,3000c778 <toPrintF+0x8f8>
3000c0e4:	02f8f533          	remu	a0,a7,a5
3000c0e8:	02f8d333          	divu	t1,a7,a5
3000c0ec:	0ff57693          	andi	a3,a0,255
3000c0f0:	00a97663          	bgeu	s2,a0,3000c0fc <toPrintF+0x27c>
3000c0f4:	00e686b3          	add	a3,a3,a4
3000c0f8:	0ff6f693          	andi	a3,a3,255
3000c0fc:	03068693          	addi	a3,a3,48
3000c100:	02d101a3          	sb	a3,35(sp)
3000c104:	68f8e063          	bltu	a7,a5,3000c784 <toPrintF+0x904>
3000c108:	02f37533          	remu	a0,t1,a5
3000c10c:	02f358b3          	divu	a7,t1,a5
3000c110:	0ff57693          	andi	a3,a0,255
3000c114:	00a97663          	bgeu	s2,a0,3000c120 <toPrintF+0x2a0>
3000c118:	00e686b3          	add	a3,a3,a4
3000c11c:	0ff6f693          	andi	a3,a3,255
3000c120:	03068693          	addi	a3,a3,48
3000c124:	02d10223          	sb	a3,36(sp)
3000c128:	66f36463          	bltu	t1,a5,3000c790 <toPrintF+0x910>
3000c12c:	02f8f533          	remu	a0,a7,a5
3000c130:	02f8d333          	divu	t1,a7,a5
3000c134:	0ff57693          	andi	a3,a0,255
3000c138:	00a97663          	bgeu	s2,a0,3000c144 <toPrintF+0x2c4>
3000c13c:	00e686b3          	add	a3,a3,a4
3000c140:	0ff6f693          	andi	a3,a3,255
3000c144:	03068693          	addi	a3,a3,48
3000c148:	02d102a3          	sb	a3,37(sp)
3000c14c:	64f8ee63          	bltu	a7,a5,3000c7a8 <toPrintF+0x928>
3000c150:	02f37533          	remu	a0,t1,a5
3000c154:	02f358b3          	divu	a7,t1,a5
3000c158:	0ff57693          	andi	a3,a0,255
3000c15c:	00a97663          	bgeu	s2,a0,3000c168 <toPrintF+0x2e8>
3000c160:	00e686b3          	add	a3,a3,a4
3000c164:	0ff6f693          	andi	a3,a3,255
3000c168:	03068693          	addi	a3,a3,48
3000c16c:	02d10323          	sb	a3,38(sp)
3000c170:	64f36263          	bltu	t1,a5,3000c7b4 <toPrintF+0x934>
3000c174:	02f8f533          	remu	a0,a7,a5
3000c178:	02f8d333          	divu	t1,a7,a5
3000c17c:	0ff57693          	andi	a3,a0,255
3000c180:	00a97663          	bgeu	s2,a0,3000c18c <toPrintF+0x30c>
3000c184:	00e686b3          	add	a3,a3,a4
3000c188:	0ff6f693          	andi	a3,a3,255
3000c18c:	03068693          	addi	a3,a3,48
3000c190:	02d103a3          	sb	a3,39(sp)
3000c194:	62f8e663          	bltu	a7,a5,3000c7c0 <toPrintF+0x940>
3000c198:	02f37533          	remu	a0,t1,a5
3000c19c:	02f358b3          	divu	a7,t1,a5
3000c1a0:	0ff57693          	andi	a3,a0,255
3000c1a4:	00a97663          	bgeu	s2,a0,3000c1b0 <toPrintF+0x330>
3000c1a8:	00e686b3          	add	a3,a3,a4
3000c1ac:	0ff6f693          	andi	a3,a3,255
3000c1b0:	03068693          	addi	a3,a3,48
3000c1b4:	02d10423          	sb	a3,40(sp)
3000c1b8:	60f36a63          	bltu	t1,a5,3000c7cc <toPrintF+0x94c>
3000c1bc:	02f8f533          	remu	a0,a7,a5
3000c1c0:	02f8d333          	divu	t1,a7,a5
3000c1c4:	0ff57693          	andi	a3,a0,255
3000c1c8:	00a97663          	bgeu	s2,a0,3000c1d4 <toPrintF+0x354>
3000c1cc:	00e686b3          	add	a3,a3,a4
3000c1d0:	0ff6f693          	andi	a3,a3,255
3000c1d4:	03068693          	addi	a3,a3,48
3000c1d8:	02d104a3          	sb	a3,41(sp)
3000c1dc:	5ef8ee63          	bltu	a7,a5,3000c7d8 <toPrintF+0x958>
3000c1e0:	02f37533          	remu	a0,t1,a5
3000c1e4:	02f358b3          	divu	a7,t1,a5
3000c1e8:	0ff57693          	andi	a3,a0,255
3000c1ec:	00a97663          	bgeu	s2,a0,3000c1f8 <toPrintF+0x378>
3000c1f0:	00e686b3          	add	a3,a3,a4
3000c1f4:	0ff6f693          	andi	a3,a3,255
3000c1f8:	03068693          	addi	a3,a3,48
3000c1fc:	02d10523          	sb	a3,42(sp)
3000c200:	5ef36263          	bltu	t1,a5,3000c7e4 <toPrintF+0x964>
3000c204:	02f8f533          	remu	a0,a7,a5
3000c208:	02f8d333          	divu	t1,a7,a5
3000c20c:	0ff57693          	andi	a3,a0,255
3000c210:	00a97663          	bgeu	s2,a0,3000c21c <toPrintF+0x39c>
3000c214:	00e686b3          	add	a3,a3,a4
3000c218:	0ff6f693          	andi	a3,a3,255
3000c21c:	03068693          	addi	a3,a3,48
3000c220:	02d105a3          	sb	a3,43(sp)
3000c224:	5cf8e663          	bltu	a7,a5,3000c7f0 <toPrintF+0x970>
3000c228:	02f37533          	remu	a0,t1,a5
3000c22c:	02f358b3          	divu	a7,t1,a5
3000c230:	0ff57693          	andi	a3,a0,255
3000c234:	00a97663          	bgeu	s2,a0,3000c240 <toPrintF+0x3c0>
3000c238:	00e686b3          	add	a3,a3,a4
3000c23c:	0ff6f693          	andi	a3,a3,255
3000c240:	03068693          	addi	a3,a3,48
3000c244:	02d10623          	sb	a3,44(sp)
3000c248:	5af36a63          	bltu	t1,a5,3000c7fc <toPrintF+0x97c>
3000c24c:	02f8f533          	remu	a0,a7,a5
3000c250:	02f8d333          	divu	t1,a7,a5
3000c254:	0ff57693          	andi	a3,a0,255
3000c258:	2ca96263          	bltu	s2,a0,3000c51c <toPrintF+0x69c>
3000c25c:	03068693          	addi	a3,a3,48
3000c260:	02d106a3          	sb	a3,45(sp)
3000c264:	5af8e263          	bltu	a7,a5,3000c808 <toPrintF+0x988>
3000c268:	02f37533          	remu	a0,t1,a5
3000c26c:	02f358b3          	divu	a7,t1,a5
3000c270:	0ff57693          	andi	a3,a0,255
3000c274:	2aa96a63          	bltu	s2,a0,3000c528 <toPrintF+0x6a8>
3000c278:	03068693          	addi	a3,a3,48
3000c27c:	02d10723          	sb	a3,46(sp)
3000c280:	58f36a63          	bltu	t1,a5,3000c814 <toPrintF+0x994>
3000c284:	02f8f7b3          	remu	a5,a7,a5
3000c288:	0ff7f693          	andi	a3,a5,255
3000c28c:	00f97663          	bgeu	s2,a5,3000c298 <toPrintF+0x418>
3000c290:	00e686b3          	add	a3,a3,a4
3000c294:	0ff6f693          	andi	a3,a3,255
3000c298:	03068693          	addi	a3,a3,48
3000c29c:	02d107a3          	sb	a3,47(sp)
3000c2a0:	01000c13          	li	s8,16
3000c2a4:	00f00793          	li	a5,15
3000c2a8:	00080c63          	beqz	a6,3000c2c0 <toPrintF+0x440>
3000c2ac:	03010713          	addi	a4,sp,48
3000c2b0:	01870c33          	add	s8,a4,s8
3000c2b4:	02d00713          	li	a4,45
3000c2b8:	feec0823          	sb	a4,-16(s8)
3000c2bc:	00278c13          	addi	s8,a5,2
3000c2c0:	fffc8c93          	addi	s9,s9,-1
3000c2c4:	ff0cfc93          	andi	s9,s9,-16
3000c2c8:	030c8c93          	addi	s9,s9,48
3000c2cc:	20059863          	bnez	a1,3000c4dc <toPrintF+0x65c>
3000c2d0:	28048663          	beqz	s1,3000c55c <toPrintF+0x6dc>
3000c2d4:	001c0d13          	addi	s10,s8,1
3000c2d8:	002c0b93          	addi	s7,s8,2
3000c2dc:	035c7663          	bgeu	s8,s5,3000c308 <toPrintF+0x488>
3000c2e0:	002c0d13          	addi	s10,s8,2
3000c2e4:	002a8d93          	addi	s11,s5,2
3000c2e8:	0080006f          	j	3000c2f0 <toPrintF+0x470>
3000c2ec:	000b8d13          	mv	s10,s7
3000c2f0:	001d0b93          	addi	s7,s10,1
3000c2f4:	01810593          	addi	a1,sp,24
3000c2f8:	00048513          	mv	a0,s1
3000c2fc:	01910c23          	sb	s9,24(sp)
3000c300:	dd9fe0ef          	jal	ra,3000b0d8 <toPrint.part.1>
3000c304:	ff7d94e3          	bne	s11,s7,3000c2ec <toPrintF+0x46c>
3000c308:	01898c33          	add	s8,s3,s8
3000c30c:	fffc4783          	lbu	a5,-1(s8)
3000c310:	01810593          	addi	a1,sp,24
3000c314:	fffc0c13          	addi	s8,s8,-1
3000c318:	00048513          	mv	a0,s1
3000c31c:	00f10c23          	sb	a5,24(sp)
3000c320:	db9fe0ef          	jal	ra,3000b0d8 <toPrint.part.1>
3000c324:	ff8994e3          	bne	s3,s8,3000c30c <toPrintF+0x48c>
3000c328:	015d6663          	bltu	s10,s5,3000c334 <toPrintF+0x4b4>
3000c32c:	bd5ff06f          	j	3000bf00 <toPrintF+0x80>
3000c330:	00078b93          	mv	s7,a5
3000c334:	01810593          	addi	a1,sp,24
3000c338:	00048513          	mv	a0,s1
3000c33c:	01910c23          	sb	s9,24(sp)
3000c340:	d99fe0ef          	jal	ra,3000b0d8 <toPrint.part.1>
3000c344:	001b8793          	addi	a5,s7,1
3000c348:	ff7a94e3          	bne	s5,s7,3000c330 <toPrintF+0x4b0>
3000c34c:	bb5ff06f          	j	3000bf00 <toPrintF+0x80>
3000c350:	01c12783          	lw	a5,28(sp)
3000c354:	0007a703          	lw	a4,0(a5)
3000c358:	00478793          	addi	a5,a5,4
3000c35c:	00f12e23          	sw	a5,28(sp)
3000c360:	00e10c23          	sb	a4,24(sp)
3000c364:	b8048ee3          	beqz	s1,3000bf00 <toPrintF+0x80>
3000c368:	01810593          	addi	a1,sp,24
3000c36c:	00048513          	mv	a0,s1
3000c370:	d69fe0ef          	jal	ra,3000b0d8 <toPrint.part.1>
3000c374:	b8dff06f          	j	3000bf00 <toPrintF+0x80>
3000c378:	01c12883          	lw	a7,28(sp)
3000c37c:	0008a783          	lw	a5,0(a7)
3000c380:	00488313          	addi	t1,a7,4
3000c384:	18080263          	beqz	a6,3000c508 <toPrintF+0x688>
3000c388:	00612e23          	sw	t1,28(sp)
3000c38c:	00000813          	li	a6,0
3000c390:	00078313          	mv	t1,a5
3000c394:	01000793          	li	a5,16
3000c398:	ccdff06f          	j	3000c064 <toPrintF+0x1e4>
3000c39c:	01c12783          	lw	a5,28(sp)
3000c3a0:	00000c13          	li	s8,0
3000c3a4:	0007ab83          	lw	s7,0(a5)
3000c3a8:	00478793          	addi	a5,a5,4
3000c3ac:	00f12e23          	sw	a5,28(sp)
3000c3b0:	000bc783          	lbu	a5,0(s7)
3000c3b4:	00078a63          	beqz	a5,3000c3c8 <toPrintF+0x548>
3000c3b8:	001c0c13          	addi	s8,s8,1
3000c3bc:	018b8733          	add	a4,s7,s8
3000c3c0:	00074703          	lbu	a4,0(a4)
3000c3c4:	fe071ae3          	bnez	a4,3000c3b8 <toPrintF+0x538>
3000c3c8:	32058263          	beqz	a1,3000c6ec <toPrintF+0x86c>
3000c3cc:	36048a63          	beqz	s1,3000c740 <toPrintF+0x8c0>
3000c3d0:	02078063          	beqz	a5,3000c3f0 <toPrintF+0x570>
3000c3d4:	01810593          	addi	a1,sp,24
3000c3d8:	00048513          	mv	a0,s1
3000c3dc:	00f10c23          	sb	a5,24(sp)
3000c3e0:	001b8b93          	addi	s7,s7,1
3000c3e4:	cf5fe0ef          	jal	ra,3000b0d8 <toPrint.part.1>
3000c3e8:	000bc783          	lbu	a5,0(s7)
3000c3ec:	fe0794e3          	bnez	a5,3000c3d4 <toPrintF+0x554>
3000c3f0:	001c0b93          	addi	s7,s8,1
3000c3f4:	02000c93          	li	s9,32
3000c3f8:	015c6663          	bltu	s8,s5,3000c404 <toPrintF+0x584>
3000c3fc:	b05ff06f          	j	3000bf00 <toPrintF+0x80>
3000c400:	00078b93          	mv	s7,a5
3000c404:	01810593          	addi	a1,sp,24
3000c408:	00048513          	mv	a0,s1
3000c40c:	01910c23          	sb	s9,24(sp)
3000c410:	cc9fe0ef          	jal	ra,3000b0d8 <toPrint.part.1>
3000c414:	001b8793          	addi	a5,s7,1
3000c418:	ff7a94e3          	bne	s5,s7,3000c400 <toPrintF+0x580>
3000c41c:	ae5ff06f          	j	3000bf00 <toPrintF+0x80>
3000c420:	01c12883          	lw	a7,28(sp)
3000c424:	00800793          	li	a5,8
3000c428:	0008ae03          	lw	t3,0(a7)
3000c42c:	00488313          	addi	t1,a7,4
3000c430:	c0081ee3          	bnez	a6,3000c04c <toPrintF+0x1cc>
3000c434:	04400813          	li	a6,68
3000c438:	0d069a63          	bne	a3,a6,3000c50c <toPrintF+0x68c>
3000c43c:	00612e23          	sw	t1,28(sp)
3000c440:	00000813          	li	a6,0
3000c444:	000e0313          	mv	t1,t3
3000c448:	c00e5ee3          	bgez	t3,3000c064 <toPrintF+0x1e4>
3000c44c:	0e80006f          	j	3000c534 <toPrintF+0x6b4>
3000c450:	01c12883          	lw	a7,28(sp)
3000c454:	0008a783          	lw	a5,0(a7)
3000c458:	00488313          	addi	t1,a7,4
3000c45c:	0e080663          	beqz	a6,3000c548 <toPrintF+0x6c8>
3000c460:	00612e23          	sw	t1,28(sp)
3000c464:	00078313          	mv	t1,a5
3000c468:	00200793          	li	a5,2
3000c46c:	07800693          	li	a3,120
3000c470:	00700513          	li	a0,7
3000c474:	00d71463          	bne	a4,a3,3000c47c <toPrintF+0x5fc>
3000c478:	02700513          	li	a0,39
3000c47c:	02f376b3          	remu	a3,t1,a5
3000c480:	0ff57713          	andi	a4,a0,255
3000c484:	00000813          	li	a6,0
3000c488:	00100c13          	li	s8,1
3000c48c:	03068693          	addi	a3,a3,48
3000c490:	02d10023          	sb	a3,32(sp)
3000c494:	02f358b3          	divu	a7,t1,a5
3000c498:	c0f372e3          	bgeu	t1,a5,3000c09c <toPrintF+0x21c>
3000c49c:	e25ff06f          	j	3000c2c0 <toPrintF+0x440>
3000c4a0:	00e10c23          	sb	a4,24(sp)
3000c4a4:	a4048ee3          	beqz	s1,3000bf00 <toPrintF+0x80>
3000c4a8:	01810593          	addi	a1,sp,24
3000c4ac:	00048513          	mv	a0,s1
3000c4b0:	c29fe0ef          	jal	ra,3000b0d8 <toPrint.part.1>
3000c4b4:	a4dff06f          	j	3000bf00 <toPrintF+0x80>
3000c4b8:	000b8413          	mv	s0,s7
3000c4bc:	a45ff06f          	j	3000bf00 <toPrintF+0x80>
3000c4c0:	00244703          	lbu	a4,2(s0)
3000c4c4:	00100c93          	li	s9,1
3000c4c8:	00340413          	addi	s0,s0,3
3000c4cc:	00000593          	li	a1,0
3000c4d0:	00500893          	li	a7,5
3000c4d4:	00100513          	li	a0,1
3000c4d8:	ac1ff06f          	j	3000bf98 <toPrintF+0x118>
3000c4dc:	28048463          	beqz	s1,3000c764 <toPrintF+0x8e4>
3000c4e0:	000c0d13          	mv	s10,s8
3000c4e4:	001c0b93          	addi	s7,s8,1
3000c4e8:	e21ff06f          	j	3000c308 <toPrintF+0x488>
3000c4ec:	00244703          	lbu	a4,2(s0)
3000c4f0:	00000c93          	li	s9,0
3000c4f4:	00340413          	addi	s0,s0,3
3000c4f8:	00200593          	li	a1,2
3000c4fc:	00600893          	li	a7,6
3000c500:	00200513          	li	a0,2
3000c504:	a95ff06f          	j	3000bf98 <toPrintF+0x118>
3000c508:	01000793          	li	a5,16
3000c50c:	00612e23          	sw	t1,28(sp)
3000c510:	00000813          	li	a6,0
3000c514:	0008a303          	lw	t1,0(a7)
3000c518:	b4dff06f          	j	3000c064 <toPrintF+0x1e4>
3000c51c:	00e686b3          	add	a3,a3,a4
3000c520:	0ff6f693          	andi	a3,a3,255
3000c524:	d39ff06f          	j	3000c25c <toPrintF+0x3dc>
3000c528:	00e686b3          	add	a3,a3,a4
3000c52c:	0ff6f693          	andi	a3,a3,255
3000c530:	d49ff06f          	j	3000c278 <toPrintF+0x3f8>
3000c534:	41c00333          	neg	t1,t3
3000c538:	00257593          	andi	a1,a0,2
3000c53c:	00157c93          	andi	s9,a0,1
3000c540:	00800813          	li	a6,8
3000c544:	b21ff06f          	j	3000c064 <toPrintF+0x1e4>
3000c548:	00612e23          	sw	t1,28(sp)
3000c54c:	00200793          	li	a5,2
3000c550:	0008a303          	lw	t1,0(a7)
3000c554:	00000813          	li	a6,0
3000c558:	b0dff06f          	j	3000c064 <toPrintF+0x1e4>
3000c55c:	001c0793          	addi	a5,s8,1
3000c560:	015c7463          	bgeu	s8,s5,3000c568 <toPrintF+0x6e8>
3000c564:	001a8793          	addi	a5,s5,1
3000c568:	fffc0713          	addi	a4,s8,-1
3000c56c:	03010693          	addi	a3,sp,48
3000c570:	00e686b3          	add	a3,a3,a4
3000c574:	ff06c683          	lbu	a3,-16(a3)
3000c578:	00d10c23          	sb	a3,24(sp)
3000c57c:	16070263          	beqz	a4,3000c6e0 <toPrintF+0x860>
3000c580:	ffec0713          	addi	a4,s8,-2
3000c584:	03010693          	addi	a3,sp,48
3000c588:	00e686b3          	add	a3,a3,a4
3000c58c:	ff06c683          	lbu	a3,-16(a3)
3000c590:	00d10c23          	sb	a3,24(sp)
3000c594:	14070663          	beqz	a4,3000c6e0 <toPrintF+0x860>
3000c598:	ffdc0713          	addi	a4,s8,-3
3000c59c:	03010693          	addi	a3,sp,48
3000c5a0:	00e686b3          	add	a3,a3,a4
3000c5a4:	ff06c683          	lbu	a3,-16(a3)
3000c5a8:	00d10c23          	sb	a3,24(sp)
3000c5ac:	12070a63          	beqz	a4,3000c6e0 <toPrintF+0x860>
3000c5b0:	ffcc0713          	addi	a4,s8,-4
3000c5b4:	03010693          	addi	a3,sp,48
3000c5b8:	00e686b3          	add	a3,a3,a4
3000c5bc:	ff06c683          	lbu	a3,-16(a3)
3000c5c0:	00d10c23          	sb	a3,24(sp)
3000c5c4:	10070e63          	beqz	a4,3000c6e0 <toPrintF+0x860>
3000c5c8:	ffbc0713          	addi	a4,s8,-5
3000c5cc:	03010693          	addi	a3,sp,48
3000c5d0:	00e686b3          	add	a3,a3,a4
3000c5d4:	ff06c683          	lbu	a3,-16(a3)
3000c5d8:	00d10c23          	sb	a3,24(sp)
3000c5dc:	10070263          	beqz	a4,3000c6e0 <toPrintF+0x860>
3000c5e0:	ffac0713          	addi	a4,s8,-6
3000c5e4:	03010693          	addi	a3,sp,48
3000c5e8:	00e686b3          	add	a3,a3,a4
3000c5ec:	ff06c683          	lbu	a3,-16(a3)
3000c5f0:	00d10c23          	sb	a3,24(sp)
3000c5f4:	0e070663          	beqz	a4,3000c6e0 <toPrintF+0x860>
3000c5f8:	ff9c0713          	addi	a4,s8,-7
3000c5fc:	03010693          	addi	a3,sp,48
3000c600:	00e686b3          	add	a3,a3,a4
3000c604:	ff06c683          	lbu	a3,-16(a3)
3000c608:	00d10c23          	sb	a3,24(sp)
3000c60c:	0c070a63          	beqz	a4,3000c6e0 <toPrintF+0x860>
3000c610:	ff8c0713          	addi	a4,s8,-8
3000c614:	03010693          	addi	a3,sp,48
3000c618:	00e686b3          	add	a3,a3,a4
3000c61c:	ff06c683          	lbu	a3,-16(a3)
3000c620:	00d10c23          	sb	a3,24(sp)
3000c624:	0a070e63          	beqz	a4,3000c6e0 <toPrintF+0x860>
3000c628:	ff7c0713          	addi	a4,s8,-9
3000c62c:	03010693          	addi	a3,sp,48
3000c630:	00e686b3          	add	a3,a3,a4
3000c634:	ff06c683          	lbu	a3,-16(a3)
3000c638:	00d10c23          	sb	a3,24(sp)
3000c63c:	0a070263          	beqz	a4,3000c6e0 <toPrintF+0x860>
3000c640:	ff6c0713          	addi	a4,s8,-10
3000c644:	03010693          	addi	a3,sp,48
3000c648:	00e686b3          	add	a3,a3,a4
3000c64c:	ff06c683          	lbu	a3,-16(a3)
3000c650:	00d10c23          	sb	a3,24(sp)
3000c654:	08070663          	beqz	a4,3000c6e0 <toPrintF+0x860>
3000c658:	ff5c0713          	addi	a4,s8,-11
3000c65c:	03010693          	addi	a3,sp,48
3000c660:	00e686b3          	add	a3,a3,a4
3000c664:	ff06c683          	lbu	a3,-16(a3)
3000c668:	00d10c23          	sb	a3,24(sp)
3000c66c:	06070a63          	beqz	a4,3000c6e0 <toPrintF+0x860>
3000c670:	ff4c0713          	addi	a4,s8,-12
3000c674:	03010693          	addi	a3,sp,48
3000c678:	00e686b3          	add	a3,a3,a4
3000c67c:	ff06c683          	lbu	a3,-16(a3)
3000c680:	00d10c23          	sb	a3,24(sp)
3000c684:	04070e63          	beqz	a4,3000c6e0 <toPrintF+0x860>
3000c688:	ff3c0713          	addi	a4,s8,-13
3000c68c:	03010693          	addi	a3,sp,48
3000c690:	00e686b3          	add	a3,a3,a4
3000c694:	ff06c683          	lbu	a3,-16(a3)
3000c698:	00d10c23          	sb	a3,24(sp)
3000c69c:	04070263          	beqz	a4,3000c6e0 <toPrintF+0x860>
3000c6a0:	ff2c0713          	addi	a4,s8,-14
3000c6a4:	03010693          	addi	a3,sp,48
3000c6a8:	00e686b3          	add	a3,a3,a4
3000c6ac:	ff06c683          	lbu	a3,-16(a3)
3000c6b0:	00d10c23          	sb	a3,24(sp)
3000c6b4:	02070663          	beqz	a4,3000c6e0 <toPrintF+0x860>
3000c6b8:	ff1c0713          	addi	a4,s8,-15
3000c6bc:	03010693          	addi	a3,sp,48
3000c6c0:	00e686b3          	add	a3,a3,a4
3000c6c4:	ff06c683          	lbu	a3,-16(a3)
3000c6c8:	00d10c23          	sb	a3,24(sp)
3000c6cc:	00070a63          	beqz	a4,3000c6e0 <toPrintF+0x860>
3000c6d0:	03010713          	addi	a4,sp,48
3000c6d4:	01870c33          	add	s8,a4,s8
3000c6d8:	fe0c4703          	lbu	a4,-32(s8)
3000c6dc:	00e10c23          	sb	a4,24(sp)
3000c6e0:	8357f0e3          	bgeu	a5,s5,3000bf00 <toPrintF+0x80>
3000c6e4:	01910c23          	sb	s9,24(sp)
3000c6e8:	819ff06f          	j	3000bf00 <toPrintF+0x80>
3000c6ec:	02048e63          	beqz	s1,3000c728 <toPrintF+0x8a8>
3000c6f0:	001c0c93          	addi	s9,s8,1
3000c6f4:	135c7663          	bgeu	s8,s5,3000c820 <toPrintF+0x9a0>
3000c6f8:	001a8c13          	addi	s8,s5,1
3000c6fc:	02000d13          	li	s10,32
3000c700:	0080006f          	j	3000c708 <toPrintF+0x888>
3000c704:	00078c93          	mv	s9,a5
3000c708:	01810593          	addi	a1,sp,24
3000c70c:	00048513          	mv	a0,s1
3000c710:	01a10c23          	sb	s10,24(sp)
3000c714:	9c5fe0ef          	jal	ra,3000b0d8 <toPrint.part.1>
3000c718:	001c8793          	addi	a5,s9,1
3000c71c:	ff9a94e3          	bne	s5,s9,3000c704 <toPrintF+0x884>
3000c720:	000bc783          	lbu	a5,0(s7)
3000c724:	cadff06f          	j	3000c3d0 <toPrintF+0x550>
3000c728:	001c0713          	addi	a4,s8,1
3000c72c:	0f5c7e63          	bgeu	s8,s5,3000c828 <toPrintF+0x9a8>
3000c730:	02000793          	li	a5,32
3000c734:	00f10c23          	sb	a5,24(sp)
3000c738:	000bc783          	lbu	a5,0(s7)
3000c73c:	001a8c13          	addi	s8,s5,1
3000c740:	00078a63          	beqz	a5,3000c754 <toPrintF+0x8d4>
3000c744:	001b8b93          	addi	s7,s7,1
3000c748:	00f10c23          	sb	a5,24(sp)
3000c74c:	000bc783          	lbu	a5,0(s7)
3000c750:	fe079ae3          	bnez	a5,3000c744 <toPrintF+0x8c4>
3000c754:	fb5c7663          	bgeu	s8,s5,3000bf00 <toPrintF+0x80>
3000c758:	02000793          	li	a5,32
3000c75c:	00f10c23          	sb	a5,24(sp)
3000c760:	fa0ff06f          	j	3000bf00 <toPrintF+0x80>
3000c764:	000c0793          	mv	a5,s8
3000c768:	e01ff06f          	j	3000c568 <toPrintF+0x6e8>
3000c76c:	00200c13          	li	s8,2
3000c770:	00100793          	li	a5,1
3000c774:	b35ff06f          	j	3000c2a8 <toPrintF+0x428>
3000c778:	00300c13          	li	s8,3
3000c77c:	00200793          	li	a5,2
3000c780:	b29ff06f          	j	3000c2a8 <toPrintF+0x428>
3000c784:	00400c13          	li	s8,4
3000c788:	00300793          	li	a5,3
3000c78c:	b1dff06f          	j	3000c2a8 <toPrintF+0x428>
3000c790:	00500c13          	li	s8,5
3000c794:	00400793          	li	a5,4
3000c798:	b11ff06f          	j	3000c2a8 <toPrintF+0x428>
3000c79c:	00100c13          	li	s8,1
3000c7a0:	00000793          	li	a5,0
3000c7a4:	b05ff06f          	j	3000c2a8 <toPrintF+0x428>
3000c7a8:	00600c13          	li	s8,6
3000c7ac:	00500793          	li	a5,5
3000c7b0:	af9ff06f          	j	3000c2a8 <toPrintF+0x428>
3000c7b4:	00700c13          	li	s8,7
3000c7b8:	00600793          	li	a5,6
3000c7bc:	aedff06f          	j	3000c2a8 <toPrintF+0x428>
3000c7c0:	00800c13          	li	s8,8
3000c7c4:	00700793          	li	a5,7
3000c7c8:	ae1ff06f          	j	3000c2a8 <toPrintF+0x428>
3000c7cc:	00900c13          	li	s8,9
3000c7d0:	00800793          	li	a5,8
3000c7d4:	ad5ff06f          	j	3000c2a8 <toPrintF+0x428>
3000c7d8:	00a00c13          	li	s8,10
3000c7dc:	00900793          	li	a5,9
3000c7e0:	ac9ff06f          	j	3000c2a8 <toPrintF+0x428>
3000c7e4:	00b00c13          	li	s8,11
3000c7e8:	00a00793          	li	a5,10
3000c7ec:	abdff06f          	j	3000c2a8 <toPrintF+0x428>
3000c7f0:	00c00c13          	li	s8,12
3000c7f4:	00b00793          	li	a5,11
3000c7f8:	ab1ff06f          	j	3000c2a8 <toPrintF+0x428>
3000c7fc:	00d00c13          	li	s8,13
3000c800:	00c00793          	li	a5,12
3000c804:	aa5ff06f          	j	3000c2a8 <toPrintF+0x428>
3000c808:	00e00c13          	li	s8,14
3000c80c:	00d00793          	li	a5,13
3000c810:	a99ff06f          	j	3000c2a8 <toPrintF+0x428>
3000c814:	00f00c13          	li	s8,15
3000c818:	00e00793          	li	a5,14
3000c81c:	a8dff06f          	j	3000c2a8 <toPrintF+0x428>
3000c820:	000c8c13          	mv	s8,s9
3000c824:	badff06f          	j	3000c3d0 <toPrintF+0x550>
3000c828:	00070c13          	mv	s8,a4
3000c82c:	f15ff06f          	j	3000c740 <toPrintF+0x8c0>

3000c830 <memset>:
3000c830:	00f00313          	li	t1,15
3000c834:	00050713          	mv	a4,a0
3000c838:	02c37e63          	bgeu	t1,a2,3000c874 <memset+0x44>
3000c83c:	00f77793          	andi	a5,a4,15
3000c840:	0a079063          	bnez	a5,3000c8e0 <memset+0xb0>
3000c844:	08059263          	bnez	a1,3000c8c8 <memset+0x98>
3000c848:	ff067693          	andi	a3,a2,-16
3000c84c:	00f67613          	andi	a2,a2,15
3000c850:	00e686b3          	add	a3,a3,a4
3000c854:	00b72023          	sw	a1,0(a4)
3000c858:	00b72223          	sw	a1,4(a4)
3000c85c:	00b72423          	sw	a1,8(a4)
3000c860:	00b72623          	sw	a1,12(a4)
3000c864:	01070713          	addi	a4,a4,16
3000c868:	fed766e3          	bltu	a4,a3,3000c854 <memset+0x24>
3000c86c:	00061463          	bnez	a2,3000c874 <memset+0x44>
3000c870:	00008067          	ret
3000c874:	40c306b3          	sub	a3,t1,a2
3000c878:	00269693          	slli	a3,a3,0x2
3000c87c:	00000297          	auipc	t0,0x0
3000c880:	005686b3          	add	a3,a3,t0
3000c884:	00c68067          	jr	12(a3)
3000c888:	00b70723          	sb	a1,14(a4)
3000c88c:	00b706a3          	sb	a1,13(a4)
3000c890:	00b70623          	sb	a1,12(a4)
3000c894:	00b705a3          	sb	a1,11(a4)
3000c898:	00b70523          	sb	a1,10(a4)
3000c89c:	00b704a3          	sb	a1,9(a4)
3000c8a0:	00b70423          	sb	a1,8(a4)
3000c8a4:	00b703a3          	sb	a1,7(a4)
3000c8a8:	00b70323          	sb	a1,6(a4)
3000c8ac:	00b702a3          	sb	a1,5(a4)
3000c8b0:	00b70223          	sb	a1,4(a4)
3000c8b4:	00b701a3          	sb	a1,3(a4)
3000c8b8:	00b70123          	sb	a1,2(a4)
3000c8bc:	00b700a3          	sb	a1,1(a4)
3000c8c0:	00b70023          	sb	a1,0(a4)
3000c8c4:	00008067          	ret
3000c8c8:	0ff5f593          	andi	a1,a1,255
3000c8cc:	00859693          	slli	a3,a1,0x8
3000c8d0:	00d5e5b3          	or	a1,a1,a3
3000c8d4:	01059693          	slli	a3,a1,0x10
3000c8d8:	00d5e5b3          	or	a1,a1,a3
3000c8dc:	f6dff06f          	j	3000c848 <memset+0x18>
3000c8e0:	00279693          	slli	a3,a5,0x2
3000c8e4:	00000297          	auipc	t0,0x0
3000c8e8:	005686b3          	add	a3,a3,t0
3000c8ec:	00008293          	mv	t0,ra
3000c8f0:	fa0680e7          	jalr	-96(a3)
3000c8f4:	00028093          	mv	ra,t0
3000c8f8:	ff078793          	addi	a5,a5,-16
3000c8fc:	40f70733          	sub	a4,a4,a5
3000c900:	00f60633          	add	a2,a2,a5
3000c904:	f6c378e3          	bgeu	t1,a2,3000c874 <memset+0x44>
3000c908:	f3dff06f          	j	3000c844 <memset+0x14>

Disassembly of section .text.startup:

3000c90c <main>:
3000c90c:	fb010113          	addi	sp,sp,-80
3000c910:	04112623          	sw	ra,76(sp)
3000c914:	04812423          	sw	s0,72(sp)
3000c918:	04912223          	sw	s1,68(sp)
3000c91c:	05212023          	sw	s2,64(sp)
3000c920:	03312e23          	sw	s3,60(sp)
3000c924:	03412c23          	sw	s4,56(sp)
3000c928:	03512a23          	sw	s5,52(sp)
3000c92c:	03612823          	sw	s6,48(sp)
3000c930:	03712623          	sw	s7,44(sp)
3000c934:	03812423          	sw	s8,40(sp)
3000c938:	3000e9b7          	lui	s3,0x3000e
3000c93c:	f70f30ef          	jal	ra,300000ac <_Z4initv>
3000c940:	3000e937          	lui	s2,0x3000e
3000c944:	3000eab7          	lui	s5,0x3000e
3000c948:	b15f30ef          	jal	ra,3000045c <_Z8initAnimv>
3000c94c:	78c98413          	addi	s0,s3,1932 # 3000e78c <screen1>
3000c950:	79c90913          	addi	s2,s2,1948 # 3000e79c <screen2>
3000c954:	3000eb37          	lui	s6,0x3000e
3000c958:	7bca8a93          	addi	s5,s5,1980 # 3000e7bc <background>
3000c95c:	014004b7          	lui	s1,0x1400
3000c960:	0dc00a13          	li	s4,220
3000c964:	10100b93          	li	s7,257
3000c968:	09400c13          	li	s8,148
3000c96c:	00090513          	mv	a0,s2
3000c970:	a48fd0ef          	jal	ra,30009bb8 <gfDisplayBitmap>
3000c974:	784b2703          	lw	a4,1924(s6) # 3000e784 <bsp>
3000c978:	00c72783          	lw	a5,12(a4)
3000c97c:	fe078ee3          	beqz	a5,3000c978 <main+0x6c>
3000c980:	00000693          	li	a3,0
3000c984:	00000613          	li	a2,0
3000c988:	000a8593          	mv	a1,s5
3000c98c:	78c98513          	addi	a0,s3,1932
3000c990:	c6cfd0ef          	jal	ra,30009dfc <gfBlitBitmap>
3000c994:	05445783          	lhu	a5,84(s0)
3000c998:	44079263          	bnez	a5,3000cddc <main+0x4d0>
3000c99c:	06c45783          	lhu	a5,108(s0)
3000c9a0:	40079e63          	bnez	a5,3000cdbc <main+0x4b0>
3000c9a4:	08445783          	lhu	a5,132(s0)
3000c9a8:	3e079a63          	bnez	a5,3000cd9c <main+0x490>
3000c9ac:	09c45783          	lhu	a5,156(s0)
3000c9b0:	3c079663          	bnez	a5,3000cd7c <main+0x470>
3000c9b4:	0b445783          	lhu	a5,180(s0)
3000c9b8:	3a079263          	bnez	a5,3000cd5c <main+0x450>
3000c9bc:	0cc45783          	lhu	a5,204(s0)
3000c9c0:	36079e63          	bnez	a5,3000cd3c <main+0x430>
3000c9c4:	0e445783          	lhu	a5,228(s0)
3000c9c8:	2e079463          	bnez	a5,3000ccb0 <main+0x3a4>
3000c9cc:	0fc45783          	lhu	a5,252(s0)
3000c9d0:	30079263          	bnez	a5,3000ccd4 <main+0x3c8>
3000c9d4:	11445783          	lhu	a5,276(s0)
3000c9d8:	32079063          	bnez	a5,3000ccf8 <main+0x3ec>
3000c9dc:	12c45783          	lhu	a5,300(s0)
3000c9e0:	32079e63          	bnez	a5,3000cd1c <main+0x410>
3000c9e4:	05445783          	lhu	a5,84(s0)
3000c9e8:	00078c63          	beqz	a5,3000ca00 <main+0xf4>
3000c9ec:	05c42783          	lw	a5,92(s0)
3000c9f0:	06042703          	lw	a4,96(s0)
3000c9f4:	00e787b3          	add	a5,a5,a4
3000c9f8:	04f42e23          	sw	a5,92(s0)
3000c9fc:	58f4ce63          	blt	s1,a5,3000cf98 <main+0x68c>
3000ca00:	06c45783          	lhu	a5,108(s0)
3000ca04:	00078c63          	beqz	a5,3000ca1c <main+0x110>
3000ca08:	07442783          	lw	a5,116(s0)
3000ca0c:	07842703          	lw	a4,120(s0)
3000ca10:	00e787b3          	add	a5,a5,a4
3000ca14:	06f42a23          	sw	a5,116(s0)
3000ca18:	5af4c063          	blt	s1,a5,3000cfb8 <main+0x6ac>
3000ca1c:	08445783          	lhu	a5,132(s0)
3000ca20:	00078c63          	beqz	a5,3000ca38 <main+0x12c>
3000ca24:	08c42783          	lw	a5,140(s0)
3000ca28:	09042703          	lw	a4,144(s0)
3000ca2c:	00e787b3          	add	a5,a5,a4
3000ca30:	08f42623          	sw	a5,140(s0)
3000ca34:	6af4c263          	blt	s1,a5,3000d0d8 <main+0x7cc>
3000ca38:	09c45783          	lhu	a5,156(s0)
3000ca3c:	00078c63          	beqz	a5,3000ca54 <main+0x148>
3000ca40:	0a442783          	lw	a5,164(s0)
3000ca44:	0a842703          	lw	a4,168(s0)
3000ca48:	00e787b3          	add	a5,a5,a4
3000ca4c:	0af42223          	sw	a5,164(s0)
3000ca50:	6af4c463          	blt	s1,a5,3000d0f8 <main+0x7ec>
3000ca54:	0b445783          	lhu	a5,180(s0)
3000ca58:	00078c63          	beqz	a5,3000ca70 <main+0x164>
3000ca5c:	0bc42783          	lw	a5,188(s0)
3000ca60:	0c042703          	lw	a4,192(s0)
3000ca64:	00e787b3          	add	a5,a5,a4
3000ca68:	0af42e23          	sw	a5,188(s0)
3000ca6c:	6af4c663          	blt	s1,a5,3000d118 <main+0x80c>
3000ca70:	0cc45783          	lhu	a5,204(s0)
3000ca74:	00078c63          	beqz	a5,3000ca8c <main+0x180>
3000ca78:	0d442783          	lw	a5,212(s0)
3000ca7c:	0d842703          	lw	a4,216(s0)
3000ca80:	00e787b3          	add	a5,a5,a4
3000ca84:	0cf42a23          	sw	a5,212(s0)
3000ca88:	6af4c863          	blt	s1,a5,3000d138 <main+0x82c>
3000ca8c:	0e445783          	lhu	a5,228(s0)
3000ca90:	00078c63          	beqz	a5,3000caa8 <main+0x19c>
3000ca94:	0ec42783          	lw	a5,236(s0)
3000ca98:	0f042703          	lw	a4,240(s0)
3000ca9c:	00e787b3          	add	a5,a5,a4
3000caa0:	0ef42623          	sw	a5,236(s0)
3000caa4:	6af4ca63          	blt	s1,a5,3000d158 <main+0x84c>
3000caa8:	0fc45783          	lhu	a5,252(s0)
3000caac:	00078c63          	beqz	a5,3000cac4 <main+0x1b8>
3000cab0:	10442783          	lw	a5,260(s0)
3000cab4:	10842703          	lw	a4,264(s0)
3000cab8:	00e787b3          	add	a5,a5,a4
3000cabc:	10f42223          	sw	a5,260(s0)
3000cac0:	6af4cc63          	blt	s1,a5,3000d178 <main+0x86c>
3000cac4:	11445783          	lhu	a5,276(s0)
3000cac8:	00078c63          	beqz	a5,3000cae0 <main+0x1d4>
3000cacc:	11c42783          	lw	a5,284(s0)
3000cad0:	12042703          	lw	a4,288(s0)
3000cad4:	00e787b3          	add	a5,a5,a4
3000cad8:	10f42e23          	sw	a5,284(s0)
3000cadc:	6af4ce63          	blt	s1,a5,3000d198 <main+0x88c>
3000cae0:	12c45783          	lhu	a5,300(s0)
3000cae4:	00078c63          	beqz	a5,3000cafc <main+0x1f0>
3000cae8:	13442783          	lw	a5,308(s0)
3000caec:	13842703          	lw	a4,312(s0)
3000caf0:	00e787b3          	add	a5,a5,a4
3000caf4:	12f42a23          	sw	a5,308(s0)
3000caf8:	6cf4c063          	blt	s1,a5,3000d1b8 <main+0x8ac>
3000cafc:	78c98513          	addi	a0,s3,1932
3000cb00:	8b8fd0ef          	jal	ra,30009bb8 <gfDisplayBitmap>
3000cb04:	784b2703          	lw	a4,1924(s6)
3000cb08:	00c72783          	lw	a5,12(a4)
3000cb0c:	fe078ee3          	beqz	a5,3000cb08 <main+0x1fc>
3000cb10:	00000693          	li	a3,0
3000cb14:	00000613          	li	a2,0
3000cb18:	000a8593          	mv	a1,s5
3000cb1c:	00090513          	mv	a0,s2
3000cb20:	adcfd0ef          	jal	ra,30009dfc <gfBlitBitmap>
3000cb24:	05445783          	lhu	a5,84(s0)
3000cb28:	40079863          	bnez	a5,3000cf38 <main+0x62c>
3000cb2c:	06c45783          	lhu	a5,108(s0)
3000cb30:	3e079463          	bnez	a5,3000cf18 <main+0x60c>
3000cb34:	08445783          	lhu	a5,132(s0)
3000cb38:	2c079263          	bnez	a5,3000cdfc <main+0x4f0>
3000cb3c:	09c45783          	lhu	a5,156(s0)
3000cb40:	2e079063          	bnez	a5,3000ce20 <main+0x514>
3000cb44:	0b445783          	lhu	a5,180(s0)
3000cb48:	2e079e63          	bnez	a5,3000ce44 <main+0x538>
3000cb4c:	0cc45783          	lhu	a5,204(s0)
3000cb50:	30079c63          	bnez	a5,3000ce68 <main+0x55c>
3000cb54:	0e445783          	lhu	a5,228(s0)
3000cb58:	32079a63          	bnez	a5,3000ce8c <main+0x580>
3000cb5c:	0fc45783          	lhu	a5,252(s0)
3000cb60:	34079863          	bnez	a5,3000ceb0 <main+0x5a4>
3000cb64:	11445783          	lhu	a5,276(s0)
3000cb68:	36079663          	bnez	a5,3000ced4 <main+0x5c8>
3000cb6c:	12c45783          	lhu	a5,300(s0)
3000cb70:	38079463          	bnez	a5,3000cef8 <main+0x5ec>
3000cb74:	05445783          	lhu	a5,84(s0)
3000cb78:	00078c63          	beqz	a5,3000cb90 <main+0x284>
3000cb7c:	05c42703          	lw	a4,92(s0)
3000cb80:	06042783          	lw	a5,96(s0)
3000cb84:	00e787b3          	add	a5,a5,a4
3000cb88:	04f42e23          	sw	a5,92(s0)
3000cb8c:	3cf4c663          	blt	s1,a5,3000cf58 <main+0x64c>
3000cb90:	06c45783          	lhu	a5,108(s0)
3000cb94:	00078c63          	beqz	a5,3000cbac <main+0x2a0>
3000cb98:	07442783          	lw	a5,116(s0)
3000cb9c:	07842703          	lw	a4,120(s0)
3000cba0:	00e787b3          	add	a5,a5,a4
3000cba4:	06f42a23          	sw	a5,116(s0)
3000cba8:	3cf4c863          	blt	s1,a5,3000cf78 <main+0x66c>
3000cbac:	08445783          	lhu	a5,132(s0)
3000cbb0:	00078c63          	beqz	a5,3000cbc8 <main+0x2bc>
3000cbb4:	08c42783          	lw	a5,140(s0)
3000cbb8:	09042703          	lw	a4,144(s0)
3000cbbc:	00e787b3          	add	a5,a5,a4
3000cbc0:	08f42623          	sw	a5,140(s0)
3000cbc4:	40f4ca63          	blt	s1,a5,3000cfd8 <main+0x6cc>
3000cbc8:	09c45783          	lhu	a5,156(s0)
3000cbcc:	00078c63          	beqz	a5,3000cbe4 <main+0x2d8>
3000cbd0:	0a442783          	lw	a5,164(s0)
3000cbd4:	0a842703          	lw	a4,168(s0)
3000cbd8:	00e787b3          	add	a5,a5,a4
3000cbdc:	0af42223          	sw	a5,164(s0)
3000cbe0:	40f4cc63          	blt	s1,a5,3000cff8 <main+0x6ec>
3000cbe4:	0b445783          	lhu	a5,180(s0)
3000cbe8:	00078c63          	beqz	a5,3000cc00 <main+0x2f4>
3000cbec:	0bc42783          	lw	a5,188(s0)
3000cbf0:	0c042703          	lw	a4,192(s0)
3000cbf4:	00e787b3          	add	a5,a5,a4
3000cbf8:	0af42e23          	sw	a5,188(s0)
3000cbfc:	40f4ce63          	blt	s1,a5,3000d018 <main+0x70c>
3000cc00:	0cc45783          	lhu	a5,204(s0)
3000cc04:	00078c63          	beqz	a5,3000cc1c <main+0x310>
3000cc08:	0d442783          	lw	a5,212(s0)
3000cc0c:	0d842703          	lw	a4,216(s0)
3000cc10:	00e787b3          	add	a5,a5,a4
3000cc14:	0cf42a23          	sw	a5,212(s0)
3000cc18:	42f4c063          	blt	s1,a5,3000d038 <main+0x72c>
3000cc1c:	0e445783          	lhu	a5,228(s0)
3000cc20:	00078c63          	beqz	a5,3000cc38 <main+0x32c>
3000cc24:	0ec42783          	lw	a5,236(s0)
3000cc28:	0f042703          	lw	a4,240(s0)
3000cc2c:	00e787b3          	add	a5,a5,a4
3000cc30:	0ef42623          	sw	a5,236(s0)
3000cc34:	42f4c263          	blt	s1,a5,3000d058 <main+0x74c>
3000cc38:	0fc45783          	lhu	a5,252(s0)
3000cc3c:	00078c63          	beqz	a5,3000cc54 <main+0x348>
3000cc40:	10442783          	lw	a5,260(s0)
3000cc44:	10842703          	lw	a4,264(s0)
3000cc48:	00e787b3          	add	a5,a5,a4
3000cc4c:	10f42223          	sw	a5,260(s0)
3000cc50:	42f4c463          	blt	s1,a5,3000d078 <main+0x76c>
3000cc54:	11445783          	lhu	a5,276(s0)
3000cc58:	00078c63          	beqz	a5,3000cc70 <main+0x364>
3000cc5c:	11c42783          	lw	a5,284(s0)
3000cc60:	12042703          	lw	a4,288(s0)
3000cc64:	00e787b3          	add	a5,a5,a4
3000cc68:	10f42e23          	sw	a5,284(s0)
3000cc6c:	42f4c663          	blt	s1,a5,3000d098 <main+0x78c>
3000cc70:	12c45783          	lhu	a5,300(s0)
3000cc74:	00078c63          	beqz	a5,3000cc8c <main+0x380>
3000cc78:	13442783          	lw	a5,308(s0)
3000cc7c:	13842703          	lw	a4,312(s0)
3000cc80:	00e787b3          	add	a5,a5,a4
3000cc84:	12f42a23          	sw	a5,308(s0)
3000cc88:	42f4c863          	blt	s1,a5,3000d0b8 <main+0x7ac>
3000cc8c:	00c10513          	addi	a0,sp,12
3000cc90:	ae9f40ef          	jal	ra,30001778 <osGetUIEvent>
3000cc94:	cc051ce3          	bnez	a0,3000c96c <main+0x60>
3000cc98:	00c15783          	lhu	a5,12(sp)
3000cc9c:	cd7798e3          	bne	a5,s7,3000c96c <main+0x60>
3000cca0:	01012783          	lw	a5,16(sp)
3000cca4:	cd8794e3          	bne	a5,s8,3000c96c <main+0x60>
3000cca8:	814f40ef          	jal	ra,30000cbc <reboot>
3000ccac:	cc1ff06f          	j	3000c96c <main+0x60>
3000ccb0:	0e841783          	lh	a5,232(s0)
3000ccb4:	0e641703          	lh	a4,230(s0)
3000ccb8:	0f441683          	lh	a3,244(s0)
3000ccbc:	0ee41603          	lh	a2,238(s0)
3000ccc0:	0e042583          	lw	a1,224(s0)
3000ccc4:	78c98513          	addi	a0,s3,1932
3000ccc8:	fc4fd0ef          	jal	ra,3000a48c <gfBlitScaledBitmap>
3000cccc:	0fc45783          	lhu	a5,252(s0)
3000ccd0:	d00782e3          	beqz	a5,3000c9d4 <main+0xc8>
3000ccd4:	10041783          	lh	a5,256(s0)
3000ccd8:	0fe41703          	lh	a4,254(s0)
3000ccdc:	10c41683          	lh	a3,268(s0)
3000cce0:	10641603          	lh	a2,262(s0)
3000cce4:	0f842583          	lw	a1,248(s0)
3000cce8:	78c98513          	addi	a0,s3,1932
3000ccec:	fa0fd0ef          	jal	ra,3000a48c <gfBlitScaledBitmap>
3000ccf0:	11445783          	lhu	a5,276(s0)
3000ccf4:	ce0784e3          	beqz	a5,3000c9dc <main+0xd0>
3000ccf8:	11841783          	lh	a5,280(s0)
3000ccfc:	11641703          	lh	a4,278(s0)
3000cd00:	12441683          	lh	a3,292(s0)
3000cd04:	11e41603          	lh	a2,286(s0)
3000cd08:	11042583          	lw	a1,272(s0)
3000cd0c:	78c98513          	addi	a0,s3,1932
3000cd10:	f7cfd0ef          	jal	ra,3000a48c <gfBlitScaledBitmap>
3000cd14:	12c45783          	lhu	a5,300(s0)
3000cd18:	cc0786e3          	beqz	a5,3000c9e4 <main+0xd8>
3000cd1c:	13041783          	lh	a5,304(s0)
3000cd20:	12e41703          	lh	a4,302(s0)
3000cd24:	13c41683          	lh	a3,316(s0)
3000cd28:	13641603          	lh	a2,310(s0)
3000cd2c:	12842583          	lw	a1,296(s0)
3000cd30:	78c98513          	addi	a0,s3,1932
3000cd34:	f58fd0ef          	jal	ra,3000a48c <gfBlitScaledBitmap>
3000cd38:	cadff06f          	j	3000c9e4 <main+0xd8>
3000cd3c:	0d041783          	lh	a5,208(s0)
3000cd40:	0ce41703          	lh	a4,206(s0)
3000cd44:	0dc41683          	lh	a3,220(s0)
3000cd48:	0d641603          	lh	a2,214(s0)
3000cd4c:	0c842583          	lw	a1,200(s0)
3000cd50:	78c98513          	addi	a0,s3,1932
3000cd54:	f38fd0ef          	jal	ra,3000a48c <gfBlitScaledBitmap>
3000cd58:	c6dff06f          	j	3000c9c4 <main+0xb8>
3000cd5c:	0b841783          	lh	a5,184(s0)
3000cd60:	0b641703          	lh	a4,182(s0)
3000cd64:	0c441683          	lh	a3,196(s0)
3000cd68:	0be41603          	lh	a2,190(s0)
3000cd6c:	0b042583          	lw	a1,176(s0)
3000cd70:	78c98513          	addi	a0,s3,1932
3000cd74:	f18fd0ef          	jal	ra,3000a48c <gfBlitScaledBitmap>
3000cd78:	c45ff06f          	j	3000c9bc <main+0xb0>
3000cd7c:	0a041783          	lh	a5,160(s0)
3000cd80:	09e41703          	lh	a4,158(s0)
3000cd84:	0ac41683          	lh	a3,172(s0)
3000cd88:	0a641603          	lh	a2,166(s0)
3000cd8c:	09842583          	lw	a1,152(s0)
3000cd90:	78c98513          	addi	a0,s3,1932
3000cd94:	ef8fd0ef          	jal	ra,3000a48c <gfBlitScaledBitmap>
3000cd98:	c1dff06f          	j	3000c9b4 <main+0xa8>
3000cd9c:	08841783          	lh	a5,136(s0)
3000cda0:	08641703          	lh	a4,134(s0)
3000cda4:	09441683          	lh	a3,148(s0)
3000cda8:	08e41603          	lh	a2,142(s0)
3000cdac:	08042583          	lw	a1,128(s0)
3000cdb0:	78c98513          	addi	a0,s3,1932
3000cdb4:	ed8fd0ef          	jal	ra,3000a48c <gfBlitScaledBitmap>
3000cdb8:	bf5ff06f          	j	3000c9ac <main+0xa0>
3000cdbc:	07041783          	lh	a5,112(s0)
3000cdc0:	06e41703          	lh	a4,110(s0)
3000cdc4:	07c41683          	lh	a3,124(s0)
3000cdc8:	07641603          	lh	a2,118(s0)
3000cdcc:	06842583          	lw	a1,104(s0)
3000cdd0:	78c98513          	addi	a0,s3,1932
3000cdd4:	eb8fd0ef          	jal	ra,3000a48c <gfBlitScaledBitmap>
3000cdd8:	bcdff06f          	j	3000c9a4 <main+0x98>
3000cddc:	05841783          	lh	a5,88(s0)
3000cde0:	05641703          	lh	a4,86(s0)
3000cde4:	06441683          	lh	a3,100(s0)
3000cde8:	05e41603          	lh	a2,94(s0)
3000cdec:	05042583          	lw	a1,80(s0)
3000cdf0:	78c98513          	addi	a0,s3,1932
3000cdf4:	e98fd0ef          	jal	ra,3000a48c <gfBlitScaledBitmap>
3000cdf8:	ba5ff06f          	j	3000c99c <main+0x90>
3000cdfc:	08841783          	lh	a5,136(s0)
3000ce00:	08641703          	lh	a4,134(s0)
3000ce04:	09441683          	lh	a3,148(s0)
3000ce08:	08e41603          	lh	a2,142(s0)
3000ce0c:	08042583          	lw	a1,128(s0)
3000ce10:	00090513          	mv	a0,s2
3000ce14:	e78fd0ef          	jal	ra,3000a48c <gfBlitScaledBitmap>
3000ce18:	09c45783          	lhu	a5,156(s0)
3000ce1c:	d20784e3          	beqz	a5,3000cb44 <main+0x238>
3000ce20:	0a041783          	lh	a5,160(s0)
3000ce24:	09e41703          	lh	a4,158(s0)
3000ce28:	0ac41683          	lh	a3,172(s0)
3000ce2c:	0a641603          	lh	a2,166(s0)
3000ce30:	09842583          	lw	a1,152(s0)
3000ce34:	00090513          	mv	a0,s2
3000ce38:	e54fd0ef          	jal	ra,3000a48c <gfBlitScaledBitmap>
3000ce3c:	0b445783          	lhu	a5,180(s0)
3000ce40:	d00786e3          	beqz	a5,3000cb4c <main+0x240>
3000ce44:	0b841783          	lh	a5,184(s0)
3000ce48:	0b641703          	lh	a4,182(s0)
3000ce4c:	0c441683          	lh	a3,196(s0)
3000ce50:	0be41603          	lh	a2,190(s0)
3000ce54:	0b042583          	lw	a1,176(s0)
3000ce58:	00090513          	mv	a0,s2
3000ce5c:	e30fd0ef          	jal	ra,3000a48c <gfBlitScaledBitmap>
3000ce60:	0cc45783          	lhu	a5,204(s0)
3000ce64:	ce0788e3          	beqz	a5,3000cb54 <main+0x248>
3000ce68:	0d041783          	lh	a5,208(s0)
3000ce6c:	0ce41703          	lh	a4,206(s0)
3000ce70:	0dc41683          	lh	a3,220(s0)
3000ce74:	0d641603          	lh	a2,214(s0)
3000ce78:	0c842583          	lw	a1,200(s0)
3000ce7c:	00090513          	mv	a0,s2
3000ce80:	e0cfd0ef          	jal	ra,3000a48c <gfBlitScaledBitmap>
3000ce84:	0e445783          	lhu	a5,228(s0)
3000ce88:	cc078ae3          	beqz	a5,3000cb5c <main+0x250>
3000ce8c:	0e841783          	lh	a5,232(s0)
3000ce90:	0e641703          	lh	a4,230(s0)
3000ce94:	0f441683          	lh	a3,244(s0)
3000ce98:	0ee41603          	lh	a2,238(s0)
3000ce9c:	0e042583          	lw	a1,224(s0)
3000cea0:	00090513          	mv	a0,s2
3000cea4:	de8fd0ef          	jal	ra,3000a48c <gfBlitScaledBitmap>
3000cea8:	0fc45783          	lhu	a5,252(s0)
3000ceac:	ca078ce3          	beqz	a5,3000cb64 <main+0x258>
3000ceb0:	10041783          	lh	a5,256(s0)
3000ceb4:	0fe41703          	lh	a4,254(s0)
3000ceb8:	10c41683          	lh	a3,268(s0)
3000cebc:	10641603          	lh	a2,262(s0)
3000cec0:	0f842583          	lw	a1,248(s0)
3000cec4:	00090513          	mv	a0,s2
3000cec8:	dc4fd0ef          	jal	ra,3000a48c <gfBlitScaledBitmap>
3000cecc:	11445783          	lhu	a5,276(s0)
3000ced0:	c8078ee3          	beqz	a5,3000cb6c <main+0x260>
3000ced4:	11841783          	lh	a5,280(s0)
3000ced8:	11641703          	lh	a4,278(s0)
3000cedc:	12441683          	lh	a3,292(s0)
3000cee0:	11e41603          	lh	a2,286(s0)
3000cee4:	11042583          	lw	a1,272(s0)
3000cee8:	00090513          	mv	a0,s2
3000ceec:	da0fd0ef          	jal	ra,3000a48c <gfBlitScaledBitmap>
3000cef0:	12c45783          	lhu	a5,300(s0)
3000cef4:	c80780e3          	beqz	a5,3000cb74 <main+0x268>
3000cef8:	13041783          	lh	a5,304(s0)
3000cefc:	12e41703          	lh	a4,302(s0)
3000cf00:	13c41683          	lh	a3,316(s0)
3000cf04:	13641603          	lh	a2,310(s0)
3000cf08:	12842583          	lw	a1,296(s0)
3000cf0c:	00090513          	mv	a0,s2
3000cf10:	d7cfd0ef          	jal	ra,3000a48c <gfBlitScaledBitmap>
3000cf14:	c61ff06f          	j	3000cb74 <main+0x268>
3000cf18:	07041783          	lh	a5,112(s0)
3000cf1c:	06e41703          	lh	a4,110(s0)
3000cf20:	07c41683          	lh	a3,124(s0)
3000cf24:	07641603          	lh	a2,118(s0)
3000cf28:	06842583          	lw	a1,104(s0)
3000cf2c:	00090513          	mv	a0,s2
3000cf30:	d5cfd0ef          	jal	ra,3000a48c <gfBlitScaledBitmap>
3000cf34:	c01ff06f          	j	3000cb34 <main+0x228>
3000cf38:	05841783          	lh	a5,88(s0)
3000cf3c:	05641703          	lh	a4,86(s0)
3000cf40:	06441683          	lh	a3,100(s0)
3000cf44:	05e41603          	lh	a2,94(s0)
3000cf48:	05042583          	lw	a1,80(s0)
3000cf4c:	00090513          	mv	a0,s2
3000cf50:	d3cfd0ef          	jal	ra,3000a48c <gfBlitScaledBitmap>
3000cf54:	bd9ff06f          	j	3000cb2c <main+0x220>
3000cf58:	05645783          	lhu	a5,86(s0)
3000cf5c:	40f007b3          	neg	a5,a5
3000cf60:	01079793          	slli	a5,a5,0x10
3000cf64:	04f42e23          	sw	a5,92(s0)
3000cf68:	ab9f30ef          	jal	ra,30000a20 <randomNumber>
3000cf6c:	03457533          	remu	a0,a0,s4
3000cf70:	06a41223          	sh	a0,100(s0)
3000cf74:	c1dff06f          	j	3000cb90 <main+0x284>
3000cf78:	06e45783          	lhu	a5,110(s0)
3000cf7c:	40f007b3          	neg	a5,a5
3000cf80:	01079793          	slli	a5,a5,0x10
3000cf84:	06f42a23          	sw	a5,116(s0)
3000cf88:	a99f30ef          	jal	ra,30000a20 <randomNumber>
3000cf8c:	03457533          	remu	a0,a0,s4
3000cf90:	06a41e23          	sh	a0,124(s0)
3000cf94:	c19ff06f          	j	3000cbac <main+0x2a0>
3000cf98:	05645783          	lhu	a5,86(s0)
3000cf9c:	40f007b3          	neg	a5,a5
3000cfa0:	01079793          	slli	a5,a5,0x10
3000cfa4:	04f42e23          	sw	a5,92(s0)
3000cfa8:	a79f30ef          	jal	ra,30000a20 <randomNumber>
3000cfac:	03457533          	remu	a0,a0,s4
3000cfb0:	06a41223          	sh	a0,100(s0)
3000cfb4:	a4dff06f          	j	3000ca00 <main+0xf4>
3000cfb8:	06e45783          	lhu	a5,110(s0)
3000cfbc:	40f007b3          	neg	a5,a5
3000cfc0:	01079793          	slli	a5,a5,0x10
3000cfc4:	06f42a23          	sw	a5,116(s0)
3000cfc8:	a59f30ef          	jal	ra,30000a20 <randomNumber>
3000cfcc:	03457533          	remu	a0,a0,s4
3000cfd0:	06a41e23          	sh	a0,124(s0)
3000cfd4:	a49ff06f          	j	3000ca1c <main+0x110>
3000cfd8:	08645783          	lhu	a5,134(s0)
3000cfdc:	40f007b3          	neg	a5,a5
3000cfe0:	01079793          	slli	a5,a5,0x10
3000cfe4:	08f42623          	sw	a5,140(s0)
3000cfe8:	a39f30ef          	jal	ra,30000a20 <randomNumber>
3000cfec:	03457533          	remu	a0,a0,s4
3000cff0:	08a41a23          	sh	a0,148(s0)
3000cff4:	bd5ff06f          	j	3000cbc8 <main+0x2bc>
3000cff8:	09e45783          	lhu	a5,158(s0)
3000cffc:	40f007b3          	neg	a5,a5
3000d000:	01079793          	slli	a5,a5,0x10
3000d004:	0af42223          	sw	a5,164(s0)
3000d008:	a19f30ef          	jal	ra,30000a20 <randomNumber>
3000d00c:	03457533          	remu	a0,a0,s4
3000d010:	0aa41623          	sh	a0,172(s0)
3000d014:	bd1ff06f          	j	3000cbe4 <main+0x2d8>
3000d018:	0b645783          	lhu	a5,182(s0)
3000d01c:	40f007b3          	neg	a5,a5
3000d020:	01079793          	slli	a5,a5,0x10
3000d024:	0af42e23          	sw	a5,188(s0)
3000d028:	9f9f30ef          	jal	ra,30000a20 <randomNumber>
3000d02c:	03457533          	remu	a0,a0,s4
3000d030:	0ca41223          	sh	a0,196(s0)
3000d034:	bcdff06f          	j	3000cc00 <main+0x2f4>
3000d038:	0ce45783          	lhu	a5,206(s0)
3000d03c:	40f007b3          	neg	a5,a5
3000d040:	01079793          	slli	a5,a5,0x10
3000d044:	0cf42a23          	sw	a5,212(s0)
3000d048:	9d9f30ef          	jal	ra,30000a20 <randomNumber>
3000d04c:	03457533          	remu	a0,a0,s4
3000d050:	0ca41e23          	sh	a0,220(s0)
3000d054:	bc9ff06f          	j	3000cc1c <main+0x310>
3000d058:	0e645783          	lhu	a5,230(s0)
3000d05c:	40f007b3          	neg	a5,a5
3000d060:	01079793          	slli	a5,a5,0x10
3000d064:	0ef42623          	sw	a5,236(s0)
3000d068:	9b9f30ef          	jal	ra,30000a20 <randomNumber>
3000d06c:	03457533          	remu	a0,a0,s4
3000d070:	0ea41a23          	sh	a0,244(s0)
3000d074:	bc5ff06f          	j	3000cc38 <main+0x32c>
3000d078:	0fe45783          	lhu	a5,254(s0)
3000d07c:	40f007b3          	neg	a5,a5
3000d080:	01079793          	slli	a5,a5,0x10
3000d084:	10f42223          	sw	a5,260(s0)
3000d088:	999f30ef          	jal	ra,30000a20 <randomNumber>
3000d08c:	03457533          	remu	a0,a0,s4
3000d090:	10a41623          	sh	a0,268(s0)
3000d094:	bc1ff06f          	j	3000cc54 <main+0x348>
3000d098:	11645783          	lhu	a5,278(s0)
3000d09c:	40f007b3          	neg	a5,a5
3000d0a0:	01079793          	slli	a5,a5,0x10
3000d0a4:	10f42e23          	sw	a5,284(s0)
3000d0a8:	979f30ef          	jal	ra,30000a20 <randomNumber>
3000d0ac:	03457533          	remu	a0,a0,s4
3000d0b0:	12a41223          	sh	a0,292(s0)
3000d0b4:	bbdff06f          	j	3000cc70 <main+0x364>
3000d0b8:	12e45783          	lhu	a5,302(s0)
3000d0bc:	40f007b3          	neg	a5,a5
3000d0c0:	01079793          	slli	a5,a5,0x10
3000d0c4:	12f42a23          	sw	a5,308(s0)
3000d0c8:	959f30ef          	jal	ra,30000a20 <randomNumber>
3000d0cc:	03457533          	remu	a0,a0,s4
3000d0d0:	12a41e23          	sh	a0,316(s0)
3000d0d4:	bb9ff06f          	j	3000cc8c <main+0x380>
3000d0d8:	08645783          	lhu	a5,134(s0)
3000d0dc:	40f007b3          	neg	a5,a5
3000d0e0:	01079793          	slli	a5,a5,0x10
3000d0e4:	08f42623          	sw	a5,140(s0)
3000d0e8:	939f30ef          	jal	ra,30000a20 <randomNumber>
3000d0ec:	03457533          	remu	a0,a0,s4
3000d0f0:	08a41a23          	sh	a0,148(s0)
3000d0f4:	945ff06f          	j	3000ca38 <main+0x12c>
3000d0f8:	09e45783          	lhu	a5,158(s0)
3000d0fc:	40f007b3          	neg	a5,a5
3000d100:	01079793          	slli	a5,a5,0x10
3000d104:	0af42223          	sw	a5,164(s0)
3000d108:	919f30ef          	jal	ra,30000a20 <randomNumber>
3000d10c:	03457533          	remu	a0,a0,s4
3000d110:	0aa41623          	sh	a0,172(s0)
3000d114:	941ff06f          	j	3000ca54 <main+0x148>
3000d118:	0b645783          	lhu	a5,182(s0)
3000d11c:	40f007b3          	neg	a5,a5
3000d120:	01079793          	slli	a5,a5,0x10
3000d124:	0af42e23          	sw	a5,188(s0)
3000d128:	8f9f30ef          	jal	ra,30000a20 <randomNumber>
3000d12c:	03457533          	remu	a0,a0,s4
3000d130:	0ca41223          	sh	a0,196(s0)
3000d134:	93dff06f          	j	3000ca70 <main+0x164>
3000d138:	0ce45783          	lhu	a5,206(s0)
3000d13c:	40f007b3          	neg	a5,a5
3000d140:	01079793          	slli	a5,a5,0x10
3000d144:	0cf42a23          	sw	a5,212(s0)
3000d148:	8d9f30ef          	jal	ra,30000a20 <randomNumber>
3000d14c:	03457533          	remu	a0,a0,s4
3000d150:	0ca41e23          	sh	a0,220(s0)
3000d154:	939ff06f          	j	3000ca8c <main+0x180>
3000d158:	0e645783          	lhu	a5,230(s0)
3000d15c:	40f007b3          	neg	a5,a5
3000d160:	01079793          	slli	a5,a5,0x10
3000d164:	0ef42623          	sw	a5,236(s0)
3000d168:	8b9f30ef          	jal	ra,30000a20 <randomNumber>
3000d16c:	03457533          	remu	a0,a0,s4
3000d170:	0ea41a23          	sh	a0,244(s0)
3000d174:	935ff06f          	j	3000caa8 <main+0x19c>
3000d178:	0fe45783          	lhu	a5,254(s0)
3000d17c:	40f007b3          	neg	a5,a5
3000d180:	01079793          	slli	a5,a5,0x10
3000d184:	10f42223          	sw	a5,260(s0)
3000d188:	899f30ef          	jal	ra,30000a20 <randomNumber>
3000d18c:	03457533          	remu	a0,a0,s4
3000d190:	10a41623          	sh	a0,268(s0)
3000d194:	931ff06f          	j	3000cac4 <main+0x1b8>
3000d198:	11645783          	lhu	a5,278(s0)
3000d19c:	40f007b3          	neg	a5,a5
3000d1a0:	01079793          	slli	a5,a5,0x10
3000d1a4:	10f42e23          	sw	a5,284(s0)
3000d1a8:	879f30ef          	jal	ra,30000a20 <randomNumber>
3000d1ac:	03457533          	remu	a0,a0,s4
3000d1b0:	12a41223          	sh	a0,292(s0)
3000d1b4:	92dff06f          	j	3000cae0 <main+0x1d4>
3000d1b8:	12e45783          	lhu	a5,302(s0)
3000d1bc:	40f007b3          	neg	a5,a5
3000d1c0:	01079793          	slli	a5,a5,0x10
3000d1c4:	12f42a23          	sw	a5,308(s0)
3000d1c8:	859f30ef          	jal	ra,30000a20 <randomNumber>
3000d1cc:	03457533          	remu	a0,a0,s4
3000d1d0:	12a41e23          	sh	a0,316(s0)
3000d1d4:	929ff06f          	j	3000cafc <main+0x1f0>

Disassembly of section .text.memcpy:

3000d1d8 <memcpy>:
3000d1d8:	00a5c7b3          	xor	a5,a1,a0
3000d1dc:	0037f793          	andi	a5,a5,3
3000d1e0:	00c508b3          	add	a7,a0,a2
3000d1e4:	06079263          	bnez	a5,3000d248 <memcpy+0x70>
3000d1e8:	00300793          	li	a5,3
3000d1ec:	04c7fe63          	bgeu	a5,a2,3000d248 <memcpy+0x70>
3000d1f0:	00357793          	andi	a5,a0,3
3000d1f4:	00050713          	mv	a4,a0
3000d1f8:	06079863          	bnez	a5,3000d268 <memcpy+0x90>
3000d1fc:	ffc8f613          	andi	a2,a7,-4
3000d200:	fe060793          	addi	a5,a2,-32
3000d204:	08f76c63          	bltu	a4,a5,3000d29c <memcpy+0xc4>
3000d208:	02c77c63          	bgeu	a4,a2,3000d240 <memcpy+0x68>
3000d20c:	00058693          	mv	a3,a1
3000d210:	00070793          	mv	a5,a4
3000d214:	0006a803          	lw	a6,0(a3)
3000d218:	00478793          	addi	a5,a5,4
3000d21c:	00468693          	addi	a3,a3,4
3000d220:	ff07ae23          	sw	a6,-4(a5)
3000d224:	fec7e8e3          	bltu	a5,a2,3000d214 <memcpy+0x3c>
3000d228:	fff60793          	addi	a5,a2,-1
3000d22c:	40e787b3          	sub	a5,a5,a4
3000d230:	ffc7f793          	andi	a5,a5,-4
3000d234:	00478793          	addi	a5,a5,4
3000d238:	00f70733          	add	a4,a4,a5
3000d23c:	00f585b3          	add	a1,a1,a5
3000d240:	01176863          	bltu	a4,a7,3000d250 <memcpy+0x78>
3000d244:	00008067          	ret
3000d248:	00050713          	mv	a4,a0
3000d24c:	ff157ce3          	bgeu	a0,a7,3000d244 <memcpy+0x6c>
3000d250:	0005c783          	lbu	a5,0(a1)
3000d254:	00170713          	addi	a4,a4,1
3000d258:	00158593          	addi	a1,a1,1
3000d25c:	fef70fa3          	sb	a5,-1(a4)
3000d260:	ff1768e3          	bltu	a4,a7,3000d250 <memcpy+0x78>
3000d264:	00008067          	ret
3000d268:	0005c683          	lbu	a3,0(a1)
3000d26c:	00170713          	addi	a4,a4,1
3000d270:	00377793          	andi	a5,a4,3
3000d274:	fed70fa3          	sb	a3,-1(a4)
3000d278:	00158593          	addi	a1,a1,1
3000d27c:	f80780e3          	beqz	a5,3000d1fc <memcpy+0x24>
3000d280:	0005c683          	lbu	a3,0(a1)
3000d284:	00170713          	addi	a4,a4,1
3000d288:	00377793          	andi	a5,a4,3
3000d28c:	fed70fa3          	sb	a3,-1(a4)
3000d290:	00158593          	addi	a1,a1,1
3000d294:	fc079ae3          	bnez	a5,3000d268 <memcpy+0x90>
3000d298:	f65ff06f          	j	3000d1fc <memcpy+0x24>
3000d29c:	0005a683          	lw	a3,0(a1)
3000d2a0:	0045a283          	lw	t0,4(a1)
3000d2a4:	0085af83          	lw	t6,8(a1)
3000d2a8:	00c5af03          	lw	t5,12(a1)
3000d2ac:	0105ae83          	lw	t4,16(a1)
3000d2b0:	0145ae03          	lw	t3,20(a1)
3000d2b4:	0185a303          	lw	t1,24(a1)
3000d2b8:	01c5a803          	lw	a6,28(a1)
3000d2bc:	02458593          	addi	a1,a1,36
3000d2c0:	00d72023          	sw	a3,0(a4)
3000d2c4:	ffc5a683          	lw	a3,-4(a1)
3000d2c8:	00572223          	sw	t0,4(a4)
3000d2cc:	01f72423          	sw	t6,8(a4)
3000d2d0:	01e72623          	sw	t5,12(a4)
3000d2d4:	01d72823          	sw	t4,16(a4)
3000d2d8:	01c72a23          	sw	t3,20(a4)
3000d2dc:	00672c23          	sw	t1,24(a4)
3000d2e0:	01072e23          	sw	a6,28(a4)
3000d2e4:	02470713          	addi	a4,a4,36
3000d2e8:	fed72e23          	sw	a3,-4(a4)
3000d2ec:	faf768e3          	bltu	a4,a5,3000d29c <memcpy+0xc4>
3000d2f0:	f19ff06f          	j	3000d208 <memcpy+0x30>

Disassembly of section .text.strcpy:

3000d2f4 <strcpy>:
3000d2f4:	00b567b3          	or	a5,a0,a1
3000d2f8:	0037f793          	andi	a5,a5,3
3000d2fc:	08079263          	bnez	a5,3000d380 <strcpy+0x8c>
3000d300:	0005a703          	lw	a4,0(a1)
3000d304:	7f7f86b7          	lui	a3,0x7f7f8
3000d308:	f7f68693          	addi	a3,a3,-129 # 7f7f7f7f <__bss_end__+0x4f6f7f7f>
3000d30c:	00d777b3          	and	a5,a4,a3
3000d310:	00d787b3          	add	a5,a5,a3
3000d314:	00e7e7b3          	or	a5,a5,a4
3000d318:	00d7e7b3          	or	a5,a5,a3
3000d31c:	fff00613          	li	a2,-1
3000d320:	06c79e63          	bne	a5,a2,3000d39c <strcpy+0xa8>
3000d324:	00050613          	mv	a2,a0
3000d328:	fff00813          	li	a6,-1
3000d32c:	00460613          	addi	a2,a2,4
3000d330:	00458593          	addi	a1,a1,4
3000d334:	fee62e23          	sw	a4,-4(a2)
3000d338:	0005a703          	lw	a4,0(a1)
3000d33c:	00d777b3          	and	a5,a4,a3
3000d340:	00d787b3          	add	a5,a5,a3
3000d344:	00e7e7b3          	or	a5,a5,a4
3000d348:	00d7e7b3          	or	a5,a5,a3
3000d34c:	ff0780e3          	beq	a5,a6,3000d32c <strcpy+0x38>
3000d350:	0005c783          	lbu	a5,0(a1)
3000d354:	0015c703          	lbu	a4,1(a1)
3000d358:	0025c683          	lbu	a3,2(a1)
3000d35c:	00f60023          	sb	a5,0(a2)
3000d360:	00078a63          	beqz	a5,3000d374 <strcpy+0x80>
3000d364:	00e600a3          	sb	a4,1(a2)
3000d368:	00070663          	beqz	a4,3000d374 <strcpy+0x80>
3000d36c:	00d60123          	sb	a3,2(a2)
3000d370:	00069463          	bnez	a3,3000d378 <strcpy+0x84>
3000d374:	00008067          	ret
3000d378:	000601a3          	sb	zero,3(a2)
3000d37c:	00008067          	ret
3000d380:	00050793          	mv	a5,a0
3000d384:	0005c703          	lbu	a4,0(a1)
3000d388:	00178793          	addi	a5,a5,1
3000d38c:	00158593          	addi	a1,a1,1
3000d390:	fee78fa3          	sb	a4,-1(a5)
3000d394:	fe0718e3          	bnez	a4,3000d384 <strcpy+0x90>
3000d398:	00008067          	ret
3000d39c:	00050613          	mv	a2,a0
3000d3a0:	fb1ff06f          	j	3000d350 <strcpy+0x5c>

Disassembly of section .text.__divsf3:

3000d3a4 <__divsf3>:
3000d3a4:	fc010113          	addi	sp,sp,-64
3000d3a8:	01755793          	srli	a5,a0,0x17
3000d3ac:	03212823          	sw	s2,48(sp)
3000d3b0:	03512223          	sw	s5,36(sp)
3000d3b4:	01712e23          	sw	s7,28(sp)
3000d3b8:	00951a93          	slli	s5,a0,0x9
3000d3bc:	01f55913          	srli	s2,a0,0x1f
3000d3c0:	02112e23          	sw	ra,60(sp)
3000d3c4:	02812c23          	sw	s0,56(sp)
3000d3c8:	02912a23          	sw	s1,52(sp)
3000d3cc:	03312623          	sw	s3,44(sp)
3000d3d0:	03412423          	sw	s4,40(sp)
3000d3d4:	03612023          	sw	s6,32(sp)
3000d3d8:	0ff7f793          	andi	a5,a5,255
3000d3dc:	009ada93          	srli	s5,s5,0x9
3000d3e0:	00090b93          	mv	s7,s2
3000d3e4:	18078863          	beqz	a5,3000d574 <__divsf3+0x1d0>
3000d3e8:	0ff00713          	li	a4,255
3000d3ec:	18e78e63          	beq	a5,a4,3000d588 <__divsf3+0x1e4>
3000d3f0:	003a9a93          	slli	s5,s5,0x3
3000d3f4:	04000737          	lui	a4,0x4000
3000d3f8:	00eaeab3          	or	s5,s5,a4
3000d3fc:	f8178a13          	addi	s4,a5,-127
3000d400:	00000413          	li	s0,0
3000d404:	00000b13          	li	s6,0
3000d408:	0175d793          	srli	a5,a1,0x17
3000d40c:	00959493          	slli	s1,a1,0x9
3000d410:	0ff7f793          	andi	a5,a5,255
3000d414:	0094d493          	srli	s1,s1,0x9
3000d418:	01f5d993          	srli	s3,a1,0x1f
3000d41c:	14078663          	beqz	a5,3000d568 <__divsf3+0x1c4>
3000d420:	0ff00713          	li	a4,255
3000d424:	04e78063          	beq	a5,a4,3000d464 <__divsf3+0xc0>
3000d428:	00349493          	slli	s1,s1,0x3
3000d42c:	f8178793          	addi	a5,a5,-127
3000d430:	04000737          	lui	a4,0x4000
3000d434:	00e4e4b3          	or	s1,s1,a4
3000d438:	40fa0a33          	sub	s4,s4,a5
3000d43c:	00000693          	li	a3,0
3000d440:	0086e433          	or	s0,a3,s0
3000d444:	00001717          	auipc	a4,0x1
3000d448:	15870713          	addi	a4,a4,344 # 3000e59c <cst.2215+0x74>
3000d44c:	00241413          	slli	s0,s0,0x2
3000d450:	00e40433          	add	s0,s0,a4
3000d454:	00042783          	lw	a5,0(s0)
3000d458:	01394933          	xor	s2,s2,s3
3000d45c:	00e787b3          	add	a5,a5,a4
3000d460:	00078067          	jr	a5
3000d464:	f01a0a13          	addi	s4,s4,-255
3000d468:	12049a63          	bnez	s1,3000d59c <__divsf3+0x1f8>
3000d46c:	00200693          	li	a3,2
3000d470:	0086e433          	or	s0,a3,s0
3000d474:	00001717          	auipc	a4,0x1
3000d478:	16870713          	addi	a4,a4,360 # 3000e5dc <cst.2215+0xb4>
3000d47c:	00241413          	slli	s0,s0,0x2
3000d480:	00e40433          	add	s0,s0,a4
3000d484:	00042783          	lw	a5,0(s0)
3000d488:	01394933          	xor	s2,s2,s3
3000d48c:	00e787b3          	add	a5,a5,a4
3000d490:	00078067          	jr	a5
3000d494:	00000913          	li	s2,0
3000d498:	0ff00713          	li	a4,255
3000d49c:	004007b7          	lui	a5,0x400
3000d4a0:	00979513          	slli	a0,a5,0x9
3000d4a4:	03c12083          	lw	ra,60(sp)
3000d4a8:	03812403          	lw	s0,56(sp)
3000d4ac:	01771793          	slli	a5,a4,0x17
3000d4b0:	00955513          	srli	a0,a0,0x9
3000d4b4:	01f91913          	slli	s2,s2,0x1f
3000d4b8:	00f56533          	or	a0,a0,a5
3000d4bc:	01256533          	or	a0,a0,s2
3000d4c0:	03412483          	lw	s1,52(sp)
3000d4c4:	03012903          	lw	s2,48(sp)
3000d4c8:	02c12983          	lw	s3,44(sp)
3000d4cc:	02812a03          	lw	s4,40(sp)
3000d4d0:	02412a83          	lw	s5,36(sp)
3000d4d4:	02012b03          	lw	s6,32(sp)
3000d4d8:	01c12b83          	lw	s7,28(sp)
3000d4dc:	04010113          	addi	sp,sp,64
3000d4e0:	00008067          	ret
3000d4e4:	0ff00713          	li	a4,255
3000d4e8:	00000793          	li	a5,0
3000d4ec:	fb5ff06f          	j	3000d4a0 <__divsf3+0xfc>
3000d4f0:	00048a93          	mv	s5,s1
3000d4f4:	00098b93          	mv	s7,s3
3000d4f8:	00068b13          	mv	s6,a3
3000d4fc:	00200793          	li	a5,2
3000d500:	24fb0a63          	beq	s6,a5,3000d754 <__divsf3+0x3b0>
3000d504:	00300793          	li	a5,3
3000d508:	f8fb06e3          	beq	s6,a5,3000d494 <__divsf3+0xf0>
3000d50c:	00100793          	li	a5,1
3000d510:	0efb0863          	beq	s6,a5,3000d600 <__divsf3+0x25c>
3000d514:	07fa0713          	addi	a4,s4,127
3000d518:	001bf913          	andi	s2,s7,1
3000d51c:	18e05a63          	blez	a4,3000d6b0 <__divsf3+0x30c>
3000d520:	007af793          	andi	a5,s5,7
3000d524:	00078a63          	beqz	a5,3000d538 <__divsf3+0x194>
3000d528:	00faf793          	andi	a5,s5,15
3000d52c:	00400693          	li	a3,4
3000d530:	00d78463          	beq	a5,a3,3000d538 <__divsf3+0x194>
3000d534:	004a8a93          	addi	s5,s5,4
3000d538:	004a9793          	slli	a5,s5,0x4
3000d53c:	0007da63          	bgez	a5,3000d550 <__divsf3+0x1ac>
3000d540:	f80007b7          	lui	a5,0xf8000
3000d544:	fff78793          	addi	a5,a5,-1 # f7ffffff <__bss_end__+0xc7efffff>
3000d548:	00fafab3          	and	s5,s5,a5
3000d54c:	080a0713          	addi	a4,s4,128
3000d550:	0fe00793          	li	a5,254
3000d554:	f8e7c8e3          	blt	a5,a4,3000d4e4 <__divsf3+0x140>
3000d558:	006a9793          	slli	a5,s5,0x6
3000d55c:	0097d793          	srli	a5,a5,0x9
3000d560:	0ff77713          	andi	a4,a4,255
3000d564:	f3dff06f          	j	3000d4a0 <__divsf3+0xfc>
3000d568:	06049c63          	bnez	s1,3000d5e0 <__divsf3+0x23c>
3000d56c:	00100693          	li	a3,1
3000d570:	f01ff06f          	j	3000d470 <__divsf3+0xcc>
3000d574:	040a9063          	bnez	s5,3000d5b4 <__divsf3+0x210>
3000d578:	00400413          	li	s0,4
3000d57c:	00000a13          	li	s4,0
3000d580:	00100b13          	li	s6,1
3000d584:	e85ff06f          	j	3000d408 <__divsf3+0x64>
3000d588:	000a9e63          	bnez	s5,3000d5a4 <__divsf3+0x200>
3000d58c:	00800413          	li	s0,8
3000d590:	0ff00a13          	li	s4,255
3000d594:	00200b13          	li	s6,2
3000d598:	e71ff06f          	j	3000d408 <__divsf3+0x64>
3000d59c:	00300693          	li	a3,3
3000d5a0:	ea1ff06f          	j	3000d440 <__divsf3+0x9c>
3000d5a4:	00c00413          	li	s0,12
3000d5a8:	0ff00a13          	li	s4,255
3000d5ac:	00300b13          	li	s6,3
3000d5b0:	e59ff06f          	j	3000d408 <__divsf3+0x64>
3000d5b4:	000a8513          	mv	a0,s5
3000d5b8:	00b12623          	sw	a1,12(sp)
3000d5bc:	7c8000ef          	jal	ra,3000dd84 <__clzsi2>
3000d5c0:	ffb50793          	addi	a5,a0,-5
3000d5c4:	00fa9ab3          	sll	s5,s5,a5
3000d5c8:	f8a00793          	li	a5,-118
3000d5cc:	40a78a33          	sub	s4,a5,a0
3000d5d0:	00000413          	li	s0,0
3000d5d4:	00000b13          	li	s6,0
3000d5d8:	00c12583          	lw	a1,12(sp)
3000d5dc:	e2dff06f          	j	3000d408 <__divsf3+0x64>
3000d5e0:	00048513          	mv	a0,s1
3000d5e4:	7a0000ef          	jal	ra,3000dd84 <__clzsi2>
3000d5e8:	ffb50713          	addi	a4,a0,-5
3000d5ec:	00aa07b3          	add	a5,s4,a0
3000d5f0:	00e494b3          	sll	s1,s1,a4
3000d5f4:	07678a13          	addi	s4,a5,118
3000d5f8:	00000693          	li	a3,0
3000d5fc:	e45ff06f          	j	3000d440 <__divsf3+0x9c>
3000d600:	001bf913          	andi	s2,s7,1
3000d604:	00000713          	li	a4,0
3000d608:	00000793          	li	a5,0
3000d60c:	e95ff06f          	j	3000d4a0 <__divsf3+0xfc>
3000d610:	00010637          	lui	a2,0x10
3000d614:	00549513          	slli	a0,s1,0x5
3000d618:	fff60613          	addi	a2,a2,-1 # ffff <stackPointer+0xa57f>
3000d61c:	01055793          	srli	a5,a0,0x10
3000d620:	00c57633          	and	a2,a0,a2
3000d624:	0e9af663          	bgeu	s5,s1,3000d710 <__divsf3+0x36c>
3000d628:	02fad5b3          	divu	a1,s5,a5
3000d62c:	fffa0a13          	addi	s4,s4,-1
3000d630:	000a8693          	mv	a3,s5
3000d634:	00000713          	li	a4,0
3000d638:	02c58833          	mul	a6,a1,a2
3000d63c:	02f6f6b3          	remu	a3,a3,a5
3000d640:	01069693          	slli	a3,a3,0x10
3000d644:	00e6e733          	or	a4,a3,a4
3000d648:	01077e63          	bgeu	a4,a6,3000d664 <__divsf3+0x2c0>
3000d64c:	00a70733          	add	a4,a4,a0
3000d650:	fff58693          	addi	a3,a1,-1
3000d654:	0ea76663          	bltu	a4,a0,3000d740 <__divsf3+0x39c>
3000d658:	0f077463          	bgeu	a4,a6,3000d740 <__divsf3+0x39c>
3000d65c:	ffe58593          	addi	a1,a1,-2
3000d660:	00a70733          	add	a4,a4,a0
3000d664:	41070733          	sub	a4,a4,a6
3000d668:	02f756b3          	divu	a3,a4,a5
3000d66c:	02f77733          	remu	a4,a4,a5
3000d670:	02c68ab3          	mul	s5,a3,a2
3000d674:	01071793          	slli	a5,a4,0x10
3000d678:	0157fe63          	bgeu	a5,s5,3000d694 <__divsf3+0x2f0>
3000d67c:	00a787b3          	add	a5,a5,a0
3000d680:	fff68713          	addi	a4,a3,-1
3000d684:	0aa7ea63          	bltu	a5,a0,3000d738 <__divsf3+0x394>
3000d688:	0b57f863          	bgeu	a5,s5,3000d738 <__divsf3+0x394>
3000d68c:	ffe68693          	addi	a3,a3,-2
3000d690:	00a787b3          	add	a5,a5,a0
3000d694:	01059593          	slli	a1,a1,0x10
3000d698:	41578ab3          	sub	s5,a5,s5
3000d69c:	00d5e5b3          	or	a1,a1,a3
3000d6a0:	01503ab3          	snez	s5,s5
3000d6a4:	0155eab3          	or	s5,a1,s5
3000d6a8:	00090b93          	mv	s7,s2
3000d6ac:	e69ff06f          	j	3000d514 <__divsf3+0x170>
3000d6b0:	00100693          	li	a3,1
3000d6b4:	40e686b3          	sub	a3,a3,a4
3000d6b8:	00070a63          	beqz	a4,3000d6cc <__divsf3+0x328>
3000d6bc:	01b00613          	li	a2,27
3000d6c0:	00000713          	li	a4,0
3000d6c4:	00000793          	li	a5,0
3000d6c8:	dcd64ce3          	blt	a2,a3,3000d4a0 <__divsf3+0xfc>
3000d6cc:	09ea0a13          	addi	s4,s4,158
3000d6d0:	014a9a33          	sll	s4,s5,s4
3000d6d4:	00dad7b3          	srl	a5,s5,a3
3000d6d8:	01403ab3          	snez	s5,s4
3000d6dc:	0157e7b3          	or	a5,a5,s5
3000d6e0:	0077f713          	andi	a4,a5,7
3000d6e4:	00070a63          	beqz	a4,3000d6f8 <__divsf3+0x354>
3000d6e8:	00f7f713          	andi	a4,a5,15
3000d6ec:	00400693          	li	a3,4
3000d6f0:	00d70463          	beq	a4,a3,3000d6f8 <__divsf3+0x354>
3000d6f4:	00478793          	addi	a5,a5,4
3000d6f8:	00579713          	slli	a4,a5,0x5
3000d6fc:	04074663          	bltz	a4,3000d748 <__divsf3+0x3a4>
3000d700:	00679793          	slli	a5,a5,0x6
3000d704:	0097d793          	srli	a5,a5,0x9
3000d708:	00000713          	li	a4,0
3000d70c:	d95ff06f          	j	3000d4a0 <__divsf3+0xfc>
3000d710:	001ad693          	srli	a3,s5,0x1
3000d714:	02f6d5b3          	divu	a1,a3,a5
3000d718:	01fa9713          	slli	a4,s5,0x1f
3000d71c:	01075713          	srli	a4,a4,0x10
3000d720:	02c58833          	mul	a6,a1,a2
3000d724:	f19ff06f          	j	3000d63c <__divsf3+0x298>
3000d728:	00098b93          	mv	s7,s3
3000d72c:	00068b13          	mv	s6,a3
3000d730:	00000a93          	li	s5,0
3000d734:	dc9ff06f          	j	3000d4fc <__divsf3+0x158>
3000d738:	00070693          	mv	a3,a4
3000d73c:	f59ff06f          	j	3000d694 <__divsf3+0x2f0>
3000d740:	00068593          	mv	a1,a3
3000d744:	f21ff06f          	j	3000d664 <__divsf3+0x2c0>
3000d748:	00100713          	li	a4,1
3000d74c:	00000793          	li	a5,0
3000d750:	d51ff06f          	j	3000d4a0 <__divsf3+0xfc>
3000d754:	001bf913          	andi	s2,s7,1
3000d758:	0ff00713          	li	a4,255
3000d75c:	00000793          	li	a5,0
3000d760:	d41ff06f          	j	3000d4a0 <__divsf3+0xfc>

Disassembly of section .text.__mulsf3:

3000d764 <__mulsf3>:
3000d764:	fd010113          	addi	sp,sp,-48
3000d768:	02812423          	sw	s0,40(sp)
3000d76c:	01755413          	srli	s0,a0,0x17
3000d770:	01312e23          	sw	s3,28(sp)
3000d774:	01412c23          	sw	s4,24(sp)
3000d778:	00951993          	slli	s3,a0,0x9
3000d77c:	02112623          	sw	ra,44(sp)
3000d780:	02912223          	sw	s1,36(sp)
3000d784:	03212023          	sw	s2,32(sp)
3000d788:	01512a23          	sw	s5,20(sp)
3000d78c:	01612823          	sw	s6,16(sp)
3000d790:	0ff47413          	andi	s0,s0,255
3000d794:	0099d993          	srli	s3,s3,0x9
3000d798:	01f55a13          	srli	s4,a0,0x1f
3000d79c:	12040063          	beqz	s0,3000d8bc <__mulsf3+0x158>
3000d7a0:	0ff00793          	li	a5,255
3000d7a4:	14f40863          	beq	s0,a5,3000d8f4 <__mulsf3+0x190>
3000d7a8:	00399793          	slli	a5,s3,0x3
3000d7ac:	04000737          	lui	a4,0x4000
3000d7b0:	00e7e9b3          	or	s3,a5,a4
3000d7b4:	f8140413          	addi	s0,s0,-127
3000d7b8:	00000493          	li	s1,0
3000d7bc:	00000b13          	li	s6,0
3000d7c0:	0175d713          	srli	a4,a1,0x17
3000d7c4:	00959a93          	slli	s5,a1,0x9
3000d7c8:	0ff77713          	andi	a4,a4,255
3000d7cc:	009ada93          	srli	s5,s5,0x9
3000d7d0:	01f5d913          	srli	s2,a1,0x1f
3000d7d4:	10070863          	beqz	a4,3000d8e4 <__mulsf3+0x180>
3000d7d8:	0ff00793          	li	a5,255
3000d7dc:	04f70663          	beq	a4,a5,3000d828 <__mulsf3+0xc4>
3000d7e0:	003a9a93          	slli	s5,s5,0x3
3000d7e4:	f8170713          	addi	a4,a4,-127 # 3ffff81 <stackPointer+0x3ffa501>
3000d7e8:	040007b7          	lui	a5,0x4000
3000d7ec:	00faeab3          	or	s5,s5,a5
3000d7f0:	00e40433          	add	s0,s0,a4
3000d7f4:	00000613          	li	a2,0
3000d7f8:	012a4533          	xor	a0,s4,s2
3000d7fc:	00f00793          	li	a5,15
3000d800:	00050693          	mv	a3,a0
3000d804:	00140593          	addi	a1,s0,1
3000d808:	1897e263          	bltu	a5,s1,3000d98c <__mulsf3+0x228>
3000d80c:	00001717          	auipc	a4,0x1
3000d810:	e1070713          	addi	a4,a4,-496 # 3000e61c <cst.2215+0xf4>
3000d814:	00249493          	slli	s1,s1,0x2
3000d818:	00e484b3          	add	s1,s1,a4
3000d81c:	0004a783          	lw	a5,0(s1) # 1400000 <stackPointer+0x13fa580>
3000d820:	00e787b3          	add	a5,a5,a4
3000d824:	00078067          	jr	a5 # 4000000 <stackPointer+0x3ffa580>
3000d828:	0ff40413          	addi	s0,s0,255
3000d82c:	120a9c63          	bnez	s5,3000d964 <__mulsf3+0x200>
3000d830:	0024e493          	ori	s1,s1,2
3000d834:	00200613          	li	a2,2
3000d838:	fc1ff06f          	j	3000d7f8 <__mulsf3+0x94>
3000d83c:	00000513          	li	a0,0
3000d840:	0ff00713          	li	a4,255
3000d844:	004007b7          	lui	a5,0x400
3000d848:	02c12083          	lw	ra,44(sp)
3000d84c:	02812403          	lw	s0,40(sp)
3000d850:	00979793          	slli	a5,a5,0x9
3000d854:	01771713          	slli	a4,a4,0x17
3000d858:	0097d793          	srli	a5,a5,0x9
3000d85c:	01f51513          	slli	a0,a0,0x1f
3000d860:	00e7e7b3          	or	a5,a5,a4
3000d864:	02412483          	lw	s1,36(sp)
3000d868:	02012903          	lw	s2,32(sp)
3000d86c:	01c12983          	lw	s3,28(sp)
3000d870:	01812a03          	lw	s4,24(sp)
3000d874:	01412a83          	lw	s5,20(sp)
3000d878:	01012b03          	lw	s6,16(sp)
3000d87c:	00a7e533          	or	a0,a5,a0
3000d880:	03010113          	addi	sp,sp,48
3000d884:	00008067          	ret
3000d888:	00090693          	mv	a3,s2
3000d88c:	000a8993          	mv	s3,s5
3000d890:	00060b13          	mv	s6,a2
3000d894:	00200793          	li	a5,2
3000d898:	0efb0263          	beq	s6,a5,3000d97c <__mulsf3+0x218>
3000d89c:	00300793          	li	a5,3
3000d8a0:	f8fb0ee3          	beq	s6,a5,3000d83c <__mulsf3+0xd8>
3000d8a4:	00100793          	li	a5,1
3000d8a8:	00068513          	mv	a0,a3
3000d8ac:	22fb1463          	bne	s6,a5,3000dad4 <__mulsf3+0x370>
3000d8b0:	00000713          	li	a4,0
3000d8b4:	00000793          	li	a5,0
3000d8b8:	f91ff06f          	j	3000d848 <__mulsf3+0xe4>
3000d8bc:	06099e63          	bnez	s3,3000d938 <__mulsf3+0x1d4>
3000d8c0:	0175d713          	srli	a4,a1,0x17
3000d8c4:	00959a93          	slli	s5,a1,0x9
3000d8c8:	0ff77713          	andi	a4,a4,255
3000d8cc:	00400493          	li	s1,4
3000d8d0:	00000413          	li	s0,0
3000d8d4:	00100b13          	li	s6,1
3000d8d8:	009ada93          	srli	s5,s5,0x9
3000d8dc:	01f5d913          	srli	s2,a1,0x1f
3000d8e0:	ee071ce3          	bnez	a4,3000d7d8 <__mulsf3+0x74>
3000d8e4:	020a9263          	bnez	s5,3000d908 <__mulsf3+0x1a4>
3000d8e8:	0014e493          	ori	s1,s1,1
3000d8ec:	00100613          	li	a2,1
3000d8f0:	f09ff06f          	j	3000d7f8 <__mulsf3+0x94>
3000d8f4:	02099a63          	bnez	s3,3000d928 <__mulsf3+0x1c4>
3000d8f8:	00800493          	li	s1,8
3000d8fc:	0ff00413          	li	s0,255
3000d900:	00200b13          	li	s6,2
3000d904:	ebdff06f          	j	3000d7c0 <__mulsf3+0x5c>
3000d908:	000a8513          	mv	a0,s5
3000d90c:	478000ef          	jal	ra,3000dd84 <__clzsi2>
3000d910:	ffb50793          	addi	a5,a0,-5
3000d914:	40a40433          	sub	s0,s0,a0
3000d918:	00fa9ab3          	sll	s5,s5,a5
3000d91c:	f8a40413          	addi	s0,s0,-118
3000d920:	00000613          	li	a2,0
3000d924:	ed5ff06f          	j	3000d7f8 <__mulsf3+0x94>
3000d928:	00c00493          	li	s1,12
3000d92c:	0ff00413          	li	s0,255
3000d930:	00300b13          	li	s6,3
3000d934:	e8dff06f          	j	3000d7c0 <__mulsf3+0x5c>
3000d938:	00098513          	mv	a0,s3
3000d93c:	00b12623          	sw	a1,12(sp)
3000d940:	444000ef          	jal	ra,3000dd84 <__clzsi2>
3000d944:	ffb50793          	addi	a5,a0,-5
3000d948:	f8a00413          	li	s0,-118
3000d94c:	00f999b3          	sll	s3,s3,a5
3000d950:	40a40433          	sub	s0,s0,a0
3000d954:	00000493          	li	s1,0
3000d958:	00000b13          	li	s6,0
3000d95c:	00c12583          	lw	a1,12(sp)
3000d960:	e61ff06f          	j	3000d7c0 <__mulsf3+0x5c>
3000d964:	0034e493          	ori	s1,s1,3
3000d968:	00300613          	li	a2,3
3000d96c:	e8dff06f          	j	3000d7f8 <__mulsf3+0x94>
3000d970:	00200793          	li	a5,2
3000d974:	000a0693          	mv	a3,s4
3000d978:	f2fb12e3          	bne	s6,a5,3000d89c <__mulsf3+0x138>
3000d97c:	00068513          	mv	a0,a3
3000d980:	0ff00713          	li	a4,255
3000d984:	00000793          	li	a5,0
3000d988:	ec1ff06f          	j	3000d848 <__mulsf3+0xe4>
3000d98c:	00010337          	lui	t1,0x10
3000d990:	fff30693          	addi	a3,t1,-1 # ffff <stackPointer+0xa57f>
3000d994:	0109d613          	srli	a2,s3,0x10
3000d998:	010ad893          	srli	a7,s5,0x10
3000d99c:	00d9f7b3          	and	a5,s3,a3
3000d9a0:	00dafab3          	and	s5,s5,a3
3000d9a4:	03578833          	mul	a6,a5,s5
3000d9a8:	02f889b3          	mul	s3,a7,a5
3000d9ac:	01085713          	srli	a4,a6,0x10
3000d9b0:	03560ab3          	mul	s5,a2,s5
3000d9b4:	015989b3          	add	s3,s3,s5
3000d9b8:	01370733          	add	a4,a4,s3
3000d9bc:	03160633          	mul	a2,a2,a7
3000d9c0:	01577463          	bgeu	a4,s5,3000d9c8 <__mulsf3+0x264>
3000d9c4:	00660633          	add	a2,a2,t1
3000d9c8:	000107b7          	lui	a5,0x10
3000d9cc:	fff78793          	addi	a5,a5,-1 # ffff <stackPointer+0xa57f>
3000d9d0:	00f776b3          	and	a3,a4,a5
3000d9d4:	00f87833          	and	a6,a6,a5
3000d9d8:	01069693          	slli	a3,a3,0x10
3000d9dc:	010686b3          	add	a3,a3,a6
3000d9e0:	00669993          	slli	s3,a3,0x6
3000d9e4:	01075793          	srli	a5,a4,0x10
3000d9e8:	013039b3          	snez	s3,s3
3000d9ec:	01a6d693          	srli	a3,a3,0x1a
3000d9f0:	00c787b3          	add	a5,a5,a2
3000d9f4:	00679793          	slli	a5,a5,0x6
3000d9f8:	00d9e6b3          	or	a3,s3,a3
3000d9fc:	00d7e9b3          	or	s3,a5,a3
3000da00:	00499793          	slli	a5,s3,0x4
3000da04:	0007da63          	bgez	a5,3000da18 <__mulsf3+0x2b4>
3000da08:	0019d713          	srli	a4,s3,0x1
3000da0c:	0019f793          	andi	a5,s3,1
3000da10:	00f769b3          	or	s3,a4,a5
3000da14:	00058413          	mv	s0,a1
3000da18:	07f40713          	addi	a4,s0,127
3000da1c:	04e05663          	blez	a4,3000da68 <__mulsf3+0x304>
3000da20:	0079f793          	andi	a5,s3,7
3000da24:	00078a63          	beqz	a5,3000da38 <__mulsf3+0x2d4>
3000da28:	00f9f793          	andi	a5,s3,15
3000da2c:	00400693          	li	a3,4
3000da30:	00d78463          	beq	a5,a3,3000da38 <__mulsf3+0x2d4>
3000da34:	00498993          	addi	s3,s3,4
3000da38:	00499793          	slli	a5,s3,0x4
3000da3c:	0007da63          	bgez	a5,3000da50 <__mulsf3+0x2ec>
3000da40:	f80007b7          	lui	a5,0xf8000
3000da44:	fff78793          	addi	a5,a5,-1 # f7ffffff <__bss_end__+0xc7efffff>
3000da48:	00f9f9b3          	and	s3,s3,a5
3000da4c:	08040713          	addi	a4,s0,128
3000da50:	0fe00793          	li	a5,254
3000da54:	06e7ca63          	blt	a5,a4,3000dac8 <__mulsf3+0x364>
3000da58:	00699793          	slli	a5,s3,0x6
3000da5c:	0097d793          	srli	a5,a5,0x9
3000da60:	0ff77713          	andi	a4,a4,255
3000da64:	de5ff06f          	j	3000d848 <__mulsf3+0xe4>
3000da68:	00100793          	li	a5,1
3000da6c:	40e786b3          	sub	a3,a5,a4
3000da70:	00070a63          	beqz	a4,3000da84 <__mulsf3+0x320>
3000da74:	01b00613          	li	a2,27
3000da78:	00000713          	li	a4,0
3000da7c:	00000793          	li	a5,0
3000da80:	dcd644e3          	blt	a2,a3,3000d848 <__mulsf3+0xe4>
3000da84:	09e40713          	addi	a4,s0,158
3000da88:	00e99733          	sll	a4,s3,a4
3000da8c:	00e03733          	snez	a4,a4
3000da90:	00d9d7b3          	srl	a5,s3,a3
3000da94:	00e7e7b3          	or	a5,a5,a4
3000da98:	0077f713          	andi	a4,a5,7
3000da9c:	00070a63          	beqz	a4,3000dab0 <__mulsf3+0x34c>
3000daa0:	00f7f713          	andi	a4,a5,15
3000daa4:	00400693          	li	a3,4
3000daa8:	00d70463          	beq	a4,a3,3000dab0 <__mulsf3+0x34c>
3000daac:	00478793          	addi	a5,a5,4
3000dab0:	00579713          	slli	a4,a5,0x5
3000dab4:	02074463          	bltz	a4,3000dadc <__mulsf3+0x378>
3000dab8:	00679793          	slli	a5,a5,0x6
3000dabc:	0097d793          	srli	a5,a5,0x9
3000dac0:	00000713          	li	a4,0
3000dac4:	d85ff06f          	j	3000d848 <__mulsf3+0xe4>
3000dac8:	0ff00713          	li	a4,255
3000dacc:	00000793          	li	a5,0
3000dad0:	d79ff06f          	j	3000d848 <__mulsf3+0xe4>
3000dad4:	00058413          	mv	s0,a1
3000dad8:	f41ff06f          	j	3000da18 <__mulsf3+0x2b4>
3000dadc:	00100713          	li	a4,1
3000dae0:	00000793          	li	a5,0
3000dae4:	d65ff06f          	j	3000d848 <__mulsf3+0xe4>

Disassembly of section .text.__fixunssfsi:

3000dae8 <__fixunssfsi>:
3000dae8:	01755713          	srli	a4,a0,0x17
3000daec:	00800637          	lui	a2,0x800
3000daf0:	fff60793          	addi	a5,a2,-1 # 7fffff <stackPointer+0x7fa57f>
3000daf4:	0ff77713          	andi	a4,a4,255
3000daf8:	07e00593          	li	a1,126
3000dafc:	00a7f6b3          	and	a3,a5,a0
3000db00:	01f55793          	srli	a5,a0,0x1f
3000db04:	00000513          	li	a0,0
3000db08:	00e5f663          	bgeu	a1,a4,3000db14 <__fixunssfsi+0x2c>
3000db0c:	00078663          	beqz	a5,3000db18 <__fixunssfsi+0x30>
3000db10:	00008067          	ret
3000db14:	00008067          	ret
3000db18:	09e00793          	li	a5,158
3000db1c:	fff00513          	li	a0,-1
3000db20:	fee7e8e3          	bltu	a5,a4,3000db10 <__fixunssfsi+0x28>
3000db24:	09500593          	li	a1,149
3000db28:	00c6e7b3          	or	a5,a3,a2
3000db2c:	00e5d863          	bge	a1,a4,3000db3c <__fixunssfsi+0x54>
3000db30:	f6a70713          	addi	a4,a4,-150
3000db34:	00e79533          	sll	a0,a5,a4
3000db38:	00008067          	ret
3000db3c:	09600513          	li	a0,150
3000db40:	40e50733          	sub	a4,a0,a4
3000db44:	00e7d533          	srl	a0,a5,a4
3000db48:	00008067          	ret

Disassembly of section .text.__floatsisf:

3000db4c <__floatsisf>:
3000db4c:	ff010113          	addi	sp,sp,-16
3000db50:	00112623          	sw	ra,12(sp)
3000db54:	00812423          	sw	s0,8(sp)
3000db58:	00912223          	sw	s1,4(sp)
3000db5c:	04050863          	beqz	a0,3000dbac <__floatsisf+0x60>
3000db60:	41f55793          	srai	a5,a0,0x1f
3000db64:	00a7c433          	xor	s0,a5,a0
3000db68:	40f40433          	sub	s0,s0,a5
3000db6c:	00050493          	mv	s1,a0
3000db70:	00040513          	mv	a0,s0
3000db74:	210000ef          	jal	ra,3000dd84 <__clzsi2>
3000db78:	09e00793          	li	a5,158
3000db7c:	40a78733          	sub	a4,a5,a0
3000db80:	09600793          	li	a5,150
3000db84:	01f4d493          	srli	s1,s1,0x1f
3000db88:	04e7ce63          	blt	a5,a4,3000dbe4 <__floatsisf+0x98>
3000db8c:	00800693          	li	a3,8
3000db90:	0ff77793          	andi	a5,a4,255
3000db94:	00a6d663          	bge	a3,a0,3000dba0 <__floatsisf+0x54>
3000db98:	ff850513          	addi	a0,a0,-8
3000db9c:	00a41433          	sll	s0,s0,a0
3000dba0:	00941413          	slli	s0,s0,0x9
3000dba4:	00945413          	srli	s0,s0,0x9
3000dba8:	0100006f          	j	3000dbb8 <__floatsisf+0x6c>
3000dbac:	00000493          	li	s1,0
3000dbb0:	00000793          	li	a5,0
3000dbb4:	00000413          	li	s0,0
3000dbb8:	00941413          	slli	s0,s0,0x9
3000dbbc:	00945513          	srli	a0,s0,0x9
3000dbc0:	00c12083          	lw	ra,12(sp)
3000dbc4:	00812403          	lw	s0,8(sp)
3000dbc8:	01779793          	slli	a5,a5,0x17
3000dbcc:	01f49493          	slli	s1,s1,0x1f
3000dbd0:	00f56533          	or	a0,a0,a5
3000dbd4:	00956533          	or	a0,a0,s1
3000dbd8:	00412483          	lw	s1,4(sp)
3000dbdc:	01010113          	addi	sp,sp,16
3000dbe0:	00008067          	ret
3000dbe4:	09900793          	li	a5,153
3000dbe8:	02e7d063          	bge	a5,a4,3000dc08 <__floatsisf+0xbc>
3000dbec:	01b50793          	addi	a5,a0,27
3000dbf0:	00500693          	li	a3,5
3000dbf4:	00f417b3          	sll	a5,s0,a5
3000dbf8:	40a686b3          	sub	a3,a3,a0
3000dbfc:	00d45433          	srl	s0,s0,a3
3000dc00:	00f037b3          	snez	a5,a5
3000dc04:	00f46433          	or	s0,s0,a5
3000dc08:	00500793          	li	a5,5
3000dc0c:	00a7d663          	bge	a5,a0,3000dc18 <__floatsisf+0xcc>
3000dc10:	ffb50793          	addi	a5,a0,-5
3000dc14:	00f41433          	sll	s0,s0,a5
3000dc18:	fc0006b7          	lui	a3,0xfc000
3000dc1c:	fff68693          	addi	a3,a3,-1 # fbffffff <__bss_end__+0xcbefffff>
3000dc20:	00747793          	andi	a5,s0,7
3000dc24:	00d47633          	and	a2,s0,a3
3000dc28:	02078463          	beqz	a5,3000dc50 <__floatsisf+0x104>
3000dc2c:	00f47793          	andi	a5,s0,15
3000dc30:	00400593          	li	a1,4
3000dc34:	00b78e63          	beq	a5,a1,3000dc50 <__floatsisf+0x104>
3000dc38:	00460613          	addi	a2,a2,4
3000dc3c:	00561793          	slli	a5,a2,0x5
3000dc40:	0007d863          	bgez	a5,3000dc50 <__floatsisf+0x104>
3000dc44:	09f00793          	li	a5,159
3000dc48:	00d67633          	and	a2,a2,a3
3000dc4c:	40a78733          	sub	a4,a5,a0
3000dc50:	00661413          	slli	s0,a2,0x6
3000dc54:	00945413          	srli	s0,s0,0x9
3000dc58:	0ff77793          	andi	a5,a4,255
3000dc5c:	f5dff06f          	j	3000dbb8 <__floatsisf+0x6c>

Disassembly of section .text.__floatunsisf:

3000dc60 <__floatunsisf>:
3000dc60:	ff010113          	addi	sp,sp,-16
3000dc64:	00112623          	sw	ra,12(sp)
3000dc68:	00812423          	sw	s0,8(sp)
3000dc6c:	04050c63          	beqz	a0,3000dcc4 <__floatunsisf+0x64>
3000dc70:	00050413          	mv	s0,a0
3000dc74:	110000ef          	jal	ra,3000dd84 <__clzsi2>
3000dc78:	09e00793          	li	a5,158
3000dc7c:	40a78733          	sub	a4,a5,a0
3000dc80:	09600793          	li	a5,150
3000dc84:	06e7c463          	blt	a5,a4,3000dcec <__floatunsisf+0x8c>
3000dc88:	00800693          	li	a3,8
3000dc8c:	0ff77793          	andi	a5,a4,255
3000dc90:	00a6d663          	bge	a3,a0,3000dc9c <__floatunsisf+0x3c>
3000dc94:	ff850513          	addi	a0,a0,-8
3000dc98:	00a41433          	sll	s0,s0,a0
3000dc9c:	00941413          	slli	s0,s0,0x9
3000dca0:	00945413          	srli	s0,s0,0x9
3000dca4:	00941413          	slli	s0,s0,0x9
3000dca8:	00945513          	srli	a0,s0,0x9
3000dcac:	00c12083          	lw	ra,12(sp)
3000dcb0:	00812403          	lw	s0,8(sp)
3000dcb4:	01779793          	slli	a5,a5,0x17
3000dcb8:	00f56533          	or	a0,a0,a5
3000dcbc:	01010113          	addi	sp,sp,16
3000dcc0:	00008067          	ret
3000dcc4:	00000413          	li	s0,0
3000dcc8:	00941413          	slli	s0,s0,0x9
3000dccc:	00945513          	srli	a0,s0,0x9
3000dcd0:	00c12083          	lw	ra,12(sp)
3000dcd4:	00812403          	lw	s0,8(sp)
3000dcd8:	00000793          	li	a5,0
3000dcdc:	01779793          	slli	a5,a5,0x17
3000dce0:	00f56533          	or	a0,a0,a5
3000dce4:	01010113          	addi	sp,sp,16
3000dce8:	00008067          	ret
3000dcec:	09900793          	li	a5,153
3000dcf0:	02e7d063          	bge	a5,a4,3000dd10 <__floatunsisf+0xb0>
3000dcf4:	01b50793          	addi	a5,a0,27
3000dcf8:	00500693          	li	a3,5
3000dcfc:	00f417b3          	sll	a5,s0,a5
3000dd00:	40a686b3          	sub	a3,a3,a0
3000dd04:	00f037b3          	snez	a5,a5
3000dd08:	00d45433          	srl	s0,s0,a3
3000dd0c:	0087e433          	or	s0,a5,s0
3000dd10:	00500793          	li	a5,5
3000dd14:	00a7d663          	bge	a5,a0,3000dd20 <__floatunsisf+0xc0>
3000dd18:	ffb50793          	addi	a5,a0,-5
3000dd1c:	00f41433          	sll	s0,s0,a5
3000dd20:	fc0006b7          	lui	a3,0xfc000
3000dd24:	fff68693          	addi	a3,a3,-1 # fbffffff <__bss_end__+0xcbefffff>
3000dd28:	00747793          	andi	a5,s0,7
3000dd2c:	00d47633          	and	a2,s0,a3
3000dd30:	02078463          	beqz	a5,3000dd58 <__floatunsisf+0xf8>
3000dd34:	00f47793          	andi	a5,s0,15
3000dd38:	00400593          	li	a1,4
3000dd3c:	00b78e63          	beq	a5,a1,3000dd58 <__floatunsisf+0xf8>
3000dd40:	00460613          	addi	a2,a2,4
3000dd44:	00561793          	slli	a5,a2,0x5
3000dd48:	0007d863          	bgez	a5,3000dd58 <__floatunsisf+0xf8>
3000dd4c:	09f00793          	li	a5,159
3000dd50:	00d67633          	and	a2,a2,a3
3000dd54:	40a78733          	sub	a4,a5,a0
3000dd58:	00661413          	slli	s0,a2,0x6
3000dd5c:	00945413          	srli	s0,s0,0x9
3000dd60:	00941413          	slli	s0,s0,0x9
3000dd64:	00945513          	srli	a0,s0,0x9
3000dd68:	00c12083          	lw	ra,12(sp)
3000dd6c:	00812403          	lw	s0,8(sp)
3000dd70:	0ff77793          	andi	a5,a4,255
3000dd74:	01779793          	slli	a5,a5,0x17
3000dd78:	00f56533          	or	a0,a0,a5
3000dd7c:	01010113          	addi	sp,sp,16
3000dd80:	00008067          	ret

Disassembly of section .text.__clzsi2:

3000dd84 <__clzsi2>:
3000dd84:	000107b7          	lui	a5,0x10
3000dd88:	04f57463          	bgeu	a0,a5,3000ddd0 <__clzsi2+0x4c>
3000dd8c:	0ff00793          	li	a5,255
3000dd90:	02000713          	li	a4,32
3000dd94:	00a7ee63          	bltu	a5,a0,3000ddb0 <__clzsi2+0x2c>
3000dd98:	00001797          	auipc	a5,0x1
3000dd9c:	8c478793          	addi	a5,a5,-1852 # 3000e65c <__clz_tab>
3000dda0:	00a787b3          	add	a5,a5,a0
3000dda4:	0007c503          	lbu	a0,0(a5)
3000dda8:	40a70533          	sub	a0,a4,a0
3000ddac:	00008067          	ret
3000ddb0:	00855513          	srli	a0,a0,0x8
3000ddb4:	00001797          	auipc	a5,0x1
3000ddb8:	8a878793          	addi	a5,a5,-1880 # 3000e65c <__clz_tab>
3000ddbc:	00a787b3          	add	a5,a5,a0
3000ddc0:	0007c503          	lbu	a0,0(a5)
3000ddc4:	01800713          	li	a4,24
3000ddc8:	40a70533          	sub	a0,a4,a0
3000ddcc:	00008067          	ret
3000ddd0:	010007b7          	lui	a5,0x1000
3000ddd4:	02f56263          	bltu	a0,a5,3000ddf8 <__clzsi2+0x74>
3000ddd8:	01855513          	srli	a0,a0,0x18
3000dddc:	00001797          	auipc	a5,0x1
3000dde0:	88078793          	addi	a5,a5,-1920 # 3000e65c <__clz_tab>
3000dde4:	00a787b3          	add	a5,a5,a0
3000dde8:	0007c503          	lbu	a0,0(a5)
3000ddec:	00800713          	li	a4,8
3000ddf0:	40a70533          	sub	a0,a4,a0
3000ddf4:	00008067          	ret
3000ddf8:	01055513          	srli	a0,a0,0x10
3000ddfc:	00001797          	auipc	a5,0x1
3000de00:	86078793          	addi	a5,a5,-1952 # 3000e65c <__clz_tab>
3000de04:	00a787b3          	add	a5,a5,a0
3000de08:	0007c503          	lbu	a0,0(a5)
3000de0c:	01000713          	li	a4,16
3000de10:	40a70533          	sub	a0,a4,a0
3000de14:	00008067          	ret
