
prog.elf:     file format elf32-littleriscv


Disassembly of section .text:

00002000 <__text_start>:
    2000:	0100006f          	j	2010 <start>
    2004:	00000013          	nop
    2008:	00000013          	nop
    200c:	00000013          	nop

00002010 <start>:
    2010:	ff010113          	addi	sp,sp,-16
    2014:	00012023          	sw	zero,0(sp)
    2018:	00012223          	sw	zero,4(sp)
    201c:	00012423          	sw	zero,8(sp)
    2020:	00012623          	sw	zero,12(sp)
    2024:	2a8000ef          	jal	ra,22cc <__data_rom_start>
    2028:	0000006f          	j	2028 <start+0x18>
    202c:	0000                	unimp
	...

00002030 <_Z12randomNumberv>:
    2030:	00002737          	lui	a4,0x2
    2034:	5cc72503          	lw	a0,1484(a4) # 25cc <random_state>
    2038:	00d51793          	slli	a5,a0,0xd
    203c:	00a7c7b3          	xor	a5,a5,a0
    2040:	0117d513          	srli	a0,a5,0x11
    2044:	00f547b3          	xor	a5,a0,a5
    2048:	00579513          	slli	a0,a5,0x5
    204c:	00f54533          	xor	a0,a0,a5
    2050:	5ca72623          	sw	a0,1484(a4)
    2054:	00008067          	ret

00002058 <_Z5printPc>:
    2058:	00054783          	lbu	a5,0(a0)
    205c:	00002737          	lui	a4,0x2
    2060:	65c72e03          	lw	t3,1628(a4) # 265c <displayRam>
    2064:	06078c63          	beqz	a5,20dc <_Z5printPc+0x84>
    2068:	00001337          	lui	t1,0x1
    206c:	a0030593          	addi	a1,t1,-1536 # a00 <__text_start-0x1600>
    2070:	00150513          	addi	a0,a0,1
    2074:	00d00813          	li	a6,13
    2078:	00002637          	lui	a2,0x2
    207c:	00a00893          	li	a7,10
    2080:	05000e93          	li	t4,80
    2084:	95f30313          	addi	t1,t1,-1697
    2088:	0240006f          	j	20ac <_Z5printPc+0x54>
    208c:	00170793          	addi	a5,a4,1
    2090:	00171713          	slli	a4,a4,0x1
    2094:	64f62c23          	sw	a5,1624(a2) # 2658 <screenIndex>
    2098:	00ee0733          	add	a4,t3,a4
    209c:	00d71023          	sh	a3,0(a4)
    20a0:	00150513          	addi	a0,a0,1
    20a4:	fff54783          	lbu	a5,-1(a0)
    20a8:	02078a63          	beqz	a5,20dc <_Z5printPc+0x84>
    20ac:	00b7e6b3          	or	a3,a5,a1
    20b0:	ff0788e3          	beq	a5,a6,20a0 <_Z5printPc+0x48>
    20b4:	65862703          	lw	a4,1624(a2)
    20b8:	fd179ae3          	bne	a5,a7,208c <_Z5printPc+0x34>
    20bc:	03d767b3          	rem	a5,a4,t4
    20c0:	40f70733          	sub	a4,a4,a5
    20c4:	05070713          	addi	a4,a4,80
    20c8:	00e34e63          	blt	t1,a4,20e4 <_Z5printPc+0x8c>
    20cc:	64e62c23          	sw	a4,1624(a2)
    20d0:	00150513          	addi	a0,a0,1
    20d4:	fff54783          	lbu	a5,-1(a0)
    20d8:	fc079ae3          	bnez	a5,20ac <_Z5printPc+0x54>
    20dc:	00000513          	li	a0,0
    20e0:	00008067          	ret
    20e4:	64062c23          	sw	zero,1624(a2)
    20e8:	fb9ff06f          	j	20a0 <_Z5printPc+0x48>

000020ec <_Z8hexDigitPcc>:
    20ec:	00f5f593          	andi	a1,a1,15
    20f0:	00900713          	li	a4,9
    20f4:	05758793          	addi	a5,a1,87
    20f8:	00b76463          	bltu	a4,a1,2100 <_Z8hexDigitPcc+0x14>
    20fc:	03058793          	addi	a5,a1,48
    2100:	000500a3          	sb	zero,1(a0)
    2104:	00f50023          	sb	a5,0(a0)
    2108:	00008067          	ret

0000210c <_Z14itoaHex2DigitsiPc>:
    210c:	40455793          	srai	a5,a0,0x4
    2110:	00f7f793          	andi	a5,a5,15
    2114:	00900693          	li	a3,9
    2118:	05778713          	addi	a4,a5,87
    211c:	00f6e463          	bltu	a3,a5,2124 <_Z14itoaHex2DigitsiPc+0x18>
    2120:	03078713          	addi	a4,a5,48
    2124:	00f57513          	andi	a0,a0,15
    2128:	00e58023          	sb	a4,0(a1)
    212c:	00900713          	li	a4,9
    2130:	05750793          	addi	a5,a0,87
    2134:	00a76463          	bltu	a4,a0,213c <_Z14itoaHex2DigitsiPc+0x30>
    2138:	03050793          	addi	a5,a0,48
    213c:	00058123          	sb	zero,2(a1)
    2140:	00f580a3          	sb	a5,1(a1)
    2144:	00008067          	ret

00002148 <_Z14itoaHex4DigitsiPc>:
    2148:	40c55793          	srai	a5,a0,0xc
    214c:	00f7f793          	andi	a5,a5,15
    2150:	00900693          	li	a3,9
    2154:	05778713          	addi	a4,a5,87
    2158:	00f6e463          	bltu	a3,a5,2160 <_Z14itoaHex4DigitsiPc+0x18>
    215c:	03078713          	addi	a4,a5,48
    2160:	40855793          	srai	a5,a0,0x8
    2164:	00f7f793          	andi	a5,a5,15
    2168:	00e58223          	sb	a4,4(a1)
    216c:	00900693          	li	a3,9
    2170:	05778713          	addi	a4,a5,87
    2174:	00f6e463          	bltu	a3,a5,217c <_Z14itoaHex4DigitsiPc+0x34>
    2178:	03078713          	addi	a4,a5,48
    217c:	40455793          	srai	a5,a0,0x4
    2180:	00f7f793          	andi	a5,a5,15
    2184:	00e582a3          	sb	a4,5(a1)
    2188:	00900693          	li	a3,9
    218c:	05778713          	addi	a4,a5,87
    2190:	00f6e463          	bltu	a3,a5,2198 <_Z14itoaHex4DigitsiPc+0x50>
    2194:	03078713          	addi	a4,a5,48
    2198:	00f57513          	andi	a0,a0,15
    219c:	00e58323          	sb	a4,6(a1)
    21a0:	00900713          	li	a4,9
    21a4:	05750793          	addi	a5,a0,87
    21a8:	00a76463          	bltu	a4,a0,21b0 <_Z14itoaHex4DigitsiPc+0x68>
    21ac:	03050793          	addi	a5,a0,48
    21b0:	00058423          	sb	zero,8(a1)
    21b4:	00f583a3          	sb	a5,7(a1)
    21b8:	00008067          	ret

000021bc <_Z14itoaHex8DigitsiPc>:
    21bc:	01c55793          	srli	a5,a0,0x1c
    21c0:	0ff7f693          	andi	a3,a5,255
    21c4:	00900613          	li	a2,9
    21c8:	05768713          	addi	a4,a3,87
    21cc:	00f66463          	bltu	a2,a5,21d4 <_Z14itoaHex8DigitsiPc+0x18>
    21d0:	03068713          	addi	a4,a3,48
    21d4:	41855793          	srai	a5,a0,0x18
    21d8:	00f7f793          	andi	a5,a5,15
    21dc:	00e58023          	sb	a4,0(a1)
    21e0:	00900693          	li	a3,9
    21e4:	05778713          	addi	a4,a5,87
    21e8:	00f6e463          	bltu	a3,a5,21f0 <_Z14itoaHex8DigitsiPc+0x34>
    21ec:	03078713          	addi	a4,a5,48
    21f0:	41455793          	srai	a5,a0,0x14
    21f4:	00f7f793          	andi	a5,a5,15
    21f8:	00e580a3          	sb	a4,1(a1)
    21fc:	00900693          	li	a3,9
    2200:	05778713          	addi	a4,a5,87
    2204:	00f6e463          	bltu	a3,a5,220c <_Z14itoaHex8DigitsiPc+0x50>
    2208:	03078713          	addi	a4,a5,48
    220c:	41055793          	srai	a5,a0,0x10
    2210:	00f7f793          	andi	a5,a5,15
    2214:	00e58123          	sb	a4,2(a1)
    2218:	00900693          	li	a3,9
    221c:	05778713          	addi	a4,a5,87
    2220:	00f6e463          	bltu	a3,a5,2228 <_Z14itoaHex8DigitsiPc+0x6c>
    2224:	03078713          	addi	a4,a5,48
    2228:	40c55793          	srai	a5,a0,0xc
    222c:	00f7f793          	andi	a5,a5,15
    2230:	00e581a3          	sb	a4,3(a1)
    2234:	00900693          	li	a3,9
    2238:	05778713          	addi	a4,a5,87
    223c:	00f6e463          	bltu	a3,a5,2244 <_Z14itoaHex8DigitsiPc+0x88>
    2240:	03078713          	addi	a4,a5,48
    2244:	40855793          	srai	a5,a0,0x8
    2248:	00f7f793          	andi	a5,a5,15
    224c:	00e58223          	sb	a4,4(a1)
    2250:	00900693          	li	a3,9
    2254:	05778713          	addi	a4,a5,87
    2258:	00f6e463          	bltu	a3,a5,2260 <_Z14itoaHex8DigitsiPc+0xa4>
    225c:	03078713          	addi	a4,a5,48
    2260:	40455793          	srai	a5,a0,0x4
    2264:	00f7f793          	andi	a5,a5,15
    2268:	00e582a3          	sb	a4,5(a1)
    226c:	00900693          	li	a3,9
    2270:	05778713          	addi	a4,a5,87
    2274:	00f6e463          	bltu	a3,a5,227c <_Z14itoaHex8DigitsiPc+0xc0>
    2278:	03078713          	addi	a4,a5,48
    227c:	00f57513          	andi	a0,a0,15
    2280:	00e58323          	sb	a4,6(a1)
    2284:	00900713          	li	a4,9
    2288:	05750793          	addi	a5,a0,87
    228c:	00a76463          	bltu	a4,a0,2294 <_Z14itoaHex8DigitsiPc+0xd8>
    2290:	03050793          	addi	a5,a0,48
    2294:	00058423          	sb	zero,8(a1)
    2298:	00f583a3          	sb	a5,7(a1)
    229c:	00008067          	ret

000022a0 <_Z8getTicksv>:
    22a0:	000027b7          	lui	a5,0x2
    22a4:	5d47a783          	lw	a5,1492(a5) # 25d4 <bsp>
    22a8:	0147a503          	lw	a0,20(a5)
    22ac:	00008067          	ret

000022b0 <_Z7delayMsm>:
    22b0:	000027b7          	lui	a5,0x2
    22b4:	5d47a703          	lw	a4,1492(a5) # 25d4 <bsp>
    22b8:	01472783          	lw	a5,20(a4)
    22bc:	00a78533          	add	a0,a5,a0
    22c0:	01472783          	lw	a5,20(a4)
    22c4:	fea7eee3          	bltu	a5,a0,22c0 <_Z7delayMsm+0x10>
    22c8:	00008067          	ret

Disassembly of section .text.startup:

000022cc <main>:
    22cc:	000027b7          	lui	a5,0x2
    22d0:	5d47a783          	lw	a5,1492(a5) # 25d4 <bsp>
    22d4:	ef010113          	addi	sp,sp,-272
    22d8:	00400713          	li	a4,4
    22dc:	10112623          	sw	ra,268(sp)
    22e0:	10812423          	sw	s0,264(sp)
    22e4:	00e7a023          	sw	a4,0(a5)
    22e8:	000077b7          	lui	a5,0x7
    22ec:	00002737          	lui	a4,0x2
    22f0:	d4078793          	addi	a5,a5,-704 # 6d40 <displayRam+0x46e4>
    22f4:	64f72e23          	sw	a5,1628(a4) # 265c <displayRam>
    22f8:	00002737          	lui	a4,0x2
    22fc:	64072c23          	sw	zero,1624(a4) # 2658 <screenIndex>
    2300:	00001737          	lui	a4,0x1
    2304:	a0070713          	addi	a4,a4,-1536 # a00 <__text_start-0x1600>
    2308:	000086b7          	lui	a3,0x8
    230c:	00e79023          	sh	a4,0(a5)
    2310:	00278793          	addi	a5,a5,2
    2314:	fed79ce3          	bne	a5,a3,230c <main+0x40>
    2318:	00002537          	lui	a0,0x2
    231c:	42050513          	addi	a0,a0,1056 # 2420 <main+0x154>
    2320:	d39ff0ef          	jal	ra,2058 <_Z5printPc>
    2324:	00002537          	lui	a0,0x2
    2328:	40850513          	addi	a0,a0,1032 # 2408 <main+0x13c>
    232c:	d2dff0ef          	jal	ra,2058 <_Z5printPc>
    2330:	00002537          	lui	a0,0x2
    2334:	42450513          	addi	a0,a0,1060 # 2424 <main+0x158>
    2338:	d21ff0ef          	jal	ra,2058 <_Z5printPc>
    233c:	00002537          	lui	a0,0x2
    2340:	44050513          	addi	a0,a0,1088 # 2440 <main+0x174>
    2344:	d15ff0ef          	jal	ra,2058 <_Z5printPc>
    2348:	00002537          	lui	a0,0x2
    234c:	45c50513          	addi	a0,a0,1116 # 245c <main+0x190>
    2350:	d09ff0ef          	jal	ra,2058 <_Z5printPc>
    2354:	00002537          	lui	a0,0x2
    2358:	47850513          	addi	a0,a0,1144 # 2478 <main+0x1ac>
    235c:	cfdff0ef          	jal	ra,2058 <_Z5printPc>
    2360:	00002537          	lui	a0,0x2
    2364:	49450513          	addi	a0,a0,1172 # 2494 <main+0x1c8>
    2368:	cf1ff0ef          	jal	ra,2058 <_Z5printPc>
    236c:	00002537          	lui	a0,0x2
    2370:	4b050513          	addi	a0,a0,1200 # 24b0 <main+0x1e4>
    2374:	ce5ff0ef          	jal	ra,2058 <_Z5printPc>
    2378:	00002537          	lui	a0,0x2
    237c:	4cc50513          	addi	a0,a0,1228 # 24cc <main+0x200>
    2380:	cd9ff0ef          	jal	ra,2058 <_Z5printPc>
    2384:	00002437          	lui	s0,0x2
    2388:	5d042783          	lw	a5,1488(s0) # 25d0 <sdrdma>
    238c:	00010593          	mv	a1,sp
    2390:	0007a503          	lw	a0,0(a5)
    2394:	e29ff0ef          	jal	ra,21bc <_Z14itoaHex8DigitsiPc>
    2398:	00010513          	mv	a0,sp
    239c:	cbdff0ef          	jal	ra,2058 <_Z5printPc>
    23a0:	00002537          	lui	a0,0x2
    23a4:	4e850513          	addi	a0,a0,1256 # 24e8 <main+0x21c>
    23a8:	cb1ff0ef          	jal	ra,2058 <_Z5printPc>
    23ac:	5d042783          	lw	a5,1488(s0)
    23b0:	00010593          	mv	a1,sp
    23b4:	0047a503          	lw	a0,4(a5)
    23b8:	e05ff0ef          	jal	ra,21bc <_Z14itoaHex8DigitsiPc>
    23bc:	00010513          	mv	a0,sp
    23c0:	c99ff0ef          	jal	ra,2058 <_Z5printPc>
    23c4:	5d042703          	lw	a4,1488(s0)
    23c8:	800007b7          	lui	a5,0x80000
    23cc:	00378793          	addi	a5,a5,3 # 80000003 <__ramend+0x7fff8003>
    23d0:	00072683          	lw	a3,0(a4)
    23d4:	00f69a63          	bne	a3,a5,23e8 <main+0x11c>
    23d8:	00472703          	lw	a4,4(a4)
    23dc:	202417b7          	lui	a5,0x20241
    23e0:	80678793          	addi	a5,a5,-2042 # 20240806 <__ramend+0x20238806>
    23e4:	00e7ea63          	bltu	a5,a4,23f8 <main+0x12c>
    23e8:	00002537          	lui	a0,0x2
    23ec:	4f450513          	addi	a0,a0,1268 # 24f4 <main+0x228>
    23f0:	c69ff0ef          	jal	ra,2058 <_Z5printPc>
    23f4:	0000006f          	j	23f4 <main+0x128>
    23f8:	00002537          	lui	a0,0x2
    23fc:	4ec50513          	addi	a0,a0,1260 # 24ec <main+0x220>
    2400:	c59ff0ef          	jal	ra,2058 <_Z5printPc>
    2404:	0000006f          	j	2404 <main+0x138>
