
prog.elf:     file format elf32-littleriscv


Disassembly of section .text:

21780000 <__text_start>:
21780000:	0100006f          	j	21780010 <start>
21780004:	00000013          	nop
21780008:	00000013          	nop
2178000c:	00000013          	nop

21780010 <start>:
21780010:	ff010113          	addi	sp,sp,-16
21780014:	00012023          	sw	zero,0(sp)
21780018:	00012223          	sw	zero,4(sp)
2178001c:	00012423          	sw	zero,8(sp)
21780020:	00012623          	sw	zero,12(sp)
21780024:	115000ef          	jal	ra,21780938 <main>
21780028:	0000006f          	j	21780028 <start+0x18>
2178002c:	0000                	unimp
	...

21780030 <_Z12randomNumberv>:
21780030:	fe010113          	addi	sp,sp,-32
21780034:	00812e23          	sw	s0,28(sp)
21780038:	02010413          	addi	s0,sp,32
2178003c:	217817b7          	lui	a5,0x21781
21780040:	ecc7a783          	lw	a5,-308(a5) # 21780ecc <random_state>
21780044:	fef42623          	sw	a5,-20(s0)
21780048:	fec42783          	lw	a5,-20(s0)
2178004c:	00d79793          	slli	a5,a5,0xd
21780050:	fec42703          	lw	a4,-20(s0)
21780054:	00f747b3          	xor	a5,a4,a5
21780058:	fef42623          	sw	a5,-20(s0)
2178005c:	fec42783          	lw	a5,-20(s0)
21780060:	0117d793          	srli	a5,a5,0x11
21780064:	fec42703          	lw	a4,-20(s0)
21780068:	00f747b3          	xor	a5,a4,a5
2178006c:	fef42623          	sw	a5,-20(s0)
21780070:	fec42783          	lw	a5,-20(s0)
21780074:	00579793          	slli	a5,a5,0x5
21780078:	fec42703          	lw	a4,-20(s0)
2178007c:	00f747b3          	xor	a5,a4,a5
21780080:	fef42623          	sw	a5,-20(s0)
21780084:	217817b7          	lui	a5,0x21781
21780088:	fec42703          	lw	a4,-20(s0)
2178008c:	ece7a623          	sw	a4,-308(a5) # 21780ecc <random_state>
21780090:	fec42783          	lw	a5,-20(s0)
21780094:	00078513          	mv	a0,a5
21780098:	01c12403          	lw	s0,28(sp)
2178009c:	02010113          	addi	sp,sp,32
217800a0:	00008067          	ret

217800a4 <_Z5printPc>:
217800a4:	fd010113          	addi	sp,sp,-48
217800a8:	02112623          	sw	ra,44(sp)
217800ac:	02812423          	sw	s0,40(sp)
217800b0:	02912223          	sw	s1,36(sp)
217800b4:	03010413          	addi	s0,sp,48
217800b8:	fca42e23          	sw	a0,-36(s0)
217800bc:	fe042623          	sw	zero,-20(s0)
217800c0:	fec42783          	lw	a5,-20(s0)
217800c4:	00178713          	addi	a4,a5,1
217800c8:	fee42623          	sw	a4,-20(s0)
217800cc:	fdc42703          	lw	a4,-36(s0)
217800d0:	00f707b3          	add	a5,a4,a5
217800d4:	0007c783          	lbu	a5,0(a5)
217800d8:	fef405a3          	sb	a5,-21(s0)
217800dc:	feb44783          	lbu	a5,-21(s0)
217800e0:	00f037b3          	snez	a5,a5
217800e4:	0ff7f793          	andi	a5,a5,255
217800e8:	0c078463          	beqz	a5,217801b0 <_Z5printPc+0x10c>
217800ec:	feb44703          	lbu	a4,-21(s0)
217800f0:	00d00793          	li	a5,13
217800f4:	08f70e63          	beq	a4,a5,21780190 <_Z5printPc+0xec>
217800f8:	feb44703          	lbu	a4,-21(s0)
217800fc:	00a00793          	li	a5,10
21780100:	04f71463          	bne	a4,a5,21780148 <_Z5printPc+0xa4>
21780104:	217817b7          	lui	a5,0x21781
21780108:	f547a483          	lw	s1,-172(a5) # 21780f54 <screenIndex>
2178010c:	217817b7          	lui	a5,0x21781
21780110:	f547a783          	lw	a5,-172(a5) # 21780f54 <screenIndex>
21780114:	05000593          	li	a1,80
21780118:	00078513          	mv	a0,a5
2178011c:	28d000ef          	jal	ra,21780ba8 <__modsi3>
21780120:	00050793          	mv	a5,a0
21780124:	40f48733          	sub	a4,s1,a5
21780128:	217817b7          	lui	a5,0x21781
2178012c:	f4e7aa23          	sw	a4,-172(a5) # 21780f54 <screenIndex>
21780130:	217817b7          	lui	a5,0x21781
21780134:	f547a783          	lw	a5,-172(a5) # 21780f54 <screenIndex>
21780138:	05078713          	addi	a4,a5,80
2178013c:	217817b7          	lui	a5,0x21781
21780140:	f4e7aa23          	sw	a4,-172(a5) # 21780f54 <screenIndex>
21780144:	04c0006f          	j	21780190 <_Z5printPc+0xec>
21780148:	feb44783          	lbu	a5,-21(s0)
2178014c:	01079693          	slli	a3,a5,0x10
21780150:	0106d693          	srli	a3,a3,0x10
21780154:	217817b7          	lui	a5,0x21781
21780158:	ec87d703          	lhu	a4,-312(a5) # 21780ec8 <textAttr>
2178015c:	217817b7          	lui	a5,0x21781
21780160:	f507a603          	lw	a2,-176(a5) # 21780f50 <displayRam>
21780164:	217817b7          	lui	a5,0x21781
21780168:	f547a783          	lw	a5,-172(a5) # 21780f54 <screenIndex>
2178016c:	00178513          	addi	a0,a5,1
21780170:	217815b7          	lui	a1,0x21781
21780174:	f4a5aa23          	sw	a0,-172(a1) # 21780f54 <screenIndex>
21780178:	00179793          	slli	a5,a5,0x1
2178017c:	00f607b3          	add	a5,a2,a5
21780180:	00e6e733          	or	a4,a3,a4
21780184:	01071713          	slli	a4,a4,0x10
21780188:	01075713          	srli	a4,a4,0x10
2178018c:	00e79023          	sh	a4,0(a5)
21780190:	217817b7          	lui	a5,0x21781
21780194:	f547a703          	lw	a4,-172(a5) # 21780f54 <screenIndex>
21780198:	000017b7          	lui	a5,0x1
2178019c:	95f78793          	addi	a5,a5,-1697 # 95f <__text_start-0x2177f6a1>
217801a0:	f2e7d0e3          	bge	a5,a4,217800c0 <_Z5printPc+0x1c>
217801a4:	217817b7          	lui	a5,0x21781
217801a8:	f407aa23          	sw	zero,-172(a5) # 21780f54 <screenIndex>
217801ac:	f15ff06f          	j	217800c0 <_Z5printPc+0x1c>
217801b0:	00000793          	li	a5,0
217801b4:	00078513          	mv	a0,a5
217801b8:	02c12083          	lw	ra,44(sp)
217801bc:	02812403          	lw	s0,40(sp)
217801c0:	02412483          	lw	s1,36(sp)
217801c4:	03010113          	addi	sp,sp,48
217801c8:	00008067          	ret

217801cc <_Z8hexDigitPcc>:
217801cc:	fe010113          	addi	sp,sp,-32
217801d0:	00812e23          	sw	s0,28(sp)
217801d4:	02010413          	addi	s0,sp,32
217801d8:	fea42623          	sw	a0,-20(s0)
217801dc:	00058793          	mv	a5,a1
217801e0:	fef405a3          	sb	a5,-21(s0)
217801e4:	feb44783          	lbu	a5,-21(s0)
217801e8:	00f7f793          	andi	a5,a5,15
217801ec:	fef405a3          	sb	a5,-21(s0)
217801f0:	feb44703          	lbu	a4,-21(s0)
217801f4:	00900793          	li	a5,9
217801f8:	02e7e463          	bltu	a5,a4,21780220 <_Z8hexDigitPcc+0x54>
217801fc:	feb44783          	lbu	a5,-21(s0)
21780200:	03078793          	addi	a5,a5,48
21780204:	0ff7f713          	andi	a4,a5,255
21780208:	fec42783          	lw	a5,-20(s0)
2178020c:	00e78023          	sb	a4,0(a5)
21780210:	fec42783          	lw	a5,-20(s0)
21780214:	00178793          	addi	a5,a5,1
21780218:	00078023          	sb	zero,0(a5)
2178021c:	0240006f          	j	21780240 <_Z8hexDigitPcc+0x74>
21780220:	feb44783          	lbu	a5,-21(s0)
21780224:	05778793          	addi	a5,a5,87
21780228:	0ff7f713          	andi	a4,a5,255
2178022c:	fec42783          	lw	a5,-20(s0)
21780230:	00e78023          	sb	a4,0(a5)
21780234:	fec42783          	lw	a5,-20(s0)
21780238:	00178793          	addi	a5,a5,1
2178023c:	00078023          	sb	zero,0(a5)
21780240:	00000013          	nop
21780244:	01c12403          	lw	s0,28(sp)
21780248:	02010113          	addi	sp,sp,32
2178024c:	00008067          	ret

21780250 <_Z14itoaHex2DigitsmPc>:
21780250:	fe010113          	addi	sp,sp,-32
21780254:	00112e23          	sw	ra,28(sp)
21780258:	00812c23          	sw	s0,24(sp)
2178025c:	02010413          	addi	s0,sp,32
21780260:	fea42623          	sw	a0,-20(s0)
21780264:	feb42423          	sw	a1,-24(s0)
21780268:	fec42783          	lw	a5,-20(s0)
2178026c:	0047d793          	srli	a5,a5,0x4
21780270:	0ff7f793          	andi	a5,a5,255
21780274:	00f7f793          	andi	a5,a5,15
21780278:	0ff7f793          	andi	a5,a5,255
2178027c:	00078593          	mv	a1,a5
21780280:	fe842503          	lw	a0,-24(s0)
21780284:	f49ff0ef          	jal	ra,217801cc <_Z8hexDigitPcc>
21780288:	fe842783          	lw	a5,-24(s0)
2178028c:	00178713          	addi	a4,a5,1
21780290:	fec42783          	lw	a5,-20(s0)
21780294:	0ff7f793          	andi	a5,a5,255
21780298:	00f7f793          	andi	a5,a5,15
2178029c:	0ff7f793          	andi	a5,a5,255
217802a0:	00078593          	mv	a1,a5
217802a4:	00070513          	mv	a0,a4
217802a8:	f25ff0ef          	jal	ra,217801cc <_Z8hexDigitPcc>
217802ac:	00000013          	nop
217802b0:	01c12083          	lw	ra,28(sp)
217802b4:	01812403          	lw	s0,24(sp)
217802b8:	02010113          	addi	sp,sp,32
217802bc:	00008067          	ret

217802c0 <_Z14itoaHex4DigitsmPc>:
217802c0:	fe010113          	addi	sp,sp,-32
217802c4:	00112e23          	sw	ra,28(sp)
217802c8:	00812c23          	sw	s0,24(sp)
217802cc:	02010413          	addi	s0,sp,32
217802d0:	fea42623          	sw	a0,-20(s0)
217802d4:	feb42423          	sw	a1,-24(s0)
217802d8:	fe842783          	lw	a5,-24(s0)
217802dc:	00478713          	addi	a4,a5,4
217802e0:	fec42783          	lw	a5,-20(s0)
217802e4:	00c7d793          	srli	a5,a5,0xc
217802e8:	0ff7f793          	andi	a5,a5,255
217802ec:	00f7f793          	andi	a5,a5,15
217802f0:	0ff7f793          	andi	a5,a5,255
217802f4:	00078593          	mv	a1,a5
217802f8:	00070513          	mv	a0,a4
217802fc:	ed1ff0ef          	jal	ra,217801cc <_Z8hexDigitPcc>
21780300:	fe842783          	lw	a5,-24(s0)
21780304:	00578713          	addi	a4,a5,5
21780308:	fec42783          	lw	a5,-20(s0)
2178030c:	0087d793          	srli	a5,a5,0x8
21780310:	0ff7f793          	andi	a5,a5,255
21780314:	00f7f793          	andi	a5,a5,15
21780318:	0ff7f793          	andi	a5,a5,255
2178031c:	00078593          	mv	a1,a5
21780320:	00070513          	mv	a0,a4
21780324:	ea9ff0ef          	jal	ra,217801cc <_Z8hexDigitPcc>
21780328:	fe842783          	lw	a5,-24(s0)
2178032c:	00678713          	addi	a4,a5,6
21780330:	fec42783          	lw	a5,-20(s0)
21780334:	0047d793          	srli	a5,a5,0x4
21780338:	0ff7f793          	andi	a5,a5,255
2178033c:	00f7f793          	andi	a5,a5,15
21780340:	0ff7f793          	andi	a5,a5,255
21780344:	00078593          	mv	a1,a5
21780348:	00070513          	mv	a0,a4
2178034c:	e81ff0ef          	jal	ra,217801cc <_Z8hexDigitPcc>
21780350:	fe842783          	lw	a5,-24(s0)
21780354:	00778713          	addi	a4,a5,7
21780358:	fec42783          	lw	a5,-20(s0)
2178035c:	0ff7f793          	andi	a5,a5,255
21780360:	00f7f793          	andi	a5,a5,15
21780364:	0ff7f793          	andi	a5,a5,255
21780368:	00078593          	mv	a1,a5
2178036c:	00070513          	mv	a0,a4
21780370:	e5dff0ef          	jal	ra,217801cc <_Z8hexDigitPcc>
21780374:	00000013          	nop
21780378:	01c12083          	lw	ra,28(sp)
2178037c:	01812403          	lw	s0,24(sp)
21780380:	02010113          	addi	sp,sp,32
21780384:	00008067          	ret

21780388 <_Z14itoaHex8DigitsmPc>:
21780388:	fe010113          	addi	sp,sp,-32
2178038c:	00112e23          	sw	ra,28(sp)
21780390:	00812c23          	sw	s0,24(sp)
21780394:	02010413          	addi	s0,sp,32
21780398:	fea42623          	sw	a0,-20(s0)
2178039c:	feb42423          	sw	a1,-24(s0)
217803a0:	fec42783          	lw	a5,-20(s0)
217803a4:	01c7d793          	srli	a5,a5,0x1c
217803a8:	0ff7f793          	andi	a5,a5,255
217803ac:	00078593          	mv	a1,a5
217803b0:	fe842503          	lw	a0,-24(s0)
217803b4:	e19ff0ef          	jal	ra,217801cc <_Z8hexDigitPcc>
217803b8:	fe842783          	lw	a5,-24(s0)
217803bc:	00178713          	addi	a4,a5,1
217803c0:	fec42783          	lw	a5,-20(s0)
217803c4:	0187d793          	srli	a5,a5,0x18
217803c8:	0ff7f793          	andi	a5,a5,255
217803cc:	00f7f793          	andi	a5,a5,15
217803d0:	0ff7f793          	andi	a5,a5,255
217803d4:	00078593          	mv	a1,a5
217803d8:	00070513          	mv	a0,a4
217803dc:	df1ff0ef          	jal	ra,217801cc <_Z8hexDigitPcc>
217803e0:	fe842783          	lw	a5,-24(s0)
217803e4:	00278713          	addi	a4,a5,2
217803e8:	fec42783          	lw	a5,-20(s0)
217803ec:	0147d793          	srli	a5,a5,0x14
217803f0:	0ff7f793          	andi	a5,a5,255
217803f4:	00f7f793          	andi	a5,a5,15
217803f8:	0ff7f793          	andi	a5,a5,255
217803fc:	00078593          	mv	a1,a5
21780400:	00070513          	mv	a0,a4
21780404:	dc9ff0ef          	jal	ra,217801cc <_Z8hexDigitPcc>
21780408:	fe842783          	lw	a5,-24(s0)
2178040c:	00378713          	addi	a4,a5,3
21780410:	fec42783          	lw	a5,-20(s0)
21780414:	0107d793          	srli	a5,a5,0x10
21780418:	0ff7f793          	andi	a5,a5,255
2178041c:	00f7f793          	andi	a5,a5,15
21780420:	0ff7f793          	andi	a5,a5,255
21780424:	00078593          	mv	a1,a5
21780428:	00070513          	mv	a0,a4
2178042c:	da1ff0ef          	jal	ra,217801cc <_Z8hexDigitPcc>
21780430:	fe842783          	lw	a5,-24(s0)
21780434:	00478713          	addi	a4,a5,4
21780438:	fec42783          	lw	a5,-20(s0)
2178043c:	00c7d793          	srli	a5,a5,0xc
21780440:	0ff7f793          	andi	a5,a5,255
21780444:	00f7f793          	andi	a5,a5,15
21780448:	0ff7f793          	andi	a5,a5,255
2178044c:	00078593          	mv	a1,a5
21780450:	00070513          	mv	a0,a4
21780454:	d79ff0ef          	jal	ra,217801cc <_Z8hexDigitPcc>
21780458:	fe842783          	lw	a5,-24(s0)
2178045c:	00578713          	addi	a4,a5,5
21780460:	fec42783          	lw	a5,-20(s0)
21780464:	0087d793          	srli	a5,a5,0x8
21780468:	0ff7f793          	andi	a5,a5,255
2178046c:	00f7f793          	andi	a5,a5,15
21780470:	0ff7f793          	andi	a5,a5,255
21780474:	00078593          	mv	a1,a5
21780478:	00070513          	mv	a0,a4
2178047c:	d51ff0ef          	jal	ra,217801cc <_Z8hexDigitPcc>
21780480:	fe842783          	lw	a5,-24(s0)
21780484:	00678713          	addi	a4,a5,6
21780488:	fec42783          	lw	a5,-20(s0)
2178048c:	0047d793          	srli	a5,a5,0x4
21780490:	0ff7f793          	andi	a5,a5,255
21780494:	00f7f793          	andi	a5,a5,15
21780498:	0ff7f793          	andi	a5,a5,255
2178049c:	00078593          	mv	a1,a5
217804a0:	00070513          	mv	a0,a4
217804a4:	d29ff0ef          	jal	ra,217801cc <_Z8hexDigitPcc>
217804a8:	fe842783          	lw	a5,-24(s0)
217804ac:	00778713          	addi	a4,a5,7
217804b0:	fec42783          	lw	a5,-20(s0)
217804b4:	0ff7f793          	andi	a5,a5,255
217804b8:	00f7f793          	andi	a5,a5,15
217804bc:	0ff7f793          	andi	a5,a5,255
217804c0:	00078593          	mv	a1,a5
217804c4:	00070513          	mv	a0,a4
217804c8:	d05ff0ef          	jal	ra,217801cc <_Z8hexDigitPcc>
217804cc:	00000013          	nop
217804d0:	01c12083          	lw	ra,28(sp)
217804d4:	01812403          	lw	s0,24(sp)
217804d8:	02010113          	addi	sp,sp,32
217804dc:	00008067          	ret

217804e0 <_Z8getTicksv>:
217804e0:	ff010113          	addi	sp,sp,-16
217804e4:	00812623          	sw	s0,12(sp)
217804e8:	01010413          	addi	s0,sp,16
217804ec:	217817b7          	lui	a5,0x21781
217804f0:	ec07a783          	lw	a5,-320(a5) # 21780ec0 <bsp>
217804f4:	01c7a783          	lw	a5,28(a5)
217804f8:	00078513          	mv	a0,a5
217804fc:	00c12403          	lw	s0,12(sp)
21780500:	01010113          	addi	sp,sp,16
21780504:	00008067          	ret

21780508 <_Z11delayMsTestm>:
21780508:	fd010113          	addi	sp,sp,-48
2178050c:	02812623          	sw	s0,44(sp)
21780510:	03010413          	addi	s0,sp,48
21780514:	fca42e23          	sw	a0,-36(s0)
21780518:	217817b7          	lui	a5,0x21781
2178051c:	ec07a783          	lw	a5,-320(a5) # 21780ec0 <bsp>
21780520:	01c7a783          	lw	a5,28(a5)
21780524:	fef42623          	sw	a5,-20(s0)
21780528:	217817b7          	lui	a5,0x21781
2178052c:	ec07a783          	lw	a5,-320(a5) # 21780ec0 <bsp>
21780530:	01c7a703          	lw	a4,28(a5)
21780534:	fec42683          	lw	a3,-20(s0)
21780538:	fdc42783          	lw	a5,-36(s0)
2178053c:	00f687b3          	add	a5,a3,a5
21780540:	00f737b3          	sltu	a5,a4,a5
21780544:	0ff7f793          	andi	a5,a5,255
21780548:	00078463          	beqz	a5,21780550 <_Z11delayMsTestm+0x48>
2178054c:	fddff06f          	j	21780528 <_Z11delayMsTestm+0x20>
21780550:	00000013          	nop
21780554:	02c12403          	lw	s0,44(sp)
21780558:	03010113          	addi	sp,sp,48
2178055c:	00008067          	ret

21780560 <_Z9testSDRAMv>:
21780560:	ed010113          	addi	sp,sp,-304
21780564:	12112623          	sw	ra,300(sp)
21780568:	12812423          	sw	s0,296(sp)
2178056c:	12912223          	sw	s1,292(sp)
21780570:	13010413          	addi	s0,sp,304
21780574:	200007b7          	lui	a5,0x20000
21780578:	fef42423          	sw	a5,-24(s0)
2178057c:	001007b7          	lui	a5,0x100
21780580:	fef42223          	sw	a5,-28(s0)
21780584:	217817b7          	lui	a5,0x21781
21780588:	bd878513          	addi	a0,a5,-1064 # 21780bd8 <__data_rom_start>
2178058c:	b19ff0ef          	jal	ra,217800a4 <_Z5printPc>
21780590:	fe042623          	sw	zero,-20(s0)
21780594:	fec42703          	lw	a4,-20(s0)
21780598:	fe442783          	lw	a5,-28(s0)
2178059c:	02f77663          	bgeu	a4,a5,217805c8 <_Z9testSDRAMv+0x68>
217805a0:	fec42783          	lw	a5,-20(s0)
217805a4:	00279793          	slli	a5,a5,0x2
217805a8:	fe842703          	lw	a4,-24(s0)
217805ac:	00f707b3          	add	a5,a4,a5
217805b0:	fff00713          	li	a4,-1
217805b4:	00e7a023          	sw	a4,0(a5)
217805b8:	fec42783          	lw	a5,-20(s0)
217805bc:	00178793          	addi	a5,a5,1
217805c0:	fef42623          	sw	a5,-20(s0)
217805c4:	fd1ff06f          	j	21780594 <_Z9testSDRAMv+0x34>
217805c8:	fe042623          	sw	zero,-20(s0)
217805cc:	fec42703          	lw	a4,-20(s0)
217805d0:	fe442783          	lw	a5,-28(s0)
217805d4:	0ef77263          	bgeu	a4,a5,217806b8 <_Z9testSDRAMv+0x158>
217805d8:	fec42783          	lw	a5,-20(s0)
217805dc:	00279793          	slli	a5,a5,0x2
217805e0:	fe842703          	lw	a4,-24(s0)
217805e4:	00f707b3          	add	a5,a4,a5
217805e8:	0007a783          	lw	a5,0(a5)
217805ec:	fef42023          	sw	a5,-32(s0)
217805f0:	fe042703          	lw	a4,-32(s0)
217805f4:	fff00793          	li	a5,-1
217805f8:	0af70863          	beq	a4,a5,217806a8 <_Z9testSDRAMv+0x148>
217805fc:	edc40793          	addi	a5,s0,-292
21780600:	00078593          	mv	a1,a5
21780604:	fec42503          	lw	a0,-20(s0)
21780608:	d81ff0ef          	jal	ra,21780388 <_Z14itoaHex8DigitsmPc>
2178060c:	edc40793          	addi	a5,s0,-292
21780610:	00078513          	mv	a0,a5
21780614:	a91ff0ef          	jal	ra,217800a4 <_Z5printPc>
21780618:	217817b7          	lui	a5,0x21781
2178061c:	bec78513          	addi	a0,a5,-1044 # 21780bec <__data_rom_start+0x14>
21780620:	a85ff0ef          	jal	ra,217800a4 <_Z5printPc>
21780624:	edc40793          	addi	a5,s0,-292
21780628:	00078593          	mv	a1,a5
2178062c:	fe042503          	lw	a0,-32(s0)
21780630:	d59ff0ef          	jal	ra,21780388 <_Z14itoaHex8DigitsmPc>
21780634:	edc40793          	addi	a5,s0,-292
21780638:	00078513          	mv	a0,a5
2178063c:	a69ff0ef          	jal	ra,217800a4 <_Z5printPc>
21780640:	fec42783          	lw	a5,-20(s0)
21780644:	00279793          	slli	a5,a5,0x2
21780648:	fe842703          	lw	a4,-24(s0)
2178064c:	00f707b3          	add	a5,a4,a5
21780650:	0007a783          	lw	a5,0(a5)
21780654:	fef42023          	sw	a5,-32(s0)
21780658:	fe042703          	lw	a4,-32(s0)
2178065c:	fff00793          	li	a5,-1
21780660:	02f70663          	beq	a4,a5,2178068c <_Z9testSDRAMv+0x12c>
21780664:	217817b7          	lui	a5,0x21781
21780668:	bf078513          	addi	a0,a5,-1040 # 21780bf0 <__data_rom_start+0x18>
2178066c:	a39ff0ef          	jal	ra,217800a4 <_Z5printPc>
21780670:	edc40793          	addi	a5,s0,-292
21780674:	00078593          	mv	a1,a5
21780678:	fe042503          	lw	a0,-32(s0)
2178067c:	d0dff0ef          	jal	ra,21780388 <_Z14itoaHex8DigitsmPc>
21780680:	edc40793          	addi	a5,s0,-292
21780684:	00078513          	mv	a0,a5
21780688:	a1dff0ef          	jal	ra,217800a4 <_Z5printPc>
2178068c:	217817b7          	lui	a5,0x21781
21780690:	bf478513          	addi	a0,a5,-1036 # 21780bf4 <__data_rom_start+0x1c>
21780694:	a11ff0ef          	jal	ra,217800a4 <_Z5printPc>
21780698:	217817b7          	lui	a5,0x21781
2178069c:	bf478513          	addi	a0,a5,-1036 # 21780bf4 <__data_rom_start+0x1c>
217806a0:	a05ff0ef          	jal	ra,217800a4 <_Z5printPc>
217806a4:	0140006f          	j	217806b8 <_Z9testSDRAMv+0x158>
217806a8:	fec42783          	lw	a5,-20(s0)
217806ac:	00178793          	addi	a5,a5,1
217806b0:	fef42623          	sw	a5,-20(s0)
217806b4:	f19ff06f          	j	217805cc <_Z9testSDRAMv+0x6c>
217806b8:	217817b7          	lui	a5,0x21781
217806bc:	bf878513          	addi	a0,a5,-1032 # 21780bf8 <__data_rom_start+0x20>
217806c0:	9e5ff0ef          	jal	ra,217800a4 <_Z5printPc>
217806c4:	fe042623          	sw	zero,-20(s0)
217806c8:	fec42703          	lw	a4,-20(s0)
217806cc:	fe442783          	lw	a5,-28(s0)
217806d0:	02f77463          	bgeu	a4,a5,217806f8 <_Z9testSDRAMv+0x198>
217806d4:	fec42783          	lw	a5,-20(s0)
217806d8:	00279793          	slli	a5,a5,0x2
217806dc:	fe842703          	lw	a4,-24(s0)
217806e0:	00f707b3          	add	a5,a4,a5
217806e4:	0007a023          	sw	zero,0(a5)
217806e8:	fec42783          	lw	a5,-20(s0)
217806ec:	00178793          	addi	a5,a5,1
217806f0:	fef42623          	sw	a5,-20(s0)
217806f4:	fd5ff06f          	j	217806c8 <_Z9testSDRAMv+0x168>
217806f8:	fe042623          	sw	zero,-20(s0)
217806fc:	fec42703          	lw	a4,-20(s0)
21780700:	fe442783          	lw	a5,-28(s0)
21780704:	0cf77863          	bgeu	a4,a5,217807d4 <_Z9testSDRAMv+0x274>
21780708:	fec42783          	lw	a5,-20(s0)
2178070c:	00279793          	slli	a5,a5,0x2
21780710:	fe842703          	lw	a4,-24(s0)
21780714:	00f707b3          	add	a5,a4,a5
21780718:	0007a783          	lw	a5,0(a5)
2178071c:	fef42023          	sw	a5,-32(s0)
21780720:	fe042783          	lw	a5,-32(s0)
21780724:	0a078063          	beqz	a5,217807c4 <_Z9testSDRAMv+0x264>
21780728:	edc40793          	addi	a5,s0,-292
2178072c:	00078593          	mv	a1,a5
21780730:	fec42503          	lw	a0,-20(s0)
21780734:	c55ff0ef          	jal	ra,21780388 <_Z14itoaHex8DigitsmPc>
21780738:	edc40793          	addi	a5,s0,-292
2178073c:	00078513          	mv	a0,a5
21780740:	965ff0ef          	jal	ra,217800a4 <_Z5printPc>
21780744:	217817b7          	lui	a5,0x21781
21780748:	bec78513          	addi	a0,a5,-1044 # 21780bec <__data_rom_start+0x14>
2178074c:	959ff0ef          	jal	ra,217800a4 <_Z5printPc>
21780750:	edc40793          	addi	a5,s0,-292
21780754:	00078593          	mv	a1,a5
21780758:	fe042503          	lw	a0,-32(s0)
2178075c:	c2dff0ef          	jal	ra,21780388 <_Z14itoaHex8DigitsmPc>
21780760:	edc40793          	addi	a5,s0,-292
21780764:	00078513          	mv	a0,a5
21780768:	93dff0ef          	jal	ra,217800a4 <_Z5printPc>
2178076c:	fec42783          	lw	a5,-20(s0)
21780770:	00279793          	slli	a5,a5,0x2
21780774:	fe842703          	lw	a4,-24(s0)
21780778:	00f707b3          	add	a5,a4,a5
2178077c:	0007a783          	lw	a5,0(a5)
21780780:	fef42023          	sw	a5,-32(s0)
21780784:	fe042783          	lw	a5,-32(s0)
21780788:	02078663          	beqz	a5,217807b4 <_Z9testSDRAMv+0x254>
2178078c:	217817b7          	lui	a5,0x21781
21780790:	bf078513          	addi	a0,a5,-1040 # 21780bf0 <__data_rom_start+0x18>
21780794:	911ff0ef          	jal	ra,217800a4 <_Z5printPc>
21780798:	edc40793          	addi	a5,s0,-292
2178079c:	00078593          	mv	a1,a5
217807a0:	fe042503          	lw	a0,-32(s0)
217807a4:	be5ff0ef          	jal	ra,21780388 <_Z14itoaHex8DigitsmPc>
217807a8:	edc40793          	addi	a5,s0,-292
217807ac:	00078513          	mv	a0,a5
217807b0:	8f5ff0ef          	jal	ra,217800a4 <_Z5printPc>
217807b4:	217817b7          	lui	a5,0x21781
217807b8:	bf478513          	addi	a0,a5,-1036 # 21780bf4 <__data_rom_start+0x1c>
217807bc:	8e9ff0ef          	jal	ra,217800a4 <_Z5printPc>
217807c0:	0140006f          	j	217807d4 <_Z9testSDRAMv+0x274>
217807c4:	fec42783          	lw	a5,-20(s0)
217807c8:	00178793          	addi	a5,a5,1
217807cc:	fef42623          	sw	a5,-20(s0)
217807d0:	f2dff06f          	j	217806fc <_Z9testSDRAMv+0x19c>
217807d4:	217817b7          	lui	a5,0x21781
217807d8:	c0478513          	addi	a0,a5,-1020 # 21780c04 <__data_rom_start+0x2c>
217807dc:	8c9ff0ef          	jal	ra,217800a4 <_Z5printPc>
217807e0:	217817b7          	lui	a5,0x21781
217807e4:	0012b737          	lui	a4,0x12b
217807e8:	d9170713          	addi	a4,a4,-623 # 12ad91 <__text_start-0x2165526f>
217807ec:	ece7a623          	sw	a4,-308(a5) # 21780ecc <random_state>
217807f0:	fe042623          	sw	zero,-20(s0)
217807f4:	fec42703          	lw	a4,-20(s0)
217807f8:	fe442783          	lw	a5,-28(s0)
217807fc:	02f77863          	bgeu	a4,a5,2178082c <_Z9testSDRAMv+0x2cc>
21780800:	fec42783          	lw	a5,-20(s0)
21780804:	00279793          	slli	a5,a5,0x2
21780808:	fe842703          	lw	a4,-24(s0)
2178080c:	00f704b3          	add	s1,a4,a5
21780810:	821ff0ef          	jal	ra,21780030 <_Z12randomNumberv>
21780814:	00050793          	mv	a5,a0
21780818:	00f4a023          	sw	a5,0(s1)
2178081c:	fec42783          	lw	a5,-20(s0)
21780820:	00178793          	addi	a5,a5,1
21780824:	fef42623          	sw	a5,-20(s0)
21780828:	fcdff06f          	j	217807f4 <_Z9testSDRAMv+0x294>
2178082c:	217817b7          	lui	a5,0x21781
21780830:	0012b737          	lui	a4,0x12b
21780834:	d9170713          	addi	a4,a4,-623 # 12ad91 <__text_start-0x2165526f>
21780838:	ece7a623          	sw	a4,-308(a5) # 21780ecc <random_state>
2178083c:	fe042623          	sw	zero,-20(s0)
21780840:	fec42703          	lw	a4,-20(s0)
21780844:	fe442783          	lw	a5,-28(s0)
21780848:	0af77e63          	bgeu	a4,a5,21780904 <_Z9testSDRAMv+0x3a4>
2178084c:	fec42783          	lw	a5,-20(s0)
21780850:	00279793          	slli	a5,a5,0x2
21780854:	fe842703          	lw	a4,-24(s0)
21780858:	00f707b3          	add	a5,a4,a5
2178085c:	0007a783          	lw	a5,0(a5)
21780860:	fef42023          	sw	a5,-32(s0)
21780864:	fccff0ef          	jal	ra,21780030 <_Z12randomNumberv>
21780868:	fca42e23          	sw	a0,-36(s0)
2178086c:	fe042703          	lw	a4,-32(s0)
21780870:	fdc42783          	lw	a5,-36(s0)
21780874:	08f70063          	beq	a4,a5,217808f4 <_Z9testSDRAMv+0x394>
21780878:	edc40793          	addi	a5,s0,-292
2178087c:	00078593          	mv	a1,a5
21780880:	fec42503          	lw	a0,-20(s0)
21780884:	b05ff0ef          	jal	ra,21780388 <_Z14itoaHex8DigitsmPc>
21780888:	edc40793          	addi	a5,s0,-292
2178088c:	00078513          	mv	a0,a5
21780890:	815ff0ef          	jal	ra,217800a4 <_Z5printPc>
21780894:	217817b7          	lui	a5,0x21781
21780898:	bec78513          	addi	a0,a5,-1044 # 21780bec <__data_rom_start+0x14>
2178089c:	809ff0ef          	jal	ra,217800a4 <_Z5printPc>
217808a0:	edc40793          	addi	a5,s0,-292
217808a4:	00078593          	mv	a1,a5
217808a8:	fe042503          	lw	a0,-32(s0)
217808ac:	addff0ef          	jal	ra,21780388 <_Z14itoaHex8DigitsmPc>
217808b0:	edc40793          	addi	a5,s0,-292
217808b4:	00078513          	mv	a0,a5
217808b8:	fecff0ef          	jal	ra,217800a4 <_Z5printPc>
217808bc:	217817b7          	lui	a5,0x21781
217808c0:	c1478513          	addi	a0,a5,-1004 # 21780c14 <__data_rom_start+0x3c>
217808c4:	fe0ff0ef          	jal	ra,217800a4 <_Z5printPc>
217808c8:	edc40793          	addi	a5,s0,-292
217808cc:	00078593          	mv	a1,a5
217808d0:	fdc42503          	lw	a0,-36(s0)
217808d4:	ab5ff0ef          	jal	ra,21780388 <_Z14itoaHex8DigitsmPc>
217808d8:	edc40793          	addi	a5,s0,-292
217808dc:	00078513          	mv	a0,a5
217808e0:	fc4ff0ef          	jal	ra,217800a4 <_Z5printPc>
217808e4:	217817b7          	lui	a5,0x21781
217808e8:	bf478513          	addi	a0,a5,-1036 # 21780bf4 <__data_rom_start+0x1c>
217808ec:	fb8ff0ef          	jal	ra,217800a4 <_Z5printPc>
217808f0:	0140006f          	j	21780904 <_Z9testSDRAMv+0x3a4>
217808f4:	fec42783          	lw	a5,-20(s0)
217808f8:	00178793          	addi	a5,a5,1
217808fc:	fef42623          	sw	a5,-20(s0)
21780900:	f41ff06f          	j	21780840 <_Z9testSDRAMv+0x2e0>
21780904:	217817b7          	lui	a5,0x21781
21780908:	c1878513          	addi	a0,a5,-1000 # 21780c18 <__data_rom_start+0x40>
2178090c:	f98ff0ef          	jal	ra,217800a4 <_Z5printPc>
21780910:	000027b7          	lui	a5,0x2
21780914:	71078513          	addi	a0,a5,1808 # 2710 <__text_start-0x2177d8f0>
21780918:	bf1ff0ef          	jal	ra,21780508 <_Z11delayMsTestm>
2178091c:	00000793          	li	a5,0
21780920:	00078513          	mv	a0,a5
21780924:	12c12083          	lw	ra,300(sp)
21780928:	12812403          	lw	s0,296(sp)
2178092c:	12412483          	lw	s1,292(sp)
21780930:	13010113          	addi	sp,sp,304
21780934:	00008067          	ret

21780938 <main>:
21780938:	ee010113          	addi	sp,sp,-288
2178093c:	10112e23          	sw	ra,284(sp)
21780940:	10812c23          	sw	s0,280(sp)
21780944:	12010413          	addi	s0,sp,288
21780948:	217817b7          	lui	a5,0x21781
2178094c:	ec07a783          	lw	a5,-320(a5) # 21780ec0 <bsp>
21780950:	00600713          	li	a4,6
21780954:	00e7a423          	sw	a4,8(a5)
21780958:	217817b7          	lui	a5,0x21781
2178095c:	00007737          	lui	a4,0x7
21780960:	d4070713          	addi	a4,a4,-704 # 6d40 <__text_start-0x217792c0>
21780964:	f4e7a823          	sw	a4,-176(a5) # 21780f50 <displayRam>
21780968:	217817b7          	lui	a5,0x21781
2178096c:	f407aa23          	sw	zero,-172(a5) # 21780f54 <screenIndex>
21780970:	fe042623          	sw	zero,-20(s0)
21780974:	fec42703          	lw	a4,-20(s0)
21780978:	000017b7          	lui	a5,0x1
2178097c:	95f78793          	addi	a5,a5,-1697 # 95f <__text_start-0x2177f6a1>
21780980:	02e7c663          	blt	a5,a4,217809ac <main+0x74>
21780984:	217817b7          	lui	a5,0x21781
21780988:	f507a703          	lw	a4,-176(a5) # 21780f50 <displayRam>
2178098c:	fec42783          	lw	a5,-20(s0)
21780990:	00179793          	slli	a5,a5,0x1
21780994:	00f707b3          	add	a5,a4,a5
21780998:	00079023          	sh	zero,0(a5)
2178099c:	fec42783          	lw	a5,-20(s0)
217809a0:	00178793          	addi	a5,a5,1
217809a4:	fef42623          	sw	a5,-20(s0)
217809a8:	fcdff06f          	j	21780974 <main+0x3c>
217809ac:	217817b7          	lui	a5,0x21781
217809b0:	c2078513          	addi	a0,a5,-992 # 21780c20 <__data_rom_start+0x48>
217809b4:	ef0ff0ef          	jal	ra,217800a4 <_Z5printPc>
217809b8:	217817b7          	lui	a5,0x21781
217809bc:	c2478513          	addi	a0,a5,-988 # 21780c24 <__data_rom_start+0x4c>
217809c0:	ee4ff0ef          	jal	ra,217800a4 <_Z5printPc>
217809c4:	217817b7          	lui	a5,0x21781
217809c8:	c4078513          	addi	a0,a5,-960 # 21780c40 <__data_rom_start+0x68>
217809cc:	ed8ff0ef          	jal	ra,217800a4 <_Z5printPc>
217809d0:	217817b7          	lui	a5,0x21781
217809d4:	c5c78513          	addi	a0,a5,-932 # 21780c5c <__data_rom_start+0x84>
217809d8:	eccff0ef          	jal	ra,217800a4 <_Z5printPc>
217809dc:	217817b7          	lui	a5,0x21781
217809e0:	c7878513          	addi	a0,a5,-904 # 21780c78 <__data_rom_start+0xa0>
217809e4:	ec0ff0ef          	jal	ra,217800a4 <_Z5printPc>
217809e8:	217817b7          	lui	a5,0x21781
217809ec:	c9478513          	addi	a0,a5,-876 # 21780c94 <__data_rom_start+0xbc>
217809f0:	eb4ff0ef          	jal	ra,217800a4 <_Z5printPc>
217809f4:	217817b7          	lui	a5,0x21781
217809f8:	cb078513          	addi	a0,a5,-848 # 21780cb0 <__data_rom_start+0xd8>
217809fc:	ea8ff0ef          	jal	ra,217800a4 <_Z5printPc>
21780a00:	217817b7          	lui	a5,0x21781
21780a04:	ccc78513          	addi	a0,a5,-820 # 21780ccc <__data_rom_start+0xf4>
21780a08:	e9cff0ef          	jal	ra,217800a4 <_Z5printPc>
21780a0c:	217817b7          	lui	a5,0x21781
21780a10:	ce878513          	addi	a0,a5,-792 # 21780ce8 <__data_rom_start+0x110>
21780a14:	e90ff0ef          	jal	ra,217800a4 <_Z5printPc>
21780a18:	217817b7          	lui	a5,0x21781
21780a1c:	93878793          	addi	a5,a5,-1736 # 21780938 <main>
21780a20:	ee840713          	addi	a4,s0,-280
21780a24:	00070593          	mv	a1,a4
21780a28:	00078513          	mv	a0,a5
21780a2c:	95dff0ef          	jal	ra,21780388 <_Z14itoaHex8DigitsmPc>
21780a30:	ee840793          	addi	a5,s0,-280
21780a34:	00078513          	mv	a0,a5
21780a38:	e6cff0ef          	jal	ra,217800a4 <_Z5printPc>
21780a3c:	217817b7          	lui	a5,0x21781
21780a40:	c2078513          	addi	a0,a5,-992 # 21780c20 <__data_rom_start+0x48>
21780a44:	e60ff0ef          	jal	ra,217800a4 <_Z5printPc>
21780a48:	217817b7          	lui	a5,0x21781
21780a4c:	d0078513          	addi	a0,a5,-768 # 21780d00 <__data_rom_start+0x128>
21780a50:	e54ff0ef          	jal	ra,217800a4 <_Z5printPc>
21780a54:	217817b7          	lui	a5,0x21781
21780a58:	ec47a783          	lw	a5,-316(a5) # 21780ec4 <sdrdma>
21780a5c:	0007a783          	lw	a5,0(a5)
21780a60:	ee840713          	addi	a4,s0,-280
21780a64:	00070593          	mv	a1,a4
21780a68:	00078513          	mv	a0,a5
21780a6c:	91dff0ef          	jal	ra,21780388 <_Z14itoaHex8DigitsmPc>
21780a70:	ee840793          	addi	a5,s0,-280
21780a74:	00078513          	mv	a0,a5
21780a78:	e2cff0ef          	jal	ra,217800a4 <_Z5printPc>
21780a7c:	217817b7          	lui	a5,0x21781
21780a80:	d1c78513          	addi	a0,a5,-740 # 21780d1c <__data_rom_start+0x144>
21780a84:	e20ff0ef          	jal	ra,217800a4 <_Z5printPc>
21780a88:	217817b7          	lui	a5,0x21781
21780a8c:	ec47a783          	lw	a5,-316(a5) # 21780ec4 <sdrdma>
21780a90:	0047a783          	lw	a5,4(a5)
21780a94:	ee840713          	addi	a4,s0,-280
21780a98:	00070593          	mv	a1,a4
21780a9c:	00078513          	mv	a0,a5
21780aa0:	8e9ff0ef          	jal	ra,21780388 <_Z14itoaHex8DigitsmPc>
21780aa4:	ee840793          	addi	a5,s0,-280
21780aa8:	00078513          	mv	a0,a5
21780aac:	df8ff0ef          	jal	ra,217800a4 <_Z5printPc>
21780ab0:	217817b7          	lui	a5,0x21781
21780ab4:	ec47a783          	lw	a5,-316(a5) # 21780ec4 <sdrdma>
21780ab8:	0007a703          	lw	a4,0(a5)
21780abc:	800007b7          	lui	a5,0x80000
21780ac0:	00378793          	addi	a5,a5,3 # 80000003 <__ramend+0x5e800003>
21780ac4:	02f71263          	bne	a4,a5,21780ae8 <main+0x1b0>
21780ac8:	217817b7          	lui	a5,0x21781
21780acc:	ec47a783          	lw	a5,-316(a5) # 21780ec4 <sdrdma>
21780ad0:	0047a703          	lw	a4,4(a5)
21780ad4:	202417b7          	lui	a5,0x20241
21780ad8:	80678793          	addi	a5,a5,-2042 # 20240806 <__text_start-0x153f7fa>
21780adc:	00e7f663          	bgeu	a5,a4,21780ae8 <main+0x1b0>
21780ae0:	00100793          	li	a5,1
21780ae4:	0080006f          	j	21780aec <main+0x1b4>
21780ae8:	00000793          	li	a5,0
21780aec:	00078a63          	beqz	a5,21780b00 <main+0x1c8>
21780af0:	217817b7          	lui	a5,0x21781
21780af4:	d2078513          	addi	a0,a5,-736 # 21780d20 <__data_rom_start+0x148>
21780af8:	dacff0ef          	jal	ra,217800a4 <_Z5printPc>
21780afc:	0140006f          	j	21780b10 <main+0x1d8>
21780b00:	217817b7          	lui	a5,0x21781
21780b04:	d2878513          	addi	a0,a5,-728 # 21780d28 <__data_rom_start+0x150>
21780b08:	d9cff0ef          	jal	ra,217800a4 <_Z5printPc>
21780b0c:	0000006f          	j	21780b0c <main+0x1d4>
21780b10:	217817b7          	lui	a5,0x21781
21780b14:	32000713          	li	a4,800
21780b18:	f4e7aa23          	sw	a4,-172(a5) # 21780f54 <screenIndex>
21780b1c:	a45ff0ef          	jal	ra,21780560 <_Z9testSDRAMv>
21780b20:	ff1ff06f          	j	21780b10 <main+0x1d8>

21780b24 <__divsi3>:
21780b24:	06054063          	bltz	a0,21780b84 <__umodsi3+0x10>
21780b28:	0605c663          	bltz	a1,21780b94 <__umodsi3+0x20>

21780b2c <__udivsi3>:
21780b2c:	00058613          	mv	a2,a1
21780b30:	00050593          	mv	a1,a0
21780b34:	fff00513          	li	a0,-1
21780b38:	02060c63          	beqz	a2,21780b70 <__udivsi3+0x44>
21780b3c:	00100693          	li	a3,1
21780b40:	00b67a63          	bgeu	a2,a1,21780b54 <__udivsi3+0x28>
21780b44:	00c05863          	blez	a2,21780b54 <__udivsi3+0x28>
21780b48:	00161613          	slli	a2,a2,0x1
21780b4c:	00169693          	slli	a3,a3,0x1
21780b50:	feb66ae3          	bltu	a2,a1,21780b44 <__udivsi3+0x18>
21780b54:	00000513          	li	a0,0
21780b58:	00c5e663          	bltu	a1,a2,21780b64 <__udivsi3+0x38>
21780b5c:	40c585b3          	sub	a1,a1,a2
21780b60:	00d56533          	or	a0,a0,a3
21780b64:	0016d693          	srli	a3,a3,0x1
21780b68:	00165613          	srli	a2,a2,0x1
21780b6c:	fe0696e3          	bnez	a3,21780b58 <__udivsi3+0x2c>
21780b70:	00008067          	ret

21780b74 <__umodsi3>:
21780b74:	00008293          	mv	t0,ra
21780b78:	fb5ff0ef          	jal	ra,21780b2c <__udivsi3>
21780b7c:	00058513          	mv	a0,a1
21780b80:	00028067          	jr	t0
21780b84:	40a00533          	neg	a0,a0
21780b88:	0005d863          	bgez	a1,21780b98 <__umodsi3+0x24>
21780b8c:	40b005b3          	neg	a1,a1
21780b90:	f9dff06f          	j	21780b2c <__udivsi3>
21780b94:	40b005b3          	neg	a1,a1
21780b98:	00008293          	mv	t0,ra
21780b9c:	f91ff0ef          	jal	ra,21780b2c <__udivsi3>
21780ba0:	40a00533          	neg	a0,a0
21780ba4:	00028067          	jr	t0

21780ba8 <__modsi3>:
21780ba8:	00008293          	mv	t0,ra
21780bac:	0005ca63          	bltz	a1,21780bc0 <__modsi3+0x18>
21780bb0:	00054c63          	bltz	a0,21780bc8 <__modsi3+0x20>
21780bb4:	f79ff0ef          	jal	ra,21780b2c <__udivsi3>
21780bb8:	00058513          	mv	a0,a1
21780bbc:	00028067          	jr	t0
21780bc0:	40b005b3          	neg	a1,a1
21780bc4:	fe0558e3          	bgez	a0,21780bb4 <__modsi3+0xc>
21780bc8:	40a00533          	neg	a0,a0
21780bcc:	f61ff0ef          	jal	ra,21780b2c <__udivsi3>
21780bd0:	40b00533          	neg	a0,a1
21780bd4:	00028067          	jr	t0
